
simple:     file format elf32-littlearm


Disassembly of section .interp:

00010154 <.interp>:
   10154:	62696c2f 	rsbvs	r6, r9, #12032	; 0x2f00
   10158:	2d646c2f 	stclcs	12, cr6, [r4, #-188]!	; 0xffffff44
   1015c:	756e696c 	strbvc	r6, [lr, #-2412]!	; 0xfffff694
   10160:	72612d78 	rsbvc	r2, r1, #120, 26	; 0x1e00
   10164:	2e66686d 	cdpcs	8, 6, cr6, cr6, cr13, {3}
   10168:	332e6f73 			; <UNDEFINED> instruction: 0x332e6f73
	...

Disassembly of section .note.ABI-tag:

00010170 <.note.ABI-tag>:
   10170:	00000004 	andeq	r0, r0, r4
   10174:	00000010 	andeq	r0, r0, r0, lsl r0
   10178:	00000001 	andeq	r0, r0, r1
   1017c:	00554e47 	subseq	r4, r5, r7, asr #28
   10180:	00000000 	andeq	r0, r0, r0
   10184:	00000003 	andeq	r0, r0, r3
   10188:	00000002 	andeq	r0, r0, r2
   1018c:	00000000 	andeq	r0, r0, r0

Disassembly of section .note.gnu.build-id:

00010190 <.note.gnu.build-id>:
   10190:	00000004 	andeq	r0, r0, r4
   10194:	00000014 	andeq	r0, r0, r4, lsl r0
   10198:	00000003 	andeq	r0, r0, r3
   1019c:	00554e47 	subseq	r4, r5, r7, asr #28
   101a0:	72afdc7b 	adcvc	sp, pc, #31488	; 0x7b00
   101a4:	f30754b1 	vqshl.u8	d5, d17, d23
   101a8:	8d56acaa 	ldclhi	12, cr10, [r6, #-680]	; 0xfffffd58
   101ac:	fe82a3f5 	mcr2	3, 4, sl, cr2, cr5, {7}
   101b0:	a6b8e343 	ldrtge	lr, [r8], r3, asr #6

Disassembly of section .gnu.hash:

000101b4 <.gnu.hash>:
   101b4:	00000011 	andeq	r0, r0, r1, lsl r0
   101b8:	00000006 	andeq	r0, r0, r6
   101bc:	00000004 	andeq	r0, r0, r4
   101c0:	00000007 	andeq	r0, r0, r7
   101c4:	015805e6 	cmpeq	r8, r6, ror #11
   101c8:	53ac4012 			; <UNDEFINED> instruction: 0x53ac4012
   101cc:	18102084 	ldmdane	r0, {r2, r7, sp}
   101d0:	25c57026 	strbcs	r7, [r5, #38]	; 0x26
   101d4:	00000006 	andeq	r0, r0, r6
   101d8:	00000009 	andeq	r0, r0, r9
   101dc:	0000000a 	andeq	r0, r0, sl
   101e0:	0000000b 	andeq	r0, r0, fp
	...
   101ec:	0000000d 	andeq	r0, r0, sp
   101f0:	00000013 	andeq	r0, r0, r3, lsl r0
   101f4:	00000000 	andeq	r0, r0, r0
   101f8:	00000016 	andeq	r0, r0, r6, lsl r0
   101fc:	00000017 	andeq	r0, r0, r7, lsl r0
   10200:	00000018 	andeq	r0, r0, r8, lsl r0
   10204:	00000000 	andeq	r0, r0, r0
   10208:	00000019 	andeq	r0, r0, r9, lsl r0
   1020c:	00000000 	andeq	r0, r0, r0
   10210:	0000001a 	andeq	r0, r0, sl, lsl r0
   10214:	0000001b 	andeq	r0, r0, fp, lsl r0
   10218:	2e4bc6e0 	cdpcs	6, 4, cr12, cr11, cr0, {7}
   1021c:	0f750146 	svceq	0x00750146
   10220:	ff87a407 			; <UNDEFINED> instruction: 0xff87a407
   10224:	7c9bd777 	ldcvc	7, cr13, [fp], {119}	; 0x77
   10228:	0f758e33 	svceq	0x00758e33
   1022c:	0f738b7c 	svceq	0x00738b7c
   10230:	0f11ed7d 	svceq	0x0011ed7d
   10234:	7c9ab170 	ldfvcd	f3, [sl], {112}	; 0x70
   10238:	f51166dc 			; <UNDEFINED> instruction: 0xf51166dc
   1023c:	f07392ec 			; <UNDEFINED> instruction: 0xf07392ec
   10240:	bcfff93e 			; <UNDEFINED> instruction: 0xbcfff93e
   10244:	b66b4978 			; <UNDEFINED> instruction: 0xb66b4978
   10248:	f63d4e2f 			; <UNDEFINED> instruction: 0xf63d4e2f
   1024c:	1c8bf238 	sfmne	f7, 1, [fp], {56}	; 0x38
   10250:	38f33f34 	ldmcc	r3!, {r2, r4, r5, r8, r9, sl, fp, ip, sp}^
   10254:	a4f92301 	ldrbtge	r2, [r9], #769	; 0x301
   10258:	fd09cf21 	stc2	15, cr12, [r9, #-132]	; 0xffffff7c
   1025c:	0ea4b293 	mcreq	2, 5, fp, cr4, cr3, {4}
   10260:	8ff9ac09 	svchi	0x00f9ac09
   10264:	0f3b9a5b 	svceq	0x003b9a5b
   10268:	156b2bb9 	strbne	r2, [fp, #-3001]!	; 0xfffff447
   1026c:	a357710a 	cmpge	r7, #-2147483646	; 0x80000002
   10270:	fe76ea17 	mrc2	10, 3, lr, cr6, cr7, {0}	; <UNPREDICTABLE>

Disassembly of section .dynsym:

00010274 <.dynsym>:
	...
   10284:	0000001f 	andeq	r0, r0, pc, lsl r0
	...
   10290:	00000020 	andeq	r0, r0, r0, lsr #32
   10294:	00000033 	andeq	r0, r0, r3, lsr r0
	...
   102a0:	00000020 	andeq	r0, r0, r0, lsr #32
   102a4:	000000a8 	andeq	r0, r0, r8, lsr #1
	...
   102b0:	00000012 	andeq	r0, r0, r2, lsl r0
   102b4:	00000010 	andeq	r0, r0, r0, lsl r0
	...
   102c0:	00000020 	andeq	r0, r0, r0, lsr #32
   102c4:	0000004f 	andeq	r0, r0, pc, asr #32
	...
   102d0:	00000020 	andeq	r0, r0, r0, lsr #32
   102d4:	000000dd 	ldrdeq	r0, [r0], -sp
	...
   102e0:	00000012 	andeq	r0, r0, r2, lsl r0
   102e4:	0000013b 	andeq	r0, r0, fp, lsr r1
	...
   102f0:	00000012 	andeq	r0, r0, r2, lsl r0
   102f4:	0000012d 	andeq	r0, r0, sp, lsr #2
	...
   10300:	00000012 	andeq	r0, r0, r2, lsl r0
   10304:	000000d8 	ldrdeq	r0, [r0], -r8
	...
   10310:	00000012 	andeq	r0, r0, r2, lsl r0
   10314:	00000112 	andeq	r0, r0, r2, lsl r1
	...
   10320:	00000012 	andeq	r0, r0, r2, lsl r0
   10324:	000000d7 	ldrdeq	r0, [r0], -r7
	...
   10330:	00000012 	andeq	r0, r0, r2, lsl r0
   10334:	000000f6 	strdeq	r0, [r0], -r6
	...
   10340:	00000012 	andeq	r0, r0, r2, lsl r0
   10344:	000000fc 	strdeq	r0, [r0], -ip
	...
   10350:	00000012 	andeq	r0, r0, r2, lsl r0
   10354:	0000007e 	andeq	r0, r0, lr, ror r0
	...
   10360:	00000012 	andeq	r0, r0, r2, lsl r0
   10364:	00000141 	andeq	r0, r0, r1, asr #2
	...
   10370:	00000012 	andeq	r0, r0, r2, lsl r0
   10374:	00000149 	andeq	r0, r0, r9, asr #2
	...
   10380:	00000012 	andeq	r0, r0, r2, lsl r0
   10384:	00000069 	andeq	r0, r0, r9, rrx
	...
   10390:	00000012 	andeq	r0, r0, r2, lsl r0
   10394:	0000015a 	andeq	r0, r0, sl, asr r1
	...
   103a0:	00000012 	andeq	r0, r0, r2, lsl r0
   103a4:	0000011f 	andeq	r0, r0, pc, lsl r1
   103a8:	000261b0 			; <UNDEFINED> instruction: 0x000261b0
   103ac:	00000004 	andeq	r0, r0, r4
   103b0:	00190011 	andseq	r0, r9, r1, lsl r0
   103b4:	000000bf 	strheq	r0, [r0], -pc	; <UNPREDICTABLE>
	...
   103c0:	00000012 	andeq	r0, r0, r2, lsl r0
   103c4:	00000101 	andeq	r0, r0, r1, lsl #2
	...
   103d0:	00000012 	andeq	r0, r0, r2, lsl r0
   103d4:	00000118 	andeq	r0, r0, r8, lsl r1
	...
   103e0:	00000012 	andeq	r0, r0, r2, lsl r0
   103e4:	00000126 	andeq	r0, r0, r6, lsr #2
	...
   103f0:	00000012 	andeq	r0, r0, r2, lsl r0
   103f4:	00000151 	andeq	r0, r0, r1, asr r1
	...
   10400:	00000012 	andeq	r0, r0, r2, lsl r0
   10404:	00000119 	andeq	r0, r0, r9, lsl r1
	...
   10410:	00000012 	andeq	r0, r0, r2, lsl r0
   10414:	0000014a 	andeq	r0, r0, sl, asr #2
	...
   10420:	00000012 	andeq	r0, r0, r2, lsl r0
   10424:	000000ec 	andeq	r0, r0, ip, ror #1
	...
   10430:	00000012 	andeq	r0, r0, r2, lsl r0
   10434:	00000134 	andeq	r0, r0, r4, lsr r1
	...
   10440:	00000012 	andeq	r0, r0, r2, lsl r0

Disassembly of section .dynstr:

00010444 <.dynstr>:
   10444:	62696c00 	rsbvs	r6, r9, #0, 24
   10448:	63647473 	cmnvs	r4, #1929379840	; 0x73000000
   1044c:	732e2b2b 			; <UNDEFINED> instruction: 0x732e2b2b
   10450:	00362e6f 	eorseq	r2, r6, pc, ror #28
   10454:	6d675f5f 	stclvs	15, cr5, [r7, #-380]!	; 0xfffffe84
   10458:	735f6e6f 	cmpvc	pc, #1776	; 0x6f0
   1045c:	74726174 	ldrbtvc	r6, [r2], #-372	; 0xfffffe8c
   10460:	5f005f5f 	svcpl	0x00005f5f
   10464:	525f764a 	subspl	r7, pc, #77594624	; 0x4a00000
   10468:	73696765 	cmnvc	r9, #26476544	; 0x1940000
   1046c:	43726574 	cmnmi	r2, #116, 10	; 0x1d000000
   10470:	7373616c 	cmnvc	r3, #108, 2
   10474:	5f007365 	svcpl	0x00007365
   10478:	5f4d5449 	svcpl	0x004d5449
   1047c:	65726564 	ldrbvs	r6, [r2, #-1380]!	; 0xfffffa9c
   10480:	74736967 	ldrbtvc	r6, [r3], #-2407	; 0xfffff699
   10484:	4d547265 	lfmmi	f7, 2, [r4, #-404]	; 0xfffffe6c
   10488:	6e6f6c43 	cdpvs	12, 6, cr6, cr15, cr3, {2}
   1048c:	62615465 	rsbvs	r5, r1, #1694498816	; 0x65000000
   10490:	5f00656c 	svcpl	0x0000656c
   10494:	5f4d5449 	svcpl	0x004d5449
   10498:	69676572 	stmdbvs	r7!, {r1, r4, r5, r6, r8, sl, sp, lr}^
   1049c:	72657473 	rsbvc	r7, r5, #1929379840	; 0x73000000
   104a0:	6c434d54 	mcrrvs	13, 5, r4, r3, cr4
   104a4:	54656e6f 	strbtpl	r6, [r5], #-3695	; 0xfffff191
   104a8:	656c6261 	strbvs	r6, [ip, #-609]!	; 0xfffffd9f
   104ac:	675f5f00 	ldrbvs	r5, [pc, -r0, lsl #30]
   104b0:	705f7878 	subsvc	r7, pc, r8, ror r8	; <UNPREDICTABLE>
   104b4:	6f737265 	svcvs	0x00737265
   104b8:	696c616e 	stmdbvs	ip!, {r1, r2, r3, r5, r6, r8, sp, lr}^
   104bc:	765f7974 			; <UNDEFINED> instruction: 0x765f7974
   104c0:	5f5f0030 	svcpl	0x005f0030
   104c4:	5f617863 	svcpl	0x00617863
   104c8:	5f646e65 	svcpl	0x00646e65
   104cc:	61656c63 	cmnvs	r5, r3, ror #24
   104d0:	0070756e 	rsbseq	r7, r0, lr, ror #10
   104d4:	6d62696c 			; <UNDEFINED> instruction: 0x6d62696c
   104d8:	2e6f732e 	cdpcs	3, 6, cr7, cr15, cr14, {1}
   104dc:	696c0036 	stmdbvs	ip!, {r1, r2, r4, r5}^
   104e0:	63636762 	cmnvs	r3, #25690112	; 0x1880000
   104e4:	732e735f 			; <UNDEFINED> instruction: 0x732e735f
   104e8:	00312e6f 	eorseq	r2, r1, pc, ror #28
   104ec:	65615f5f 	strbvs	r5, [r1, #-3935]!	; 0xfffff0a1
   104f0:	5f696261 	svcpl	0x00696261
   104f4:	69776e75 	ldmdbvs	r7!, {r0, r2, r4, r5, r6, r9, sl, fp, sp, lr}^
   104f8:	635f646e 	cmpvs	pc, #1845493760	; 0x6e000000
   104fc:	705f7070 	subsvc	r7, pc, r0, ror r0	; <UNPREDICTABLE>
   10500:	5f003072 	svcpl	0x00003072
   10504:	6165615f 	cmnvs	r5, pc, asr r1
   10508:	755f6962 	ldrbvc	r6, [pc, #-2402]	; fbae <_init-0xb82>
   1050c:	76696469 	strbtvc	r6, [r9], -r9, ror #8
   10510:	62696c00 	rsbvs	r6, r9, #0, 24
   10514:	6f732e63 	svcvs	0x00732e63
   10518:	6600362e 	strvs	r3, [r0], -lr, lsr #12
   1051c:	6e65706f 	cdpvs	0, 6, cr7, cr5, cr15, {3}
   10520:	736f7000 	cmnvc	pc, #0
   10524:	6d5f7869 	ldclvs	8, cr7, [pc, #-420]	; 10388 <_init-0x3a8>
   10528:	6c616d65 	stclvs	13, cr6, [r1], #-404	; 0xfffffe6c
   1052c:	006e6769 	rsbeq	r6, lr, r9, ror #14
   10530:	6f6e616e 	svcvs	0x006e616e
   10534:	65656c73 	strbvs	r6, [r5, #-3187]!	; 0xfffff38d
   10538:	62610070 	rsbvs	r0, r1, #112	; 0x70
   1053c:	0074726f 	rsbseq	r7, r4, pc, ror #4
   10540:	70616d6d 	rsbvc	r6, r1, sp, ror #26
   10544:	655f5f00 	ldrbvs	r5, [pc, #-3840]	; f64c <_init-0x10e4>
   10548:	6f6e7272 	svcvs	0x006e7272
   1054c:	636f6c5f 	cmnvs	pc, #24320	; 0x5f00
   10550:	6f697461 	svcvs	0x00697461
   10554:	7366006e 	cmnvc	r6, #110	; 0x6e
   10558:	006b6565 	rsbeq	r6, fp, r5, ror #10
   1055c:	6f6c6366 	svcvs	0x006c6366
   10560:	73006573 	movwvc	r6, #1395	; 0x573
   10564:	72656474 	rsbvc	r6, r5, #116, 8	; 0x74000000
   10568:	756d0072 	strbvc	r0, [sp, #-114]!	; 0xffffff8e
   1056c:	70616d6e 	rsbvc	r6, r1, lr, ror #26
   10570:	74656700 	strbtvc	r6, [r5], #-1792	; 0xfffff900
   10574:	00646975 	rsbeq	r6, r4, r5, ror r9
   10578:	69727766 	ldmdbvs	r2!, {r1, r2, r5, r6, r8, r9, sl, ip, sp, lr}^
   1057c:	66006574 			; <UNDEFINED> instruction: 0x66006574
   10580:	64616572 	strbtvs	r6, [r1], #-1394	; 0xfffffa8e
   10584:	74656700 	strbtvc	r6, [r5], #-1792	; 0xfffff900
   10588:	64697565 	strbtvs	r7, [r9], #-1381	; 0xfffffa9b
   1058c:	72706600 	rsbsvc	r6, r0, #0, 12
   10590:	66746e69 	ldrbtvs	r6, [r4], -r9, ror #28
   10594:	72747300 	rsbsvc	r7, r4, #0, 6
   10598:	6f727265 	svcvs	0x00727265
   1059c:	5f5f0072 	svcpl	0x005f0072
   105a0:	6362696c 	cmnvs	r2, #108, 18	; 0x1b0000
   105a4:	6174735f 	cmnvs	r4, pc, asr r3
   105a8:	6d5f7472 	cfldrdvs	mvd7, [pc, #-456]	; 103e8 <_init-0x348>
   105ac:	006e6961 	rsbeq	r6, lr, r1, ror #18
   105b0:	5f434347 	svcpl	0x00434347
   105b4:	00352e33 	eorseq	r2, r5, r3, lsr lr
   105b8:	41585843 	cmpmi	r8, r3, asr #16
   105bc:	315f4942 	cmpcc	pc, r2, asr #18
   105c0:	4700332e 	strmi	r3, [r0, -lr, lsr #6]
   105c4:	4342494c 	movtmi	r4, #10572	; 0x294c
   105c8:	342e325f 	strtcc	r3, [lr], #-607	; 0xfffffda1
	...

Disassembly of section .gnu.version:

000105ce <.gnu.version>:
   105ce:	00000000 	andeq	r0, r0, r0
   105d2:	00040000 	andeq	r0, r4, r0
   105d6:	00000000 	andeq	r0, r0, r0
   105da:	00020002 	andeq	r0, r2, r2
   105de:	00020002 	andeq	r0, r2, r2
   105e2:	00020002 	andeq	r0, r2, r2
   105e6:	00020002 	andeq	r0, r2, r2
   105ea:	00020003 	andeq	r0, r2, r3
   105ee:	00030002 	andeq	r0, r3, r2
   105f2:	00020002 	andeq	r0, r2, r2
   105f6:	00020004 	andeq	r0, r2, r4
   105fa:	00020002 	andeq	r0, r2, r2
   105fe:	00020002 	andeq	r0, r2, r2
   10602:	00020002 	andeq	r0, r2, r2
   10606:	Address 0x00010606 is out of bounds.


Disassembly of section .gnu.version_r:

00010608 <.gnu.version_r>:
   10608:	00010001 	andeq	r0, r1, r1
   1060c:	0000009a 	muleq	r0, sl, r0
   10610:	00000010 	andeq	r0, r0, r0, lsl r0
   10614:	00000020 	andeq	r0, r0, r0, lsr #32
   10618:	0b792655 	bleq	1e59f74 <__bss_end__+0x1e33db0>
   1061c:	00040000 	andeq	r0, r4, r0
   10620:	0000016c 	andeq	r0, r0, ip, ror #2
   10624:	00000000 	andeq	r0, r0, r0
   10628:	00010001 	andeq	r0, r1, r1
   1062c:	00000001 	andeq	r0, r0, r1
   10630:	00000010 	andeq	r0, r0, r0, lsl r0
   10634:	00000020 	andeq	r0, r0, r0, lsr #32
   10638:	056bafd3 	strbeq	sl, [fp, #-4051]!	; 0xfffff02d
   1063c:	00030000 	andeq	r0, r3, r0
   10640:	00000174 	andeq	r0, r0, r4, ror r1
   10644:	00000000 	andeq	r0, r0, r0
   10648:	00010001 	andeq	r0, r1, r1
   1064c:	000000cd 	andeq	r0, r0, sp, asr #1
   10650:	00000010 	andeq	r0, r0, r0, lsl r0
   10654:	00000000 	andeq	r0, r0, r0
   10658:	0d696914 			; <UNDEFINED> instruction: 0x0d696914
   1065c:	00020000 	andeq	r0, r2, r0
   10660:	0000017f 	andeq	r0, r0, pc, ror r1
   10664:	00000000 	andeq	r0, r0, r0

Disassembly of section .rel.dyn:

00010668 <.rel.dyn>:
   10668:	00026068 	andeq	r6, r2, r8, rrx
   1066c:	00000415 	andeq	r0, r0, r5, lsl r4
   10670:	000261b0 			; <UNDEFINED> instruction: 0x000261b0
   10674:	00001314 	andeq	r1, r0, r4, lsl r3

Disassembly of section .rel.plt:

00010678 <.rel.plt>:
   10678:	0002600c 	andeq	r6, r2, ip
   1067c:	00000616 	andeq	r0, r0, r6, lsl r6
   10680:	00026010 	andeq	r6, r2, r0, lsl r0
   10684:	00000a16 	andeq	r0, r0, r6, lsl sl
   10688:	00026014 	andeq	r6, r2, r4, lsl r0
   1068c:	00001a16 	andeq	r1, r0, r6, lsl sl
   10690:	00026018 	andeq	r6, r2, r8, lsl r0
   10694:	00001816 	andeq	r1, r0, r6, lsl r8
   10698:	0002601c 	andeq	r6, r2, ip, lsl r0
   1069c:	00001b16 	andeq	r1, r0, r6, lsl fp
   106a0:	00026020 	andeq	r6, r2, r0, lsr #32
   106a4:	00001916 	andeq	r1, r0, r6, lsl r9
   106a8:	00026024 	andeq	r6, r2, r4, lsr #32
   106ac:	00000b16 	andeq	r0, r0, r6, lsl fp
   106b0:	00026028 	andeq	r6, r2, r8, lsr #32
   106b4:	00000c16 	andeq	r0, r0, r6, lsl ip
   106b8:	0002602c 	andeq	r6, r2, ip, lsr #32
   106bc:	00000d16 	andeq	r0, r0, r6, lsl sp
   106c0:	00026030 	andeq	r6, r2, r0, lsr r0
   106c4:	00000916 	andeq	r0, r0, r6, lsl r9
   106c8:	00026034 	andeq	r6, r2, r4, lsr r0
   106cc:	00000716 	andeq	r0, r0, r6, lsl r7
   106d0:	00026038 	andeq	r6, r2, r8, lsr r0
   106d4:	00000e16 	andeq	r0, r0, r6, lsl lr
   106d8:	0002603c 	andeq	r6, r2, ip, lsr r0
   106dc:	00000816 	andeq	r0, r0, r6, lsl r8
   106e0:	00026040 	andeq	r6, r2, r0, asr #32
   106e4:	00001416 	andeq	r1, r0, r6, lsl r4
   106e8:	00026044 	andeq	r6, r2, r4, asr #32
   106ec:	00001c16 	andeq	r1, r0, r6, lsl ip
   106f0:	00026048 	andeq	r6, r2, r8, asr #32
   106f4:	00000f16 	andeq	r0, r0, r6, lsl pc
   106f8:	0002604c 	andeq	r6, r2, ip, asr #32
   106fc:	00001716 	andeq	r1, r0, r6, lsl r7
   10700:	00026050 	andeq	r6, r2, r0, asr r0
   10704:	00001016 	andeq	r1, r0, r6, lsl r0
   10708:	00026054 	andeq	r6, r2, r4, asr r0
   1070c:	00001616 	andeq	r1, r0, r6, lsl r6
   10710:	00026058 	andeq	r6, r2, r8, asr r0
   10714:	00001116 	andeq	r1, r0, r6, lsl r1
   10718:	0002605c 	andeq	r6, r2, ip, asr r0
   1071c:	00001516 	andeq	r1, r0, r6, lsl r5
   10720:	00026060 	andeq	r6, r2, r0, rrx
   10724:	00001216 	andeq	r1, r0, r6, lsl r2
   10728:	00026064 	andeq	r6, r2, r4, rrx
   1072c:	00000416 	andeq	r0, r0, r6, lsl r4

Disassembly of section .init:

00010730 <_init>:
   10730:	e92d4008 	push	{r3, lr}
   10734:	eb0000c3 	bl	10a48 <call_weak_fn>
   10738:	e8bd8008 	pop	{r3, pc}

Disassembly of section .plt:

0001073c <.plt>:
   1073c:	e52de004 	push	{lr}		; (str lr, [sp, #-4]!)
   10740:	e59fe004 	ldr	lr, [pc, #4]	; 1074c <.plt+0x10>
   10744:	e08fe00e 	add	lr, pc, lr
   10748:	e5bef008 	ldr	pc, [lr, #8]!
   1074c:	000158b4 			; <UNDEFINED> instruction: 0x000158b4

00010750 <posix_memalign@plt>:
   10750:	e28fc600 	add	ip, pc, #0, 12
   10754:	e28cca15 	add	ip, ip, #86016	; 0x15000
   10758:	e5bcf8b4 	ldr	pc, [ip, #2228]!	; 0x8b4

0001075c <fseek@plt>:
   1075c:	e28fc600 	add	ip, pc, #0, 12
   10760:	e28cca15 	add	ip, ip, #86016	; 0x15000
   10764:	e5bcf8ac 	ldr	pc, [ip, #2220]!	; 0x8ac

00010768 <printf@plt>:
   10768:	e28fc600 	add	ip, pc, #0, 12
   1076c:	e28cca15 	add	ip, ip, #86016	; 0x15000
   10770:	e5bcf8a4 	ldr	pc, [ip, #2212]!	; 0x8a4

00010774 <strerror@plt>:
   10774:	e28fc600 	add	ip, pc, #0, 12
   10778:	e28cca15 	add	ip, ip, #86016	; 0x15000
   1077c:	e5bcf89c 	ldr	pc, [ip, #2204]!	; 0x89c

00010780 <nanosleep@plt>:
   10780:	e28fc600 	add	ip, pc, #0, 12
   10784:	e28cca15 	add	ip, ip, #86016	; 0x15000
   10788:	e5bcf894 	ldr	pc, [ip, #2196]!	; 0x894

0001078c <close@plt>:
   1078c:	e28fc600 	add	ip, pc, #0, 12
   10790:	e28cca15 	add	ip, ip, #86016	; 0x15000
   10794:	e5bcf88c 	ldr	pc, [ip, #2188]!	; 0x88c

00010798 <fopen@plt>:
   10798:	e28fc600 	add	ip, pc, #0, 12
   1079c:	e28cca15 	add	ip, ip, #86016	; 0x15000
   107a0:	e5bcf884 	ldr	pc, [ip, #2180]!	; 0x884

000107a4 <abort@plt>:
   107a4:	e28fc600 	add	ip, pc, #0, 12
   107a8:	e28cca15 	add	ip, ip, #86016	; 0x15000
   107ac:	e5bcf87c 	ldr	pc, [ip, #2172]!	; 0x87c

000107b0 <mmap@plt>:
   107b0:	e28fc600 	add	ip, pc, #0, 12
   107b4:	e28cca15 	add	ip, ip, #86016	; 0x15000
   107b8:	e5bcf874 	ldr	pc, [ip, #2164]!	; 0x874

000107bc <open@plt>:
   107bc:	e28fc600 	add	ip, pc, #0, 12
   107c0:	e28cca15 	add	ip, ip, #86016	; 0x15000
   107c4:	e5bcf86c 	ldr	pc, [ip, #2156]!	; 0x86c

000107c8 <fread@plt>:
   107c8:	e28fc600 	add	ip, pc, #0, 12
   107cc:	e28cca15 	add	ip, ip, #86016	; 0x15000
   107d0:	e5bcf864 	ldr	pc, [ip, #2148]!	; 0x864

000107d4 <__cxa_end_cleanup@plt>:
   107d4:	e28fc600 	add	ip, pc, #0, 12
   107d8:	e28cca15 	add	ip, ip, #86016	; 0x15000
   107dc:	e5bcf85c 	ldr	pc, [ip, #2140]!	; 0x85c

000107e0 <getuid@plt>:
   107e0:	e28fc600 	add	ip, pc, #0, 12
   107e4:	e28cca15 	add	ip, ip, #86016	; 0x15000
   107e8:	e5bcf854 	ldr	pc, [ip, #2132]!	; 0x854

000107ec <__aeabi_uidiv@plt>:
   107ec:	e28fc600 	add	ip, pc, #0, 12
   107f0:	e28cca15 	add	ip, ip, #86016	; 0x15000
   107f4:	e5bcf84c 	ldr	pc, [ip, #2124]!	; 0x84c

000107f8 <fwrite@plt>:
   107f8:	e28fc600 	add	ip, pc, #0, 12
   107fc:	e28cca15 	add	ip, ip, #86016	; 0x15000
   10800:	e5bcf844 	ldr	pc, [ip, #2116]!	; 0x844

00010804 <geteuid@plt>:
   10804:	e28fc600 	add	ip, pc, #0, 12
   10808:	e28cca15 	add	ip, ip, #86016	; 0x15000
   1080c:	e5bcf83c 	ldr	pc, [ip, #2108]!	; 0x83c

00010810 <munmap@plt>:
   10810:	e28fc600 	add	ip, pc, #0, 12
   10814:	e28cca15 	add	ip, ip, #86016	; 0x15000
   10818:	e5bcf834 	ldr	pc, [ip, #2100]!	; 0x834

0001081c <fprintf@plt>:
   1081c:	e28fc600 	add	ip, pc, #0, 12
   10820:	e28cca15 	add	ip, ip, #86016	; 0x15000
   10824:	e5bcf82c 	ldr	pc, [ip, #2092]!	; 0x82c

00010828 <fclose@plt>:
   10828:	e28fc600 	add	ip, pc, #0, 12
   1082c:	e28cca15 	add	ip, ip, #86016	; 0x15000
   10830:	e5bcf824 	ldr	pc, [ip, #2084]!	; 0x824

00010834 <__gxx_personality_v0@plt>:
   10834:	e28fc600 	add	ip, pc, #0, 12
   10838:	e28cca15 	add	ip, ip, #86016	; 0x15000
   1083c:	e5bcf81c 	ldr	pc, [ip, #2076]!	; 0x81c

00010840 <__errno_location@plt>:
   10840:	e28fc600 	add	ip, pc, #0, 12
   10844:	e28cca15 	add	ip, ip, #86016	; 0x15000
   10848:	e5bcf814 	ldr	pc, [ip, #2068]!	; 0x814

0001084c <__libc_start_main@plt>:
   1084c:	e28fc600 	add	ip, pc, #0, 12
   10850:	e28cca15 	add	ip, ip, #86016	; 0x15000
   10854:	e5bcf80c 	ldr	pc, [ip, #2060]!	; 0x80c

00010858 <__gmon_start__@plt>:
   10858:	e28fc600 	add	ip, pc, #0, 12
   1085c:	e28cca15 	add	ip, ip, #86016	; 0x15000
   10860:	e5bcf804 	ldr	pc, [ip, #2052]!	; 0x804

Disassembly of section .text:

00010864 <main>:
   10864:	e52de004 	push	{lr}		; (str lr, [sp, #-4]!)
   10868:	e24dd00c 	sub	sp, sp, #12
   1086c:	ebffffdb 	bl	107e0 <getuid@plt>
   10870:	e3500000 	cmp	r0, #0
   10874:	1a00000b 	bne	108a8 <main+0x44>
   10878:	eb000f44 	bl	14590 <bcm2835_init>
   1087c:	e3500001 	cmp	r0, #1
   10880:	0a000011 	beq	108cc <main+0x68>
   10884:	e59f315c 	ldr	r3, [pc, #348]	; 109e8 <main+0x184>
   10888:	e3a02016 	mov	r2, #22
   1088c:	e3a01001 	mov	r1, #1
   10890:	e5933000 	ldr	r3, [r3]
   10894:	e59f0150 	ldr	r0, [pc, #336]	; 109ec <main+0x188>
   10898:	ebffffd6 	bl	107f8 <fwrite@plt>
   1089c:	e3e00001 	mvn	r0, #1
   108a0:	e28dd00c 	add	sp, sp, #12
   108a4:	e49df004 	pop	{pc}		; (ldr pc, [sp], #4)
   108a8:	e59f3138 	ldr	r3, [pc, #312]	; 109e8 <main+0x184>
   108ac:	e3a02028 	mov	r2, #40	; 0x28
   108b0:	e3a01001 	mov	r1, #1
   108b4:	e5933000 	ldr	r3, [r3]
   108b8:	e59f0130 	ldr	r0, [pc, #304]	; 109f0 <main+0x18c>
   108bc:	ebffffcd 	bl	107f8 <fwrite@plt>
   108c0:	e3e00000 	mvn	r0, #0
   108c4:	e28dd00c 	add	sp, sp, #12
   108c8:	e49df004 	pop	{pc}		; (ldr pc, [sp], #4)
   108cc:	e1a0000d 	mov	r0, sp
   108d0:	e3a01040 	mov	r1, #64	; 0x40
   108d4:	eb00023d 	bl	111d0 <PCA9685::PCA9685(unsigned char)>
   108d8:	e1a0000d 	mov	r0, sp
   108dc:	eb00010b 	bl	10d10 <PCA9685::Dump()>
   108e0:	e3a01064 	mov	r1, #100	; 0x64
   108e4:	e1a0000d 	mov	r0, sp
   108e8:	eb000151 	bl	10e34 <PCA9685::SetFrequency(unsigned short)>
   108ec:	e3a02001 	mov	r2, #1
   108f0:	e3a01000 	mov	r1, #0
   108f4:	e1a0000d 	mov	r0, sp
   108f8:	eb0001b3 	bl	10fcc <PCA9685::SetFullOn(unsigned char, bool)>
   108fc:	e3a02b02 	mov	r2, #2048	; 0x800
   10900:	e3a01001 	mov	r1, #1
   10904:	e1a0000d 	mov	r0, sp
   10908:	eb000248 	bl	11230 <PCA9685::Write(unsigned char, unsigned short)>
   1090c:	e59f20e0 	ldr	r2, [pc, #224]	; 109f4 <main+0x190>
   10910:	e3a01002 	mov	r1, #2
   10914:	e1a0000d 	mov	r0, sp
   10918:	eb000244 	bl	11230 <PCA9685::Write(unsigned char, unsigned short)>
   1091c:	e3a02001 	mov	r2, #1
   10920:	e3a01003 	mov	r1, #3
   10924:	e1a0000d 	mov	r0, sp
   10928:	eb000195 	bl	10f84 <PCA9685::SetFullOff(unsigned char, bool)>
   1092c:	e1a0000d 	mov	r0, sp
   10930:	eb0000f6 	bl	10d10 <PCA9685::Dump()>
   10934:	e1a0000d 	mov	r0, sp
   10938:	eb000154 	bl	10e90 <PCA9685::GetFrequency()>
   1093c:	e1a01000 	mov	r1, r0
   10940:	e59f00b0 	ldr	r0, [pc, #176]	; 109f8 <main+0x194>
   10944:	ebffff87 	bl	10768 <printf@plt>
   10948:	e28d3006 	add	r3, sp, #6
   1094c:	e28d2004 	add	r2, sp, #4
   10950:	e3a01000 	mov	r1, #0
   10954:	e1a0000d 	mov	r0, sp
   10958:	eb0001e9 	bl	11104 <PCA9685::Read(unsigned char, unsigned short*, unsigned short*)>
   1095c:	e1dd20b6 	ldrh	r2, [sp, #6]
   10960:	e1dd10b4 	ldrh	r1, [sp, #4]
   10964:	e59f0090 	ldr	r0, [pc, #144]	; 109fc <main+0x198>
   10968:	ebffff7e 	bl	10768 <printf@plt>
   1096c:	e28d3006 	add	r3, sp, #6
   10970:	e28d2004 	add	r2, sp, #4
   10974:	e3a01001 	mov	r1, #1
   10978:	e1a0000d 	mov	r0, sp
   1097c:	eb0001e0 	bl	11104 <PCA9685::Read(unsigned char, unsigned short*, unsigned short*)>
   10980:	e1dd20b6 	ldrh	r2, [sp, #6]
   10984:	e1dd10b4 	ldrh	r1, [sp, #4]
   10988:	e59f0070 	ldr	r0, [pc, #112]	; 10a00 <main+0x19c>
   1098c:	ebffff75 	bl	10768 <printf@plt>
   10990:	e28d3006 	add	r3, sp, #6
   10994:	e28d2004 	add	r2, sp, #4
   10998:	e3a01002 	mov	r1, #2
   1099c:	e1a0000d 	mov	r0, sp
   109a0:	eb0001d7 	bl	11104 <PCA9685::Read(unsigned char, unsigned short*, unsigned short*)>
   109a4:	e1dd20b6 	ldrh	r2, [sp, #6]
   109a8:	e1dd10b4 	ldrh	r1, [sp, #4]
   109ac:	e59f0050 	ldr	r0, [pc, #80]	; 10a04 <main+0x1a0>
   109b0:	ebffff6c 	bl	10768 <printf@plt>
   109b4:	e28d3006 	add	r3, sp, #6
   109b8:	e28d2004 	add	r2, sp, #4
   109bc:	e3a01003 	mov	r1, #3
   109c0:	e1a0000d 	mov	r0, sp
   109c4:	eb0001ce 	bl	11104 <PCA9685::Read(unsigned char, unsigned short*, unsigned short*)>
   109c8:	e1dd20b6 	ldrh	r2, [sp, #6]
   109cc:	e1dd10b4 	ldrh	r1, [sp, #4]
   109d0:	e59f0030 	ldr	r0, [pc, #48]	; 10a08 <main+0x1a4>
   109d4:	ebffff63 	bl	10768 <printf@plt>
   109d8:	eafffffe 	b	109d8 <main+0x174>
   109dc:	e1a0000d 	mov	r0, sp
   109e0:	eb000053 	bl	10b34 <PCA9685::~PCA9685()>
   109e4:	ebffff7a 	bl	107d4 <__cxa_end_cleanup@plt>
   109e8:	000261b0 			; <UNDEFINED> instruction: 0x000261b0
   109ec:	00014c2c 	andeq	r4, r1, ip, lsr #24
   109f0:	00014c00 	andeq	r4, r1, r0, lsl #24
   109f4:	00000333 	andeq	r0, r0, r3, lsr r3
   109f8:	00014c44 	andeq	r4, r1, r4, asr #24
   109fc:	00014c58 	andeq	r4, r1, r8, asr ip
   10a00:	00014c7c 	andeq	r4, r1, ip, ror ip
   10a04:	00014ca8 	andeq	r4, r1, r8, lsr #25
   10a08:	00014cd4 	ldrdeq	r4, [r1], -r4	; <UNPREDICTABLE>

00010a0c <_start>:
   10a0c:	e3a0b000 	mov	fp, #0
   10a10:	e3a0e000 	mov	lr, #0
   10a14:	e49d1004 	pop	{r1}		; (ldr r1, [sp], #4)
   10a18:	e1a0200d 	mov	r2, sp
   10a1c:	e52d2004 	push	{r2}		; (str r2, [sp, #-4]!)
   10a20:	e52d0004 	push	{r0}		; (str r0, [sp, #-4]!)
   10a24:	e59fc010 	ldr	ip, [pc, #16]	; 10a3c <_start+0x30>
   10a28:	e52dc004 	push	{ip}		; (str ip, [sp, #-4]!)
   10a2c:	e59f000c 	ldr	r0, [pc, #12]	; 10a40 <_start+0x34>
   10a30:	e59f300c 	ldr	r3, [pc, #12]	; 10a44 <_start+0x38>
   10a34:	ebffff84 	bl	1084c <__libc_start_main@plt>
   10a38:	ebffff59 	bl	107a4 <abort@plt>
   10a3c:	00014bf0 	strdeq	r4, [r1], -r0
   10a40:	00010864 	andeq	r0, r1, r4, ror #16
   10a44:	00014b90 	muleq	r1, r0, fp

00010a48 <call_weak_fn>:
   10a48:	e59f3014 	ldr	r3, [pc, #20]	; 10a64 <call_weak_fn+0x1c>
   10a4c:	e59f2014 	ldr	r2, [pc, #20]	; 10a68 <call_weak_fn+0x20>
   10a50:	e08f3003 	add	r3, pc, r3
   10a54:	e7932002 	ldr	r2, [r3, r2]
   10a58:	e3520000 	cmp	r2, #0
   10a5c:	012fff1e 	bxeq	lr
   10a60:	eaffff7c 	b	10858 <__gmon_start__@plt>
   10a64:	000155a8 	andeq	r5, r1, r8, lsr #11
   10a68:	00000068 	andeq	r0, r0, r8, rrx

00010a6c <deregister_tm_clones>:
   10a6c:	e59f301c 	ldr	r3, [pc, #28]	; 10a90 <deregister_tm_clones+0x24>
   10a70:	e59f001c 	ldr	r0, [pc, #28]	; 10a94 <deregister_tm_clones+0x28>
   10a74:	e0433000 	sub	r3, r3, r0
   10a78:	e3530006 	cmp	r3, #6
   10a7c:	912fff1e 	bxls	lr
   10a80:	e59f3010 	ldr	r3, [pc, #16]	; 10a98 <deregister_tm_clones+0x2c>
   10a84:	e3530000 	cmp	r3, #0
   10a88:	012fff1e 	bxeq	lr
   10a8c:	e12fff13 	bx	r3
   10a90:	000261af 	andeq	r6, r2, pc, lsr #3
   10a94:	000261ac 	andeq	r6, r2, ip, lsr #3
   10a98:	00000000 	andeq	r0, r0, r0

00010a9c <register_tm_clones>:
   10a9c:	e59f1024 	ldr	r1, [pc, #36]	; 10ac8 <register_tm_clones+0x2c>
   10aa0:	e59f0024 	ldr	r0, [pc, #36]	; 10acc <register_tm_clones+0x30>
   10aa4:	e0411000 	sub	r1, r1, r0
   10aa8:	e1a01141 	asr	r1, r1, #2
   10aac:	e0811fa1 	add	r1, r1, r1, lsr #31
   10ab0:	e1b010c1 	asrs	r1, r1, #1
   10ab4:	012fff1e 	bxeq	lr
   10ab8:	e59f3010 	ldr	r3, [pc, #16]	; 10ad0 <register_tm_clones+0x34>
   10abc:	e3530000 	cmp	r3, #0
   10ac0:	012fff1e 	bxeq	lr
   10ac4:	e12fff13 	bx	r3
   10ac8:	000261ac 	andeq	r6, r2, ip, lsr #3
   10acc:	000261ac 	andeq	r6, r2, ip, lsr #3
   10ad0:	00000000 	andeq	r0, r0, r0

00010ad4 <__do_global_dtors_aux>:
   10ad4:	e92d4010 	push	{r4, lr}
   10ad8:	e59f4018 	ldr	r4, [pc, #24]	; 10af8 <__do_global_dtors_aux+0x24>
   10adc:	e5d43000 	ldrb	r3, [r4]
   10ae0:	e3530000 	cmp	r3, #0
   10ae4:	18bd8010 	popne	{r4, pc}
   10ae8:	ebffffdf 	bl	10a6c <deregister_tm_clones>
   10aec:	e3a03001 	mov	r3, #1
   10af0:	e5c43000 	strb	r3, [r4]
   10af4:	e8bd8010 	pop	{r4, pc}
   10af8:	000261b4 			; <UNDEFINED> instruction: 0x000261b4

00010afc <frame_dummy>:
   10afc:	e59f0028 	ldr	r0, [pc, #40]	; 10b2c <frame_dummy+0x30>
   10b00:	e5903000 	ldr	r3, [r0]
   10b04:	e3530000 	cmp	r3, #0
   10b08:	1a000000 	bne	10b10 <frame_dummy+0x14>
   10b0c:	eaffffe2 	b	10a9c <register_tm_clones>
   10b10:	e59f3018 	ldr	r3, [pc, #24]	; 10b30 <frame_dummy+0x34>
   10b14:	e3530000 	cmp	r3, #0
   10b18:	0afffffb 	beq	10b0c <frame_dummy+0x10>
   10b1c:	e92d4010 	push	{r4, lr}
   10b20:	e12fff33 	blx	r3
   10b24:	e8bd4010 	pop	{r4, lr}
   10b28:	eaffffdb 	b	10a9c <register_tm_clones>
   10b2c:	00025efc 	strdeq	r5, [r2], -ip
   10b30:	00000000 	andeq	r0, r0, r0

00010b34 <PCA9685::~PCA9685()>:
   10b34:	e12fff1e 	bx	lr

00010b38 <PCA9685::CalcPresScale(unsigned short)>:
   10b38:	e59f304c 	ldr	r3, [pc, #76]	; 10b8c <PCA9685::CalcPresScale(unsigned short)+0x54>
   10b3c:	e1510003 	cmp	r1, r3
   10b40:	ca00000d 	bgt	10b7c <PCA9685::CalcPresScale(unsigned short)+0x44>
   10b44:	e3510018 	cmp	r1, #24
   10b48:	33a01018 	movcc	r1, #24
   10b4c:	eddf6a0c 	vldr	s13, [pc, #48]	; 10b84 <PCA9685::CalcPresScale(unsigned short)+0x4c>
   10b50:	ee071a90 	vmov	s15, r1
   10b54:	ed9f7a0b 	vldr	s14, [pc, #44]	; 10b88 <PCA9685::CalcPresScale(unsigned short)+0x50>
   10b58:	eef87ae7 	vcvt.f32.s32	s15, s15
   10b5c:	ee776aa6 	vadd.f32	s13, s15, s13
   10b60:	ee766ac7 	vsub.f32	s13, s13, s14
   10b64:	ee867aa7 	vdiv.f32	s14, s13, s15
   10b68:	eefc7ac7 	vcvt.u32.f32	s15, s14
   10b6c:	ee170a90 	vmov	r0, s15
   10b70:	e2400001 	sub	r0, r0, #1
   10b74:	e6ef0070 	uxtb	r0, r0
   10b78:	e12fff1e 	bx	lr
   10b7c:	e3a00003 	mov	r0, #3
   10b80:	e12fff1e 	bx	lr
   10b84:	45bebc20 	ldrmi	fp, [lr, #3104]!	; 0xc20
   10b88:	3f800000 	svccc	0x00800000
   10b8c:	000005f6 	strdeq	r0, [r0], -r6

00010b90 <PCA9685::CalcFrequency(unsigned char)>:
   10b90:	e2813001 	add	r3, r1, #1
   10b94:	eddf5a59 	vldr	s11, [pc, #356]	; 10d00 <PCA9685::CalcFrequency(unsigned char)+0x170>
   10b98:	ee073a90 	vmov	s15, r3
   10b9c:	ed9f6a58 	vldr	s12, [pc, #352]	; 10d04 <PCA9685::CalcFrequency(unsigned char)+0x174>
   10ba0:	e92d40f0 	push	{r4, r5, r6, r7, lr}
   10ba4:	e24dd00c 	sub	sp, sp, #12
   10ba8:	eef87ae7 	vcvt.f32.s32	s15, s15
   10bac:	ee377aa5 	vadd.f32	s14, s15, s11
   10bb0:	ee377a46 	vsub.f32	s14, s14, s12
   10bb4:	eec76a27 	vdiv.f32	s13, s14, s15
   10bb8:	eefc7ae6 	vcvt.u32.f32	s15, s13
   10bbc:	edcd7a01 	vstr	s15, [sp, #4]
   10bc0:	e1dde0b4 	ldrh	lr, [sp, #4]
   10bc4:	e35e0018 	cmp	lr, #24
   10bc8:	e1a0c00e 	mov	ip, lr
   10bcc:	9a000049 	bls	10cf8 <PCA9685::CalcFrequency(unsigned char)+0x168>
   10bd0:	e24e5001 	sub	r5, lr, #1
   10bd4:	e1a0000e 	mov	r0, lr
   10bd8:	e6ff5075 	uxth	r5, r5
   10bdc:	e1a0300e 	mov	r3, lr
   10be0:	e3a04000 	mov	r4, #0
   10be4:	e59f711c 	ldr	r7, [pc, #284]	; 10d08 <PCA9685::CalcFrequency(unsigned char)+0x178>
   10be8:	e3a06003 	mov	r6, #3
   10bec:	ea000003 	b	10c00 <PCA9685::CalcFrequency(unsigned char)+0x70>
   10bf0:	e3530018 	cmp	r3, #24
   10bf4:	e0450004 	sub	r0, r5, r4
   10bf8:	e2844001 	add	r4, r4, #1
   10bfc:	0a00000f 	beq	10c40 <PCA9685::CalcFrequency(unsigned char)+0xb0>
   10c00:	e1500007 	cmp	r0, r7
   10c04:	e1a02006 	mov	r2, r6
   10c08:	ca000008 	bgt	10c30 <PCA9685::CalcFrequency(unsigned char)+0xa0>
   10c0c:	ee073a90 	vmov	s15, r3
   10c10:	eef86ae7 	vcvt.f32.s32	s13, s15
   10c14:	ee367aa5 	vadd.f32	s14, s13, s11
   10c18:	ee377a46 	vsub.f32	s14, s14, s12
   10c1c:	eec77a26 	vdiv.f32	s15, s14, s13
   10c20:	eefc7ae7 	vcvt.u32.f32	s15, s15
   10c24:	ee172a90 	vmov	r2, s15
   10c28:	e2422001 	sub	r2, r2, #1
   10c2c:	e6ef2072 	uxtb	r2, r2
   10c30:	e2433001 	sub	r3, r3, #1
   10c34:	e1510002 	cmp	r1, r2
   10c38:	e6ff3073 	uxth	r3, r3
   10c3c:	0affffeb 	beq	10bf0 <PCA9685::CalcFrequency(unsigned char)+0x60>
   10c40:	e59f30c4 	ldr	r3, [pc, #196]	; 10d0c <PCA9685::CalcFrequency(unsigned char)+0x17c>
   10c44:	e15e0003 	cmp	lr, r3
   10c48:	8a000025 	bhi	10ce4 <PCA9685::CalcFrequency(unsigned char)+0x154>
   10c4c:	e35e0018 	cmp	lr, #24
   10c50:	21a0300e 	movcs	r3, lr
   10c54:	33a03018 	movcc	r3, #24
   10c58:	eddf5a28 	vldr	s11, [pc, #160]	; 10d00 <PCA9685::CalcFrequency(unsigned char)+0x170>
   10c5c:	ee073a10 	vmov	s14, r3
   10c60:	ed9f6a27 	vldr	s12, [pc, #156]	; 10d04 <PCA9685::CalcFrequency(unsigned char)+0x174>
   10c64:	eeb87ac7 	vcvt.f32.s32	s14, s14
   10c68:	ee776a25 	vadd.f32	s13, s14, s11
   10c6c:	ee766ac6 	vsub.f32	s13, s13, s12
   10c70:	eec67a87 	vdiv.f32	s15, s13, s14
   10c74:	eefc7ae7 	vcvt.u32.f32	s15, s15
   10c78:	ee173a90 	vmov	r3, s15
   10c7c:	e2433001 	sub	r3, r3, #1
   10c80:	e6ef3073 	uxtb	r3, r3
   10c84:	e1510003 	cmp	r1, r3
   10c88:	028e2001 	addeq	r2, lr, #1
   10c8c:	059fe078 	ldreq	lr, [pc, #120]	; 10d0c <PCA9685::CalcFrequency(unsigned char)+0x17c>
   10c90:	06ff2072 	uxtheq	r2, r2
   10c94:	0a00000e 	beq	10cd4 <PCA9685::CalcFrequency(unsigned char)+0x144>
   10c98:	ea000011 	b	10ce4 <PCA9685::CalcFrequency(unsigned char)+0x154>
   10c9c:	e3530018 	cmp	r3, #24
   10ca0:	33a03018 	movcc	r3, #24
   10ca4:	e2822001 	add	r2, r2, #1
   10ca8:	ee073a90 	vmov	s15, r3
   10cac:	eef87ae7 	vcvt.f32.s32	s15, s15
   10cb0:	ee776aa5 	vadd.f32	s13, s15, s11
   10cb4:	ee766ac6 	vsub.f32	s13, s13, s12
   10cb8:	ee867aa7 	vdiv.f32	s14, s13, s15
   10cbc:	eefc7ac7 	vcvt.u32.f32	s15, s14
   10cc0:	ee173a90 	vmov	r3, s15
   10cc4:	e2433001 	sub	r3, r3, #1
   10cc8:	e6ef3073 	uxtb	r3, r3
   10ccc:	e1510003 	cmp	r1, r3
   10cd0:	1a000003 	bne	10ce4 <PCA9685::CalcFrequency(unsigned char)+0x154>
   10cd4:	e6ff3072 	uxth	r3, r2
   10cd8:	e153000e 	cmp	r3, lr
   10cdc:	e1a0c002 	mov	ip, r2
   10ce0:	9affffed 	bls	10c9c <PCA9685::CalcFrequency(unsigned char)+0x10c>
   10ce4:	e08c0000 	add	r0, ip, r0
   10ce8:	e1a000c0 	asr	r0, r0, #1
   10cec:	e6ff0070 	uxth	r0, r0
   10cf0:	e28dd00c 	add	sp, sp, #12
   10cf4:	e8bd80f0 	pop	{r4, r5, r6, r7, pc}
   10cf8:	e1a0000e 	mov	r0, lr
   10cfc:	eaffffd2 	b	10c4c <PCA9685::CalcFrequency(unsigned char)+0xbc>
   10d00:	45bebc20 	ldrmi	fp, [lr, #3104]!	; 0xc20
   10d04:	3f800000 	svccc	0x00800000
   10d08:	000005f6 	strdeq	r0, [r0], -r6
   10d0c:	000005f5 	strdeq	r0, [r0], -r5

00010d10 <PCA9685::Dump()>:
   10d10:	e12fff1e 	bx	lr

00010d14 <PCA9685::I2cSetup()>:
   10d14:	e92d4010 	push	{r4, lr}
   10d18:	e5d00000 	ldrb	r0, [r0]
   10d1c:	eb0009ef 	bl	134e0 <bcm2835_i2c_setSlaveAddress>
   10d20:	e59f0004 	ldr	r0, [pc, #4]	; 10d2c <PCA9685::I2cSetup()+0x18>
   10d24:	e8bd4010 	pop	{r4, lr}
   10d28:	ea000a1f 	b	135ac <bcm2835_i2c_set_baudrate>
   10d2c:	00061a80 	andeq	r1, r6, r0, lsl #21

00010d30 <PCA9685::I2cWriteReg(unsigned char, unsigned char)>:
   10d30:	e52de004 	push	{lr}		; (str lr, [sp, #-4]!)
   10d34:	e24dd00c 	sub	sp, sp, #12
   10d38:	e5d00000 	ldrb	r0, [r0]
   10d3c:	e5cd1004 	strb	r1, [sp, #4]
   10d40:	e5cd2005 	strb	r2, [sp, #5]
   10d44:	eb0009e5 	bl	134e0 <bcm2835_i2c_setSlaveAddress>
   10d48:	e59f0014 	ldr	r0, [pc, #20]	; 10d64 <PCA9685::I2cWriteReg(unsigned char, unsigned char)+0x34>
   10d4c:	eb000a16 	bl	135ac <bcm2835_i2c_set_baudrate>
   10d50:	e3a01002 	mov	r1, #2
   10d54:	e28d0004 	add	r0, sp, #4
   10d58:	eb000a28 	bl	13600 <bcm2835_i2c_write>
   10d5c:	e28dd00c 	add	sp, sp, #12
   10d60:	e49df004 	pop	{pc}		; (ldr pc, [sp], #4)
   10d64:	00061a80 	andeq	r1, r6, r0, lsl #21

00010d68 <PCA9685::I2cReadReg(unsigned char)>:
   10d68:	e92d4010 	push	{r4, lr}
   10d6c:	e24dd008 	sub	sp, sp, #8
   10d70:	e28d4008 	add	r4, sp, #8
   10d74:	e5d00000 	ldrb	r0, [r0]
   10d78:	e5641001 	strb	r1, [r4, #-1]!
   10d7c:	eb0009d7 	bl	134e0 <bcm2835_i2c_setSlaveAddress>
   10d80:	e59f0024 	ldr	r0, [pc, #36]	; 10dac <PCA9685::I2cReadReg(unsigned char)+0x44>
   10d84:	eb000a08 	bl	135ac <bcm2835_i2c_set_baudrate>
   10d88:	e1a00004 	mov	r0, r4
   10d8c:	e3a01001 	mov	r1, #1
   10d90:	eb000a1a 	bl	13600 <bcm2835_i2c_write>
   10d94:	e1a00004 	mov	r0, r4
   10d98:	e3a01001 	mov	r1, #1
   10d9c:	eb000a91 	bl	137e8 <bcm2835_i2c_read>
   10da0:	e5dd0007 	ldrb	r0, [sp, #7]
   10da4:	e28dd008 	add	sp, sp, #8
   10da8:	e8bd8010 	pop	{r4, pc}
   10dac:	00061a80 	andeq	r1, r6, r0, lsl #21

00010db0 <PCA9685::Sleep(bool)>:
   10db0:	e92d4070 	push	{r4, r5, r6, lr}
   10db4:	e1a04001 	mov	r4, r1
   10db8:	e3a01000 	mov	r1, #0
   10dbc:	e1a05000 	mov	r5, r0
   10dc0:	ebffffe8 	bl	10d68 <PCA9685::I2cReadReg(unsigned char)>
   10dc4:	e3540000 	cmp	r4, #0
   10dc8:	e3a01000 	mov	r1, #0
   10dcc:	e20040ef 	and	r4, r0, #239	; 0xef
   10dd0:	13844010 	orrne	r4, r4, #16
   10dd4:	e1a00005 	mov	r0, r5
   10dd8:	e1a02004 	mov	r2, r4
   10ddc:	ebffffd3 	bl	10d30 <PCA9685::I2cWriteReg(unsigned char, unsigned char)>
   10de0:	e314007f 	tst	r4, #127	; 0x7f
   10de4:	08bd8070 	popeq	{r4, r5, r6, pc}
   10de8:	e3a00f7d 	mov	r0, #500	; 0x1f4
   10dec:	e3a01000 	mov	r1, #0
   10df0:	e8bd4070 	pop	{r4, r5, r6, lr}
   10df4:	ea0004df 	b	12178 <bcm2835_delayMicroseconds>

00010df8 <PCA9685::SetPreScaller(unsigned char)>:
   10df8:	e92d4070 	push	{r4, r5, r6, lr}
   10dfc:	e1a05001 	mov	r5, r1
   10e00:	e3a01001 	mov	r1, #1
   10e04:	e1a04000 	mov	r4, r0
   10e08:	ebffffe8 	bl	10db0 <PCA9685::Sleep(bool)>
   10e0c:	e3550003 	cmp	r5, #3
   10e10:	e1a00004 	mov	r0, r4
   10e14:	21a02005 	movcs	r2, r5
   10e18:	e3a010fe 	mov	r1, #254	; 0xfe
   10e1c:	33a02003 	movcc	r2, #3
   10e20:	ebffffc2 	bl	10d30 <PCA9685::I2cWriteReg(unsigned char, unsigned char)>
   10e24:	e1a00004 	mov	r0, r4
   10e28:	e3a01000 	mov	r1, #0
   10e2c:	e8bd4070 	pop	{r4, r5, r6, lr}
   10e30:	eaffffde 	b	10db0 <PCA9685::Sleep(bool)>

00010e34 <PCA9685::SetFrequency(unsigned short)>:
   10e34:	e59f3048 	ldr	r3, [pc, #72]	; 10e84 <PCA9685::SetFrequency(unsigned short)+0x50>
   10e38:	e1510003 	cmp	r1, r3
   10e3c:	c3a01003 	movgt	r1, #3
   10e40:	ca00000c 	bgt	10e78 <PCA9685::SetFrequency(unsigned short)+0x44>
   10e44:	e3510018 	cmp	r1, #24
   10e48:	33a01018 	movcc	r1, #24
   10e4c:	eddf6a0a 	vldr	s13, [pc, #40]	; 10e7c <PCA9685::SetFrequency(unsigned short)+0x48>
   10e50:	ee071a90 	vmov	s15, r1
   10e54:	ed9f7a09 	vldr	s14, [pc, #36]	; 10e80 <PCA9685::SetFrequency(unsigned short)+0x4c>
   10e58:	eef87ae7 	vcvt.f32.s32	s15, s15
   10e5c:	ee776aa6 	vadd.f32	s13, s15, s13
   10e60:	ee766ac7 	vsub.f32	s13, s13, s14
   10e64:	ee867aa7 	vdiv.f32	s14, s13, s15
   10e68:	eefc7ac7 	vcvt.u32.f32	s15, s14
   10e6c:	ee171a90 	vmov	r1, s15
   10e70:	e2411001 	sub	r1, r1, #1
   10e74:	e6ef1071 	uxtb	r1, r1
   10e78:	eaffffde 	b	10df8 <PCA9685::SetPreScaller(unsigned char)>
   10e7c:	45bebc20 	ldrmi	fp, [lr, #3104]!	; 0xc20
   10e80:	3f800000 	svccc	0x00800000
   10e84:	000005f6 	strdeq	r0, [r0], -r6

00010e88 <PCA9685::GetPreScaller()>:
   10e88:	e3a010fe 	mov	r1, #254	; 0xfe
   10e8c:	eaffffb5 	b	10d68 <PCA9685::I2cReadReg(unsigned char)>

00010e90 <PCA9685::GetFrequency()>:
   10e90:	e92d4010 	push	{r4, lr}
   10e94:	e3a010fe 	mov	r1, #254	; 0xfe
   10e98:	e1a04000 	mov	r4, r0
   10e9c:	ebffffb1 	bl	10d68 <PCA9685::I2cReadReg(unsigned char)>
   10ea0:	e1a01000 	mov	r1, r0
   10ea4:	e1a00004 	mov	r0, r4
   10ea8:	e8bd4010 	pop	{r4, lr}
   10eac:	eaffff37 	b	10b90 <PCA9685::CalcFrequency(unsigned char)>

00010eb0 <PCA9685::SetOCH(TPCA9685Och)>:
   10eb0:	e92d4070 	push	{r4, r5, r6, lr}
   10eb4:	e1a05001 	mov	r5, r1
   10eb8:	e3a01001 	mov	r1, #1
   10ebc:	e1a04000 	mov	r4, r0
   10ec0:	ebffffa8 	bl	10d68 <PCA9685::I2cReadReg(unsigned char)>
   10ec4:	e3550008 	cmp	r5, #8
   10ec8:	e3a01001 	mov	r1, #1
   10ecc:	e20020f7 	and	r2, r0, #247	; 0xf7
   10ed0:	03822008 	orreq	r2, r2, #8
   10ed4:	e1a00004 	mov	r0, r4
   10ed8:	e8bd4070 	pop	{r4, r5, r6, lr}
   10edc:	eaffff93 	b	10d30 <PCA9685::I2cWriteReg(unsigned char, unsigned char)>

00010ee0 <PCA9685::GetOCH()>:
   10ee0:	e92d4010 	push	{r4, lr}
   10ee4:	e3a01001 	mov	r1, #1
   10ee8:	ebffff9e 	bl	10d68 <PCA9685::I2cReadReg(unsigned char)>
   10eec:	e2000008 	and	r0, r0, #8
   10ef0:	e8bd8010 	pop	{r4, pc}

00010ef4 <PCA9685::SetInvert(bool)>:
   10ef4:	e92d4070 	push	{r4, r5, r6, lr}
   10ef8:	e1a05001 	mov	r5, r1
   10efc:	e3a01001 	mov	r1, #1
   10f00:	e1a04000 	mov	r4, r0
   10f04:	ebffff97 	bl	10d68 <PCA9685::I2cReadReg(unsigned char)>
   10f08:	e3550000 	cmp	r5, #0
   10f0c:	e3a01001 	mov	r1, #1
   10f10:	e20020ef 	and	r2, r0, #239	; 0xef
   10f14:	13822010 	orrne	r2, r2, #16
   10f18:	e1a00004 	mov	r0, r4
   10f1c:	e8bd4070 	pop	{r4, r5, r6, lr}
   10f20:	eaffff82 	b	10d30 <PCA9685::I2cWriteReg(unsigned char, unsigned char)>

00010f24 <PCA9685::GetInvert()>:
   10f24:	e92d4010 	push	{r4, lr}
   10f28:	e3a01001 	mov	r1, #1
   10f2c:	ebffff8d 	bl	10d68 <PCA9685::I2cReadReg(unsigned char)>
   10f30:	e1a00220 	lsr	r0, r0, #4
   10f34:	e2000001 	and	r0, r0, #1
   10f38:	e8bd8010 	pop	{r4, pc}

00010f3c <PCA9685::SetOutDriver(bool)>:
   10f3c:	e92d4070 	push	{r4, r5, r6, lr}
   10f40:	e1a05001 	mov	r5, r1
   10f44:	e3a01001 	mov	r1, #1
   10f48:	e1a04000 	mov	r4, r0
   10f4c:	ebffff85 	bl	10d68 <PCA9685::I2cReadReg(unsigned char)>
   10f50:	e3550000 	cmp	r5, #0
   10f54:	e3a01001 	mov	r1, #1
   10f58:	e20020fb 	and	r2, r0, #251	; 0xfb
   10f5c:	13822004 	orrne	r2, r2, #4
   10f60:	e1a00004 	mov	r0, r4
   10f64:	e8bd4070 	pop	{r4, r5, r6, lr}
   10f68:	eaffff70 	b	10d30 <PCA9685::I2cWriteReg(unsigned char, unsigned char)>

00010f6c <PCA9685::GetOutDriver()>:
   10f6c:	e92d4010 	push	{r4, lr}
   10f70:	e3a01001 	mov	r1, #1
   10f74:	ebffff7b 	bl	10d68 <PCA9685::I2cReadReg(unsigned char)>
   10f78:	e1a00120 	lsr	r0, r0, #2
   10f7c:	e2000001 	and	r0, r0, #1
   10f80:	e8bd8010 	pop	{r4, pc}

00010f84 <PCA9685::SetFullOff(unsigned char, bool)>:
   10f84:	e351000f 	cmp	r1, #15
   10f88:	e92d4070 	push	{r4, r5, r6, lr}
   10f8c:	d1a04101 	lslle	r4, r1, #2
   10f90:	d2844009 	addle	r4, r4, #9
   10f94:	c3a040fd 	movgt	r4, #253	; 0xfd
   10f98:	d6ef4074 	uxtble	r4, r4
   10f9c:	e1a01004 	mov	r1, r4
   10fa0:	e1a06002 	mov	r6, r2
   10fa4:	e1a05000 	mov	r5, r0
   10fa8:	ebffff6e 	bl	10d68 <PCA9685::I2cReadReg(unsigned char)>
   10fac:	e3560000 	cmp	r6, #0
   10fb0:	e1a01004 	mov	r1, r4
   10fb4:	13802010 	orrne	r2, r0, #16
   10fb8:	020020ef 	andeq	r2, r0, #239	; 0xef
   10fbc:	16ef2072 	uxtbne	r2, r2
   10fc0:	e1a00005 	mov	r0, r5
   10fc4:	e8bd4070 	pop	{r4, r5, r6, lr}
   10fc8:	eaffff58 	b	10d30 <PCA9685::I2cWriteReg(unsigned char, unsigned char)>

00010fcc <PCA9685::SetFullOn(unsigned char, bool)>:
   10fcc:	e351000f 	cmp	r1, #15
   10fd0:	e92d41f0 	push	{r4, r5, r6, r7, r8, lr}
   10fd4:	d1a04101 	lslle	r4, r1, #2
   10fd8:	d2844007 	addle	r4, r4, #7
   10fdc:	c3a040fb 	movgt	r4, #251	; 0xfb
   10fe0:	d6ef4074 	uxtble	r4, r4
   10fe4:	e1a07002 	mov	r7, r2
   10fe8:	e1a06001 	mov	r6, r1
   10fec:	e1a01004 	mov	r1, r4
   10ff0:	e1a05000 	mov	r5, r0
   10ff4:	ebffff5b 	bl	10d68 <PCA9685::I2cReadReg(unsigned char)>
   10ff8:	e3570000 	cmp	r7, #0
   10ffc:	0a000009 	beq	11028 <PCA9685::SetFullOn(unsigned char, bool)+0x5c>
   11000:	e3802010 	orr	r2, r0, #16
   11004:	e1a01004 	mov	r1, r4
   11008:	e1a00005 	mov	r0, r5
   1100c:	e6ef2072 	uxtb	r2, r2
   11010:	ebffff46 	bl	10d30 <PCA9685::I2cWriteReg(unsigned char, unsigned char)>
   11014:	e1a01006 	mov	r1, r6
   11018:	e1a00005 	mov	r0, r5
   1101c:	e3a02000 	mov	r2, #0
   11020:	e8bd41f0 	pop	{r4, r5, r6, r7, r8, lr}
   11024:	eaffffd6 	b	10f84 <PCA9685::SetFullOff(unsigned char, bool)>
   11028:	e20020ef 	and	r2, r0, #239	; 0xef
   1102c:	e1a01004 	mov	r1, r4
   11030:	e1a00005 	mov	r0, r5
   11034:	e8bd41f0 	pop	{r4, r5, r6, r7, r8, lr}
   11038:	eaffff3c 	b	10d30 <PCA9685::I2cWriteReg(unsigned char, unsigned char)>

0001103c <PCA9685::AutoIncrement(bool)>:
   1103c:	e92d4070 	push	{r4, r5, r6, lr}
   11040:	e1a05001 	mov	r5, r1
   11044:	e3a01000 	mov	r1, #0
   11048:	e1a04000 	mov	r4, r0
   1104c:	ebffff45 	bl	10d68 <PCA9685::I2cReadReg(unsigned char)>
   11050:	e3550000 	cmp	r5, #0
   11054:	e3a01000 	mov	r1, #0
   11058:	e20020df 	and	r2, r0, #223	; 0xdf
   1105c:	13822020 	orrne	r2, r2, #32
   11060:	e1a00004 	mov	r0, r4
   11064:	e8bd4070 	pop	{r4, r5, r6, lr}
   11068:	eaffff30 	b	10d30 <PCA9685::I2cWriteReg(unsigned char, unsigned char)>

0001106c <PCA9685::I2cWriteReg(unsigned char, unsigned short)>:
   1106c:	e52de004 	push	{lr}		; (str lr, [sp, #-4]!)
   11070:	e24dd00c 	sub	sp, sp, #12
   11074:	e1a03442 	asr	r3, r2, #8
   11078:	e5d00000 	ldrb	r0, [r0]
   1107c:	e5cd2005 	strb	r2, [sp, #5]
   11080:	e5cd3006 	strb	r3, [sp, #6]
   11084:	e5cd1004 	strb	r1, [sp, #4]
   11088:	eb000914 	bl	134e0 <bcm2835_i2c_setSlaveAddress>
   1108c:	e59f0014 	ldr	r0, [pc, #20]	; 110a8 <PCA9685::I2cWriteReg(unsigned char, unsigned short)+0x3c>
   11090:	eb000945 	bl	135ac <bcm2835_i2c_set_baudrate>
   11094:	e3a01003 	mov	r1, #3
   11098:	e28d0004 	add	r0, sp, #4
   1109c:	eb000957 	bl	13600 <bcm2835_i2c_write>
   110a0:	e28dd00c 	add	sp, sp, #12
   110a4:	e49df004 	pop	{pc}		; (ldr pc, [sp], #4)
   110a8:	00061a80 	andeq	r1, r6, r0, lsl #21

000110ac <PCA9685::I2cReadReg16(unsigned char)>:
   110ac:	e52de004 	push	{lr}		; (str lr, [sp, #-4]!)
   110b0:	e24dd00c 	sub	sp, sp, #12
   110b4:	e3a03000 	mov	r3, #0
   110b8:	e5d00000 	ldrb	r0, [r0]
   110bc:	e5cd3004 	strb	r3, [sp, #4]
   110c0:	e5cd3005 	strb	r3, [sp, #5]
   110c4:	e5cd1003 	strb	r1, [sp, #3]
   110c8:	eb000904 	bl	134e0 <bcm2835_i2c_setSlaveAddress>
   110cc:	e59f002c 	ldr	r0, [pc, #44]	; 11100 <PCA9685::I2cReadReg16(unsigned char)+0x54>
   110d0:	eb000935 	bl	135ac <bcm2835_i2c_set_baudrate>
   110d4:	e3a01001 	mov	r1, #1
   110d8:	e28d0003 	add	r0, sp, #3
   110dc:	eb000947 	bl	13600 <bcm2835_i2c_write>
   110e0:	e3a01002 	mov	r1, #2
   110e4:	e28d0004 	add	r0, sp, #4
   110e8:	eb0009be 	bl	137e8 <bcm2835_i2c_read>
   110ec:	e5dd0005 	ldrb	r0, [sp, #5]
   110f0:	e5dd3004 	ldrb	r3, [sp, #4]
   110f4:	e1830400 	orr	r0, r3, r0, lsl #8
   110f8:	e28dd00c 	add	sp, sp, #12
   110fc:	e49df004 	pop	{pc}		; (ldr pc, [sp], #4)
   11100:	00061a80 	andeq	r1, r6, r0, lsl #21

00011104 <PCA9685::Read(unsigned char, unsigned short*, unsigned short*)>:
   11104:	e351000f 	cmp	r1, #15
   11108:	e92d41f0 	push	{r4, r5, r6, r7, r8, lr}
   1110c:	d1a04101 	lslle	r4, r1, #2
   11110:	d2844006 	addle	r4, r4, #6
   11114:	c3a040fa 	movgt	r4, #250	; 0xfa
   11118:	d6ef4074 	uxtble	r4, r4
   1111c:	e3520000 	cmp	r2, #0
   11120:	e1a07000 	mov	r7, r0
   11124:	e1a06002 	mov	r6, r2
   11128:	e1a05003 	mov	r5, r3
   1112c:	0a000002 	beq	1113c <PCA9685::Read(unsigned char, unsigned short*, unsigned short*)+0x38>
   11130:	e1a01004 	mov	r1, r4
   11134:	ebffffdc 	bl	110ac <PCA9685::I2cReadReg16(unsigned char)>
   11138:	e1c600b0 	strh	r0, [r6]
   1113c:	e3550000 	cmp	r5, #0
   11140:	08bd81f0 	popeq	{r4, r5, r6, r7, r8, pc}
   11144:	e2841002 	add	r1, r4, #2
   11148:	e20110fe 	and	r1, r1, #254	; 0xfe
   1114c:	e1a00007 	mov	r0, r7
   11150:	ebffffd5 	bl	110ac <PCA9685::I2cReadReg16(unsigned char)>
   11154:	e1c500b0 	strh	r0, [r5]
   11158:	e8bd81f0 	pop	{r4, r5, r6, r7, r8, pc}

0001115c <PCA9685::Read(unsigned short*, unsigned short*)>:
   1115c:	e1a03002 	mov	r3, r2
   11160:	e1a02001 	mov	r2, r1
   11164:	e3a01010 	mov	r1, #16
   11168:	eaffffe5 	b	11104 <PCA9685::Read(unsigned char, unsigned short*, unsigned short*)>

0001116c <PCA9685::I2cWriteReg(unsigned char, unsigned short, unsigned short)>:
   1116c:	e52de004 	push	{lr}		; (str lr, [sp, #-4]!)
   11170:	e24dd00c 	sub	sp, sp, #12
   11174:	e1a0e442 	asr	lr, r2, #8
   11178:	e1a0c443 	asr	ip, r3, #8
   1117c:	e5d00000 	ldrb	r0, [r0]
   11180:	e5cd2001 	strb	r2, [sp, #1]
   11184:	e5cde002 	strb	lr, [sp, #2]
   11188:	e5cd3003 	strb	r3, [sp, #3]
   1118c:	e5cdc004 	strb	ip, [sp, #4]
   11190:	e5cd1000 	strb	r1, [sp]
   11194:	eb0008d1 	bl	134e0 <bcm2835_i2c_setSlaveAddress>
   11198:	e59f0014 	ldr	r0, [pc, #20]	; 111b4 <PCA9685::I2cWriteReg(unsigned char, unsigned short, unsigned short)+0x48>
   1119c:	eb000902 	bl	135ac <bcm2835_i2c_set_baudrate>
   111a0:	e3a01005 	mov	r1, #5
   111a4:	e1a0000d 	mov	r0, sp
   111a8:	eb000914 	bl	13600 <bcm2835_i2c_write>
   111ac:	e28dd00c 	add	sp, sp, #12
   111b0:	e49df004 	pop	{pc}		; (ldr pc, [sp], #4)
   111b4:	00061a80 	andeq	r1, r6, r0, lsl #21

000111b8 <PCA9685::Write(unsigned char, unsigned short, unsigned short)>:
   111b8:	e351000f 	cmp	r1, #15
   111bc:	d1a01101 	lslle	r1, r1, #2
   111c0:	d2811006 	addle	r1, r1, #6
   111c4:	c3a010fa 	movgt	r1, #250	; 0xfa
   111c8:	d6ef1071 	uxtble	r1, r1
   111cc:	eaffffe6 	b	1116c <PCA9685::I2cWriteReg(unsigned char, unsigned short, unsigned short)>

000111d0 <PCA9685::PCA9685(unsigned char)>:
   111d0:	e92d41f0 	push	{r4, r5, r6, r7, r8, lr}
   111d4:	e1a05000 	mov	r5, r0
   111d8:	e5c01000 	strb	r1, [r0]
   111dc:	eb000883 	bl	133f0 <bcm2835_i2c_begin>
   111e0:	e1a00005 	mov	r0, r5
   111e4:	e3a01001 	mov	r1, #1
   111e8:	ebffff93 	bl	1103c <PCA9685::AutoIncrement(bool)>
   111ec:	e3a04006 	mov	r4, #6
   111f0:	e3a07a01 	mov	r7, #4096	; 0x1000
   111f4:	e3a06000 	mov	r6, #0
   111f8:	e1a01004 	mov	r1, r4
   111fc:	e2844004 	add	r4, r4, #4
   11200:	e1a03007 	mov	r3, r7
   11204:	e1a02006 	mov	r2, r6
   11208:	e1a00005 	mov	r0, r5
   1120c:	e6ef4074 	uxtb	r4, r4
   11210:	ebffffd5 	bl	1116c <PCA9685::I2cWriteReg(unsigned char, unsigned short, unsigned short)>
   11214:	e3540046 	cmp	r4, #70	; 0x46
   11218:	1afffff6 	bne	111f8 <PCA9685::PCA9685(unsigned char)+0x28>
   1121c:	e1a00005 	mov	r0, r5
   11220:	e3a01000 	mov	r1, #0
   11224:	ebfffee1 	bl	10db0 <PCA9685::Sleep(bool)>
   11228:	e1a00005 	mov	r0, r5
   1122c:	e8bd81f0 	pop	{r4, r5, r6, r7, r8, pc}

00011230 <PCA9685::Write(unsigned char, unsigned short)>:
   11230:	e351000f 	cmp	r1, #15
   11234:	d1a01101 	lslle	r1, r1, #2
   11238:	d2811006 	addle	r1, r1, #6
   1123c:	e1a03002 	mov	r3, r2
   11240:	d6ef1071 	uxtble	r1, r1
   11244:	c3a010fa 	movgt	r1, #250	; 0xfa
   11248:	e3a02000 	mov	r2, #0
   1124c:	eaffffc6 	b	1116c <PCA9685::I2cWriteReg(unsigned char, unsigned short, unsigned short)>

00011250 <PCA9685::Write(unsigned short)>:
   11250:	e1a03001 	mov	r3, r1
   11254:	e3a02000 	mov	r2, #0
   11258:	e3a010fa 	mov	r1, #250	; 0xfa
   1125c:	eaffffc2 	b	1116c <PCA9685::I2cWriteReg(unsigned char, unsigned short, unsigned short)>

00011260 <PCA9685::Write(unsigned short, unsigned short)>:
   11260:	e1a03002 	mov	r3, r2
   11264:	e1a02001 	mov	r2, r1
   11268:	e3a010fa 	mov	r1, #250	; 0xfa
   1126c:	eaffffbe 	b	1116c <PCA9685::I2cWriteReg(unsigned char, unsigned short, unsigned short)>

00011270 <bcm2835_correct_order>:
   11270:	e52db004 	push	{fp}		; (str fp, [sp, #-4]!)
   11274:	e28db000 	add	fp, sp, #0
   11278:	e24dd00c 	sub	sp, sp, #12
   1127c:	e1a03000 	mov	r3, r0
   11280:	e54b3005 	strb	r3, [fp, #-5]
   11284:	e59f302c 	ldr	r3, [pc, #44]	; 112b8 <bcm2835_correct_order+0x48>
   11288:	e5d33000 	ldrb	r3, [r3]
   1128c:	e3530000 	cmp	r3, #0
   11290:	1a000003 	bne	112a4 <bcm2835_correct_order+0x34>
   11294:	e55b3005 	ldrb	r3, [fp, #-5]
   11298:	e59f201c 	ldr	r2, [pc, #28]	; 112bc <bcm2835_correct_order+0x4c>
   1129c:	e7d23003 	ldrb	r3, [r2, r3]
   112a0:	ea000000 	b	112a8 <bcm2835_correct_order+0x38>
   112a4:	e55b3005 	ldrb	r3, [fp, #-5]
   112a8:	e1a00003 	mov	r0, r3
   112ac:	e28bd000 	add	sp, fp, #0
   112b0:	e49db004 	pop	{fp}		; (ldr fp, [sp], #4)
   112b4:	e12fff1e 	bx	lr
   112b8:	000260a8 	andeq	r6, r2, r8, lsr #1
   112bc:	000260ac 	andeq	r6, r2, ip, lsr #1

000112c0 <bcm2835_regbase>:
   112c0:	e52db004 	push	{fp}		; (str fp, [sp, #-4]!)
   112c4:	e28db000 	add	fp, sp, #0
   112c8:	e24dd00c 	sub	sp, sp, #12
   112cc:	e1a03000 	mov	r3, r0
   112d0:	e54b3005 	strb	r3, [fp, #-5]
   112d4:	e55b3005 	ldrb	r3, [fp, #-5]
   112d8:	e2433001 	sub	r3, r3, #1
   112dc:	e3530009 	cmp	r3, #9
   112e0:	979ff103 	ldrls	pc, [pc, r3, lsl #2]
   112e4:	ea000027 	b	11388 <bcm2835_regbase+0xc8>
   112e8:	00011310 	andeq	r1, r1, r0, lsl r3
   112ec:	0001131c 	andeq	r1, r1, ip, lsl r3
   112f0:	00011328 	andeq	r1, r1, r8, lsr #6
   112f4:	00011334 	andeq	r1, r1, r4, lsr r3
   112f8:	00011340 	andeq	r1, r1, r0, asr #6
   112fc:	0001134c 	andeq	r1, r1, ip, asr #6
   11300:	00011358 	andeq	r1, r1, r8, asr r3
   11304:	00011364 	andeq	r1, r1, r4, ror #6
   11308:	00011370 	andeq	r1, r1, r0, ror r3
   1130c:	0001137c 	andeq	r1, r1, ip, ror r3
   11310:	e59f3084 	ldr	r3, [pc, #132]	; 1139c <bcm2835_regbase+0xdc>
   11314:	e5933000 	ldr	r3, [r3]
   11318:	ea00001b 	b	1138c <bcm2835_regbase+0xcc>
   1131c:	e59f307c 	ldr	r3, [pc, #124]	; 113a0 <bcm2835_regbase+0xe0>
   11320:	e5933000 	ldr	r3, [r3]
   11324:	ea000018 	b	1138c <bcm2835_regbase+0xcc>
   11328:	e59f3074 	ldr	r3, [pc, #116]	; 113a4 <bcm2835_regbase+0xe4>
   1132c:	e5933000 	ldr	r3, [r3]
   11330:	ea000015 	b	1138c <bcm2835_regbase+0xcc>
   11334:	e59f306c 	ldr	r3, [pc, #108]	; 113a8 <bcm2835_regbase+0xe8>
   11338:	e5933000 	ldr	r3, [r3]
   1133c:	ea000012 	b	1138c <bcm2835_regbase+0xcc>
   11340:	e59f3064 	ldr	r3, [pc, #100]	; 113ac <bcm2835_regbase+0xec>
   11344:	e5933000 	ldr	r3, [r3]
   11348:	ea00000f 	b	1138c <bcm2835_regbase+0xcc>
   1134c:	e59f305c 	ldr	r3, [pc, #92]	; 113b0 <bcm2835_regbase+0xf0>
   11350:	e5933000 	ldr	r3, [r3]
   11354:	ea00000c 	b	1138c <bcm2835_regbase+0xcc>
   11358:	e59f3054 	ldr	r3, [pc, #84]	; 113b4 <bcm2835_regbase+0xf4>
   1135c:	e5933000 	ldr	r3, [r3]
   11360:	ea000009 	b	1138c <bcm2835_regbase+0xcc>
   11364:	e59f3030 	ldr	r3, [pc, #48]	; 1139c <bcm2835_regbase+0xdc>
   11368:	e5933000 	ldr	r3, [r3]
   1136c:	ea000006 	b	1138c <bcm2835_regbase+0xcc>
   11370:	e59f3040 	ldr	r3, [pc, #64]	; 113b8 <bcm2835_regbase+0xf8>
   11374:	e5933000 	ldr	r3, [r3]
   11378:	ea000003 	b	1138c <bcm2835_regbase+0xcc>
   1137c:	e59f3038 	ldr	r3, [pc, #56]	; 113bc <bcm2835_regbase+0xfc>
   11380:	e5933000 	ldr	r3, [r3]
   11384:	ea000000 	b	1138c <bcm2835_regbase+0xcc>
   11388:	e3e03000 	mvn	r3, #0
   1138c:	e1a00003 	mov	r0, r3
   11390:	e28bd000 	add	sp, fp, #0
   11394:	e49db004 	pop	{fp}		; (ldr fp, [sp], #4)
   11398:	e12fff1e 	bx	lr
   1139c:	0002609c 	muleq	r2, ip, r0
   113a0:	00026080 	andeq	r6, r2, r0, lsl #1
   113a4:	00026084 	andeq	r6, r2, r4, lsl #1
   113a8:	00026088 	andeq	r6, r2, r8, lsl #1
   113ac:	0002608c 	andeq	r6, r2, ip, lsl #1
   113b0:	00026090 	muleq	r2, r0, r0
   113b4:	00026094 	muleq	r2, r4, r0
   113b8:	000260a0 	andeq	r6, r2, r0, lsr #1
   113bc:	000260a4 	andeq	r6, r2, r4, lsr #1

000113c0 <bcm2835_set_debug>:
   113c0:	e52db004 	push	{fp}		; (str fp, [sp, #-4]!)
   113c4:	e28db000 	add	fp, sp, #0
   113c8:	e24dd00c 	sub	sp, sp, #12
   113cc:	e1a03000 	mov	r3, r0
   113d0:	e54b3005 	strb	r3, [fp, #-5]
   113d4:	e59f2014 	ldr	r2, [pc, #20]	; 113f0 <bcm2835_set_debug+0x30>
   113d8:	e55b3005 	ldrb	r3, [fp, #-5]
   113dc:	e5c23000 	strb	r3, [r2]
   113e0:	e1a00000 	nop			; (mov r0, r0)
   113e4:	e28bd000 	add	sp, fp, #0
   113e8:	e49db004 	pop	{fp}		; (ldr fp, [sp], #4)
   113ec:	e12fff1e 	bx	lr
   113f0:	000261b8 			; <UNDEFINED> instruction: 0x000261b8

000113f4 <bcm2835_version>:
   113f4:	e52db004 	push	{fp}		; (str fp, [sp, #-4]!)
   113f8:	e28db000 	add	fp, sp, #0
   113fc:	e59f300c 	ldr	r3, [pc, #12]	; 11410 <bcm2835_version+0x1c>
   11400:	e1a00003 	mov	r0, r3
   11404:	e28bd000 	add	sp, fp, #0
   11408:	e49db004 	pop	{fp}		; (ldr fp, [sp], #4)
   1140c:	e12fff1e 	bx	lr
   11410:	00002748 	andeq	r2, r0, r8, asr #14

00011414 <bcm2835_peri_read>:
   11414:	e92d4800 	push	{fp, lr}
   11418:	e28db004 	add	fp, sp, #4
   1141c:	e24dd010 	sub	sp, sp, #16
   11420:	e50b0010 	str	r0, [fp, #-16]
   11424:	e59f3040 	ldr	r3, [pc, #64]	; 1146c <bcm2835_peri_read+0x58>
   11428:	e5d33000 	ldrb	r3, [r3]
   1142c:	e3530000 	cmp	r3, #0
   11430:	0a000004 	beq	11448 <bcm2835_peri_read+0x34>
   11434:	e51b1010 	ldr	r1, [fp, #-16]
   11438:	e59f0030 	ldr	r0, [pc, #48]	; 11470 <bcm2835_peri_read+0x5c>
   1143c:	ebfffcc9 	bl	10768 <printf@plt>
   11440:	e3a03000 	mov	r3, #0
   11444:	ea000005 	b	11460 <bcm2835_peri_read+0x4c>
   11448:	ee070fba 	mcr	15, 0, r0, cr7, cr10, {5}
   1144c:	e51b3010 	ldr	r3, [fp, #-16]
   11450:	e5933000 	ldr	r3, [r3]
   11454:	e50b3008 	str	r3, [fp, #-8]
   11458:	ee070fba 	mcr	15, 0, r0, cr7, cr10, {5}
   1145c:	e51b3008 	ldr	r3, [fp, #-8]
   11460:	e1a00003 	mov	r0, r3
   11464:	e24bd004 	sub	sp, fp, #4
   11468:	e8bd8800 	pop	{fp, pc}
   1146c:	000261b8 			; <UNDEFINED> instruction: 0x000261b8
   11470:	00014cf8 	strdeq	r4, [r1], -r8

00011474 <bcm2835_peri_read_nb>:
   11474:	e92d4800 	push	{fp, lr}
   11478:	e28db004 	add	fp, sp, #4
   1147c:	e24dd008 	sub	sp, sp, #8
   11480:	e50b0008 	str	r0, [fp, #-8]
   11484:	e59f3030 	ldr	r3, [pc, #48]	; 114bc <bcm2835_peri_read_nb+0x48>
   11488:	e5d33000 	ldrb	r3, [r3]
   1148c:	e3530000 	cmp	r3, #0
   11490:	0a000004 	beq	114a8 <bcm2835_peri_read_nb+0x34>
   11494:	e51b1008 	ldr	r1, [fp, #-8]
   11498:	e59f0020 	ldr	r0, [pc, #32]	; 114c0 <bcm2835_peri_read_nb+0x4c>
   1149c:	ebfffcb1 	bl	10768 <printf@plt>
   114a0:	e3a03000 	mov	r3, #0
   114a4:	ea000001 	b	114b0 <bcm2835_peri_read_nb+0x3c>
   114a8:	e51b3008 	ldr	r3, [fp, #-8]
   114ac:	e5933000 	ldr	r3, [r3]
   114b0:	e1a00003 	mov	r0, r3
   114b4:	e24bd004 	sub	sp, fp, #4
   114b8:	e8bd8800 	pop	{fp, pc}
   114bc:	000261b8 			; <UNDEFINED> instruction: 0x000261b8
   114c0:	00014d18 	andeq	r4, r1, r8, lsl sp

000114c4 <bcm2835_peri_write>:
   114c4:	e92d4800 	push	{fp, lr}
   114c8:	e28db004 	add	fp, sp, #4
   114cc:	e24dd008 	sub	sp, sp, #8
   114d0:	e50b0008 	str	r0, [fp, #-8]
   114d4:	e50b100c 	str	r1, [fp, #-12]
   114d8:	e59f303c 	ldr	r3, [pc, #60]	; 1151c <bcm2835_peri_write+0x58>
   114dc:	e5d33000 	ldrb	r3, [r3]
   114e0:	e3530000 	cmp	r3, #0
   114e4:	0a000004 	beq	114fc <bcm2835_peri_write+0x38>
   114e8:	e51b200c 	ldr	r2, [fp, #-12]
   114ec:	e51b1008 	ldr	r1, [fp, #-8]
   114f0:	e59f0028 	ldr	r0, [pc, #40]	; 11520 <bcm2835_peri_write+0x5c>
   114f4:	ebfffc9b 	bl	10768 <printf@plt>
   114f8:	ea000004 	b	11510 <bcm2835_peri_write+0x4c>
   114fc:	ee070fba 	mcr	15, 0, r0, cr7, cr10, {5}
   11500:	e51b3008 	ldr	r3, [fp, #-8]
   11504:	e51b200c 	ldr	r2, [fp, #-12]
   11508:	e5832000 	str	r2, [r3]
   1150c:	ee070fba 	mcr	15, 0, r0, cr7, cr10, {5}
   11510:	e1a00000 	nop			; (mov r0, r0)
   11514:	e24bd004 	sub	sp, fp, #4
   11518:	e8bd8800 	pop	{fp, pc}
   1151c:	000261b8 			; <UNDEFINED> instruction: 0x000261b8
   11520:	00014d38 	andeq	r4, r1, r8, lsr sp

00011524 <bcm2835_peri_write_nb>:
   11524:	e92d4800 	push	{fp, lr}
   11528:	e28db004 	add	fp, sp, #4
   1152c:	e24dd008 	sub	sp, sp, #8
   11530:	e50b0008 	str	r0, [fp, #-8]
   11534:	e50b100c 	str	r1, [fp, #-12]
   11538:	e59f3034 	ldr	r3, [pc, #52]	; 11574 <bcm2835_peri_write_nb+0x50>
   1153c:	e5d33000 	ldrb	r3, [r3]
   11540:	e3530000 	cmp	r3, #0
   11544:	0a000004 	beq	1155c <bcm2835_peri_write_nb+0x38>
   11548:	e51b200c 	ldr	r2, [fp, #-12]
   1154c:	e51b1008 	ldr	r1, [fp, #-8]
   11550:	e59f0020 	ldr	r0, [pc, #32]	; 11578 <bcm2835_peri_write_nb+0x54>
   11554:	ebfffc83 	bl	10768 <printf@plt>
   11558:	ea000002 	b	11568 <bcm2835_peri_write_nb+0x44>
   1155c:	e51b3008 	ldr	r3, [fp, #-8]
   11560:	e51b200c 	ldr	r2, [fp, #-12]
   11564:	e5832000 	str	r2, [r3]
   11568:	e1a00000 	nop			; (mov r0, r0)
   1156c:	e24bd004 	sub	sp, fp, #4
   11570:	e8bd8800 	pop	{fp, pc}
   11574:	000261b8 			; <UNDEFINED> instruction: 0x000261b8
   11578:	00014d64 	andeq	r4, r1, r4, ror #26

0001157c <bcm2835_peri_set_bits>:
   1157c:	e92d4800 	push	{fp, lr}
   11580:	e28db004 	add	fp, sp, #4
   11584:	e24dd018 	sub	sp, sp, #24
   11588:	e50b0010 	str	r0, [fp, #-16]
   1158c:	e50b1014 	str	r1, [fp, #-20]	; 0xffffffec
   11590:	e50b2018 	str	r2, [fp, #-24]	; 0xffffffe8
   11594:	e51b0010 	ldr	r0, [fp, #-16]
   11598:	ebffff9d 	bl	11414 <bcm2835_peri_read>
   1159c:	e50b0008 	str	r0, [fp, #-8]
   115a0:	e51b3018 	ldr	r3, [fp, #-24]	; 0xffffffe8
   115a4:	e1e02003 	mvn	r2, r3
   115a8:	e51b3008 	ldr	r3, [fp, #-8]
   115ac:	e0022003 	and	r2, r2, r3
   115b0:	e51b1014 	ldr	r1, [fp, #-20]	; 0xffffffec
   115b4:	e51b3018 	ldr	r3, [fp, #-24]	; 0xffffffe8
   115b8:	e0033001 	and	r3, r3, r1
   115bc:	e1823003 	orr	r3, r2, r3
   115c0:	e50b3008 	str	r3, [fp, #-8]
   115c4:	e51b1008 	ldr	r1, [fp, #-8]
   115c8:	e51b0010 	ldr	r0, [fp, #-16]
   115cc:	ebffffbc 	bl	114c4 <bcm2835_peri_write>
   115d0:	e1a00000 	nop			; (mov r0, r0)
   115d4:	e24bd004 	sub	sp, fp, #4
   115d8:	e8bd8800 	pop	{fp, pc}

000115dc <bcm2835_gpio_fsel>:
   115dc:	e92d4800 	push	{fp, lr}
   115e0:	e28db004 	add	fp, sp, #4
   115e4:	e24dd018 	sub	sp, sp, #24
   115e8:	e1a03000 	mov	r3, r0
   115ec:	e1a02001 	mov	r2, r1
   115f0:	e54b3015 	strb	r3, [fp, #-21]	; 0xffffffeb
   115f4:	e1a03002 	mov	r3, r2
   115f8:	e54b3016 	strb	r3, [fp, #-22]	; 0xffffffea
   115fc:	e59f3094 	ldr	r3, [pc, #148]	; 11698 <bcm2835_gpio_fsel+0xbc>
   11600:	e5932000 	ldr	r2, [r3]
   11604:	e55b3015 	ldrb	r3, [fp, #-21]	; 0xffffffeb
   11608:	e59f108c 	ldr	r1, [pc, #140]	; 1169c <bcm2835_gpio_fsel+0xc0>
   1160c:	e0831391 	umull	r1, r3, r1, r3
   11610:	e1a031a3 	lsr	r3, r3, #3
   11614:	e6ef3073 	uxtb	r3, r3
   11618:	e1a03103 	lsl	r3, r3, #2
   1161c:	e0823003 	add	r3, r2, r3
   11620:	e50b3008 	str	r3, [fp, #-8]
   11624:	e55b2015 	ldrb	r2, [fp, #-21]	; 0xffffffeb
   11628:	e59f306c 	ldr	r3, [pc, #108]	; 1169c <bcm2835_gpio_fsel+0xc0>
   1162c:	e0831293 	umull	r1, r3, r3, r2
   11630:	e1a011a3 	lsr	r1, r3, #3
   11634:	e1a03001 	mov	r3, r1
   11638:	e1a03103 	lsl	r3, r3, #2
   1163c:	e0833001 	add	r3, r3, r1
   11640:	e1a03083 	lsl	r3, r3, #1
   11644:	e0423003 	sub	r3, r2, r3
   11648:	e6ef3073 	uxtb	r3, r3
   1164c:	e1a02003 	mov	r2, r3
   11650:	e1a02082 	lsl	r2, r2, #1
   11654:	e0823003 	add	r3, r2, r3
   11658:	e54b3009 	strb	r3, [fp, #-9]
   1165c:	e55b3009 	ldrb	r3, [fp, #-9]
   11660:	e3a02007 	mov	r2, #7
   11664:	e1a03312 	lsl	r3, r2, r3
   11668:	e50b3010 	str	r3, [fp, #-16]
   1166c:	e55b2016 	ldrb	r2, [fp, #-22]	; 0xffffffea
   11670:	e55b3009 	ldrb	r3, [fp, #-9]
   11674:	e1a03312 	lsl	r3, r2, r3
   11678:	e50b3014 	str	r3, [fp, #-20]	; 0xffffffec
   1167c:	e51b2010 	ldr	r2, [fp, #-16]
   11680:	e51b1014 	ldr	r1, [fp, #-20]	; 0xffffffec
   11684:	e51b0008 	ldr	r0, [fp, #-8]
   11688:	ebffffbb 	bl	1157c <bcm2835_peri_set_bits>
   1168c:	e1a00000 	nop			; (mov r0, r0)
   11690:	e24bd004 	sub	sp, fp, #4
   11694:	e8bd8800 	pop	{fp, pc}
   11698:	00026080 	andeq	r6, r2, r0, lsl #1
   1169c:	cccccccd 	stclgt	12, cr12, [ip], {205}	; 0xcd

000116a0 <bcm2835_gpio_set>:
   116a0:	e92d4800 	push	{fp, lr}
   116a4:	e28db004 	add	fp, sp, #4
   116a8:	e24dd010 	sub	sp, sp, #16
   116ac:	e1a03000 	mov	r3, r0
   116b0:	e54b300d 	strb	r3, [fp, #-13]
   116b4:	e59f304c 	ldr	r3, [pc, #76]	; 11708 <bcm2835_gpio_set+0x68>
   116b8:	e5932000 	ldr	r2, [r3]
   116bc:	e55b300d 	ldrb	r3, [fp, #-13]
   116c0:	e1a032a3 	lsr	r3, r3, #5
   116c4:	e6ef3073 	uxtb	r3, r3
   116c8:	e2833007 	add	r3, r3, #7
   116cc:	e1a03103 	lsl	r3, r3, #2
   116d0:	e0823003 	add	r3, r2, r3
   116d4:	e50b3008 	str	r3, [fp, #-8]
   116d8:	e55b300d 	ldrb	r3, [fp, #-13]
   116dc:	e203301f 	and	r3, r3, #31
   116e0:	e54b3009 	strb	r3, [fp, #-9]
   116e4:	e55b3009 	ldrb	r3, [fp, #-9]
   116e8:	e3a02001 	mov	r2, #1
   116ec:	e1a03312 	lsl	r3, r2, r3
   116f0:	e1a01003 	mov	r1, r3
   116f4:	e51b0008 	ldr	r0, [fp, #-8]
   116f8:	ebffff71 	bl	114c4 <bcm2835_peri_write>
   116fc:	e1a00000 	nop			; (mov r0, r0)
   11700:	e24bd004 	sub	sp, fp, #4
   11704:	e8bd8800 	pop	{fp, pc}
   11708:	00026080 	andeq	r6, r2, r0, lsl #1

0001170c <bcm2835_gpio_clr>:
   1170c:	e92d4800 	push	{fp, lr}
   11710:	e28db004 	add	fp, sp, #4
   11714:	e24dd010 	sub	sp, sp, #16
   11718:	e1a03000 	mov	r3, r0
   1171c:	e54b300d 	strb	r3, [fp, #-13]
   11720:	e59f304c 	ldr	r3, [pc, #76]	; 11774 <bcm2835_gpio_clr+0x68>
   11724:	e5932000 	ldr	r2, [r3]
   11728:	e55b300d 	ldrb	r3, [fp, #-13]
   1172c:	e1a032a3 	lsr	r3, r3, #5
   11730:	e6ef3073 	uxtb	r3, r3
   11734:	e283300a 	add	r3, r3, #10
   11738:	e1a03103 	lsl	r3, r3, #2
   1173c:	e0823003 	add	r3, r2, r3
   11740:	e50b3008 	str	r3, [fp, #-8]
   11744:	e55b300d 	ldrb	r3, [fp, #-13]
   11748:	e203301f 	and	r3, r3, #31
   1174c:	e54b3009 	strb	r3, [fp, #-9]
   11750:	e55b3009 	ldrb	r3, [fp, #-9]
   11754:	e3a02001 	mov	r2, #1
   11758:	e1a03312 	lsl	r3, r2, r3
   1175c:	e1a01003 	mov	r1, r3
   11760:	e51b0008 	ldr	r0, [fp, #-8]
   11764:	ebffff56 	bl	114c4 <bcm2835_peri_write>
   11768:	e1a00000 	nop			; (mov r0, r0)
   1176c:	e24bd004 	sub	sp, fp, #4
   11770:	e8bd8800 	pop	{fp, pc}
   11774:	00026080 	andeq	r6, r2, r0, lsl #1

00011778 <bcm2835_gpio_set_multi>:
   11778:	e92d4800 	push	{fp, lr}
   1177c:	e28db004 	add	fp, sp, #4
   11780:	e24dd010 	sub	sp, sp, #16
   11784:	e50b0010 	str	r0, [fp, #-16]
   11788:	e59f3020 	ldr	r3, [pc, #32]	; 117b0 <bcm2835_gpio_set_multi+0x38>
   1178c:	e5933000 	ldr	r3, [r3]
   11790:	e283301c 	add	r3, r3, #28
   11794:	e50b3008 	str	r3, [fp, #-8]
   11798:	e51b1010 	ldr	r1, [fp, #-16]
   1179c:	e51b0008 	ldr	r0, [fp, #-8]
   117a0:	ebffff47 	bl	114c4 <bcm2835_peri_write>
   117a4:	e1a00000 	nop			; (mov r0, r0)
   117a8:	e24bd004 	sub	sp, fp, #4
   117ac:	e8bd8800 	pop	{fp, pc}
   117b0:	00026080 	andeq	r6, r2, r0, lsl #1

000117b4 <bcm2835_gpio_clr_multi>:
   117b4:	e92d4800 	push	{fp, lr}
   117b8:	e28db004 	add	fp, sp, #4
   117bc:	e24dd010 	sub	sp, sp, #16
   117c0:	e50b0010 	str	r0, [fp, #-16]
   117c4:	e59f3020 	ldr	r3, [pc, #32]	; 117ec <bcm2835_gpio_clr_multi+0x38>
   117c8:	e5933000 	ldr	r3, [r3]
   117cc:	e2833028 	add	r3, r3, #40	; 0x28
   117d0:	e50b3008 	str	r3, [fp, #-8]
   117d4:	e51b1010 	ldr	r1, [fp, #-16]
   117d8:	e51b0008 	ldr	r0, [fp, #-8]
   117dc:	ebffff38 	bl	114c4 <bcm2835_peri_write>
   117e0:	e1a00000 	nop			; (mov r0, r0)
   117e4:	e24bd004 	sub	sp, fp, #4
   117e8:	e8bd8800 	pop	{fp, pc}
   117ec:	00026080 	andeq	r6, r2, r0, lsl #1

000117f0 <bcm2835_gpio_lev>:
   117f0:	e92d4800 	push	{fp, lr}
   117f4:	e28db004 	add	fp, sp, #4
   117f8:	e24dd018 	sub	sp, sp, #24
   117fc:	e1a03000 	mov	r3, r0
   11800:	e54b3015 	strb	r3, [fp, #-21]	; 0xffffffeb
   11804:	e59f3068 	ldr	r3, [pc, #104]	; 11874 <bcm2835_gpio_lev+0x84>
   11808:	e5932000 	ldr	r2, [r3]
   1180c:	e55b3015 	ldrb	r3, [fp, #-21]	; 0xffffffeb
   11810:	e1a032a3 	lsr	r3, r3, #5
   11814:	e6ef3073 	uxtb	r3, r3
   11818:	e283300d 	add	r3, r3, #13
   1181c:	e1a03103 	lsl	r3, r3, #2
   11820:	e0823003 	add	r3, r2, r3
   11824:	e50b3008 	str	r3, [fp, #-8]
   11828:	e55b3015 	ldrb	r3, [fp, #-21]	; 0xffffffeb
   1182c:	e203301f 	and	r3, r3, #31
   11830:	e54b3009 	strb	r3, [fp, #-9]
   11834:	e51b0008 	ldr	r0, [fp, #-8]
   11838:	ebfffef5 	bl	11414 <bcm2835_peri_read>
   1183c:	e50b0010 	str	r0, [fp, #-16]
   11840:	e55b3009 	ldrb	r3, [fp, #-9]
   11844:	e3a02001 	mov	r2, #1
   11848:	e1a03312 	lsl	r3, r2, r3
   1184c:	e1a02003 	mov	r2, r3
   11850:	e51b3010 	ldr	r3, [fp, #-16]
   11854:	e0033002 	and	r3, r3, r2
   11858:	e3530000 	cmp	r3, #0
   1185c:	13a03001 	movne	r3, #1
   11860:	03a03000 	moveq	r3, #0
   11864:	e6ef3073 	uxtb	r3, r3
   11868:	e1a00003 	mov	r0, r3
   1186c:	e24bd004 	sub	sp, fp, #4
   11870:	e8bd8800 	pop	{fp, pc}
   11874:	00026080 	andeq	r6, r2, r0, lsl #1

00011878 <bcm2835_gpio_eds>:
   11878:	e92d4800 	push	{fp, lr}
   1187c:	e28db004 	add	fp, sp, #4
   11880:	e24dd018 	sub	sp, sp, #24
   11884:	e1a03000 	mov	r3, r0
   11888:	e54b3015 	strb	r3, [fp, #-21]	; 0xffffffeb
   1188c:	e59f3068 	ldr	r3, [pc, #104]	; 118fc <bcm2835_gpio_eds+0x84>
   11890:	e5932000 	ldr	r2, [r3]
   11894:	e55b3015 	ldrb	r3, [fp, #-21]	; 0xffffffeb
   11898:	e1a032a3 	lsr	r3, r3, #5
   1189c:	e6ef3073 	uxtb	r3, r3
   118a0:	e2833010 	add	r3, r3, #16
   118a4:	e1a03103 	lsl	r3, r3, #2
   118a8:	e0823003 	add	r3, r2, r3
   118ac:	e50b3008 	str	r3, [fp, #-8]
   118b0:	e55b3015 	ldrb	r3, [fp, #-21]	; 0xffffffeb
   118b4:	e203301f 	and	r3, r3, #31
   118b8:	e54b3009 	strb	r3, [fp, #-9]
   118bc:	e51b0008 	ldr	r0, [fp, #-8]
   118c0:	ebfffed3 	bl	11414 <bcm2835_peri_read>
   118c4:	e50b0010 	str	r0, [fp, #-16]
   118c8:	e55b3009 	ldrb	r3, [fp, #-9]
   118cc:	e3a02001 	mov	r2, #1
   118d0:	e1a03312 	lsl	r3, r2, r3
   118d4:	e1a02003 	mov	r2, r3
   118d8:	e51b3010 	ldr	r3, [fp, #-16]
   118dc:	e0033002 	and	r3, r3, r2
   118e0:	e3530000 	cmp	r3, #0
   118e4:	13a03001 	movne	r3, #1
   118e8:	03a03000 	moveq	r3, #0
   118ec:	e6ef3073 	uxtb	r3, r3
   118f0:	e1a00003 	mov	r0, r3
   118f4:	e24bd004 	sub	sp, fp, #4
   118f8:	e8bd8800 	pop	{fp, pc}
   118fc:	00026080 	andeq	r6, r2, r0, lsl #1

00011900 <bcm2835_gpio_eds_multi>:
   11900:	e92d4800 	push	{fp, lr}
   11904:	e28db004 	add	fp, sp, #4
   11908:	e24dd010 	sub	sp, sp, #16
   1190c:	e50b0010 	str	r0, [fp, #-16]
   11910:	e59f302c 	ldr	r3, [pc, #44]	; 11944 <bcm2835_gpio_eds_multi+0x44>
   11914:	e5933000 	ldr	r3, [r3]
   11918:	e2833040 	add	r3, r3, #64	; 0x40
   1191c:	e50b3008 	str	r3, [fp, #-8]
   11920:	e51b0008 	ldr	r0, [fp, #-8]
   11924:	ebfffeba 	bl	11414 <bcm2835_peri_read>
   11928:	e50b000c 	str	r0, [fp, #-12]
   1192c:	e51b200c 	ldr	r2, [fp, #-12]
   11930:	e51b3010 	ldr	r3, [fp, #-16]
   11934:	e0033002 	and	r3, r3, r2
   11938:	e1a00003 	mov	r0, r3
   1193c:	e24bd004 	sub	sp, fp, #4
   11940:	e8bd8800 	pop	{fp, pc}
   11944:	00026080 	andeq	r6, r2, r0, lsl #1

00011948 <bcm2835_gpio_set_eds>:
   11948:	e92d4800 	push	{fp, lr}
   1194c:	e28db004 	add	fp, sp, #4
   11950:	e24dd018 	sub	sp, sp, #24
   11954:	e1a03000 	mov	r3, r0
   11958:	e54b3015 	strb	r3, [fp, #-21]	; 0xffffffeb
   1195c:	e59f3050 	ldr	r3, [pc, #80]	; 119b4 <bcm2835_gpio_set_eds+0x6c>
   11960:	e5932000 	ldr	r2, [r3]
   11964:	e55b3015 	ldrb	r3, [fp, #-21]	; 0xffffffeb
   11968:	e1a032a3 	lsr	r3, r3, #5
   1196c:	e6ef3073 	uxtb	r3, r3
   11970:	e2833010 	add	r3, r3, #16
   11974:	e1a03103 	lsl	r3, r3, #2
   11978:	e0823003 	add	r3, r2, r3
   1197c:	e50b3008 	str	r3, [fp, #-8]
   11980:	e55b3015 	ldrb	r3, [fp, #-21]	; 0xffffffeb
   11984:	e203301f 	and	r3, r3, #31
   11988:	e54b3009 	strb	r3, [fp, #-9]
   1198c:	e55b3009 	ldrb	r3, [fp, #-9]
   11990:	e3a02001 	mov	r2, #1
   11994:	e1a03312 	lsl	r3, r2, r3
   11998:	e50b3010 	str	r3, [fp, #-16]
   1199c:	e51b1010 	ldr	r1, [fp, #-16]
   119a0:	e51b0008 	ldr	r0, [fp, #-8]
   119a4:	ebfffec6 	bl	114c4 <bcm2835_peri_write>
   119a8:	e1a00000 	nop			; (mov r0, r0)
   119ac:	e24bd004 	sub	sp, fp, #4
   119b0:	e8bd8800 	pop	{fp, pc}
   119b4:	00026080 	andeq	r6, r2, r0, lsl #1

000119b8 <bcm2835_gpio_set_eds_multi>:
   119b8:	e92d4800 	push	{fp, lr}
   119bc:	e28db004 	add	fp, sp, #4
   119c0:	e24dd010 	sub	sp, sp, #16
   119c4:	e50b0010 	str	r0, [fp, #-16]
   119c8:	e59f3020 	ldr	r3, [pc, #32]	; 119f0 <bcm2835_gpio_set_eds_multi+0x38>
   119cc:	e5933000 	ldr	r3, [r3]
   119d0:	e2833040 	add	r3, r3, #64	; 0x40
   119d4:	e50b3008 	str	r3, [fp, #-8]
   119d8:	e51b1010 	ldr	r1, [fp, #-16]
   119dc:	e51b0008 	ldr	r0, [fp, #-8]
   119e0:	ebfffeb7 	bl	114c4 <bcm2835_peri_write>
   119e4:	e1a00000 	nop			; (mov r0, r0)
   119e8:	e24bd004 	sub	sp, fp, #4
   119ec:	e8bd8800 	pop	{fp, pc}
   119f0:	00026080 	andeq	r6, r2, r0, lsl #1

000119f4 <bcm2835_gpio_ren>:
   119f4:	e92d4800 	push	{fp, lr}
   119f8:	e28db004 	add	fp, sp, #4
   119fc:	e24dd018 	sub	sp, sp, #24
   11a00:	e1a03000 	mov	r3, r0
   11a04:	e54b3015 	strb	r3, [fp, #-21]	; 0xffffffeb
   11a08:	e59f3054 	ldr	r3, [pc, #84]	; 11a64 <bcm2835_gpio_ren+0x70>
   11a0c:	e5932000 	ldr	r2, [r3]
   11a10:	e55b3015 	ldrb	r3, [fp, #-21]	; 0xffffffeb
   11a14:	e1a032a3 	lsr	r3, r3, #5
   11a18:	e6ef3073 	uxtb	r3, r3
   11a1c:	e2833013 	add	r3, r3, #19
   11a20:	e1a03103 	lsl	r3, r3, #2
   11a24:	e0823003 	add	r3, r2, r3
   11a28:	e50b3008 	str	r3, [fp, #-8]
   11a2c:	e55b3015 	ldrb	r3, [fp, #-21]	; 0xffffffeb
   11a30:	e203301f 	and	r3, r3, #31
   11a34:	e54b3009 	strb	r3, [fp, #-9]
   11a38:	e55b3009 	ldrb	r3, [fp, #-9]
   11a3c:	e3a02001 	mov	r2, #1
   11a40:	e1a03312 	lsl	r3, r2, r3
   11a44:	e50b3010 	str	r3, [fp, #-16]
   11a48:	e51b2010 	ldr	r2, [fp, #-16]
   11a4c:	e51b1010 	ldr	r1, [fp, #-16]
   11a50:	e51b0008 	ldr	r0, [fp, #-8]
   11a54:	ebfffec8 	bl	1157c <bcm2835_peri_set_bits>
   11a58:	e1a00000 	nop			; (mov r0, r0)
   11a5c:	e24bd004 	sub	sp, fp, #4
   11a60:	e8bd8800 	pop	{fp, pc}
   11a64:	00026080 	andeq	r6, r2, r0, lsl #1

00011a68 <bcm2835_gpio_clr_ren>:
   11a68:	e92d4800 	push	{fp, lr}
   11a6c:	e28db004 	add	fp, sp, #4
   11a70:	e24dd018 	sub	sp, sp, #24
   11a74:	e1a03000 	mov	r3, r0
   11a78:	e54b3015 	strb	r3, [fp, #-21]	; 0xffffffeb
   11a7c:	e59f3054 	ldr	r3, [pc, #84]	; 11ad8 <bcm2835_gpio_clr_ren+0x70>
   11a80:	e5932000 	ldr	r2, [r3]
   11a84:	e55b3015 	ldrb	r3, [fp, #-21]	; 0xffffffeb
   11a88:	e1a032a3 	lsr	r3, r3, #5
   11a8c:	e6ef3073 	uxtb	r3, r3
   11a90:	e2833013 	add	r3, r3, #19
   11a94:	e1a03103 	lsl	r3, r3, #2
   11a98:	e0823003 	add	r3, r2, r3
   11a9c:	e50b3008 	str	r3, [fp, #-8]
   11aa0:	e55b3015 	ldrb	r3, [fp, #-21]	; 0xffffffeb
   11aa4:	e203301f 	and	r3, r3, #31
   11aa8:	e54b3009 	strb	r3, [fp, #-9]
   11aac:	e55b3009 	ldrb	r3, [fp, #-9]
   11ab0:	e3a02001 	mov	r2, #1
   11ab4:	e1a03312 	lsl	r3, r2, r3
   11ab8:	e50b3010 	str	r3, [fp, #-16]
   11abc:	e51b2010 	ldr	r2, [fp, #-16]
   11ac0:	e3a01000 	mov	r1, #0
   11ac4:	e51b0008 	ldr	r0, [fp, #-8]
   11ac8:	ebfffeab 	bl	1157c <bcm2835_peri_set_bits>
   11acc:	e1a00000 	nop			; (mov r0, r0)
   11ad0:	e24bd004 	sub	sp, fp, #4
   11ad4:	e8bd8800 	pop	{fp, pc}
   11ad8:	00026080 	andeq	r6, r2, r0, lsl #1

00011adc <bcm2835_gpio_fen>:
   11adc:	e92d4800 	push	{fp, lr}
   11ae0:	e28db004 	add	fp, sp, #4
   11ae4:	e24dd018 	sub	sp, sp, #24
   11ae8:	e1a03000 	mov	r3, r0
   11aec:	e54b3015 	strb	r3, [fp, #-21]	; 0xffffffeb
   11af0:	e59f3054 	ldr	r3, [pc, #84]	; 11b4c <bcm2835_gpio_fen+0x70>
   11af4:	e5932000 	ldr	r2, [r3]
   11af8:	e55b3015 	ldrb	r3, [fp, #-21]	; 0xffffffeb
   11afc:	e1a032a3 	lsr	r3, r3, #5
   11b00:	e6ef3073 	uxtb	r3, r3
   11b04:	e2833016 	add	r3, r3, #22
   11b08:	e1a03103 	lsl	r3, r3, #2
   11b0c:	e0823003 	add	r3, r2, r3
   11b10:	e50b3008 	str	r3, [fp, #-8]
   11b14:	e55b3015 	ldrb	r3, [fp, #-21]	; 0xffffffeb
   11b18:	e203301f 	and	r3, r3, #31
   11b1c:	e54b3009 	strb	r3, [fp, #-9]
   11b20:	e55b3009 	ldrb	r3, [fp, #-9]
   11b24:	e3a02001 	mov	r2, #1
   11b28:	e1a03312 	lsl	r3, r2, r3
   11b2c:	e50b3010 	str	r3, [fp, #-16]
   11b30:	e51b2010 	ldr	r2, [fp, #-16]
   11b34:	e51b1010 	ldr	r1, [fp, #-16]
   11b38:	e51b0008 	ldr	r0, [fp, #-8]
   11b3c:	ebfffe8e 	bl	1157c <bcm2835_peri_set_bits>
   11b40:	e1a00000 	nop			; (mov r0, r0)
   11b44:	e24bd004 	sub	sp, fp, #4
   11b48:	e8bd8800 	pop	{fp, pc}
   11b4c:	00026080 	andeq	r6, r2, r0, lsl #1

00011b50 <bcm2835_gpio_clr_fen>:
   11b50:	e92d4800 	push	{fp, lr}
   11b54:	e28db004 	add	fp, sp, #4
   11b58:	e24dd018 	sub	sp, sp, #24
   11b5c:	e1a03000 	mov	r3, r0
   11b60:	e54b3015 	strb	r3, [fp, #-21]	; 0xffffffeb
   11b64:	e59f3054 	ldr	r3, [pc, #84]	; 11bc0 <bcm2835_gpio_clr_fen+0x70>
   11b68:	e5932000 	ldr	r2, [r3]
   11b6c:	e55b3015 	ldrb	r3, [fp, #-21]	; 0xffffffeb
   11b70:	e1a032a3 	lsr	r3, r3, #5
   11b74:	e6ef3073 	uxtb	r3, r3
   11b78:	e2833016 	add	r3, r3, #22
   11b7c:	e1a03103 	lsl	r3, r3, #2
   11b80:	e0823003 	add	r3, r2, r3
   11b84:	e50b3008 	str	r3, [fp, #-8]
   11b88:	e55b3015 	ldrb	r3, [fp, #-21]	; 0xffffffeb
   11b8c:	e203301f 	and	r3, r3, #31
   11b90:	e54b3009 	strb	r3, [fp, #-9]
   11b94:	e55b3009 	ldrb	r3, [fp, #-9]
   11b98:	e3a02001 	mov	r2, #1
   11b9c:	e1a03312 	lsl	r3, r2, r3
   11ba0:	e50b3010 	str	r3, [fp, #-16]
   11ba4:	e51b2010 	ldr	r2, [fp, #-16]
   11ba8:	e3a01000 	mov	r1, #0
   11bac:	e51b0008 	ldr	r0, [fp, #-8]
   11bb0:	ebfffe71 	bl	1157c <bcm2835_peri_set_bits>
   11bb4:	e1a00000 	nop			; (mov r0, r0)
   11bb8:	e24bd004 	sub	sp, fp, #4
   11bbc:	e8bd8800 	pop	{fp, pc}
   11bc0:	00026080 	andeq	r6, r2, r0, lsl #1

00011bc4 <bcm2835_gpio_hen>:
   11bc4:	e92d4800 	push	{fp, lr}
   11bc8:	e28db004 	add	fp, sp, #4
   11bcc:	e24dd018 	sub	sp, sp, #24
   11bd0:	e1a03000 	mov	r3, r0
   11bd4:	e54b3015 	strb	r3, [fp, #-21]	; 0xffffffeb
   11bd8:	e59f3054 	ldr	r3, [pc, #84]	; 11c34 <bcm2835_gpio_hen+0x70>
   11bdc:	e5932000 	ldr	r2, [r3]
   11be0:	e55b3015 	ldrb	r3, [fp, #-21]	; 0xffffffeb
   11be4:	e1a032a3 	lsr	r3, r3, #5
   11be8:	e6ef3073 	uxtb	r3, r3
   11bec:	e2833019 	add	r3, r3, #25
   11bf0:	e1a03103 	lsl	r3, r3, #2
   11bf4:	e0823003 	add	r3, r2, r3
   11bf8:	e50b3008 	str	r3, [fp, #-8]
   11bfc:	e55b3015 	ldrb	r3, [fp, #-21]	; 0xffffffeb
   11c00:	e203301f 	and	r3, r3, #31
   11c04:	e54b3009 	strb	r3, [fp, #-9]
   11c08:	e55b3009 	ldrb	r3, [fp, #-9]
   11c0c:	e3a02001 	mov	r2, #1
   11c10:	e1a03312 	lsl	r3, r2, r3
   11c14:	e50b3010 	str	r3, [fp, #-16]
   11c18:	e51b2010 	ldr	r2, [fp, #-16]
   11c1c:	e51b1010 	ldr	r1, [fp, #-16]
   11c20:	e51b0008 	ldr	r0, [fp, #-8]
   11c24:	ebfffe54 	bl	1157c <bcm2835_peri_set_bits>
   11c28:	e1a00000 	nop			; (mov r0, r0)
   11c2c:	e24bd004 	sub	sp, fp, #4
   11c30:	e8bd8800 	pop	{fp, pc}
   11c34:	00026080 	andeq	r6, r2, r0, lsl #1

00011c38 <bcm2835_gpio_clr_hen>:
   11c38:	e92d4800 	push	{fp, lr}
   11c3c:	e28db004 	add	fp, sp, #4
   11c40:	e24dd018 	sub	sp, sp, #24
   11c44:	e1a03000 	mov	r3, r0
   11c48:	e54b3015 	strb	r3, [fp, #-21]	; 0xffffffeb
   11c4c:	e59f3054 	ldr	r3, [pc, #84]	; 11ca8 <bcm2835_gpio_clr_hen+0x70>
   11c50:	e5932000 	ldr	r2, [r3]
   11c54:	e55b3015 	ldrb	r3, [fp, #-21]	; 0xffffffeb
   11c58:	e1a032a3 	lsr	r3, r3, #5
   11c5c:	e6ef3073 	uxtb	r3, r3
   11c60:	e2833019 	add	r3, r3, #25
   11c64:	e1a03103 	lsl	r3, r3, #2
   11c68:	e0823003 	add	r3, r2, r3
   11c6c:	e50b3008 	str	r3, [fp, #-8]
   11c70:	e55b3015 	ldrb	r3, [fp, #-21]	; 0xffffffeb
   11c74:	e203301f 	and	r3, r3, #31
   11c78:	e54b3009 	strb	r3, [fp, #-9]
   11c7c:	e55b3009 	ldrb	r3, [fp, #-9]
   11c80:	e3a02001 	mov	r2, #1
   11c84:	e1a03312 	lsl	r3, r2, r3
   11c88:	e50b3010 	str	r3, [fp, #-16]
   11c8c:	e51b2010 	ldr	r2, [fp, #-16]
   11c90:	e3a01000 	mov	r1, #0
   11c94:	e51b0008 	ldr	r0, [fp, #-8]
   11c98:	ebfffe37 	bl	1157c <bcm2835_peri_set_bits>
   11c9c:	e1a00000 	nop			; (mov r0, r0)
   11ca0:	e24bd004 	sub	sp, fp, #4
   11ca4:	e8bd8800 	pop	{fp, pc}
   11ca8:	00026080 	andeq	r6, r2, r0, lsl #1

00011cac <bcm2835_gpio_len>:
   11cac:	e92d4800 	push	{fp, lr}
   11cb0:	e28db004 	add	fp, sp, #4
   11cb4:	e24dd018 	sub	sp, sp, #24
   11cb8:	e1a03000 	mov	r3, r0
   11cbc:	e54b3015 	strb	r3, [fp, #-21]	; 0xffffffeb
   11cc0:	e59f3054 	ldr	r3, [pc, #84]	; 11d1c <bcm2835_gpio_len+0x70>
   11cc4:	e5932000 	ldr	r2, [r3]
   11cc8:	e55b3015 	ldrb	r3, [fp, #-21]	; 0xffffffeb
   11ccc:	e1a032a3 	lsr	r3, r3, #5
   11cd0:	e6ef3073 	uxtb	r3, r3
   11cd4:	e283301c 	add	r3, r3, #28
   11cd8:	e1a03103 	lsl	r3, r3, #2
   11cdc:	e0823003 	add	r3, r2, r3
   11ce0:	e50b3008 	str	r3, [fp, #-8]
   11ce4:	e55b3015 	ldrb	r3, [fp, #-21]	; 0xffffffeb
   11ce8:	e203301f 	and	r3, r3, #31
   11cec:	e54b3009 	strb	r3, [fp, #-9]
   11cf0:	e55b3009 	ldrb	r3, [fp, #-9]
   11cf4:	e3a02001 	mov	r2, #1
   11cf8:	e1a03312 	lsl	r3, r2, r3
   11cfc:	e50b3010 	str	r3, [fp, #-16]
   11d00:	e51b2010 	ldr	r2, [fp, #-16]
   11d04:	e51b1010 	ldr	r1, [fp, #-16]
   11d08:	e51b0008 	ldr	r0, [fp, #-8]
   11d0c:	ebfffe1a 	bl	1157c <bcm2835_peri_set_bits>
   11d10:	e1a00000 	nop			; (mov r0, r0)
   11d14:	e24bd004 	sub	sp, fp, #4
   11d18:	e8bd8800 	pop	{fp, pc}
   11d1c:	00026080 	andeq	r6, r2, r0, lsl #1

00011d20 <bcm2835_gpio_clr_len>:
   11d20:	e92d4800 	push	{fp, lr}
   11d24:	e28db004 	add	fp, sp, #4
   11d28:	e24dd018 	sub	sp, sp, #24
   11d2c:	e1a03000 	mov	r3, r0
   11d30:	e54b3015 	strb	r3, [fp, #-21]	; 0xffffffeb
   11d34:	e59f3054 	ldr	r3, [pc, #84]	; 11d90 <bcm2835_gpio_clr_len+0x70>
   11d38:	e5932000 	ldr	r2, [r3]
   11d3c:	e55b3015 	ldrb	r3, [fp, #-21]	; 0xffffffeb
   11d40:	e1a032a3 	lsr	r3, r3, #5
   11d44:	e6ef3073 	uxtb	r3, r3
   11d48:	e283301c 	add	r3, r3, #28
   11d4c:	e1a03103 	lsl	r3, r3, #2
   11d50:	e0823003 	add	r3, r2, r3
   11d54:	e50b3008 	str	r3, [fp, #-8]
   11d58:	e55b3015 	ldrb	r3, [fp, #-21]	; 0xffffffeb
   11d5c:	e203301f 	and	r3, r3, #31
   11d60:	e54b3009 	strb	r3, [fp, #-9]
   11d64:	e55b3009 	ldrb	r3, [fp, #-9]
   11d68:	e3a02001 	mov	r2, #1
   11d6c:	e1a03312 	lsl	r3, r2, r3
   11d70:	e50b3010 	str	r3, [fp, #-16]
   11d74:	e51b2010 	ldr	r2, [fp, #-16]
   11d78:	e3a01000 	mov	r1, #0
   11d7c:	e51b0008 	ldr	r0, [fp, #-8]
   11d80:	ebfffdfd 	bl	1157c <bcm2835_peri_set_bits>
   11d84:	e1a00000 	nop			; (mov r0, r0)
   11d88:	e24bd004 	sub	sp, fp, #4
   11d8c:	e8bd8800 	pop	{fp, pc}
   11d90:	00026080 	andeq	r6, r2, r0, lsl #1

00011d94 <bcm2835_gpio_aren>:
   11d94:	e92d4800 	push	{fp, lr}
   11d98:	e28db004 	add	fp, sp, #4
   11d9c:	e24dd018 	sub	sp, sp, #24
   11da0:	e1a03000 	mov	r3, r0
   11da4:	e54b3015 	strb	r3, [fp, #-21]	; 0xffffffeb
   11da8:	e59f3054 	ldr	r3, [pc, #84]	; 11e04 <bcm2835_gpio_aren+0x70>
   11dac:	e5932000 	ldr	r2, [r3]
   11db0:	e55b3015 	ldrb	r3, [fp, #-21]	; 0xffffffeb
   11db4:	e1a032a3 	lsr	r3, r3, #5
   11db8:	e6ef3073 	uxtb	r3, r3
   11dbc:	e283301f 	add	r3, r3, #31
   11dc0:	e1a03103 	lsl	r3, r3, #2
   11dc4:	e0823003 	add	r3, r2, r3
   11dc8:	e50b3008 	str	r3, [fp, #-8]
   11dcc:	e55b3015 	ldrb	r3, [fp, #-21]	; 0xffffffeb
   11dd0:	e203301f 	and	r3, r3, #31
   11dd4:	e54b3009 	strb	r3, [fp, #-9]
   11dd8:	e55b3009 	ldrb	r3, [fp, #-9]
   11ddc:	e3a02001 	mov	r2, #1
   11de0:	e1a03312 	lsl	r3, r2, r3
   11de4:	e50b3010 	str	r3, [fp, #-16]
   11de8:	e51b2010 	ldr	r2, [fp, #-16]
   11dec:	e51b1010 	ldr	r1, [fp, #-16]
   11df0:	e51b0008 	ldr	r0, [fp, #-8]
   11df4:	ebfffde0 	bl	1157c <bcm2835_peri_set_bits>
   11df8:	e1a00000 	nop			; (mov r0, r0)
   11dfc:	e24bd004 	sub	sp, fp, #4
   11e00:	e8bd8800 	pop	{fp, pc}
   11e04:	00026080 	andeq	r6, r2, r0, lsl #1

00011e08 <bcm2835_gpio_clr_aren>:
   11e08:	e92d4800 	push	{fp, lr}
   11e0c:	e28db004 	add	fp, sp, #4
   11e10:	e24dd018 	sub	sp, sp, #24
   11e14:	e1a03000 	mov	r3, r0
   11e18:	e54b3015 	strb	r3, [fp, #-21]	; 0xffffffeb
   11e1c:	e59f3054 	ldr	r3, [pc, #84]	; 11e78 <bcm2835_gpio_clr_aren+0x70>
   11e20:	e5932000 	ldr	r2, [r3]
   11e24:	e55b3015 	ldrb	r3, [fp, #-21]	; 0xffffffeb
   11e28:	e1a032a3 	lsr	r3, r3, #5
   11e2c:	e6ef3073 	uxtb	r3, r3
   11e30:	e283301f 	add	r3, r3, #31
   11e34:	e1a03103 	lsl	r3, r3, #2
   11e38:	e0823003 	add	r3, r2, r3
   11e3c:	e50b3008 	str	r3, [fp, #-8]
   11e40:	e55b3015 	ldrb	r3, [fp, #-21]	; 0xffffffeb
   11e44:	e203301f 	and	r3, r3, #31
   11e48:	e54b3009 	strb	r3, [fp, #-9]
   11e4c:	e55b3009 	ldrb	r3, [fp, #-9]
   11e50:	e3a02001 	mov	r2, #1
   11e54:	e1a03312 	lsl	r3, r2, r3
   11e58:	e50b3010 	str	r3, [fp, #-16]
   11e5c:	e51b2010 	ldr	r2, [fp, #-16]
   11e60:	e3a01000 	mov	r1, #0
   11e64:	e51b0008 	ldr	r0, [fp, #-8]
   11e68:	ebfffdc3 	bl	1157c <bcm2835_peri_set_bits>
   11e6c:	e1a00000 	nop			; (mov r0, r0)
   11e70:	e24bd004 	sub	sp, fp, #4
   11e74:	e8bd8800 	pop	{fp, pc}
   11e78:	00026080 	andeq	r6, r2, r0, lsl #1

00011e7c <bcm2835_gpio_afen>:
   11e7c:	e92d4800 	push	{fp, lr}
   11e80:	e28db004 	add	fp, sp, #4
   11e84:	e24dd018 	sub	sp, sp, #24
   11e88:	e1a03000 	mov	r3, r0
   11e8c:	e54b3015 	strb	r3, [fp, #-21]	; 0xffffffeb
   11e90:	e59f3054 	ldr	r3, [pc, #84]	; 11eec <bcm2835_gpio_afen+0x70>
   11e94:	e5932000 	ldr	r2, [r3]
   11e98:	e55b3015 	ldrb	r3, [fp, #-21]	; 0xffffffeb
   11e9c:	e1a032a3 	lsr	r3, r3, #5
   11ea0:	e6ef3073 	uxtb	r3, r3
   11ea4:	e2833022 	add	r3, r3, #34	; 0x22
   11ea8:	e1a03103 	lsl	r3, r3, #2
   11eac:	e0823003 	add	r3, r2, r3
   11eb0:	e50b3008 	str	r3, [fp, #-8]
   11eb4:	e55b3015 	ldrb	r3, [fp, #-21]	; 0xffffffeb
   11eb8:	e203301f 	and	r3, r3, #31
   11ebc:	e54b3009 	strb	r3, [fp, #-9]
   11ec0:	e55b3009 	ldrb	r3, [fp, #-9]
   11ec4:	e3a02001 	mov	r2, #1
   11ec8:	e1a03312 	lsl	r3, r2, r3
   11ecc:	e50b3010 	str	r3, [fp, #-16]
   11ed0:	e51b2010 	ldr	r2, [fp, #-16]
   11ed4:	e51b1010 	ldr	r1, [fp, #-16]
   11ed8:	e51b0008 	ldr	r0, [fp, #-8]
   11edc:	ebfffda6 	bl	1157c <bcm2835_peri_set_bits>
   11ee0:	e1a00000 	nop			; (mov r0, r0)
   11ee4:	e24bd004 	sub	sp, fp, #4
   11ee8:	e8bd8800 	pop	{fp, pc}
   11eec:	00026080 	andeq	r6, r2, r0, lsl #1

00011ef0 <bcm2835_gpio_clr_afen>:
   11ef0:	e92d4800 	push	{fp, lr}
   11ef4:	e28db004 	add	fp, sp, #4
   11ef8:	e24dd018 	sub	sp, sp, #24
   11efc:	e1a03000 	mov	r3, r0
   11f00:	e54b3015 	strb	r3, [fp, #-21]	; 0xffffffeb
   11f04:	e59f3054 	ldr	r3, [pc, #84]	; 11f60 <bcm2835_gpio_clr_afen+0x70>
   11f08:	e5932000 	ldr	r2, [r3]
   11f0c:	e55b3015 	ldrb	r3, [fp, #-21]	; 0xffffffeb
   11f10:	e1a032a3 	lsr	r3, r3, #5
   11f14:	e6ef3073 	uxtb	r3, r3
   11f18:	e2833022 	add	r3, r3, #34	; 0x22
   11f1c:	e1a03103 	lsl	r3, r3, #2
   11f20:	e0823003 	add	r3, r2, r3
   11f24:	e50b3008 	str	r3, [fp, #-8]
   11f28:	e55b3015 	ldrb	r3, [fp, #-21]	; 0xffffffeb
   11f2c:	e203301f 	and	r3, r3, #31
   11f30:	e54b3009 	strb	r3, [fp, #-9]
   11f34:	e55b3009 	ldrb	r3, [fp, #-9]
   11f38:	e3a02001 	mov	r2, #1
   11f3c:	e1a03312 	lsl	r3, r2, r3
   11f40:	e50b3010 	str	r3, [fp, #-16]
   11f44:	e51b2010 	ldr	r2, [fp, #-16]
   11f48:	e3a01000 	mov	r1, #0
   11f4c:	e51b0008 	ldr	r0, [fp, #-8]
   11f50:	ebfffd89 	bl	1157c <bcm2835_peri_set_bits>
   11f54:	e1a00000 	nop			; (mov r0, r0)
   11f58:	e24bd004 	sub	sp, fp, #4
   11f5c:	e8bd8800 	pop	{fp, pc}
   11f60:	00026080 	andeq	r6, r2, r0, lsl #1

00011f64 <bcm2835_gpio_pud>:
   11f64:	e92d4800 	push	{fp, lr}
   11f68:	e28db004 	add	fp, sp, #4
   11f6c:	e24dd010 	sub	sp, sp, #16
   11f70:	e1a03000 	mov	r3, r0
   11f74:	e54b300d 	strb	r3, [fp, #-13]
   11f78:	e59f3024 	ldr	r3, [pc, #36]	; 11fa4 <bcm2835_gpio_pud+0x40>
   11f7c:	e5933000 	ldr	r3, [r3]
   11f80:	e2833094 	add	r3, r3, #148	; 0x94
   11f84:	e50b3008 	str	r3, [fp, #-8]
   11f88:	e55b300d 	ldrb	r3, [fp, #-13]
   11f8c:	e1a01003 	mov	r1, r3
   11f90:	e51b0008 	ldr	r0, [fp, #-8]
   11f94:	ebfffd4a 	bl	114c4 <bcm2835_peri_write>
   11f98:	e1a00000 	nop			; (mov r0, r0)
   11f9c:	e24bd004 	sub	sp, fp, #4
   11fa0:	e8bd8800 	pop	{fp, pc}
   11fa4:	00026080 	andeq	r6, r2, r0, lsl #1

00011fa8 <bcm2835_gpio_pudclk>:
   11fa8:	e92d4800 	push	{fp, lr}
   11fac:	e28db004 	add	fp, sp, #4
   11fb0:	e24dd010 	sub	sp, sp, #16
   11fb4:	e1a03000 	mov	r3, r0
   11fb8:	e1a02001 	mov	r2, r1
   11fbc:	e54b300d 	strb	r3, [fp, #-13]
   11fc0:	e1a03002 	mov	r3, r2
   11fc4:	e54b300e 	strb	r3, [fp, #-14]
   11fc8:	e59f3060 	ldr	r3, [pc, #96]	; 12030 <bcm2835_gpio_pudclk+0x88>
   11fcc:	e5932000 	ldr	r2, [r3]
   11fd0:	e55b300d 	ldrb	r3, [fp, #-13]
   11fd4:	e1a032a3 	lsr	r3, r3, #5
   11fd8:	e6ef3073 	uxtb	r3, r3
   11fdc:	e2833026 	add	r3, r3, #38	; 0x26
   11fe0:	e1a03103 	lsl	r3, r3, #2
   11fe4:	e0823003 	add	r3, r2, r3
   11fe8:	e50b3008 	str	r3, [fp, #-8]
   11fec:	e55b300d 	ldrb	r3, [fp, #-13]
   11ff0:	e203301f 	and	r3, r3, #31
   11ff4:	e54b3009 	strb	r3, [fp, #-9]
   11ff8:	e55b300e 	ldrb	r3, [fp, #-14]
   11ffc:	e3530000 	cmp	r3, #0
   12000:	13a03001 	movne	r3, #1
   12004:	03a03000 	moveq	r3, #0
   12008:	e6ef3073 	uxtb	r3, r3
   1200c:	e1a02003 	mov	r2, r3
   12010:	e55b3009 	ldrb	r3, [fp, #-9]
   12014:	e1a03312 	lsl	r3, r2, r3
   12018:	e1a01003 	mov	r1, r3
   1201c:	e51b0008 	ldr	r0, [fp, #-8]
   12020:	ebfffd27 	bl	114c4 <bcm2835_peri_write>
   12024:	e1a00000 	nop			; (mov r0, r0)
   12028:	e24bd004 	sub	sp, fp, #4
   1202c:	e8bd8800 	pop	{fp, pc}
   12030:	00026080 	andeq	r6, r2, r0, lsl #1

00012034 <bcm2835_gpio_pad>:
   12034:	e92d4800 	push	{fp, lr}
   12038:	e28db004 	add	fp, sp, #4
   1203c:	e24dd010 	sub	sp, sp, #16
   12040:	e1a03000 	mov	r3, r0
   12044:	e54b300d 	strb	r3, [fp, #-13]
   12048:	e59f3044 	ldr	r3, [pc, #68]	; 12094 <bcm2835_gpio_pad+0x60>
   1204c:	e5933000 	ldr	r3, [r3]
   12050:	e3730001 	cmn	r3, #1
   12054:	1a000001 	bne	12060 <bcm2835_gpio_pad+0x2c>
   12058:	e3a03000 	mov	r3, #0
   1205c:	ea000009 	b	12088 <bcm2835_gpio_pad+0x54>
   12060:	e59f302c 	ldr	r3, [pc, #44]	; 12094 <bcm2835_gpio_pad+0x60>
   12064:	e5932000 	ldr	r2, [r3]
   12068:	e55b300d 	ldrb	r3, [fp, #-13]
   1206c:	e283300b 	add	r3, r3, #11
   12070:	e1a03103 	lsl	r3, r3, #2
   12074:	e0823003 	add	r3, r2, r3
   12078:	e50b3008 	str	r3, [fp, #-8]
   1207c:	e51b0008 	ldr	r0, [fp, #-8]
   12080:	ebfffce3 	bl	11414 <bcm2835_peri_read>
   12084:	e1a03000 	mov	r3, r0
   12088:	e1a00003 	mov	r0, r3
   1208c:	e24bd004 	sub	sp, fp, #4
   12090:	e8bd8800 	pop	{fp, pc}
   12094:	0002608c 	andeq	r6, r2, ip, lsl #1

00012098 <bcm2835_gpio_set_pad>:
   12098:	e92d4800 	push	{fp, lr}
   1209c:	e28db004 	add	fp, sp, #4
   120a0:	e24dd010 	sub	sp, sp, #16
   120a4:	e1a03000 	mov	r3, r0
   120a8:	e50b1014 	str	r1, [fp, #-20]	; 0xffffffec
   120ac:	e54b300d 	strb	r3, [fp, #-13]
   120b0:	e59f3048 	ldr	r3, [pc, #72]	; 12100 <bcm2835_gpio_set_pad+0x68>
   120b4:	e5933000 	ldr	r3, [r3]
   120b8:	e3730001 	cmn	r3, #1
   120bc:	0a00000c 	beq	120f4 <bcm2835_gpio_set_pad+0x5c>
   120c0:	e59f3038 	ldr	r3, [pc, #56]	; 12100 <bcm2835_gpio_set_pad+0x68>
   120c4:	e5932000 	ldr	r2, [r3]
   120c8:	e55b300d 	ldrb	r3, [fp, #-13]
   120cc:	e283300b 	add	r3, r3, #11
   120d0:	e1a03103 	lsl	r3, r3, #2
   120d4:	e0823003 	add	r3, r2, r3
   120d8:	e50b3008 	str	r3, [fp, #-8]
   120dc:	e51b3014 	ldr	r3, [fp, #-20]	; 0xffffffec
   120e0:	e383345a 	orr	r3, r3, #1509949440	; 0x5a000000
   120e4:	e1a01003 	mov	r1, r3
   120e8:	e51b0008 	ldr	r0, [fp, #-8]
   120ec:	ebfffcf4 	bl	114c4 <bcm2835_peri_write>
   120f0:	ea000000 	b	120f8 <bcm2835_gpio_set_pad+0x60>
   120f4:	e1a00000 	nop			; (mov r0, r0)
   120f8:	e24bd004 	sub	sp, fp, #4
   120fc:	e8bd8800 	pop	{fp, pc}
   12100:	0002608c 	andeq	r6, r2, ip, lsl #1

00012104 <bcm2835_delay>:
   12104:	e92d4800 	push	{fp, lr}
   12108:	e28db004 	add	fp, sp, #4
   1210c:	e24dd010 	sub	sp, sp, #16
   12110:	e50b0010 	str	r0, [fp, #-16]
   12114:	e51b3010 	ldr	r3, [fp, #-16]
   12118:	e59f2050 	ldr	r2, [pc, #80]	; 12170 <bcm2835_delay+0x6c>
   1211c:	e0832392 	umull	r2, r3, r2, r3
   12120:	e1a03323 	lsr	r3, r3, #6
   12124:	e50b300c 	str	r3, [fp, #-12]
   12128:	e51b2010 	ldr	r2, [fp, #-16]
   1212c:	e59f303c 	ldr	r3, [pc, #60]	; 12170 <bcm2835_delay+0x6c>
   12130:	e0831293 	umull	r1, r3, r3, r2
   12134:	e1a03323 	lsr	r3, r3, #6
   12138:	e3a01ffa 	mov	r1, #1000	; 0x3e8
   1213c:	e0030391 	mul	r3, r1, r3
   12140:	e0423003 	sub	r3, r2, r3
   12144:	e1a02003 	mov	r2, r3
   12148:	e59f3024 	ldr	r3, [pc, #36]	; 12174 <bcm2835_delay+0x70>
   1214c:	e0030293 	mul	r3, r3, r2
   12150:	e50b3008 	str	r3, [fp, #-8]
   12154:	e24b300c 	sub	r3, fp, #12
   12158:	e3a01000 	mov	r1, #0
   1215c:	e1a00003 	mov	r0, r3
   12160:	ebfff986 	bl	10780 <nanosleep@plt>
   12164:	e1a00000 	nop			; (mov r0, r0)
   12168:	e24bd004 	sub	sp, fp, #4
   1216c:	e8bd8800 	pop	{fp, pc}
   12170:	10624dd3 	ldrdne	r4, [r2], #-211	; 0xffffff2d	; <UNPREDICTABLE>
   12174:	000f4240 	andeq	r4, pc, r0, asr #4

00012178 <bcm2835_delayMicroseconds>:
   12178:	e92d4800 	push	{fp, lr}
   1217c:	e28db004 	add	fp, sp, #4
   12180:	e24dd018 	sub	sp, sp, #24
   12184:	e14b01fc 	strd	r0, [fp, #-28]	; 0xffffffe4
   12188:	e59f30b4 	ldr	r3, [pc, #180]	; 12244 <bcm2835_delayMicroseconds+0xcc>
   1218c:	e5d33000 	ldrb	r3, [r3]
   12190:	e3530000 	cmp	r3, #0
   12194:	0a000003 	beq	121a8 <bcm2835_delayMicroseconds+0x30>
   12198:	e14b21dc 	ldrd	r2, [fp, #-28]	; 0xffffffe4
   1219c:	e59f00a4 	ldr	r0, [pc, #164]	; 12248 <bcm2835_delayMicroseconds+0xd0>
   121a0:	ebfff970 	bl	10768 <printf@plt>
   121a4:	ea000024 	b	1223c <bcm2835_delayMicroseconds+0xc4>
   121a8:	eb00076d 	bl	13f64 <bcm2835_st_read>
   121ac:	e14b00fc 	strd	r0, [fp, #-12]
   121b0:	e14b20dc 	ldrd	r2, [fp, #-12]
   121b4:	e1923003 	orrs	r3, r2, r3
   121b8:	1a00000a 	bne	121e8 <bcm2835_delayMicroseconds+0x70>
   121bc:	e3a03000 	mov	r3, #0
   121c0:	e50b3014 	str	r3, [fp, #-20]	; 0xffffffec
   121c4:	e51b301c 	ldr	r3, [fp, #-28]	; 0xffffffe4
   121c8:	e3a02ffa 	mov	r2, #1000	; 0x3e8
   121cc:	e0030392 	mul	r3, r2, r3
   121d0:	e50b3010 	str	r3, [fp, #-16]
   121d4:	e24b3014 	sub	r3, fp, #20
   121d8:	e3a01000 	mov	r1, #0
   121dc:	e1a00003 	mov	r0, r3
   121e0:	ebfff966 	bl	10780 <nanosleep@plt>
   121e4:	ea000014 	b	1223c <bcm2835_delayMicroseconds+0xc4>
   121e8:	e14b21dc 	ldrd	r2, [fp, #-28]	; 0xffffffe4
   121ec:	e59f0058 	ldr	r0, [pc, #88]	; 1224c <bcm2835_delayMicroseconds+0xd4>
   121f0:	e3a01000 	mov	r1, #0
   121f4:	e1530001 	cmp	r3, r1
   121f8:	01520000 	cmpeq	r2, r0
   121fc:	9a00000b 	bls	12230 <bcm2835_delayMicroseconds+0xb8>
   12200:	e3a03000 	mov	r3, #0
   12204:	e50b3014 	str	r3, [fp, #-20]	; 0xffffffec
   12208:	e51b301c 	ldr	r3, [fp, #-28]	; 0xffffffe4
   1220c:	e3a02ffa 	mov	r2, #1000	; 0x3e8
   12210:	e0030392 	mul	r3, r2, r3
   12214:	e2433bc3 	sub	r3, r3, #199680	; 0x30c00
   12218:	e2433d05 	sub	r3, r3, #320	; 0x140
   1221c:	e50b3010 	str	r3, [fp, #-16]
   12220:	e24b3014 	sub	r3, fp, #20
   12224:	e3a01000 	mov	r1, #0
   12228:	e1a00003 	mov	r0, r3
   1222c:	ebfff953 	bl	10780 <nanosleep@plt>
   12230:	e14b21dc 	ldrd	r2, [fp, #-28]	; 0xffffffe4
   12234:	e14b00dc 	ldrd	r0, [fp, #-12]
   12238:	eb000795 	bl	14094 <bcm2835_st_delay>
   1223c:	e24bd004 	sub	sp, fp, #4
   12240:	e8bd8800 	pop	{fp, pc}
   12244:	000261b8 			; <UNDEFINED> instruction: 0x000261b8
   12248:	00014d90 	muleq	r1, r0, sp
   1224c:	000001c2 	andeq	r0, r0, r2, asr #3

00012250 <bcm2835_gpio_write>:
   12250:	e92d4800 	push	{fp, lr}
   12254:	e28db004 	add	fp, sp, #4
   12258:	e24dd008 	sub	sp, sp, #8
   1225c:	e1a03000 	mov	r3, r0
   12260:	e1a02001 	mov	r2, r1
   12264:	e54b3005 	strb	r3, [fp, #-5]
   12268:	e1a03002 	mov	r3, r2
   1226c:	e54b3006 	strb	r3, [fp, #-6]
   12270:	e55b3006 	ldrb	r3, [fp, #-6]
   12274:	e3530000 	cmp	r3, #0
   12278:	0a000003 	beq	1228c <bcm2835_gpio_write+0x3c>
   1227c:	e55b3005 	ldrb	r3, [fp, #-5]
   12280:	e1a00003 	mov	r0, r3
   12284:	ebfffd05 	bl	116a0 <bcm2835_gpio_set>
   12288:	ea000002 	b	12298 <bcm2835_gpio_write+0x48>
   1228c:	e55b3005 	ldrb	r3, [fp, #-5]
   12290:	e1a00003 	mov	r0, r3
   12294:	ebfffd1c 	bl	1170c <bcm2835_gpio_clr>
   12298:	e1a00000 	nop			; (mov r0, r0)
   1229c:	e24bd004 	sub	sp, fp, #4
   122a0:	e8bd8800 	pop	{fp, pc}

000122a4 <bcm2835_gpio_write_multi>:
   122a4:	e92d4800 	push	{fp, lr}
   122a8:	e28db004 	add	fp, sp, #4
   122ac:	e24dd008 	sub	sp, sp, #8
   122b0:	e50b0008 	str	r0, [fp, #-8]
   122b4:	e1a03001 	mov	r3, r1
   122b8:	e54b3009 	strb	r3, [fp, #-9]
   122bc:	e55b3009 	ldrb	r3, [fp, #-9]
   122c0:	e3530000 	cmp	r3, #0
   122c4:	0a000002 	beq	122d4 <bcm2835_gpio_write_multi+0x30>
   122c8:	e51b0008 	ldr	r0, [fp, #-8]
   122cc:	ebfffd29 	bl	11778 <bcm2835_gpio_set_multi>
   122d0:	ea000001 	b	122dc <bcm2835_gpio_write_multi+0x38>
   122d4:	e51b0008 	ldr	r0, [fp, #-8]
   122d8:	ebfffd35 	bl	117b4 <bcm2835_gpio_clr_multi>
   122dc:	e1a00000 	nop			; (mov r0, r0)
   122e0:	e24bd004 	sub	sp, fp, #4
   122e4:	e8bd8800 	pop	{fp, pc}

000122e8 <bcm2835_gpio_write_mask>:
   122e8:	e92d4800 	push	{fp, lr}
   122ec:	e28db004 	add	fp, sp, #4
   122f0:	e24dd008 	sub	sp, sp, #8
   122f4:	e50b0008 	str	r0, [fp, #-8]
   122f8:	e50b100c 	str	r1, [fp, #-12]
   122fc:	e51b2008 	ldr	r2, [fp, #-8]
   12300:	e51b300c 	ldr	r3, [fp, #-12]
   12304:	e0033002 	and	r3, r3, r2
   12308:	e1a00003 	mov	r0, r3
   1230c:	ebfffd19 	bl	11778 <bcm2835_gpio_set_multi>
   12310:	e51b3008 	ldr	r3, [fp, #-8]
   12314:	e1e02003 	mvn	r2, r3
   12318:	e51b300c 	ldr	r3, [fp, #-12]
   1231c:	e0033002 	and	r3, r3, r2
   12320:	e1a00003 	mov	r0, r3
   12324:	ebfffd22 	bl	117b4 <bcm2835_gpio_clr_multi>
   12328:	e1a00000 	nop			; (mov r0, r0)
   1232c:	e24bd004 	sub	sp, fp, #4
   12330:	e8bd8800 	pop	{fp, pc}

00012334 <bcm2835_gpio_set_pud>:
   12334:	e92d4800 	push	{fp, lr}
   12338:	e28db004 	add	fp, sp, #4
   1233c:	e24dd008 	sub	sp, sp, #8
   12340:	e1a03000 	mov	r3, r0
   12344:	e1a02001 	mov	r2, r1
   12348:	e54b3005 	strb	r3, [fp, #-5]
   1234c:	e1a03002 	mov	r3, r2
   12350:	e54b3006 	strb	r3, [fp, #-6]
   12354:	e55b3006 	ldrb	r3, [fp, #-6]
   12358:	e1a00003 	mov	r0, r3
   1235c:	ebffff00 	bl	11f64 <bcm2835_gpio_pud>
   12360:	e3a0000a 	mov	r0, #10
   12364:	e3a01000 	mov	r1, #0
   12368:	ebffff82 	bl	12178 <bcm2835_delayMicroseconds>
   1236c:	e55b3005 	ldrb	r3, [fp, #-5]
   12370:	e3a01001 	mov	r1, #1
   12374:	e1a00003 	mov	r0, r3
   12378:	ebffff0a 	bl	11fa8 <bcm2835_gpio_pudclk>
   1237c:	e3a0000a 	mov	r0, #10
   12380:	e3a01000 	mov	r1, #0
   12384:	ebffff7b 	bl	12178 <bcm2835_delayMicroseconds>
   12388:	e3a00000 	mov	r0, #0
   1238c:	ebfffef4 	bl	11f64 <bcm2835_gpio_pud>
   12390:	e55b3005 	ldrb	r3, [fp, #-5]
   12394:	e3a01000 	mov	r1, #0
   12398:	e1a00003 	mov	r0, r3
   1239c:	ebffff01 	bl	11fa8 <bcm2835_gpio_pudclk>
   123a0:	e1a00000 	nop			; (mov r0, r0)
   123a4:	e24bd004 	sub	sp, fp, #4
   123a8:	e8bd8800 	pop	{fp, pc}

000123ac <bcm2835_spi_begin>:
   123ac:	e92d4800 	push	{fp, lr}
   123b0:	e28db004 	add	fp, sp, #4
   123b4:	e24dd008 	sub	sp, sp, #8
   123b8:	e59f3080 	ldr	r3, [pc, #128]	; 12440 <bcm2835_spi_begin+0x94>
   123bc:	e5933000 	ldr	r3, [r3]
   123c0:	e3730001 	cmn	r3, #1
   123c4:	1a000001 	bne	123d0 <bcm2835_spi_begin+0x24>
   123c8:	e3a03000 	mov	r3, #0
   123cc:	ea000018 	b	12434 <bcm2835_spi_begin+0x88>
   123d0:	e3a01004 	mov	r1, #4
   123d4:	e3a00007 	mov	r0, #7
   123d8:	ebfffc7f 	bl	115dc <bcm2835_gpio_fsel>
   123dc:	e3a01004 	mov	r1, #4
   123e0:	e3a00008 	mov	r0, #8
   123e4:	ebfffc7c 	bl	115dc <bcm2835_gpio_fsel>
   123e8:	e3a01004 	mov	r1, #4
   123ec:	e3a00009 	mov	r0, #9
   123f0:	ebfffc79 	bl	115dc <bcm2835_gpio_fsel>
   123f4:	e3a01004 	mov	r1, #4
   123f8:	e3a0000a 	mov	r0, #10
   123fc:	ebfffc76 	bl	115dc <bcm2835_gpio_fsel>
   12400:	e3a01004 	mov	r1, #4
   12404:	e3a0000b 	mov	r0, #11
   12408:	ebfffc73 	bl	115dc <bcm2835_gpio_fsel>
   1240c:	e59f302c 	ldr	r3, [pc, #44]	; 12440 <bcm2835_spi_begin+0x94>
   12410:	e5933000 	ldr	r3, [r3]
   12414:	e50b3008 	str	r3, [fp, #-8]
   12418:	e3a01000 	mov	r1, #0
   1241c:	e51b0008 	ldr	r0, [fp, #-8]
   12420:	ebfffc27 	bl	114c4 <bcm2835_peri_write>
   12424:	e3a01030 	mov	r1, #48	; 0x30
   12428:	e51b0008 	ldr	r0, [fp, #-8]
   1242c:	ebfffc3c 	bl	11524 <bcm2835_peri_write_nb>
   12430:	e3a03001 	mov	r3, #1
   12434:	e1a00003 	mov	r0, r3
   12438:	e24bd004 	sub	sp, fp, #4
   1243c:	e8bd8800 	pop	{fp, pc}
   12440:	00026090 	muleq	r2, r0, r0

00012444 <bcm2835_spi_end>:
   12444:	e92d4800 	push	{fp, lr}
   12448:	e28db004 	add	fp, sp, #4
   1244c:	e3a01000 	mov	r1, #0
   12450:	e3a00007 	mov	r0, #7
   12454:	ebfffc60 	bl	115dc <bcm2835_gpio_fsel>
   12458:	e3a01000 	mov	r1, #0
   1245c:	e3a00008 	mov	r0, #8
   12460:	ebfffc5d 	bl	115dc <bcm2835_gpio_fsel>
   12464:	e3a01000 	mov	r1, #0
   12468:	e3a00009 	mov	r0, #9
   1246c:	ebfffc5a 	bl	115dc <bcm2835_gpio_fsel>
   12470:	e3a01000 	mov	r1, #0
   12474:	e3a0000a 	mov	r0, #10
   12478:	ebfffc57 	bl	115dc <bcm2835_gpio_fsel>
   1247c:	e3a01000 	mov	r1, #0
   12480:	e3a0000b 	mov	r0, #11
   12484:	ebfffc54 	bl	115dc <bcm2835_gpio_fsel>
   12488:	e1a00000 	nop			; (mov r0, r0)
   1248c:	e8bd8800 	pop	{fp, pc}

00012490 <bcm2835_spi_setBitOrder>:
   12490:	e52db004 	push	{fp}		; (str fp, [sp, #-4]!)
   12494:	e28db000 	add	fp, sp, #0
   12498:	e24dd00c 	sub	sp, sp, #12
   1249c:	e1a03000 	mov	r3, r0
   124a0:	e54b3005 	strb	r3, [fp, #-5]
   124a4:	e59f2014 	ldr	r2, [pc, #20]	; 124c0 <bcm2835_spi_setBitOrder+0x30>
   124a8:	e55b3005 	ldrb	r3, [fp, #-5]
   124ac:	e5c23000 	strb	r3, [r2]
   124b0:	e1a00000 	nop			; (mov r0, r0)
   124b4:	e28bd000 	add	sp, fp, #0
   124b8:	e49db004 	pop	{fp}		; (ldr fp, [sp], #4)
   124bc:	e12fff1e 	bx	lr
   124c0:	000260a8 	andeq	r6, r2, r8, lsr #1

000124c4 <bcm2835_spi_setClockDivider>:
   124c4:	e92d4800 	push	{fp, lr}
   124c8:	e28db004 	add	fp, sp, #4
   124cc:	e24dd010 	sub	sp, sp, #16
   124d0:	e1a03000 	mov	r3, r0
   124d4:	e14b30be 	strh	r3, [fp, #-14]
   124d8:	e59f3024 	ldr	r3, [pc, #36]	; 12504 <bcm2835_spi_setClockDivider+0x40>
   124dc:	e5933000 	ldr	r3, [r3]
   124e0:	e2833008 	add	r3, r3, #8
   124e4:	e50b3008 	str	r3, [fp, #-8]
   124e8:	e15b30be 	ldrh	r3, [fp, #-14]
   124ec:	e1a01003 	mov	r1, r3
   124f0:	e51b0008 	ldr	r0, [fp, #-8]
   124f4:	ebfffbf2 	bl	114c4 <bcm2835_peri_write>
   124f8:	e1a00000 	nop			; (mov r0, r0)
   124fc:	e24bd004 	sub	sp, fp, #4
   12500:	e8bd8800 	pop	{fp, pc}
   12504:	00026090 	muleq	r2, r0, r0

00012508 <bcm2835_spi_set_speed_hz>:
   12508:	e92d4800 	push	{fp, lr}
   1250c:	e28db004 	add	fp, sp, #4
   12510:	e24dd010 	sub	sp, sp, #16
   12514:	e50b0010 	str	r0, [fp, #-16]
   12518:	e51b1010 	ldr	r1, [fp, #-16]
   1251c:	e59f002c 	ldr	r0, [pc, #44]	; 12550 <bcm2835_spi_set_speed_hz+0x48>
   12520:	ebfff8b1 	bl	107ec <__aeabi_uidiv@plt>
   12524:	e1a03000 	mov	r3, r0
   12528:	e14b30b6 	strh	r3, [fp, #-6]
   1252c:	e15b30b6 	ldrh	r3, [fp, #-6]
   12530:	e3c33001 	bic	r3, r3, #1
   12534:	e14b30b6 	strh	r3, [fp, #-6]
   12538:	e15b30b6 	ldrh	r3, [fp, #-6]
   1253c:	e1a00003 	mov	r0, r3
   12540:	ebffffdf 	bl	124c4 <bcm2835_spi_setClockDivider>
   12544:	e1a00000 	nop			; (mov r0, r0)
   12548:	e24bd004 	sub	sp, fp, #4
   1254c:	e8bd8800 	pop	{fp, pc}
   12550:	0ee6b280 	cdpeq	2, 14, cr11, cr6, cr0, {4}

00012554 <bcm2835_spi_setDataMode>:
   12554:	e92d4800 	push	{fp, lr}
   12558:	e28db004 	add	fp, sp, #4
   1255c:	e24dd010 	sub	sp, sp, #16
   12560:	e1a03000 	mov	r3, r0
   12564:	e54b300d 	strb	r3, [fp, #-13]
   12568:	e59f3028 	ldr	r3, [pc, #40]	; 12598 <bcm2835_spi_setDataMode+0x44>
   1256c:	e5933000 	ldr	r3, [r3]
   12570:	e50b3008 	str	r3, [fp, #-8]
   12574:	e55b300d 	ldrb	r3, [fp, #-13]
   12578:	e1a03103 	lsl	r3, r3, #2
   1257c:	e3a0200c 	mov	r2, #12
   12580:	e1a01003 	mov	r1, r3
   12584:	e51b0008 	ldr	r0, [fp, #-8]
   12588:	ebfffbfb 	bl	1157c <bcm2835_peri_set_bits>
   1258c:	e1a00000 	nop			; (mov r0, r0)
   12590:	e24bd004 	sub	sp, fp, #4
   12594:	e8bd8800 	pop	{fp, pc}
   12598:	00026090 	muleq	r2, r0, r0

0001259c <bcm2835_spi_transfer>:
   1259c:	e92d4800 	push	{fp, lr}
   125a0:	e28db004 	add	fp, sp, #4
   125a4:	e24dd018 	sub	sp, sp, #24
   125a8:	e1a03000 	mov	r3, r0
   125ac:	e54b3015 	strb	r3, [fp, #-21]	; 0xffffffeb
   125b0:	e59f30cc 	ldr	r3, [pc, #204]	; 12684 <bcm2835_spi_transfer+0xe8>
   125b4:	e5933000 	ldr	r3, [r3]
   125b8:	e50b3008 	str	r3, [fp, #-8]
   125bc:	e59f30c0 	ldr	r3, [pc, #192]	; 12684 <bcm2835_spi_transfer+0xe8>
   125c0:	e5933000 	ldr	r3, [r3]
   125c4:	e2833004 	add	r3, r3, #4
   125c8:	e50b300c 	str	r3, [fp, #-12]
   125cc:	e3a02030 	mov	r2, #48	; 0x30
   125d0:	e3a01030 	mov	r1, #48	; 0x30
   125d4:	e51b0008 	ldr	r0, [fp, #-8]
   125d8:	ebfffbe7 	bl	1157c <bcm2835_peri_set_bits>
   125dc:	e3a02080 	mov	r2, #128	; 0x80
   125e0:	e3a01080 	mov	r1, #128	; 0x80
   125e4:	e51b0008 	ldr	r0, [fp, #-8]
   125e8:	ebfffbe3 	bl	1157c <bcm2835_peri_set_bits>
   125ec:	e1a00000 	nop			; (mov r0, r0)
   125f0:	e51b0008 	ldr	r0, [fp, #-8]
   125f4:	ebfffb86 	bl	11414 <bcm2835_peri_read>
   125f8:	e1a03000 	mov	r3, r0
   125fc:	e2033701 	and	r3, r3, #262144	; 0x40000
   12600:	e3530000 	cmp	r3, #0
   12604:	0afffff9 	beq	125f0 <bcm2835_spi_transfer+0x54>
   12608:	e55b3015 	ldrb	r3, [fp, #-21]	; 0xffffffeb
   1260c:	e1a00003 	mov	r0, r3
   12610:	ebfffb16 	bl	11270 <bcm2835_correct_order>
   12614:	e1a03000 	mov	r3, r0
   12618:	e1a01003 	mov	r1, r3
   1261c:	e51b000c 	ldr	r0, [fp, #-12]
   12620:	ebfffbbf 	bl	11524 <bcm2835_peri_write_nb>
   12624:	e1a00000 	nop			; (mov r0, r0)
   12628:	e51b0008 	ldr	r0, [fp, #-8]
   1262c:	ebfffb90 	bl	11474 <bcm2835_peri_read_nb>
   12630:	e1a03000 	mov	r3, r0
   12634:	e2033801 	and	r3, r3, #65536	; 0x10000
   12638:	e3530000 	cmp	r3, #0
   1263c:	0afffff9 	beq	12628 <bcm2835_spi_transfer+0x8c>
   12640:	e51b000c 	ldr	r0, [fp, #-12]
   12644:	ebfffb8a 	bl	11474 <bcm2835_peri_read_nb>
   12648:	e1a03000 	mov	r3, r0
   1264c:	e6ef3073 	uxtb	r3, r3
   12650:	e1a00003 	mov	r0, r3
   12654:	ebfffb05 	bl	11270 <bcm2835_correct_order>
   12658:	e1a03000 	mov	r3, r0
   1265c:	e50b3010 	str	r3, [fp, #-16]
   12660:	e3a02080 	mov	r2, #128	; 0x80
   12664:	e3a01000 	mov	r1, #0
   12668:	e51b0008 	ldr	r0, [fp, #-8]
   1266c:	ebfffbc2 	bl	1157c <bcm2835_peri_set_bits>
   12670:	e51b3010 	ldr	r3, [fp, #-16]
   12674:	e6ef3073 	uxtb	r3, r3
   12678:	e1a00003 	mov	r0, r3
   1267c:	e24bd004 	sub	sp, fp, #4
   12680:	e8bd8800 	pop	{fp, pc}
   12684:	00026090 	muleq	r2, r0, r0

00012688 <bcm2835_spi_transfernb>:
   12688:	e92d4810 	push	{r4, fp, lr}
   1268c:	e28db008 	add	fp, sp, #8
   12690:	e24dd024 	sub	sp, sp, #36	; 0x24
   12694:	e50b0020 	str	r0, [fp, #-32]	; 0xffffffe0
   12698:	e50b1024 	str	r1, [fp, #-36]	; 0xffffffdc
   1269c:	e50b2028 	str	r2, [fp, #-40]	; 0xffffffd8
   126a0:	e59f3160 	ldr	r3, [pc, #352]	; 12808 <bcm2835_spi_transfernb+0x180>
   126a4:	e5933000 	ldr	r3, [r3]
   126a8:	e50b3018 	str	r3, [fp, #-24]	; 0xffffffe8
   126ac:	e59f3154 	ldr	r3, [pc, #340]	; 12808 <bcm2835_spi_transfernb+0x180>
   126b0:	e5933000 	ldr	r3, [r3]
   126b4:	e2833004 	add	r3, r3, #4
   126b8:	e50b301c 	str	r3, [fp, #-28]	; 0xffffffe4
   126bc:	e3a03000 	mov	r3, #0
   126c0:	e50b3010 	str	r3, [fp, #-16]
   126c4:	e3a03000 	mov	r3, #0
   126c8:	e50b3014 	str	r3, [fp, #-20]	; 0xffffffec
   126cc:	e3a02030 	mov	r2, #48	; 0x30
   126d0:	e3a01030 	mov	r1, #48	; 0x30
   126d4:	e51b0018 	ldr	r0, [fp, #-24]	; 0xffffffe8
   126d8:	ebfffba7 	bl	1157c <bcm2835_peri_set_bits>
   126dc:	e3a02080 	mov	r2, #128	; 0x80
   126e0:	e3a01080 	mov	r1, #128	; 0x80
   126e4:	e51b0018 	ldr	r0, [fp, #-24]	; 0xffffffe8
   126e8:	ebfffba3 	bl	1157c <bcm2835_peri_set_bits>
   126ec:	ea00002f 	b	127b0 <bcm2835_spi_transfernb+0x128>
   126f0:	e51b2020 	ldr	r2, [fp, #-32]	; 0xffffffe0
   126f4:	e51b3010 	ldr	r3, [fp, #-16]
   126f8:	e0823003 	add	r3, r2, r3
   126fc:	e5d33000 	ldrb	r3, [r3]
   12700:	e1a00003 	mov	r0, r3
   12704:	ebfffad9 	bl	11270 <bcm2835_correct_order>
   12708:	e1a03000 	mov	r3, r0
   1270c:	e1a01003 	mov	r1, r3
   12710:	e51b001c 	ldr	r0, [fp, #-28]	; 0xffffffe4
   12714:	ebfffb82 	bl	11524 <bcm2835_peri_write_nb>
   12718:	e51b3010 	ldr	r3, [fp, #-16]
   1271c:	e2833001 	add	r3, r3, #1
   12720:	e50b3010 	str	r3, [fp, #-16]
   12724:	e51b0018 	ldr	r0, [fp, #-24]	; 0xffffffe8
   12728:	ebfffb39 	bl	11414 <bcm2835_peri_read>
   1272c:	e1a03000 	mov	r3, r0
   12730:	e2033701 	and	r3, r3, #262144	; 0x40000
   12734:	e3530000 	cmp	r3, #0
   12738:	0a000012 	beq	12788 <bcm2835_spi_transfernb+0x100>
   1273c:	e51b2010 	ldr	r2, [fp, #-16]
   12740:	e51b3028 	ldr	r3, [fp, #-40]	; 0xffffffd8
   12744:	e1520003 	cmp	r2, r3
   12748:	3affffe8 	bcc	126f0 <bcm2835_spi_transfernb+0x68>
   1274c:	ea00000d 	b	12788 <bcm2835_spi_transfernb+0x100>
   12750:	e51b2024 	ldr	r2, [fp, #-36]	; 0xffffffdc
   12754:	e51b3014 	ldr	r3, [fp, #-20]	; 0xffffffec
   12758:	e0824003 	add	r4, r2, r3
   1275c:	e51b001c 	ldr	r0, [fp, #-28]	; 0xffffffe4
   12760:	ebfffb43 	bl	11474 <bcm2835_peri_read_nb>
   12764:	e1a03000 	mov	r3, r0
   12768:	e6ef3073 	uxtb	r3, r3
   1276c:	e1a00003 	mov	r0, r3
   12770:	ebfffabe 	bl	11270 <bcm2835_correct_order>
   12774:	e1a03000 	mov	r3, r0
   12778:	e5c43000 	strb	r3, [r4]
   1277c:	e51b3014 	ldr	r3, [fp, #-20]	; 0xffffffec
   12780:	e2833001 	add	r3, r3, #1
   12784:	e50b3014 	str	r3, [fp, #-20]	; 0xffffffec
   12788:	e51b0018 	ldr	r0, [fp, #-24]	; 0xffffffe8
   1278c:	ebfffb20 	bl	11414 <bcm2835_peri_read>
   12790:	e1a03000 	mov	r3, r0
   12794:	e2033802 	and	r3, r3, #131072	; 0x20000
   12798:	e3530000 	cmp	r3, #0
   1279c:	0a000003 	beq	127b0 <bcm2835_spi_transfernb+0x128>
   127a0:	e51b2014 	ldr	r2, [fp, #-20]	; 0xffffffec
   127a4:	e51b3028 	ldr	r3, [fp, #-40]	; 0xffffffd8
   127a8:	e1520003 	cmp	r2, r3
   127ac:	3affffe7 	bcc	12750 <bcm2835_spi_transfernb+0xc8>
   127b0:	e51b2010 	ldr	r2, [fp, #-16]
   127b4:	e51b3028 	ldr	r3, [fp, #-40]	; 0xffffffd8
   127b8:	e1520003 	cmp	r2, r3
   127bc:	3affffd8 	bcc	12724 <bcm2835_spi_transfernb+0x9c>
   127c0:	e51b2014 	ldr	r2, [fp, #-20]	; 0xffffffec
   127c4:	e51b3028 	ldr	r3, [fp, #-40]	; 0xffffffd8
   127c8:	e1520003 	cmp	r2, r3
   127cc:	3affffd4 	bcc	12724 <bcm2835_spi_transfernb+0x9c>
   127d0:	e1a00000 	nop			; (mov r0, r0)
   127d4:	e51b0018 	ldr	r0, [fp, #-24]	; 0xffffffe8
   127d8:	ebfffb25 	bl	11474 <bcm2835_peri_read_nb>
   127dc:	e1a03000 	mov	r3, r0
   127e0:	e2033801 	and	r3, r3, #65536	; 0x10000
   127e4:	e3530000 	cmp	r3, #0
   127e8:	0afffff9 	beq	127d4 <bcm2835_spi_transfernb+0x14c>
   127ec:	e3a02080 	mov	r2, #128	; 0x80
   127f0:	e3a01000 	mov	r1, #0
   127f4:	e51b0018 	ldr	r0, [fp, #-24]	; 0xffffffe8
   127f8:	ebfffb5f 	bl	1157c <bcm2835_peri_set_bits>
   127fc:	e1a00000 	nop			; (mov r0, r0)
   12800:	e24bd008 	sub	sp, fp, #8
   12804:	e8bd8810 	pop	{r4, fp, pc}
   12808:	00026090 	muleq	r2, r0, r0

0001280c <bcm2835_spi_writenb>:
   1280c:	e92d4800 	push	{fp, lr}
   12810:	e28db004 	add	fp, sp, #4
   12814:	e24dd018 	sub	sp, sp, #24
   12818:	e50b0018 	str	r0, [fp, #-24]	; 0xffffffe8
   1281c:	e50b101c 	str	r1, [fp, #-28]	; 0xffffffe4
   12820:	e59f311c 	ldr	r3, [pc, #284]	; 12944 <bcm2835_spi_writenb+0x138>
   12824:	e5933000 	ldr	r3, [r3]
   12828:	e50b300c 	str	r3, [fp, #-12]
   1282c:	e59f3110 	ldr	r3, [pc, #272]	; 12944 <bcm2835_spi_writenb+0x138>
   12830:	e5933000 	ldr	r3, [r3]
   12834:	e2833004 	add	r3, r3, #4
   12838:	e50b3010 	str	r3, [fp, #-16]
   1283c:	e3a02030 	mov	r2, #48	; 0x30
   12840:	e3a01030 	mov	r1, #48	; 0x30
   12844:	e51b000c 	ldr	r0, [fp, #-12]
   12848:	ebfffb4b 	bl	1157c <bcm2835_peri_set_bits>
   1284c:	e3a02080 	mov	r2, #128	; 0x80
   12850:	e3a01080 	mov	r1, #128	; 0x80
   12854:	e51b000c 	ldr	r0, [fp, #-12]
   12858:	ebfffb47 	bl	1157c <bcm2835_peri_set_bits>
   1285c:	e3a03000 	mov	r3, #0
   12860:	e50b3008 	str	r3, [fp, #-8]
   12864:	ea00001c 	b	128dc <bcm2835_spi_writenb+0xd0>
   12868:	e1a00000 	nop			; (mov r0, r0)
   1286c:	e51b000c 	ldr	r0, [fp, #-12]
   12870:	ebfffae7 	bl	11414 <bcm2835_peri_read>
   12874:	e1a03000 	mov	r3, r0
   12878:	e2033701 	and	r3, r3, #262144	; 0x40000
   1287c:	e3530000 	cmp	r3, #0
   12880:	0afffff9 	beq	1286c <bcm2835_spi_writenb+0x60>
   12884:	e51b2018 	ldr	r2, [fp, #-24]	; 0xffffffe8
   12888:	e51b3008 	ldr	r3, [fp, #-8]
   1288c:	e0823003 	add	r3, r2, r3
   12890:	e5d33000 	ldrb	r3, [r3]
   12894:	e1a00003 	mov	r0, r3
   12898:	ebfffa74 	bl	11270 <bcm2835_correct_order>
   1289c:	e1a03000 	mov	r3, r0
   128a0:	e1a01003 	mov	r1, r3
   128a4:	e51b0010 	ldr	r0, [fp, #-16]
   128a8:	ebfffb1d 	bl	11524 <bcm2835_peri_write_nb>
   128ac:	ea000001 	b	128b8 <bcm2835_spi_writenb+0xac>
   128b0:	e51b0010 	ldr	r0, [fp, #-16]
   128b4:	ebfffaee 	bl	11474 <bcm2835_peri_read_nb>
   128b8:	e51b000c 	ldr	r0, [fp, #-12]
   128bc:	ebfffad4 	bl	11414 <bcm2835_peri_read>
   128c0:	e1a03000 	mov	r3, r0
   128c4:	e2033802 	and	r3, r3, #131072	; 0x20000
   128c8:	e3530000 	cmp	r3, #0
   128cc:	1afffff7 	bne	128b0 <bcm2835_spi_writenb+0xa4>
   128d0:	e51b3008 	ldr	r3, [fp, #-8]
   128d4:	e2833001 	add	r3, r3, #1
   128d8:	e50b3008 	str	r3, [fp, #-8]
   128dc:	e51b2008 	ldr	r2, [fp, #-8]
   128e0:	e51b301c 	ldr	r3, [fp, #-28]	; 0xffffffe4
   128e4:	e1520003 	cmp	r2, r3
   128e8:	3affffde 	bcc	12868 <bcm2835_spi_writenb+0x5c>
   128ec:	ea000007 	b	12910 <bcm2835_spi_writenb+0x104>
   128f0:	e51b0010 	ldr	r0, [fp, #-16]
   128f4:	ebfffade 	bl	11474 <bcm2835_peri_read_nb>
   128f8:	e51b000c 	ldr	r0, [fp, #-12]
   128fc:	ebfffac4 	bl	11414 <bcm2835_peri_read>
   12900:	e1a03000 	mov	r3, r0
   12904:	e2033802 	and	r3, r3, #131072	; 0x20000
   12908:	e3530000 	cmp	r3, #0
   1290c:	1afffff7 	bne	128f0 <bcm2835_spi_writenb+0xe4>
   12910:	e51b000c 	ldr	r0, [fp, #-12]
   12914:	ebfffad6 	bl	11474 <bcm2835_peri_read_nb>
   12918:	e1a03000 	mov	r3, r0
   1291c:	e2033801 	and	r3, r3, #65536	; 0x10000
   12920:	e3530000 	cmp	r3, #0
   12924:	0afffff3 	beq	128f8 <bcm2835_spi_writenb+0xec>
   12928:	e3a02080 	mov	r2, #128	; 0x80
   1292c:	e3a01000 	mov	r1, #0
   12930:	e51b000c 	ldr	r0, [fp, #-12]
   12934:	ebfffb10 	bl	1157c <bcm2835_peri_set_bits>
   12938:	e1a00000 	nop			; (mov r0, r0)
   1293c:	e24bd004 	sub	sp, fp, #4
   12940:	e8bd8800 	pop	{fp, pc}
   12944:	00026090 	muleq	r2, r0, r0

00012948 <bcm2835_spi_transfern>:
   12948:	e92d4800 	push	{fp, lr}
   1294c:	e28db004 	add	fp, sp, #4
   12950:	e24dd008 	sub	sp, sp, #8
   12954:	e50b0008 	str	r0, [fp, #-8]
   12958:	e50b100c 	str	r1, [fp, #-12]
   1295c:	e51b200c 	ldr	r2, [fp, #-12]
   12960:	e51b1008 	ldr	r1, [fp, #-8]
   12964:	e51b0008 	ldr	r0, [fp, #-8]
   12968:	ebffff46 	bl	12688 <bcm2835_spi_transfernb>
   1296c:	e1a00000 	nop			; (mov r0, r0)
   12970:	e24bd004 	sub	sp, fp, #4
   12974:	e8bd8800 	pop	{fp, pc}

00012978 <bcm2835_spi_chipSelect>:
   12978:	e92d4800 	push	{fp, lr}
   1297c:	e28db004 	add	fp, sp, #4
   12980:	e24dd010 	sub	sp, sp, #16
   12984:	e1a03000 	mov	r3, r0
   12988:	e54b300d 	strb	r3, [fp, #-13]
   1298c:	e59f3024 	ldr	r3, [pc, #36]	; 129b8 <bcm2835_spi_chipSelect+0x40>
   12990:	e5933000 	ldr	r3, [r3]
   12994:	e50b3008 	str	r3, [fp, #-8]
   12998:	e55b300d 	ldrb	r3, [fp, #-13]
   1299c:	e3a02003 	mov	r2, #3
   129a0:	e1a01003 	mov	r1, r3
   129a4:	e51b0008 	ldr	r0, [fp, #-8]
   129a8:	ebfffaf3 	bl	1157c <bcm2835_peri_set_bits>
   129ac:	e1a00000 	nop			; (mov r0, r0)
   129b0:	e24bd004 	sub	sp, fp, #4
   129b4:	e8bd8800 	pop	{fp, pc}
   129b8:	00026090 	muleq	r2, r0, r0

000129bc <bcm2835_spi_setChipSelectPolarity>:
   129bc:	e92d4800 	push	{fp, lr}
   129c0:	e28db004 	add	fp, sp, #4
   129c4:	e24dd010 	sub	sp, sp, #16
   129c8:	e1a03000 	mov	r3, r0
   129cc:	e1a02001 	mov	r2, r1
   129d0:	e54b300d 	strb	r3, [fp, #-13]
   129d4:	e1a03002 	mov	r3, r2
   129d8:	e54b300e 	strb	r3, [fp, #-14]
   129dc:	e59f3044 	ldr	r3, [pc, #68]	; 12a28 <bcm2835_spi_setChipSelectPolarity+0x6c>
   129e0:	e5933000 	ldr	r3, [r3]
   129e4:	e50b3008 	str	r3, [fp, #-8]
   129e8:	e55b300d 	ldrb	r3, [fp, #-13]
   129ec:	e2833015 	add	r3, r3, #21
   129f0:	e54b3009 	strb	r3, [fp, #-9]
   129f4:	e55b200e 	ldrb	r2, [fp, #-14]
   129f8:	e55b3009 	ldrb	r3, [fp, #-9]
   129fc:	e1a03312 	lsl	r3, r2, r3
   12a00:	e1a01003 	mov	r1, r3
   12a04:	e55b3009 	ldrb	r3, [fp, #-9]
   12a08:	e3a02001 	mov	r2, #1
   12a0c:	e1a03312 	lsl	r3, r2, r3
   12a10:	e1a02003 	mov	r2, r3
   12a14:	e51b0008 	ldr	r0, [fp, #-8]
   12a18:	ebfffad7 	bl	1157c <bcm2835_peri_set_bits>
   12a1c:	e1a00000 	nop			; (mov r0, r0)
   12a20:	e24bd004 	sub	sp, fp, #4
   12a24:	e8bd8800 	pop	{fp, pc}
   12a28:	00026090 	muleq	r2, r0, r0

00012a2c <bcm2835_spi_write>:
   12a2c:	e92d4800 	push	{fp, lr}
   12a30:	e28db004 	add	fp, sp, #4
   12a34:	e24dd010 	sub	sp, sp, #16
   12a38:	e1a03000 	mov	r3, r0
   12a3c:	e14b30be 	strh	r3, [fp, #-14]
   12a40:	e59f30b4 	ldr	r3, [pc, #180]	; 12afc <bcm2835_spi_write+0xd0>
   12a44:	e5933000 	ldr	r3, [r3]
   12a48:	e50b3008 	str	r3, [fp, #-8]
   12a4c:	e59f30a8 	ldr	r3, [pc, #168]	; 12afc <bcm2835_spi_write+0xd0>
   12a50:	e5933000 	ldr	r3, [r3]
   12a54:	e2833004 	add	r3, r3, #4
   12a58:	e50b300c 	str	r3, [fp, #-12]
   12a5c:	e3a02030 	mov	r2, #48	; 0x30
   12a60:	e3a01030 	mov	r1, #48	; 0x30
   12a64:	e51b0008 	ldr	r0, [fp, #-8]
   12a68:	ebfffac3 	bl	1157c <bcm2835_peri_set_bits>
   12a6c:	e3a02080 	mov	r2, #128	; 0x80
   12a70:	e3a01080 	mov	r1, #128	; 0x80
   12a74:	e51b0008 	ldr	r0, [fp, #-8]
   12a78:	ebfffabf 	bl	1157c <bcm2835_peri_set_bits>
   12a7c:	e1a00000 	nop			; (mov r0, r0)
   12a80:	e51b0008 	ldr	r0, [fp, #-8]
   12a84:	ebfffa62 	bl	11414 <bcm2835_peri_read>
   12a88:	e1a03000 	mov	r3, r0
   12a8c:	e2033701 	and	r3, r3, #262144	; 0x40000
   12a90:	e3530000 	cmp	r3, #0
   12a94:	0afffff9 	beq	12a80 <bcm2835_spi_write+0x54>
   12a98:	e15b30be 	ldrh	r3, [fp, #-14]
   12a9c:	e1a03423 	lsr	r3, r3, #8
   12aa0:	e6ff3073 	uxth	r3, r3
   12aa4:	e1a01003 	mov	r1, r3
   12aa8:	e51b000c 	ldr	r0, [fp, #-12]
   12aac:	ebfffa9c 	bl	11524 <bcm2835_peri_write_nb>
   12ab0:	e15b30be 	ldrh	r3, [fp, #-14]
   12ab4:	e6ef3073 	uxtb	r3, r3
   12ab8:	e1a01003 	mov	r1, r3
   12abc:	e51b000c 	ldr	r0, [fp, #-12]
   12ac0:	ebfffa97 	bl	11524 <bcm2835_peri_write_nb>
   12ac4:	e1a00000 	nop			; (mov r0, r0)
   12ac8:	e51b0008 	ldr	r0, [fp, #-8]
   12acc:	ebfffa68 	bl	11474 <bcm2835_peri_read_nb>
   12ad0:	e1a03000 	mov	r3, r0
   12ad4:	e2033801 	and	r3, r3, #65536	; 0x10000
   12ad8:	e3530000 	cmp	r3, #0
   12adc:	0afffff9 	beq	12ac8 <bcm2835_spi_write+0x9c>
   12ae0:	e3a02080 	mov	r2, #128	; 0x80
   12ae4:	e3a01000 	mov	r1, #0
   12ae8:	e51b0008 	ldr	r0, [fp, #-8]
   12aec:	ebfffaa2 	bl	1157c <bcm2835_peri_set_bits>
   12af0:	e1a00000 	nop			; (mov r0, r0)
   12af4:	e24bd004 	sub	sp, fp, #4
   12af8:	e8bd8800 	pop	{fp, pc}
   12afc:	00026090 	muleq	r2, r0, r0

00012b00 <bcm2835_aux_spi_begin>:
   12b00:	e92d4800 	push	{fp, lr}
   12b04:	e28db004 	add	fp, sp, #4
   12b08:	e24dd010 	sub	sp, sp, #16
   12b0c:	e59f30b4 	ldr	r3, [pc, #180]	; 12bc8 <bcm2835_aux_spi_begin+0xc8>
   12b10:	e5933000 	ldr	r3, [r3]
   12b14:	e2833004 	add	r3, r3, #4
   12b18:	e50b3008 	str	r3, [fp, #-8]
   12b1c:	e59f30a8 	ldr	r3, [pc, #168]	; 12bcc <bcm2835_aux_spi_begin+0xcc>
   12b20:	e5933000 	ldr	r3, [r3]
   12b24:	e50b300c 	str	r3, [fp, #-12]
   12b28:	e59f309c 	ldr	r3, [pc, #156]	; 12bcc <bcm2835_aux_spi_begin+0xcc>
   12b2c:	e5933000 	ldr	r3, [r3]
   12b30:	e2833004 	add	r3, r3, #4
   12b34:	e50b3010 	str	r3, [fp, #-16]
   12b38:	e59f308c 	ldr	r3, [pc, #140]	; 12bcc <bcm2835_aux_spi_begin+0xcc>
   12b3c:	e5933000 	ldr	r3, [r3]
   12b40:	e3730001 	cmn	r3, #1
   12b44:	1a000001 	bne	12b50 <bcm2835_aux_spi_begin+0x50>
   12b48:	e3a03000 	mov	r3, #0
   12b4c:	ea00001a 	b	12bbc <bcm2835_aux_spi_begin+0xbc>
   12b50:	e3a01003 	mov	r1, #3
   12b54:	e3a00010 	mov	r0, #16
   12b58:	ebfffa9f 	bl	115dc <bcm2835_gpio_fsel>
   12b5c:	e3a01003 	mov	r1, #3
   12b60:	e3a00013 	mov	r0, #19
   12b64:	ebfffa9c 	bl	115dc <bcm2835_gpio_fsel>
   12b68:	e3a01003 	mov	r1, #3
   12b6c:	e3a00014 	mov	r0, #20
   12b70:	ebfffa99 	bl	115dc <bcm2835_gpio_fsel>
   12b74:	e3a01003 	mov	r1, #3
   12b78:	e3a00015 	mov	r0, #21
   12b7c:	ebfffa96 	bl	115dc <bcm2835_gpio_fsel>
   12b80:	e59f0048 	ldr	r0, [pc, #72]	; 12bd0 <bcm2835_aux_spi_begin+0xd0>
   12b84:	eb000022 	bl	12c14 <bcm2835_aux_spi_CalcClockDivider>
   12b88:	e1a03000 	mov	r3, r0
   12b8c:	e1a00003 	mov	r0, r3
   12b90:	eb00004b 	bl	12cc4 <bcm2835_aux_spi_setClockDivider>
   12b94:	e3a01002 	mov	r1, #2
   12b98:	e51b0008 	ldr	r0, [fp, #-8]
   12b9c:	ebfffa48 	bl	114c4 <bcm2835_peri_write>
   12ba0:	e3a01000 	mov	r1, #0
   12ba4:	e51b0010 	ldr	r0, [fp, #-16]
   12ba8:	ebfffa45 	bl	114c4 <bcm2835_peri_write>
   12bac:	e3a01c02 	mov	r1, #512	; 0x200
   12bb0:	e51b000c 	ldr	r0, [fp, #-12]
   12bb4:	ebfffa42 	bl	114c4 <bcm2835_peri_write>
   12bb8:	e3a03001 	mov	r3, #1
   12bbc:	e1a00003 	mov	r0, r3
   12bc0:	e24bd004 	sub	sp, fp, #4
   12bc4:	e8bd8800 	pop	{fp, pc}
   12bc8:	000260a0 	andeq	r6, r2, r0, lsr #1
   12bcc:	000260a4 	andeq	r6, r2, r4, lsr #1
   12bd0:	000f4240 	andeq	r4, pc, r0, asr #4

00012bd4 <bcm2835_aux_spi_end>:
   12bd4:	e92d4800 	push	{fp, lr}
   12bd8:	e28db004 	add	fp, sp, #4
   12bdc:	e3a01000 	mov	r1, #0
   12be0:	e3a00010 	mov	r0, #16
   12be4:	ebfffa7c 	bl	115dc <bcm2835_gpio_fsel>
   12be8:	e3a01000 	mov	r1, #0
   12bec:	e3a00013 	mov	r0, #19
   12bf0:	ebfffa79 	bl	115dc <bcm2835_gpio_fsel>
   12bf4:	e3a01000 	mov	r1, #0
   12bf8:	e3a00014 	mov	r0, #20
   12bfc:	ebfffa76 	bl	115dc <bcm2835_gpio_fsel>
   12c00:	e3a01000 	mov	r1, #0
   12c04:	e3a00015 	mov	r0, #21
   12c08:	ebfffa73 	bl	115dc <bcm2835_gpio_fsel>
   12c0c:	e1a00000 	nop			; (mov r0, r0)
   12c10:	e8bd8800 	pop	{fp, pc}

00012c14 <bcm2835_aux_spi_CalcClockDivider>:
   12c14:	e92d4800 	push	{fp, lr}
   12c18:	e28db004 	add	fp, sp, #4
   12c1c:	e24dd010 	sub	sp, sp, #16
   12c20:	e50b0010 	str	r0, [fp, #-16]
   12c24:	e51b3010 	ldr	r3, [fp, #-16]
   12c28:	e59f2084 	ldr	r2, [pc, #132]	; 12cb4 <bcm2835_aux_spi_CalcClockDivider+0xa0>
   12c2c:	e1530002 	cmp	r3, r2
   12c30:	8a000002 	bhi	12c40 <bcm2835_aux_spi_CalcClockDivider+0x2c>
   12c34:	e59f307c 	ldr	r3, [pc, #124]	; 12cb8 <bcm2835_aux_spi_CalcClockDivider+0xa4>
   12c38:	e50b3010 	str	r3, [fp, #-16]
   12c3c:	ea000005 	b	12c58 <bcm2835_aux_spi_CalcClockDivider+0x44>
   12c40:	e51b3010 	ldr	r3, [fp, #-16]
   12c44:	e59f2070 	ldr	r2, [pc, #112]	; 12cbc <bcm2835_aux_spi_CalcClockDivider+0xa8>
   12c48:	e1530002 	cmp	r3, r2
   12c4c:	9a000001 	bls	12c58 <bcm2835_aux_spi_CalcClockDivider+0x44>
   12c50:	e59f3064 	ldr	r3, [pc, #100]	; 12cbc <bcm2835_aux_spi_CalcClockDivider+0xa8>
   12c54:	e50b3010 	str	r3, [fp, #-16]
   12c58:	e51b2010 	ldr	r2, [fp, #-16]
   12c5c:	e59f3058 	ldr	r3, [pc, #88]	; 12cbc <bcm2835_aux_spi_CalcClockDivider+0xa8>
   12c60:	e0823003 	add	r3, r2, r3
   12c64:	e1a03083 	lsl	r3, r3, #1
   12c68:	e2432001 	sub	r2, r3, #1
   12c6c:	e51b3010 	ldr	r3, [fp, #-16]
   12c70:	e1a03083 	lsl	r3, r3, #1
   12c74:	e1a01003 	mov	r1, r3
   12c78:	e1a00002 	mov	r0, r2
   12c7c:	ebfff6da 	bl	107ec <__aeabi_uidiv@plt>
   12c80:	e1a03000 	mov	r3, r0
   12c84:	e6ff3073 	uxth	r3, r3
   12c88:	e2433001 	sub	r3, r3, #1
   12c8c:	e14b30b6 	strh	r3, [fp, #-6]
   12c90:	e15b30b6 	ldrh	r3, [fp, #-6]
   12c94:	e3530a01 	cmp	r3, #4096	; 0x1000
   12c98:	3a000001 	bcc	12ca4 <bcm2835_aux_spi_CalcClockDivider+0x90>
   12c9c:	e59f301c 	ldr	r3, [pc, #28]	; 12cc0 <bcm2835_aux_spi_CalcClockDivider+0xac>
   12ca0:	ea000000 	b	12ca8 <bcm2835_aux_spi_CalcClockDivider+0x94>
   12ca4:	e15b30b6 	ldrh	r3, [fp, #-6]
   12ca8:	e1a00003 	mov	r0, r3
   12cac:	e24bd004 	sub	sp, fp, #4
   12cb0:	e8bd8800 	pop	{fp, pc}
   12cb4:	00007723 	andeq	r7, r0, r3, lsr #14
   12cb8:	00007724 	andeq	r7, r0, r4, lsr #14
   12cbc:	07735940 	ldrbeq	r5, [r3, -r0, asr #18]!
   12cc0:	00000fff 	strdeq	r0, [r0], -pc	; <UNPREDICTABLE>

00012cc4 <bcm2835_aux_spi_setClockDivider>:
   12cc4:	e52db004 	push	{fp}		; (str fp, [sp, #-4]!)
   12cc8:	e28db000 	add	fp, sp, #0
   12ccc:	e24dd00c 	sub	sp, sp, #12
   12cd0:	e1a03000 	mov	r3, r0
   12cd4:	e14b30b6 	strh	r3, [fp, #-6]
   12cd8:	e15b30b6 	ldrh	r3, [fp, #-6]
   12cdc:	e59f2010 	ldr	r2, [pc, #16]	; 12cf4 <bcm2835_aux_spi_setClockDivider+0x30>
   12ce0:	e5823000 	str	r3, [r2]
   12ce4:	e1a00000 	nop			; (mov r0, r0)
   12ce8:	e28bd000 	add	sp, fp, #0
   12cec:	e49db004 	pop	{fp}		; (ldr fp, [sp], #4)
   12cf0:	e12fff1e 	bx	lr
   12cf4:	000261c0 	andeq	r6, r2, r0, asr #3

00012cf8 <bcm2835_aux_spi_write>:
   12cf8:	e92d4800 	push	{fp, lr}
   12cfc:	e28db004 	add	fp, sp, #4
   12d00:	e24dd020 	sub	sp, sp, #32
   12d04:	e1a03000 	mov	r3, r0
   12d08:	e14b31be 	strh	r3, [fp, #-30]	; 0xffffffe2
   12d0c:	e59f30c8 	ldr	r3, [pc, #200]	; 12ddc <bcm2835_aux_spi_write+0xe4>
   12d10:	e5933000 	ldr	r3, [r3]
   12d14:	e50b3008 	str	r3, [fp, #-8]
   12d18:	e59f30bc 	ldr	r3, [pc, #188]	; 12ddc <bcm2835_aux_spi_write+0xe4>
   12d1c:	e5933000 	ldr	r3, [r3]
   12d20:	e2833004 	add	r3, r3, #4
   12d24:	e50b300c 	str	r3, [fp, #-12]
   12d28:	e59f30ac 	ldr	r3, [pc, #172]	; 12ddc <bcm2835_aux_spi_write+0xe4>
   12d2c:	e5933000 	ldr	r3, [r3]
   12d30:	e2833008 	add	r3, r3, #8
   12d34:	e50b3010 	str	r3, [fp, #-16]
   12d38:	e59f309c 	ldr	r3, [pc, #156]	; 12ddc <bcm2835_aux_spi_write+0xe4>
   12d3c:	e5933000 	ldr	r3, [r3]
   12d40:	e2833020 	add	r3, r3, #32
   12d44:	e50b3014 	str	r3, [fp, #-20]	; 0xffffffec
   12d48:	e59f3090 	ldr	r3, [pc, #144]	; 12de0 <bcm2835_aux_spi_write+0xe8>
   12d4c:	e5933000 	ldr	r3, [r3]
   12d50:	e1a03a03 	lsl	r3, r3, #20
   12d54:	e50b3018 	str	r3, [fp, #-24]	; 0xffffffe8
   12d58:	e51b3018 	ldr	r3, [fp, #-24]	; 0xffffffe8
   12d5c:	e3833806 	orr	r3, r3, #393216	; 0x60000
   12d60:	e50b3018 	str	r3, [fp, #-24]	; 0xffffffe8
   12d64:	e51b3018 	ldr	r3, [fp, #-24]	; 0xffffffe8
   12d68:	e3833b02 	orr	r3, r3, #2048	; 0x800
   12d6c:	e50b3018 	str	r3, [fp, #-24]	; 0xffffffe8
   12d70:	e51b3018 	ldr	r3, [fp, #-24]	; 0xffffffe8
   12d74:	e3833040 	orr	r3, r3, #64	; 0x40
   12d78:	e50b3018 	str	r3, [fp, #-24]	; 0xffffffe8
   12d7c:	e51b3018 	ldr	r3, [fp, #-24]	; 0xffffffe8
   12d80:	e3833010 	orr	r3, r3, #16
   12d84:	e50b3018 	str	r3, [fp, #-24]	; 0xffffffe8
   12d88:	e51b1018 	ldr	r1, [fp, #-24]	; 0xffffffe8
   12d8c:	e51b0008 	ldr	r0, [fp, #-8]
   12d90:	ebfff9cb 	bl	114c4 <bcm2835_peri_write>
   12d94:	e3a01002 	mov	r1, #2
   12d98:	e51b000c 	ldr	r0, [fp, #-12]
   12d9c:	ebfff9c8 	bl	114c4 <bcm2835_peri_write>
   12da0:	e1a00000 	nop			; (mov r0, r0)
   12da4:	e51b0010 	ldr	r0, [fp, #-16]
   12da8:	ebfff999 	bl	11414 <bcm2835_peri_read>
   12dac:	e1a03000 	mov	r3, r0
   12db0:	e2033b01 	and	r3, r3, #1024	; 0x400
   12db4:	e3530000 	cmp	r3, #0
   12db8:	1afffff9 	bne	12da4 <bcm2835_aux_spi_write+0xac>
   12dbc:	e15b31be 	ldrh	r3, [fp, #-30]	; 0xffffffe2
   12dc0:	e1a03803 	lsl	r3, r3, #16
   12dc4:	e1a01003 	mov	r1, r3
   12dc8:	e51b0014 	ldr	r0, [fp, #-20]	; 0xffffffec
   12dcc:	ebfff9bc 	bl	114c4 <bcm2835_peri_write>
   12dd0:	e1a00000 	nop			; (mov r0, r0)
   12dd4:	e24bd004 	sub	sp, fp, #4
   12dd8:	e8bd8800 	pop	{fp, pc}
   12ddc:	000260a4 	andeq	r6, r2, r4, lsr #1
   12de0:	000261c0 	andeq	r6, r2, r0, asr #3

00012de4 <bcm2835_aux_spi_writenb>:
   12de4:	e92d4800 	push	{fp, lr}
   12de8:	e28db004 	add	fp, sp, #4
   12dec:	e24dd038 	sub	sp, sp, #56	; 0x38
   12df0:	e50b0038 	str	r0, [fp, #-56]	; 0xffffffc8
   12df4:	e50b103c 	str	r1, [fp, #-60]	; 0xffffffc4
   12df8:	e59f31f4 	ldr	r3, [pc, #500]	; 12ff4 <bcm2835_aux_spi_writenb+0x210>
   12dfc:	e5933000 	ldr	r3, [r3]
   12e00:	e50b3018 	str	r3, [fp, #-24]	; 0xffffffe8
   12e04:	e59f31e8 	ldr	r3, [pc, #488]	; 12ff4 <bcm2835_aux_spi_writenb+0x210>
   12e08:	e5933000 	ldr	r3, [r3]
   12e0c:	e2833004 	add	r3, r3, #4
   12e10:	e50b301c 	str	r3, [fp, #-28]	; 0xffffffe4
   12e14:	e59f31d8 	ldr	r3, [pc, #472]	; 12ff4 <bcm2835_aux_spi_writenb+0x210>
   12e18:	e5933000 	ldr	r3, [r3]
   12e1c:	e2833008 	add	r3, r3, #8
   12e20:	e50b3020 	str	r3, [fp, #-32]	; 0xffffffe0
   12e24:	e59f31c8 	ldr	r3, [pc, #456]	; 12ff4 <bcm2835_aux_spi_writenb+0x210>
   12e28:	e5933000 	ldr	r3, [r3]
   12e2c:	e2833030 	add	r3, r3, #48	; 0x30
   12e30:	e50b3024 	str	r3, [fp, #-36]	; 0xffffffdc
   12e34:	e59f31b8 	ldr	r3, [pc, #440]	; 12ff4 <bcm2835_aux_spi_writenb+0x210>
   12e38:	e5933000 	ldr	r3, [r3]
   12e3c:	e2833020 	add	r3, r3, #32
   12e40:	e50b3028 	str	r3, [fp, #-40]	; 0xffffffd8
   12e44:	e51b3038 	ldr	r3, [fp, #-56]	; 0xffffffc8
   12e48:	e50b3008 	str	r3, [fp, #-8]
   12e4c:	e51b303c 	ldr	r3, [fp, #-60]	; 0xffffffc4
   12e50:	e50b300c 	str	r3, [fp, #-12]
   12e54:	e59f319c 	ldr	r3, [pc, #412]	; 12ff8 <bcm2835_aux_spi_writenb+0x214>
   12e58:	e5933000 	ldr	r3, [r3]
   12e5c:	e1a03a03 	lsl	r3, r3, #20
   12e60:	e50b302c 	str	r3, [fp, #-44]	; 0xffffffd4
   12e64:	e51b302c 	ldr	r3, [fp, #-44]	; 0xffffffd4
   12e68:	e3833806 	orr	r3, r3, #393216	; 0x60000
   12e6c:	e50b302c 	str	r3, [fp, #-44]	; 0xffffffd4
   12e70:	e51b302c 	ldr	r3, [fp, #-44]	; 0xffffffd4
   12e74:	e3833b02 	orr	r3, r3, #2048	; 0x800
   12e78:	e50b302c 	str	r3, [fp, #-44]	; 0xffffffd4
   12e7c:	e51b302c 	ldr	r3, [fp, #-44]	; 0xffffffd4
   12e80:	e3833040 	orr	r3, r3, #64	; 0x40
   12e84:	e50b302c 	str	r3, [fp, #-44]	; 0xffffffd4
   12e88:	e51b302c 	ldr	r3, [fp, #-44]	; 0xffffffd4
   12e8c:	e3833901 	orr	r3, r3, #16384	; 0x4000
   12e90:	e50b302c 	str	r3, [fp, #-44]	; 0xffffffd4
   12e94:	e51b102c 	ldr	r1, [fp, #-44]	; 0xffffffd4
   12e98:	e51b0018 	ldr	r0, [fp, #-24]	; 0xffffffe8
   12e9c:	ebfff988 	bl	114c4 <bcm2835_peri_write>
   12ea0:	e3a01002 	mov	r1, #2
   12ea4:	e51b001c 	ldr	r0, [fp, #-28]	; 0xffffffe4
   12ea8:	ebfff985 	bl	114c4 <bcm2835_peri_write>
   12eac:	ea00004a 	b	12fdc <bcm2835_aux_spi_writenb+0x1f8>
   12eb0:	e1a00000 	nop			; (mov r0, r0)
   12eb4:	e51b0020 	ldr	r0, [fp, #-32]	; 0xffffffe0
   12eb8:	ebfff955 	bl	11414 <bcm2835_peri_read>
   12ebc:	e1a03000 	mov	r3, r0
   12ec0:	e2033b01 	and	r3, r3, #1024	; 0x400
   12ec4:	e3530000 	cmp	r3, #0
   12ec8:	1afffff9 	bne	12eb4 <bcm2835_aux_spi_writenb+0xd0>
   12ecc:	e51b300c 	ldr	r3, [fp, #-12]
   12ed0:	e3530003 	cmp	r3, #3
   12ed4:	31a03003 	movcc	r3, r3
   12ed8:	23a03003 	movcs	r3, #3
   12edc:	e50b3030 	str	r3, [fp, #-48]	; 0xffffffd0
   12ee0:	e3a03000 	mov	r3, #0
   12ee4:	e50b3010 	str	r3, [fp, #-16]
   12ee8:	e3a03000 	mov	r3, #0
   12eec:	e50b3014 	str	r3, [fp, #-20]	; 0xffffffec
   12ef0:	ea000018 	b	12f58 <bcm2835_aux_spi_writenb+0x174>
   12ef4:	e51b3008 	ldr	r3, [fp, #-8]
   12ef8:	e3530000 	cmp	r3, #0
   12efc:	0a000004 	beq	12f14 <bcm2835_aux_spi_writenb+0x130>
   12f00:	e51b3008 	ldr	r3, [fp, #-8]
   12f04:	e2832001 	add	r2, r3, #1
   12f08:	e50b2008 	str	r2, [fp, #-8]
   12f0c:	e5d33000 	ldrb	r3, [r3]
   12f10:	ea000000 	b	12f18 <bcm2835_aux_spi_writenb+0x134>
   12f14:	e3a03000 	mov	r3, #0
   12f18:	e54b3031 	strb	r3, [fp, #-49]	; 0xffffffcf
   12f1c:	e55b1031 	ldrb	r1, [fp, #-49]	; 0xffffffcf
   12f20:	e51b2014 	ldr	r2, [fp, #-20]	; 0xffffffec
   12f24:	e1a03002 	mov	r3, r2
   12f28:	e1a03e83 	lsl	r3, r3, #29
   12f2c:	e0433002 	sub	r3, r3, r2
   12f30:	e1a03183 	lsl	r3, r3, #3
   12f34:	e2833010 	add	r3, r3, #16
   12f38:	e1a03311 	lsl	r3, r1, r3
   12f3c:	e1a02003 	mov	r2, r3
   12f40:	e51b3010 	ldr	r3, [fp, #-16]
   12f44:	e1833002 	orr	r3, r3, r2
   12f48:	e50b3010 	str	r3, [fp, #-16]
   12f4c:	e51b3014 	ldr	r3, [fp, #-20]	; 0xffffffec
   12f50:	e2833001 	add	r3, r3, #1
   12f54:	e50b3014 	str	r3, [fp, #-20]	; 0xffffffec
   12f58:	e51b2014 	ldr	r2, [fp, #-20]	; 0xffffffec
   12f5c:	e51b3030 	ldr	r3, [fp, #-48]	; 0xffffffd0
   12f60:	e1520003 	cmp	r2, r3
   12f64:	3affffe2 	bcc	12ef4 <bcm2835_aux_spi_writenb+0x110>
   12f68:	e51b3030 	ldr	r3, [fp, #-48]	; 0xffffffd0
   12f6c:	e1a03183 	lsl	r3, r3, #3
   12f70:	e1a03c03 	lsl	r3, r3, #24
   12f74:	e51b2010 	ldr	r2, [fp, #-16]
   12f78:	e1823003 	orr	r3, r2, r3
   12f7c:	e50b3010 	str	r3, [fp, #-16]
   12f80:	e51b200c 	ldr	r2, [fp, #-12]
   12f84:	e51b3030 	ldr	r3, [fp, #-48]	; 0xffffffd0
   12f88:	e0423003 	sub	r3, r2, r3
   12f8c:	e50b300c 	str	r3, [fp, #-12]
   12f90:	e51b300c 	ldr	r3, [fp, #-12]
   12f94:	e3530000 	cmp	r3, #0
   12f98:	0a000003 	beq	12fac <bcm2835_aux_spi_writenb+0x1c8>
   12f9c:	e51b1010 	ldr	r1, [fp, #-16]
   12fa0:	e51b0024 	ldr	r0, [fp, #-36]	; 0xffffffdc
   12fa4:	ebfff946 	bl	114c4 <bcm2835_peri_write>
   12fa8:	ea000002 	b	12fb8 <bcm2835_aux_spi_writenb+0x1d4>
   12fac:	e51b1010 	ldr	r1, [fp, #-16]
   12fb0:	e51b0028 	ldr	r0, [fp, #-40]	; 0xffffffd8
   12fb4:	ebfff942 	bl	114c4 <bcm2835_peri_write>
   12fb8:	e1a00000 	nop			; (mov r0, r0)
   12fbc:	e51b0020 	ldr	r0, [fp, #-32]	; 0xffffffe0
   12fc0:	ebfff913 	bl	11414 <bcm2835_peri_read>
   12fc4:	e1a03000 	mov	r3, r0
   12fc8:	e2033040 	and	r3, r3, #64	; 0x40
   12fcc:	e3530000 	cmp	r3, #0
   12fd0:	1afffff9 	bne	12fbc <bcm2835_aux_spi_writenb+0x1d8>
   12fd4:	e51b0028 	ldr	r0, [fp, #-40]	; 0xffffffd8
   12fd8:	ebfff90d 	bl	11414 <bcm2835_peri_read>
   12fdc:	e51b300c 	ldr	r3, [fp, #-12]
   12fe0:	e3530000 	cmp	r3, #0
   12fe4:	1affffb1 	bne	12eb0 <bcm2835_aux_spi_writenb+0xcc>
   12fe8:	e1a00000 	nop			; (mov r0, r0)
   12fec:	e24bd004 	sub	sp, fp, #4
   12ff0:	e8bd8800 	pop	{fp, pc}
   12ff4:	000260a4 	andeq	r6, r2, r4, lsr #1
   12ff8:	000261c0 	andeq	r6, r2, r0, asr #3

00012ffc <bcm2835_aux_spi_transfernb>:
   12ffc:	e92d4800 	push	{fp, lr}
   13000:	e28db004 	add	fp, sp, #4
   13004:	e24dd048 	sub	sp, sp, #72	; 0x48
   13008:	e50b0040 	str	r0, [fp, #-64]	; 0xffffffc0
   1300c:	e50b1044 	str	r1, [fp, #-68]	; 0xffffffbc
   13010:	e50b2048 	str	r2, [fp, #-72]	; 0xffffffb8
   13014:	e59f339c 	ldr	r3, [pc, #924]	; 133b8 <bcm2835_aux_spi_transfernb+0x3bc>
   13018:	e5933000 	ldr	r3, [r3]
   1301c:	e50b3020 	str	r3, [fp, #-32]	; 0xffffffe0
   13020:	e59f3390 	ldr	r3, [pc, #912]	; 133b8 <bcm2835_aux_spi_transfernb+0x3bc>
   13024:	e5933000 	ldr	r3, [r3]
   13028:	e2833004 	add	r3, r3, #4
   1302c:	e50b3024 	str	r3, [fp, #-36]	; 0xffffffdc
   13030:	e59f3380 	ldr	r3, [pc, #896]	; 133b8 <bcm2835_aux_spi_transfernb+0x3bc>
   13034:	e5933000 	ldr	r3, [r3]
   13038:	e2833008 	add	r3, r3, #8
   1303c:	e50b3028 	str	r3, [fp, #-40]	; 0xffffffd8
   13040:	e59f3370 	ldr	r3, [pc, #880]	; 133b8 <bcm2835_aux_spi_transfernb+0x3bc>
   13044:	e5933000 	ldr	r3, [r3]
   13048:	e2833030 	add	r3, r3, #48	; 0x30
   1304c:	e50b302c 	str	r3, [fp, #-44]	; 0xffffffd4
   13050:	e59f3360 	ldr	r3, [pc, #864]	; 133b8 <bcm2835_aux_spi_transfernb+0x3bc>
   13054:	e5933000 	ldr	r3, [r3]
   13058:	e2833020 	add	r3, r3, #32
   1305c:	e50b3030 	str	r3, [fp, #-48]	; 0xffffffd0
   13060:	e51b3040 	ldr	r3, [fp, #-64]	; 0xffffffc0
   13064:	e50b3008 	str	r3, [fp, #-8]
   13068:	e51b3044 	ldr	r3, [fp, #-68]	; 0xffffffbc
   1306c:	e50b300c 	str	r3, [fp, #-12]
   13070:	e51b3048 	ldr	r3, [fp, #-72]	; 0xffffffb8
   13074:	e50b3010 	str	r3, [fp, #-16]
   13078:	e51b3048 	ldr	r3, [fp, #-72]	; 0xffffffb8
   1307c:	e50b3014 	str	r3, [fp, #-20]	; 0xffffffec
   13080:	e59f3334 	ldr	r3, [pc, #820]	; 133bc <bcm2835_aux_spi_transfernb+0x3c0>
   13084:	e5933000 	ldr	r3, [r3]
   13088:	e1a03a03 	lsl	r3, r3, #20
   1308c:	e50b3034 	str	r3, [fp, #-52]	; 0xffffffcc
   13090:	e51b3034 	ldr	r3, [fp, #-52]	; 0xffffffcc
   13094:	e3833806 	orr	r3, r3, #393216	; 0x60000
   13098:	e50b3034 	str	r3, [fp, #-52]	; 0xffffffcc
   1309c:	e51b3034 	ldr	r3, [fp, #-52]	; 0xffffffcc
   130a0:	e3833b02 	orr	r3, r3, #2048	; 0x800
   130a4:	e50b3034 	str	r3, [fp, #-52]	; 0xffffffcc
   130a8:	e51b3034 	ldr	r3, [fp, #-52]	; 0xffffffcc
   130ac:	e3833040 	orr	r3, r3, #64	; 0x40
   130b0:	e50b3034 	str	r3, [fp, #-52]	; 0xffffffcc
   130b4:	e51b3034 	ldr	r3, [fp, #-52]	; 0xffffffcc
   130b8:	e3833901 	orr	r3, r3, #16384	; 0x4000
   130bc:	e50b3034 	str	r3, [fp, #-52]	; 0xffffffcc
   130c0:	e51b1034 	ldr	r1, [fp, #-52]	; 0xffffffcc
   130c4:	e51b0020 	ldr	r0, [fp, #-32]	; 0xffffffe0
   130c8:	ebfff8fd 	bl	114c4 <bcm2835_peri_write>
   130cc:	e3a01002 	mov	r1, #2
   130d0:	e51b0024 	ldr	r0, [fp, #-36]	; 0xffffffdc
   130d4:	ebfff8fa 	bl	114c4 <bcm2835_peri_write>
   130d8:	ea0000ad 	b	13394 <bcm2835_aux_spi_transfernb+0x398>
   130dc:	e51b3010 	ldr	r3, [fp, #-16]
   130e0:	e3530003 	cmp	r3, #3
   130e4:	31a03003 	movcc	r3, r3
   130e8:	23a03003 	movcs	r3, #3
   130ec:	e50b3038 	str	r3, [fp, #-56]	; 0xffffffc8
   130f0:	e3a03000 	mov	r3, #0
   130f4:	e50b3018 	str	r3, [fp, #-24]	; 0xffffffe8
   130f8:	e3a03000 	mov	r3, #0
   130fc:	e50b301c 	str	r3, [fp, #-28]	; 0xffffffe4
   13100:	ea000018 	b	13168 <bcm2835_aux_spi_transfernb+0x16c>
   13104:	e51b3008 	ldr	r3, [fp, #-8]
   13108:	e3530000 	cmp	r3, #0
   1310c:	0a000004 	beq	13124 <bcm2835_aux_spi_transfernb+0x128>
   13110:	e51b3008 	ldr	r3, [fp, #-8]
   13114:	e2832001 	add	r2, r3, #1
   13118:	e50b2008 	str	r2, [fp, #-8]
   1311c:	e5d33000 	ldrb	r3, [r3]
   13120:	ea000000 	b	13128 <bcm2835_aux_spi_transfernb+0x12c>
   13124:	e3a03000 	mov	r3, #0
   13128:	e54b3039 	strb	r3, [fp, #-57]	; 0xffffffc7
   1312c:	e55b1039 	ldrb	r1, [fp, #-57]	; 0xffffffc7
   13130:	e51b201c 	ldr	r2, [fp, #-28]	; 0xffffffe4
   13134:	e1a03002 	mov	r3, r2
   13138:	e1a03e83 	lsl	r3, r3, #29
   1313c:	e0433002 	sub	r3, r3, r2
   13140:	e1a03183 	lsl	r3, r3, #3
   13144:	e2833010 	add	r3, r3, #16
   13148:	e1a03311 	lsl	r3, r1, r3
   1314c:	e1a02003 	mov	r2, r3
   13150:	e51b3018 	ldr	r3, [fp, #-24]	; 0xffffffe8
   13154:	e1833002 	orr	r3, r3, r2
   13158:	e50b3018 	str	r3, [fp, #-24]	; 0xffffffe8
   1315c:	e51b301c 	ldr	r3, [fp, #-28]	; 0xffffffe4
   13160:	e2833001 	add	r3, r3, #1
   13164:	e50b301c 	str	r3, [fp, #-28]	; 0xffffffe4
   13168:	e51b201c 	ldr	r2, [fp, #-28]	; 0xffffffe4
   1316c:	e51b3038 	ldr	r3, [fp, #-56]	; 0xffffffc8
   13170:	e1520003 	cmp	r2, r3
   13174:	3affffe2 	bcc	13104 <bcm2835_aux_spi_transfernb+0x108>
   13178:	e51b3038 	ldr	r3, [fp, #-56]	; 0xffffffc8
   1317c:	e1a03183 	lsl	r3, r3, #3
   13180:	e1a03c03 	lsl	r3, r3, #24
   13184:	e51b2018 	ldr	r2, [fp, #-24]	; 0xffffffe8
   13188:	e1823003 	orr	r3, r2, r3
   1318c:	e50b3018 	str	r3, [fp, #-24]	; 0xffffffe8
   13190:	e51b2010 	ldr	r2, [fp, #-16]
   13194:	e51b3038 	ldr	r3, [fp, #-56]	; 0xffffffc8
   13198:	e0423003 	sub	r3, r2, r3
   1319c:	e50b3010 	str	r3, [fp, #-16]
   131a0:	e51b3010 	ldr	r3, [fp, #-16]
   131a4:	e3530000 	cmp	r3, #0
   131a8:	0a000003 	beq	131bc <bcm2835_aux_spi_transfernb+0x1c0>
   131ac:	e51b1018 	ldr	r1, [fp, #-24]	; 0xffffffe8
   131b0:	e51b002c 	ldr	r0, [fp, #-44]	; 0xffffffd4
   131b4:	ebfff8c2 	bl	114c4 <bcm2835_peri_write>
   131b8:	ea000002 	b	131c8 <bcm2835_aux_spi_transfernb+0x1cc>
   131bc:	e51b1018 	ldr	r1, [fp, #-24]	; 0xffffffe8
   131c0:	e51b0030 	ldr	r0, [fp, #-48]	; 0xffffffd0
   131c4:	ebfff8be 	bl	114c4 <bcm2835_peri_write>
   131c8:	e51b0028 	ldr	r0, [fp, #-40]	; 0xffffffd8
   131cc:	ebfff890 	bl	11414 <bcm2835_peri_read>
   131d0:	e1a03000 	mov	r3, r0
   131d4:	e2033b01 	and	r3, r3, #1024	; 0x400
   131d8:	e3530000 	cmp	r3, #0
   131dc:	1a00002e 	bne	1329c <bcm2835_aux_spi_transfernb+0x2a0>
   131e0:	e51b3010 	ldr	r3, [fp, #-16]
   131e4:	e3530000 	cmp	r3, #0
   131e8:	1affffbb 	bne	130dc <bcm2835_aux_spi_transfernb+0xe0>
   131ec:	ea00002a 	b	1329c <bcm2835_aux_spi_transfernb+0x2a0>
   131f0:	e51b3014 	ldr	r3, [fp, #-20]	; 0xffffffec
   131f4:	e3530003 	cmp	r3, #3
   131f8:	31a03003 	movcc	r3, r3
   131fc:	23a03003 	movcs	r3, #3
   13200:	e50b3038 	str	r3, [fp, #-56]	; 0xffffffc8
   13204:	e51b0030 	ldr	r0, [fp, #-48]	; 0xffffffd0
   13208:	ebfff881 	bl	11414 <bcm2835_peri_read>
   1320c:	e50b0018 	str	r0, [fp, #-24]	; 0xffffffe8
   13210:	e51b3044 	ldr	r3, [fp, #-68]	; 0xffffffbc
   13214:	e3530000 	cmp	r3, #0
   13218:	0a00001b 	beq	1328c <bcm2835_aux_spi_transfernb+0x290>
   1321c:	e51b3038 	ldr	r3, [fp, #-56]	; 0xffffffc8
   13220:	e3530002 	cmp	r3, #2
   13224:	0a00000b 	beq	13258 <bcm2835_aux_spi_transfernb+0x25c>
   13228:	e3530003 	cmp	r3, #3
   1322c:	0a000002 	beq	1323c <bcm2835_aux_spi_transfernb+0x240>
   13230:	e3530001 	cmp	r3, #1
   13234:	0a00000e 	beq	13274 <bcm2835_aux_spi_transfernb+0x278>
   13238:	ea000013 	b	1328c <bcm2835_aux_spi_transfernb+0x290>
   1323c:	e51b300c 	ldr	r3, [fp, #-12]
   13240:	e2832001 	add	r2, r3, #1
   13244:	e50b200c 	str	r2, [fp, #-12]
   13248:	e51b2018 	ldr	r2, [fp, #-24]	; 0xffffffe8
   1324c:	e1a02822 	lsr	r2, r2, #16
   13250:	e6ef2072 	uxtb	r2, r2
   13254:	e5c32000 	strb	r2, [r3]
   13258:	e51b300c 	ldr	r3, [fp, #-12]
   1325c:	e2832001 	add	r2, r3, #1
   13260:	e50b200c 	str	r2, [fp, #-12]
   13264:	e51b2018 	ldr	r2, [fp, #-24]	; 0xffffffe8
   13268:	e1a02422 	lsr	r2, r2, #8
   1326c:	e6ef2072 	uxtb	r2, r2
   13270:	e5c32000 	strb	r2, [r3]
   13274:	e51b300c 	ldr	r3, [fp, #-12]
   13278:	e2832001 	add	r2, r3, #1
   1327c:	e50b200c 	str	r2, [fp, #-12]
   13280:	e51b2018 	ldr	r2, [fp, #-24]	; 0xffffffe8
   13284:	e6ef2072 	uxtb	r2, r2
   13288:	e5c32000 	strb	r2, [r3]
   1328c:	e51b2014 	ldr	r2, [fp, #-20]	; 0xffffffec
   13290:	e51b3038 	ldr	r3, [fp, #-56]	; 0xffffffc8
   13294:	e0423003 	sub	r3, r2, r3
   13298:	e50b3014 	str	r3, [fp, #-20]	; 0xffffffec
   1329c:	e51b0028 	ldr	r0, [fp, #-40]	; 0xffffffd8
   132a0:	ebfff85b 	bl	11414 <bcm2835_peri_read>
   132a4:	e1a03000 	mov	r3, r0
   132a8:	e2033080 	and	r3, r3, #128	; 0x80
   132ac:	e3530000 	cmp	r3, #0
   132b0:	1a00002e 	bne	13370 <bcm2835_aux_spi_transfernb+0x374>
   132b4:	e51b3014 	ldr	r3, [fp, #-20]	; 0xffffffec
   132b8:	e3530000 	cmp	r3, #0
   132bc:	1affffcb 	bne	131f0 <bcm2835_aux_spi_transfernb+0x1f4>
   132c0:	ea00002a 	b	13370 <bcm2835_aux_spi_transfernb+0x374>
   132c4:	e51b3014 	ldr	r3, [fp, #-20]	; 0xffffffec
   132c8:	e3530003 	cmp	r3, #3
   132cc:	31a03003 	movcc	r3, r3
   132d0:	23a03003 	movcs	r3, #3
   132d4:	e50b3038 	str	r3, [fp, #-56]	; 0xffffffc8
   132d8:	e51b0030 	ldr	r0, [fp, #-48]	; 0xffffffd0
   132dc:	ebfff84c 	bl	11414 <bcm2835_peri_read>
   132e0:	e50b0018 	str	r0, [fp, #-24]	; 0xffffffe8
   132e4:	e51b3044 	ldr	r3, [fp, #-68]	; 0xffffffbc
   132e8:	e3530000 	cmp	r3, #0
   132ec:	0a00001b 	beq	13360 <bcm2835_aux_spi_transfernb+0x364>
   132f0:	e51b3038 	ldr	r3, [fp, #-56]	; 0xffffffc8
   132f4:	e3530002 	cmp	r3, #2
   132f8:	0a00000b 	beq	1332c <bcm2835_aux_spi_transfernb+0x330>
   132fc:	e3530003 	cmp	r3, #3
   13300:	0a000002 	beq	13310 <bcm2835_aux_spi_transfernb+0x314>
   13304:	e3530001 	cmp	r3, #1
   13308:	0a00000e 	beq	13348 <bcm2835_aux_spi_transfernb+0x34c>
   1330c:	ea000013 	b	13360 <bcm2835_aux_spi_transfernb+0x364>
   13310:	e51b300c 	ldr	r3, [fp, #-12]
   13314:	e2832001 	add	r2, r3, #1
   13318:	e50b200c 	str	r2, [fp, #-12]
   1331c:	e51b2018 	ldr	r2, [fp, #-24]	; 0xffffffe8
   13320:	e1a02822 	lsr	r2, r2, #16
   13324:	e6ef2072 	uxtb	r2, r2
   13328:	e5c32000 	strb	r2, [r3]
   1332c:	e51b300c 	ldr	r3, [fp, #-12]
   13330:	e2832001 	add	r2, r3, #1
   13334:	e50b200c 	str	r2, [fp, #-12]
   13338:	e51b2018 	ldr	r2, [fp, #-24]	; 0xffffffe8
   1333c:	e1a02422 	lsr	r2, r2, #8
   13340:	e6ef2072 	uxtb	r2, r2
   13344:	e5c32000 	strb	r2, [r3]
   13348:	e51b300c 	ldr	r3, [fp, #-12]
   1334c:	e2832001 	add	r2, r3, #1
   13350:	e50b200c 	str	r2, [fp, #-12]
   13354:	e51b2018 	ldr	r2, [fp, #-24]	; 0xffffffe8
   13358:	e6ef2072 	uxtb	r2, r2
   1335c:	e5c32000 	strb	r2, [r3]
   13360:	e51b2014 	ldr	r2, [fp, #-20]	; 0xffffffec
   13364:	e51b3038 	ldr	r3, [fp, #-56]	; 0xffffffc8
   13368:	e0423003 	sub	r3, r2, r3
   1336c:	e50b3014 	str	r3, [fp, #-20]	; 0xffffffec
   13370:	e51b0028 	ldr	r0, [fp, #-40]	; 0xffffffd8
   13374:	ebfff826 	bl	11414 <bcm2835_peri_read>
   13378:	e1a03000 	mov	r3, r0
   1337c:	e2033040 	and	r3, r3, #64	; 0x40
   13380:	e3530000 	cmp	r3, #0
   13384:	1a000002 	bne	13394 <bcm2835_aux_spi_transfernb+0x398>
   13388:	e51b3014 	ldr	r3, [fp, #-20]	; 0xffffffec
   1338c:	e3530000 	cmp	r3, #0
   13390:	1affffcb 	bne	132c4 <bcm2835_aux_spi_transfernb+0x2c8>
   13394:	e51b3010 	ldr	r3, [fp, #-16]
   13398:	e3530000 	cmp	r3, #0
   1339c:	1affff89 	bne	131c8 <bcm2835_aux_spi_transfernb+0x1cc>
   133a0:	e51b3014 	ldr	r3, [fp, #-20]	; 0xffffffec
   133a4:	e3530000 	cmp	r3, #0
   133a8:	1affff86 	bne	131c8 <bcm2835_aux_spi_transfernb+0x1cc>
   133ac:	e1a00000 	nop			; (mov r0, r0)
   133b0:	e24bd004 	sub	sp, fp, #4
   133b4:	e8bd8800 	pop	{fp, pc}
   133b8:	000260a4 	andeq	r6, r2, r4, lsr #1
   133bc:	000261c0 	andeq	r6, r2, r0, asr #3

000133c0 <bcm2835_aux_spi_transfern>:
   133c0:	e92d4800 	push	{fp, lr}
   133c4:	e28db004 	add	fp, sp, #4
   133c8:	e24dd008 	sub	sp, sp, #8
   133cc:	e50b0008 	str	r0, [fp, #-8]
   133d0:	e50b100c 	str	r1, [fp, #-12]
   133d4:	e51b200c 	ldr	r2, [fp, #-12]
   133d8:	e51b1008 	ldr	r1, [fp, #-8]
   133dc:	e51b0008 	ldr	r0, [fp, #-8]
   133e0:	ebffff05 	bl	12ffc <bcm2835_aux_spi_transfernb>
   133e4:	e1a00000 	nop			; (mov r0, r0)
   133e8:	e24bd004 	sub	sp, fp, #4
   133ec:	e8bd8800 	pop	{fp, pc}

000133f0 <bcm2835_i2c_begin>:
   133f0:	e92d4800 	push	{fp, lr}
   133f4:	e28db004 	add	fp, sp, #4
   133f8:	e24dd008 	sub	sp, sp, #8
   133fc:	e59f30a8 	ldr	r3, [pc, #168]	; 134ac <bcm2835_i2c_begin+0xbc>
   13400:	e5933000 	ldr	r3, [r3]
   13404:	e3730001 	cmn	r3, #1
   13408:	0a000003 	beq	1341c <bcm2835_i2c_begin+0x2c>
   1340c:	e59f309c 	ldr	r3, [pc, #156]	; 134b0 <bcm2835_i2c_begin+0xc0>
   13410:	e5933000 	ldr	r3, [r3]
   13414:	e3730001 	cmn	r3, #1
   13418:	1a000001 	bne	13424 <bcm2835_i2c_begin+0x34>
   1341c:	e3a03000 	mov	r3, #0
   13420:	ea00001b 	b	13494 <bcm2835_i2c_begin+0xa4>
   13424:	e59f3084 	ldr	r3, [pc, #132]	; 134b0 <bcm2835_i2c_begin+0xc0>
   13428:	e5933000 	ldr	r3, [r3]
   1342c:	e2833014 	add	r3, r3, #20
   13430:	e50b3008 	str	r3, [fp, #-8]
   13434:	e3a01004 	mov	r1, #4
   13438:	e3a00002 	mov	r0, #2
   1343c:	ebfff866 	bl	115dc <bcm2835_gpio_fsel>
   13440:	e3a01004 	mov	r1, #4
   13444:	e3a00003 	mov	r0, #3
   13448:	ebfff863 	bl	115dc <bcm2835_gpio_fsel>
   1344c:	e51b0008 	ldr	r0, [fp, #-8]
   13450:	ebfff7ef 	bl	11414 <bcm2835_peri_read>
   13454:	e1a03000 	mov	r3, r0
   13458:	e14b30ba 	strh	r3, [fp, #-10]
   1345c:	e15b30ba 	ldrh	r3, [fp, #-10]
   13460:	ee073a90 	vmov	s15, r3
   13464:	eeb87a67 	vcvt.f32.u32	s14, s15
   13468:	eddf6a0c 	vldr	s13, [pc, #48]	; 134a0 <bcm2835_i2c_begin+0xb0>
   1346c:	eec77a26 	vdiv.f32	s15, s14, s13
   13470:	ed9f7a0b 	vldr	s14, [pc, #44]	; 134a4 <bcm2835_i2c_begin+0xb4>
   13474:	ee677a87 	vmul.f32	s15, s15, s14
   13478:	ed9f7a0a 	vldr	s14, [pc, #40]	; 134a8 <bcm2835_i2c_begin+0xb8>
   1347c:	ee677a87 	vmul.f32	s15, s15, s14
   13480:	eefd7ae7 	vcvt.s32.f32	s15, s15
   13484:	ee172a90 	vmov	r2, s15
   13488:	e59f3024 	ldr	r3, [pc, #36]	; 134b4 <bcm2835_i2c_begin+0xc4>
   1348c:	e5832000 	str	r2, [r3]
   13490:	e3a03001 	mov	r3, #1
   13494:	e1a00003 	mov	r0, r3
   13498:	e24bd004 	sub	sp, fp, #4
   1349c:	e8bd8800 	pop	{fp, pc}
   134a0:	4d6e6b28 	vstmdbmi	lr!, {d22-<overflow reg d41>}
   134a4:	49742400 	ldmdbmi	r4!, {sl, sp}^
   134a8:	41100000 	tstmi	r0, r0
   134ac:	00026094 	muleq	r2, r4, r0
   134b0:	00026098 	muleq	r2, r8, r0
   134b4:	000261bc 			; <UNDEFINED> instruction: 0x000261bc

000134b8 <bcm2835_i2c_end>:
   134b8:	e92d4800 	push	{fp, lr}
   134bc:	e28db004 	add	fp, sp, #4
   134c0:	e3a01000 	mov	r1, #0
   134c4:	e3a00002 	mov	r0, #2
   134c8:	ebfff843 	bl	115dc <bcm2835_gpio_fsel>
   134cc:	e3a01000 	mov	r1, #0
   134d0:	e3a00003 	mov	r0, #3
   134d4:	ebfff840 	bl	115dc <bcm2835_gpio_fsel>
   134d8:	e1a00000 	nop			; (mov r0, r0)
   134dc:	e8bd8800 	pop	{fp, pc}

000134e0 <bcm2835_i2c_setSlaveAddress>:
   134e0:	e92d4800 	push	{fp, lr}
   134e4:	e28db004 	add	fp, sp, #4
   134e8:	e24dd010 	sub	sp, sp, #16
   134ec:	e1a03000 	mov	r3, r0
   134f0:	e54b300d 	strb	r3, [fp, #-13]
   134f4:	e59f3024 	ldr	r3, [pc, #36]	; 13520 <bcm2835_i2c_setSlaveAddress+0x40>
   134f8:	e5933000 	ldr	r3, [r3]
   134fc:	e283300c 	add	r3, r3, #12
   13500:	e50b3008 	str	r3, [fp, #-8]
   13504:	e55b300d 	ldrb	r3, [fp, #-13]
   13508:	e1a01003 	mov	r1, r3
   1350c:	e51b0008 	ldr	r0, [fp, #-8]
   13510:	ebfff7eb 	bl	114c4 <bcm2835_peri_write>
   13514:	e1a00000 	nop			; (mov r0, r0)
   13518:	e24bd004 	sub	sp, fp, #4
   1351c:	e8bd8800 	pop	{fp, pc}
   13520:	00026098 	muleq	r2, r8, r0

00013524 <bcm2835_i2c_setClockDivider>:
   13524:	e92d4800 	push	{fp, lr}
   13528:	e28db004 	add	fp, sp, #4
   1352c:	e24dd010 	sub	sp, sp, #16
   13530:	e1a03000 	mov	r3, r0
   13534:	e14b30be 	strh	r3, [fp, #-14]
   13538:	e59f3064 	ldr	r3, [pc, #100]	; 135a4 <bcm2835_i2c_setClockDivider+0x80>
   1353c:	e5933000 	ldr	r3, [r3]
   13540:	e2833014 	add	r3, r3, #20
   13544:	e50b3008 	str	r3, [fp, #-8]
   13548:	e15b30be 	ldrh	r3, [fp, #-14]
   1354c:	e1a01003 	mov	r1, r3
   13550:	e51b0008 	ldr	r0, [fp, #-8]
   13554:	ebfff7da 	bl	114c4 <bcm2835_peri_write>
   13558:	e15b30be 	ldrh	r3, [fp, #-14]
   1355c:	ee073a90 	vmov	s15, r3
   13560:	eeb87a67 	vcvt.f32.u32	s14, s15
   13564:	eddf6a0b 	vldr	s13, [pc, #44]	; 13598 <bcm2835_i2c_setClockDivider+0x74>
   13568:	eec77a26 	vdiv.f32	s15, s14, s13
   1356c:	ed9f7a0a 	vldr	s14, [pc, #40]	; 1359c <bcm2835_i2c_setClockDivider+0x78>
   13570:	ee677a87 	vmul.f32	s15, s15, s14
   13574:	ed9f7a09 	vldr	s14, [pc, #36]	; 135a0 <bcm2835_i2c_setClockDivider+0x7c>
   13578:	ee677a87 	vmul.f32	s15, s15, s14
   1357c:	eefd7ae7 	vcvt.s32.f32	s15, s15
   13580:	ee172a90 	vmov	r2, s15
   13584:	e59f301c 	ldr	r3, [pc, #28]	; 135a8 <bcm2835_i2c_setClockDivider+0x84>
   13588:	e5832000 	str	r2, [r3]
   1358c:	e1a00000 	nop			; (mov r0, r0)
   13590:	e24bd004 	sub	sp, fp, #4
   13594:	e8bd8800 	pop	{fp, pc}
   13598:	4d6e6b28 	vstmdbmi	lr!, {d22-<overflow reg d41>}
   1359c:	49742400 	ldmdbmi	r4!, {sl, sp}^
   135a0:	41100000 	tstmi	r0, r0
   135a4:	00026098 	muleq	r2, r8, r0
   135a8:	000261bc 			; <UNDEFINED> instruction: 0x000261bc

000135ac <bcm2835_i2c_set_baudrate>:
   135ac:	e92d4800 	push	{fp, lr}
   135b0:	e28db004 	add	fp, sp, #4
   135b4:	e24dd010 	sub	sp, sp, #16
   135b8:	e50b0010 	str	r0, [fp, #-16]
   135bc:	e51b1010 	ldr	r1, [fp, #-16]
   135c0:	e59f0030 	ldr	r0, [pc, #48]	; 135f8 <bcm2835_i2c_set_baudrate+0x4c>
   135c4:	ebfff488 	bl	107ec <__aeabi_uidiv@plt>
   135c8:	e1a03000 	mov	r3, r0
   135cc:	e1a02003 	mov	r2, r3
   135d0:	e59f3024 	ldr	r3, [pc, #36]	; 135fc <bcm2835_i2c_set_baudrate+0x50>
   135d4:	e0033002 	and	r3, r3, r2
   135d8:	e50b3008 	str	r3, [fp, #-8]
   135dc:	e51b3008 	ldr	r3, [fp, #-8]
   135e0:	e6ff3073 	uxth	r3, r3
   135e4:	e1a00003 	mov	r0, r3
   135e8:	ebffffcd 	bl	13524 <bcm2835_i2c_setClockDivider>
   135ec:	e1a00000 	nop			; (mov r0, r0)
   135f0:	e24bd004 	sub	sp, fp, #4
   135f4:	e8bd8800 	pop	{fp, pc}
   135f8:	0ee6b280 	cdpeq	2, 14, cr11, cr6, cr0, {4}
   135fc:	0000fffe 	strdeq	pc, [r0], -lr

00013600 <bcm2835_i2c_write>:
   13600:	e92d4800 	push	{fp, lr}
   13604:	e28db004 	add	fp, sp, #4
   13608:	e24dd028 	sub	sp, sp, #40	; 0x28
   1360c:	e50b0028 	str	r0, [fp, #-40]	; 0xffffffd8
   13610:	e50b102c 	str	r1, [fp, #-44]	; 0xffffffd4
   13614:	e59f31c0 	ldr	r3, [pc, #448]	; 137dc <bcm2835_i2c_write+0x1dc>
   13618:	e5933000 	ldr	r3, [r3]
   1361c:	e2833008 	add	r3, r3, #8
   13620:	e50b3014 	str	r3, [fp, #-20]	; 0xffffffec
   13624:	e59f31b0 	ldr	r3, [pc, #432]	; 137dc <bcm2835_i2c_write+0x1dc>
   13628:	e5933000 	ldr	r3, [r3]
   1362c:	e2833010 	add	r3, r3, #16
   13630:	e50b3018 	str	r3, [fp, #-24]	; 0xffffffe8
   13634:	e59f31a0 	ldr	r3, [pc, #416]	; 137dc <bcm2835_i2c_write+0x1dc>
   13638:	e5933000 	ldr	r3, [r3]
   1363c:	e2833004 	add	r3, r3, #4
   13640:	e50b301c 	str	r3, [fp, #-28]	; 0xffffffe4
   13644:	e59f3190 	ldr	r3, [pc, #400]	; 137dc <bcm2835_i2c_write+0x1dc>
   13648:	e5933000 	ldr	r3, [r3]
   1364c:	e50b3020 	str	r3, [fp, #-32]	; 0xffffffe0
   13650:	e51b302c 	ldr	r3, [fp, #-44]	; 0xffffffd4
   13654:	e50b3008 	str	r3, [fp, #-8]
   13658:	e3a03000 	mov	r3, #0
   1365c:	e50b300c 	str	r3, [fp, #-12]
   13660:	e3a03000 	mov	r3, #0
   13664:	e54b300d 	strb	r3, [fp, #-13]
   13668:	e3a02020 	mov	r2, #32
   1366c:	e3a01020 	mov	r1, #32
   13670:	e51b0020 	ldr	r0, [fp, #-32]	; 0xffffffe0
   13674:	ebfff7c0 	bl	1157c <bcm2835_peri_set_bits>
   13678:	e59f1160 	ldr	r1, [pc, #352]	; 137e0 <bcm2835_i2c_write+0x1e0>
   1367c:	e51b001c 	ldr	r0, [fp, #-28]	; 0xffffffe4
   13680:	ebfff78f 	bl	114c4 <bcm2835_peri_write>
   13684:	e51b102c 	ldr	r1, [fp, #-44]	; 0xffffffd4
   13688:	e51b0014 	ldr	r0, [fp, #-20]	; 0xffffffec
   1368c:	ebfff78c 	bl	114c4 <bcm2835_peri_write>
   13690:	ea00000c 	b	136c8 <bcm2835_i2c_write+0xc8>
   13694:	e51b2028 	ldr	r2, [fp, #-40]	; 0xffffffd8
   13698:	e51b300c 	ldr	r3, [fp, #-12]
   1369c:	e0823003 	add	r3, r2, r3
   136a0:	e5d33000 	ldrb	r3, [r3]
   136a4:	e1a01003 	mov	r1, r3
   136a8:	e51b0018 	ldr	r0, [fp, #-24]	; 0xffffffe8
   136ac:	ebfff79c 	bl	11524 <bcm2835_peri_write_nb>
   136b0:	e51b300c 	ldr	r3, [fp, #-12]
   136b4:	e2833001 	add	r3, r3, #1
   136b8:	e50b300c 	str	r3, [fp, #-12]
   136bc:	e51b3008 	ldr	r3, [fp, #-8]
   136c0:	e2433001 	sub	r3, r3, #1
   136c4:	e50b3008 	str	r3, [fp, #-8]
   136c8:	e51b3008 	ldr	r3, [fp, #-8]
   136cc:	e3530000 	cmp	r3, #0
   136d0:	0a000002 	beq	136e0 <bcm2835_i2c_write+0xe0>
   136d4:	e51b300c 	ldr	r3, [fp, #-12]
   136d8:	e353000f 	cmp	r3, #15
   136dc:	9affffec 	bls	13694 <bcm2835_i2c_write+0x94>
   136e0:	e59f10fc 	ldr	r1, [pc, #252]	; 137e4 <bcm2835_i2c_write+0x1e4>
   136e4:	e51b0020 	ldr	r0, [fp, #-32]	; 0xffffffe0
   136e8:	ebfff775 	bl	114c4 <bcm2835_peri_write>
   136ec:	ea000015 	b	13748 <bcm2835_i2c_write+0x148>
   136f0:	e51b2028 	ldr	r2, [fp, #-40]	; 0xffffffd8
   136f4:	e51b300c 	ldr	r3, [fp, #-12]
   136f8:	e0823003 	add	r3, r2, r3
   136fc:	e5d33000 	ldrb	r3, [r3]
   13700:	e1a01003 	mov	r1, r3
   13704:	e51b0018 	ldr	r0, [fp, #-24]	; 0xffffffe8
   13708:	ebfff76d 	bl	114c4 <bcm2835_peri_write>
   1370c:	e51b300c 	ldr	r3, [fp, #-12]
   13710:	e2833001 	add	r3, r3, #1
   13714:	e50b300c 	str	r3, [fp, #-12]
   13718:	e51b3008 	ldr	r3, [fp, #-8]
   1371c:	e2433001 	sub	r3, r3, #1
   13720:	e50b3008 	str	r3, [fp, #-8]
   13724:	e51b3008 	ldr	r3, [fp, #-8]
   13728:	e3530000 	cmp	r3, #0
   1372c:	0a000005 	beq	13748 <bcm2835_i2c_write+0x148>
   13730:	e51b001c 	ldr	r0, [fp, #-28]	; 0xffffffe4
   13734:	ebfff736 	bl	11414 <bcm2835_peri_read>
   13738:	e1a03000 	mov	r3, r0
   1373c:	e2033010 	and	r3, r3, #16
   13740:	e3530000 	cmp	r3, #0
   13744:	1affffe9 	bne	136f0 <bcm2835_i2c_write+0xf0>
   13748:	e51b001c 	ldr	r0, [fp, #-28]	; 0xffffffe4
   1374c:	ebfff730 	bl	11414 <bcm2835_peri_read>
   13750:	e1a03000 	mov	r3, r0
   13754:	e2033002 	and	r3, r3, #2
   13758:	e3530000 	cmp	r3, #0
   1375c:	0afffff0 	beq	13724 <bcm2835_i2c_write+0x124>
   13760:	e51b001c 	ldr	r0, [fp, #-28]	; 0xffffffe4
   13764:	ebfff72a 	bl	11414 <bcm2835_peri_read>
   13768:	e1a03000 	mov	r3, r0
   1376c:	e2033c01 	and	r3, r3, #256	; 0x100
   13770:	e3530000 	cmp	r3, #0
   13774:	0a000002 	beq	13784 <bcm2835_i2c_write+0x184>
   13778:	e3a03001 	mov	r3, #1
   1377c:	e54b300d 	strb	r3, [fp, #-13]
   13780:	ea00000d 	b	137bc <bcm2835_i2c_write+0x1bc>
   13784:	e51b001c 	ldr	r0, [fp, #-28]	; 0xffffffe4
   13788:	ebfff721 	bl	11414 <bcm2835_peri_read>
   1378c:	e1a03000 	mov	r3, r0
   13790:	e2033c02 	and	r3, r3, #512	; 0x200
   13794:	e3530000 	cmp	r3, #0
   13798:	0a000002 	beq	137a8 <bcm2835_i2c_write+0x1a8>
   1379c:	e3a03002 	mov	r3, #2
   137a0:	e54b300d 	strb	r3, [fp, #-13]
   137a4:	ea000004 	b	137bc <bcm2835_i2c_write+0x1bc>
   137a8:	e51b3008 	ldr	r3, [fp, #-8]
   137ac:	e3530000 	cmp	r3, #0
   137b0:	0a000001 	beq	137bc <bcm2835_i2c_write+0x1bc>
   137b4:	e3a03004 	mov	r3, #4
   137b8:	e54b300d 	strb	r3, [fp, #-13]
   137bc:	e3a02002 	mov	r2, #2
   137c0:	e3a01002 	mov	r1, #2
   137c4:	e51b0020 	ldr	r0, [fp, #-32]	; 0xffffffe0
   137c8:	ebfff76b 	bl	1157c <bcm2835_peri_set_bits>
   137cc:	e55b300d 	ldrb	r3, [fp, #-13]
   137d0:	e1a00003 	mov	r0, r3
   137d4:	e24bd004 	sub	sp, fp, #4
   137d8:	e8bd8800 	pop	{fp, pc}
   137dc:	00026098 	muleq	r2, r8, r0
   137e0:	00000302 	andeq	r0, r0, r2, lsl #6
   137e4:	00008080 	andeq	r8, r0, r0, lsl #1

000137e8 <bcm2835_i2c_read>:
   137e8:	e92d4810 	push	{r4, fp, lr}
   137ec:	e28db008 	add	fp, sp, #8
   137f0:	e24dd02c 	sub	sp, sp, #44	; 0x2c
   137f4:	e50b0030 	str	r0, [fp, #-48]	; 0xffffffd0
   137f8:	e50b1034 	str	r1, [fp, #-52]	; 0xffffffcc
   137fc:	e59f31c8 	ldr	r3, [pc, #456]	; 139cc <bcm2835_i2c_read+0x1e4>
   13800:	e5933000 	ldr	r3, [r3]
   13804:	e2833008 	add	r3, r3, #8
   13808:	e50b301c 	str	r3, [fp, #-28]	; 0xffffffe4
   1380c:	e59f31b8 	ldr	r3, [pc, #440]	; 139cc <bcm2835_i2c_read+0x1e4>
   13810:	e5933000 	ldr	r3, [r3]
   13814:	e2833010 	add	r3, r3, #16
   13818:	e50b3020 	str	r3, [fp, #-32]	; 0xffffffe0
   1381c:	e59f31a8 	ldr	r3, [pc, #424]	; 139cc <bcm2835_i2c_read+0x1e4>
   13820:	e5933000 	ldr	r3, [r3]
   13824:	e2833004 	add	r3, r3, #4
   13828:	e50b3024 	str	r3, [fp, #-36]	; 0xffffffdc
   1382c:	e59f3198 	ldr	r3, [pc, #408]	; 139cc <bcm2835_i2c_read+0x1e4>
   13830:	e5933000 	ldr	r3, [r3]
   13834:	e50b3028 	str	r3, [fp, #-40]	; 0xffffffd8
   13838:	e51b3034 	ldr	r3, [fp, #-52]	; 0xffffffcc
   1383c:	e50b3010 	str	r3, [fp, #-16]
   13840:	e3a03000 	mov	r3, #0
   13844:	e50b3014 	str	r3, [fp, #-20]	; 0xffffffec
   13848:	e3a03000 	mov	r3, #0
   1384c:	e54b3015 	strb	r3, [fp, #-21]	; 0xffffffeb
   13850:	e3a02020 	mov	r2, #32
   13854:	e3a01020 	mov	r1, #32
   13858:	e51b0028 	ldr	r0, [fp, #-40]	; 0xffffffd8
   1385c:	ebfff746 	bl	1157c <bcm2835_peri_set_bits>
   13860:	e59f1168 	ldr	r1, [pc, #360]	; 139d0 <bcm2835_i2c_read+0x1e8>
   13864:	e51b0024 	ldr	r0, [fp, #-36]	; 0xffffffdc
   13868:	ebfff72d 	bl	11524 <bcm2835_peri_write_nb>
   1386c:	e51b1034 	ldr	r1, [fp, #-52]	; 0xffffffcc
   13870:	e51b001c 	ldr	r0, [fp, #-28]	; 0xffffffe4
   13874:	ebfff72a 	bl	11524 <bcm2835_peri_write_nb>
   13878:	e59f1154 	ldr	r1, [pc, #340]	; 139d4 <bcm2835_i2c_read+0x1ec>
   1387c:	e51b0028 	ldr	r0, [fp, #-40]	; 0xffffffd8
   13880:	ebfff727 	bl	11524 <bcm2835_peri_write_nb>
   13884:	ea000013 	b	138d8 <bcm2835_i2c_read+0xf0>
   13888:	e51b2030 	ldr	r2, [fp, #-48]	; 0xffffffd0
   1388c:	e51b3014 	ldr	r3, [fp, #-20]	; 0xffffffec
   13890:	e0824003 	add	r4, r2, r3
   13894:	e51b0020 	ldr	r0, [fp, #-32]	; 0xffffffe0
   13898:	ebfff6f5 	bl	11474 <bcm2835_peri_read_nb>
   1389c:	e1a03000 	mov	r3, r0
   138a0:	e6ef3073 	uxtb	r3, r3
   138a4:	e5c43000 	strb	r3, [r4]
   138a8:	e51b3014 	ldr	r3, [fp, #-20]	; 0xffffffec
   138ac:	e2833001 	add	r3, r3, #1
   138b0:	e50b3014 	str	r3, [fp, #-20]	; 0xffffffec
   138b4:	e51b3010 	ldr	r3, [fp, #-16]
   138b8:	e2433001 	sub	r3, r3, #1
   138bc:	e50b3010 	str	r3, [fp, #-16]
   138c0:	e51b0024 	ldr	r0, [fp, #-36]	; 0xffffffdc
   138c4:	ebfff6ea 	bl	11474 <bcm2835_peri_read_nb>
   138c8:	e1a03000 	mov	r3, r0
   138cc:	e2033020 	and	r3, r3, #32
   138d0:	e3530000 	cmp	r3, #0
   138d4:	1affffeb 	bne	13888 <bcm2835_i2c_read+0xa0>
   138d8:	e51b0024 	ldr	r0, [fp, #-36]	; 0xffffffdc
   138dc:	ebfff6e4 	bl	11474 <bcm2835_peri_read_nb>
   138e0:	e1a03000 	mov	r3, r0
   138e4:	e2033002 	and	r3, r3, #2
   138e8:	e3530000 	cmp	r3, #0
   138ec:	0afffff3 	beq	138c0 <bcm2835_i2c_read+0xd8>
   138f0:	ea00000d 	b	1392c <bcm2835_i2c_read+0x144>
   138f4:	e51b2030 	ldr	r2, [fp, #-48]	; 0xffffffd0
   138f8:	e51b3014 	ldr	r3, [fp, #-20]	; 0xffffffec
   138fc:	e0824003 	add	r4, r2, r3
   13900:	e51b0020 	ldr	r0, [fp, #-32]	; 0xffffffe0
   13904:	ebfff6da 	bl	11474 <bcm2835_peri_read_nb>
   13908:	e1a03000 	mov	r3, r0
   1390c:	e6ef3073 	uxtb	r3, r3
   13910:	e5c43000 	strb	r3, [r4]
   13914:	e51b3014 	ldr	r3, [fp, #-20]	; 0xffffffec
   13918:	e2833001 	add	r3, r3, #1
   1391c:	e50b3014 	str	r3, [fp, #-20]	; 0xffffffec
   13920:	e51b3010 	ldr	r3, [fp, #-16]
   13924:	e2433001 	sub	r3, r3, #1
   13928:	e50b3010 	str	r3, [fp, #-16]
   1392c:	e51b3010 	ldr	r3, [fp, #-16]
   13930:	e3530000 	cmp	r3, #0
   13934:	0a000005 	beq	13950 <bcm2835_i2c_read+0x168>
   13938:	e51b0024 	ldr	r0, [fp, #-36]	; 0xffffffdc
   1393c:	ebfff6cc 	bl	11474 <bcm2835_peri_read_nb>
   13940:	e1a03000 	mov	r3, r0
   13944:	e2033020 	and	r3, r3, #32
   13948:	e3530000 	cmp	r3, #0
   1394c:	1affffe8 	bne	138f4 <bcm2835_i2c_read+0x10c>
   13950:	e51b0024 	ldr	r0, [fp, #-36]	; 0xffffffdc
   13954:	ebfff6ae 	bl	11414 <bcm2835_peri_read>
   13958:	e1a03000 	mov	r3, r0
   1395c:	e2033c01 	and	r3, r3, #256	; 0x100
   13960:	e3530000 	cmp	r3, #0
   13964:	0a000002 	beq	13974 <bcm2835_i2c_read+0x18c>
   13968:	e3a03001 	mov	r3, #1
   1396c:	e54b3015 	strb	r3, [fp, #-21]	; 0xffffffeb
   13970:	ea00000d 	b	139ac <bcm2835_i2c_read+0x1c4>
   13974:	e51b0024 	ldr	r0, [fp, #-36]	; 0xffffffdc
   13978:	ebfff6a5 	bl	11414 <bcm2835_peri_read>
   1397c:	e1a03000 	mov	r3, r0
   13980:	e2033c02 	and	r3, r3, #512	; 0x200
   13984:	e3530000 	cmp	r3, #0
   13988:	0a000002 	beq	13998 <bcm2835_i2c_read+0x1b0>
   1398c:	e3a03002 	mov	r3, #2
   13990:	e54b3015 	strb	r3, [fp, #-21]	; 0xffffffeb
   13994:	ea000004 	b	139ac <bcm2835_i2c_read+0x1c4>
   13998:	e51b3010 	ldr	r3, [fp, #-16]
   1399c:	e3530000 	cmp	r3, #0
   139a0:	0a000001 	beq	139ac <bcm2835_i2c_read+0x1c4>
   139a4:	e3a03004 	mov	r3, #4
   139a8:	e54b3015 	strb	r3, [fp, #-21]	; 0xffffffeb
   139ac:	e3a02002 	mov	r2, #2
   139b0:	e3a01002 	mov	r1, #2
   139b4:	e51b0028 	ldr	r0, [fp, #-40]	; 0xffffffd8
   139b8:	ebfff6ef 	bl	1157c <bcm2835_peri_set_bits>
   139bc:	e55b3015 	ldrb	r3, [fp, #-21]	; 0xffffffeb
   139c0:	e1a00003 	mov	r0, r3
   139c4:	e24bd008 	sub	sp, fp, #8
   139c8:	e8bd8810 	pop	{r4, fp, pc}
   139cc:	00026098 	muleq	r2, r8, r0
   139d0:	00000302 	andeq	r0, r0, r2, lsl #6
   139d4:	00008081 	andeq	r8, r0, r1, lsl #1

000139d8 <bcm2835_i2c_read_register_rs>:
   139d8:	e92d4810 	push	{r4, fp, lr}
   139dc:	e28db008 	add	fp, sp, #8
   139e0:	e24dd034 	sub	sp, sp, #52	; 0x34
   139e4:	e50b0030 	str	r0, [fp, #-48]	; 0xffffffd0
   139e8:	e50b1034 	str	r1, [fp, #-52]	; 0xffffffcc
   139ec:	e50b2038 	str	r2, [fp, #-56]	; 0xffffffc8
   139f0:	e59f3270 	ldr	r3, [pc, #624]	; 13c68 <bcm2835_i2c_read_register_rs+0x290>
   139f4:	e5933000 	ldr	r3, [r3]
   139f8:	e2833008 	add	r3, r3, #8
   139fc:	e50b301c 	str	r3, [fp, #-28]	; 0xffffffe4
   13a00:	e59f3260 	ldr	r3, [pc, #608]	; 13c68 <bcm2835_i2c_read_register_rs+0x290>
   13a04:	e5933000 	ldr	r3, [r3]
   13a08:	e2833010 	add	r3, r3, #16
   13a0c:	e50b3020 	str	r3, [fp, #-32]	; 0xffffffe0
   13a10:	e59f3250 	ldr	r3, [pc, #592]	; 13c68 <bcm2835_i2c_read_register_rs+0x290>
   13a14:	e5933000 	ldr	r3, [r3]
   13a18:	e2833004 	add	r3, r3, #4
   13a1c:	e50b3024 	str	r3, [fp, #-36]	; 0xffffffdc
   13a20:	e59f3240 	ldr	r3, [pc, #576]	; 13c68 <bcm2835_i2c_read_register_rs+0x290>
   13a24:	e5933000 	ldr	r3, [r3]
   13a28:	e50b3028 	str	r3, [fp, #-40]	; 0xffffffd8
   13a2c:	e51b3038 	ldr	r3, [fp, #-56]	; 0xffffffc8
   13a30:	e50b3010 	str	r3, [fp, #-16]
   13a34:	e3a03000 	mov	r3, #0
   13a38:	e50b3014 	str	r3, [fp, #-20]	; 0xffffffec
   13a3c:	e3a03000 	mov	r3, #0
   13a40:	e54b3015 	strb	r3, [fp, #-21]	; 0xffffffeb
   13a44:	e3a02020 	mov	r2, #32
   13a48:	e3a01020 	mov	r1, #32
   13a4c:	e51b0028 	ldr	r0, [fp, #-40]	; 0xffffffd8
   13a50:	ebfff6c9 	bl	1157c <bcm2835_peri_set_bits>
   13a54:	e59f1210 	ldr	r1, [pc, #528]	; 13c6c <bcm2835_i2c_read_register_rs+0x294>
   13a58:	e51b0024 	ldr	r0, [fp, #-36]	; 0xffffffdc
   13a5c:	ebfff698 	bl	114c4 <bcm2835_peri_write>
   13a60:	e3a01001 	mov	r1, #1
   13a64:	e51b001c 	ldr	r0, [fp, #-28]	; 0xffffffe4
   13a68:	ebfff695 	bl	114c4 <bcm2835_peri_write>
   13a6c:	e3a01902 	mov	r1, #32768	; 0x8000
   13a70:	e51b0028 	ldr	r0, [fp, #-40]	; 0xffffffd8
   13a74:	ebfff692 	bl	114c4 <bcm2835_peri_write>
   13a78:	e51b3030 	ldr	r3, [fp, #-48]	; 0xffffffd0
   13a7c:	e5d33000 	ldrb	r3, [r3]
   13a80:	e1a01003 	mov	r1, r3
   13a84:	e51b0020 	ldr	r0, [fp, #-32]	; 0xffffffe0
   13a88:	ebfff68d 	bl	114c4 <bcm2835_peri_write>
   13a8c:	e59f11dc 	ldr	r1, [pc, #476]	; 13c70 <bcm2835_i2c_read_register_rs+0x298>
   13a90:	e51b0028 	ldr	r0, [fp, #-40]	; 0xffffffd8
   13a94:	ebfff68a 	bl	114c4 <bcm2835_peri_write>
   13a98:	ea000005 	b	13ab4 <bcm2835_i2c_read_register_rs+0xdc>
   13a9c:	e51b0024 	ldr	r0, [fp, #-36]	; 0xffffffdc
   13aa0:	ebfff65b 	bl	11414 <bcm2835_peri_read>
   13aa4:	e1a03000 	mov	r3, r0
   13aa8:	e2033002 	and	r3, r3, #2
   13aac:	e3530000 	cmp	r3, #0
   13ab0:	1a000006 	bne	13ad0 <bcm2835_i2c_read_register_rs+0xf8>
   13ab4:	e51b0024 	ldr	r0, [fp, #-36]	; 0xffffffdc
   13ab8:	ebfff655 	bl	11414 <bcm2835_peri_read>
   13abc:	e1a03000 	mov	r3, r0
   13ac0:	e2033001 	and	r3, r3, #1
   13ac4:	e3530000 	cmp	r3, #0
   13ac8:	0afffff3 	beq	13a9c <bcm2835_i2c_read_register_rs+0xc4>
   13acc:	ea000000 	b	13ad4 <bcm2835_i2c_read_register_rs+0xfc>
   13ad0:	e1a00000 	nop			; (mov r0, r0)
   13ad4:	e51b1038 	ldr	r1, [fp, #-56]	; 0xffffffc8
   13ad8:	e51b001c 	ldr	r0, [fp, #-28]	; 0xffffffe4
   13adc:	ebfff678 	bl	114c4 <bcm2835_peri_write>
   13ae0:	e59f118c 	ldr	r1, [pc, #396]	; 13c74 <bcm2835_i2c_read_register_rs+0x29c>
   13ae4:	e51b0028 	ldr	r0, [fp, #-40]	; 0xffffffd8
   13ae8:	ebfff675 	bl	114c4 <bcm2835_peri_write>
   13aec:	e59f3184 	ldr	r3, [pc, #388]	; 13c78 <bcm2835_i2c_read_register_rs+0x2a0>
   13af0:	e5932000 	ldr	r2, [r3]
   13af4:	e1a03002 	mov	r3, r2
   13af8:	e1a03083 	lsl	r3, r3, #1
   13afc:	e0833002 	add	r3, r3, r2
   13b00:	e1a02003 	mov	r2, r3
   13b04:	e1a03fc2 	asr	r3, r2, #31
   13b08:	e1a00002 	mov	r0, r2
   13b0c:	e1a01003 	mov	r1, r3
   13b10:	ebfff998 	bl	12178 <bcm2835_delayMicroseconds>
   13b14:	ea000016 	b	13b74 <bcm2835_i2c_read_register_rs+0x19c>
   13b18:	e51b2034 	ldr	r2, [fp, #-52]	; 0xffffffcc
   13b1c:	e51b3014 	ldr	r3, [fp, #-20]	; 0xffffffec
   13b20:	e0824003 	add	r4, r2, r3
   13b24:	e51b0020 	ldr	r0, [fp, #-32]	; 0xffffffe0
   13b28:	ebfff639 	bl	11414 <bcm2835_peri_read>
   13b2c:	e1a03000 	mov	r3, r0
   13b30:	e6ef3073 	uxtb	r3, r3
   13b34:	e5c43000 	strb	r3, [r4]
   13b38:	e51b3014 	ldr	r3, [fp, #-20]	; 0xffffffec
   13b3c:	e2833001 	add	r3, r3, #1
   13b40:	e50b3014 	str	r3, [fp, #-20]	; 0xffffffec
   13b44:	e51b3010 	ldr	r3, [fp, #-16]
   13b48:	e2433001 	sub	r3, r3, #1
   13b4c:	e50b3010 	str	r3, [fp, #-16]
   13b50:	e51b3010 	ldr	r3, [fp, #-16]
   13b54:	e3530000 	cmp	r3, #0
   13b58:	0a000005 	beq	13b74 <bcm2835_i2c_read_register_rs+0x19c>
   13b5c:	e51b0024 	ldr	r0, [fp, #-36]	; 0xffffffdc
   13b60:	ebfff62b 	bl	11414 <bcm2835_peri_read>
   13b64:	e1a03000 	mov	r3, r0
   13b68:	e2033020 	and	r3, r3, #32
   13b6c:	e3530000 	cmp	r3, #0
   13b70:	1affffe8 	bne	13b18 <bcm2835_i2c_read_register_rs+0x140>
   13b74:	e51b0024 	ldr	r0, [fp, #-36]	; 0xffffffdc
   13b78:	ebfff625 	bl	11414 <bcm2835_peri_read>
   13b7c:	e1a03000 	mov	r3, r0
   13b80:	e2033002 	and	r3, r3, #2
   13b84:	e3530000 	cmp	r3, #0
   13b88:	0afffff0 	beq	13b50 <bcm2835_i2c_read_register_rs+0x178>
   13b8c:	ea00000d 	b	13bc8 <bcm2835_i2c_read_register_rs+0x1f0>
   13b90:	e51b2034 	ldr	r2, [fp, #-52]	; 0xffffffcc
   13b94:	e51b3014 	ldr	r3, [fp, #-20]	; 0xffffffec
   13b98:	e0824003 	add	r4, r2, r3
   13b9c:	e51b0020 	ldr	r0, [fp, #-32]	; 0xffffffe0
   13ba0:	ebfff61b 	bl	11414 <bcm2835_peri_read>
   13ba4:	e1a03000 	mov	r3, r0
   13ba8:	e6ef3073 	uxtb	r3, r3
   13bac:	e5c43000 	strb	r3, [r4]
   13bb0:	e51b3014 	ldr	r3, [fp, #-20]	; 0xffffffec
   13bb4:	e2833001 	add	r3, r3, #1
   13bb8:	e50b3014 	str	r3, [fp, #-20]	; 0xffffffec
   13bbc:	e51b3010 	ldr	r3, [fp, #-16]
   13bc0:	e2433001 	sub	r3, r3, #1
   13bc4:	e50b3010 	str	r3, [fp, #-16]
   13bc8:	e51b3010 	ldr	r3, [fp, #-16]
   13bcc:	e3530000 	cmp	r3, #0
   13bd0:	0a000005 	beq	13bec <bcm2835_i2c_read_register_rs+0x214>
   13bd4:	e51b0024 	ldr	r0, [fp, #-36]	; 0xffffffdc
   13bd8:	ebfff60d 	bl	11414 <bcm2835_peri_read>
   13bdc:	e1a03000 	mov	r3, r0
   13be0:	e2033020 	and	r3, r3, #32
   13be4:	e3530000 	cmp	r3, #0
   13be8:	1affffe8 	bne	13b90 <bcm2835_i2c_read_register_rs+0x1b8>
   13bec:	e51b0024 	ldr	r0, [fp, #-36]	; 0xffffffdc
   13bf0:	ebfff607 	bl	11414 <bcm2835_peri_read>
   13bf4:	e1a03000 	mov	r3, r0
   13bf8:	e2033c01 	and	r3, r3, #256	; 0x100
   13bfc:	e3530000 	cmp	r3, #0
   13c00:	0a000002 	beq	13c10 <bcm2835_i2c_read_register_rs+0x238>
   13c04:	e3a03001 	mov	r3, #1
   13c08:	e54b3015 	strb	r3, [fp, #-21]	; 0xffffffeb
   13c0c:	ea00000d 	b	13c48 <bcm2835_i2c_read_register_rs+0x270>
   13c10:	e51b0024 	ldr	r0, [fp, #-36]	; 0xffffffdc
   13c14:	ebfff5fe 	bl	11414 <bcm2835_peri_read>
   13c18:	e1a03000 	mov	r3, r0
   13c1c:	e2033c02 	and	r3, r3, #512	; 0x200
   13c20:	e3530000 	cmp	r3, #0
   13c24:	0a000002 	beq	13c34 <bcm2835_i2c_read_register_rs+0x25c>
   13c28:	e3a03002 	mov	r3, #2
   13c2c:	e54b3015 	strb	r3, [fp, #-21]	; 0xffffffeb
   13c30:	ea000004 	b	13c48 <bcm2835_i2c_read_register_rs+0x270>
   13c34:	e51b3010 	ldr	r3, [fp, #-16]
   13c38:	e3530000 	cmp	r3, #0
   13c3c:	0a000001 	beq	13c48 <bcm2835_i2c_read_register_rs+0x270>
   13c40:	e3a03004 	mov	r3, #4
   13c44:	e54b3015 	strb	r3, [fp, #-21]	; 0xffffffeb
   13c48:	e3a02002 	mov	r2, #2
   13c4c:	e3a01002 	mov	r1, #2
   13c50:	e51b0028 	ldr	r0, [fp, #-40]	; 0xffffffd8
   13c54:	ebfff648 	bl	1157c <bcm2835_peri_set_bits>
   13c58:	e55b3015 	ldrb	r3, [fp, #-21]	; 0xffffffeb
   13c5c:	e1a00003 	mov	r0, r3
   13c60:	e24bd008 	sub	sp, fp, #8
   13c64:	e8bd8810 	pop	{r4, fp, pc}
   13c68:	00026098 	muleq	r2, r8, r0
   13c6c:	00000302 	andeq	r0, r0, r2, lsl #6
   13c70:	00008080 	andeq	r8, r0, r0, lsl #1
   13c74:	00008081 	andeq	r8, r0, r1, lsl #1
   13c78:	000261bc 			; <UNDEFINED> instruction: 0x000261bc

00013c7c <bcm2835_i2c_write_read_rs>:
   13c7c:	e92d4810 	push	{r4, fp, lr}
   13c80:	e28db008 	add	fp, sp, #8
   13c84:	e24dd034 	sub	sp, sp, #52	; 0x34
   13c88:	e50b0030 	str	r0, [fp, #-48]	; 0xffffffd0
   13c8c:	e50b1034 	str	r1, [fp, #-52]	; 0xffffffcc
   13c90:	e50b2038 	str	r2, [fp, #-56]	; 0xffffffc8
   13c94:	e50b303c 	str	r3, [fp, #-60]	; 0xffffffc4
   13c98:	e59f32b0 	ldr	r3, [pc, #688]	; 13f50 <bcm2835_i2c_write_read_rs+0x2d4>
   13c9c:	e5933000 	ldr	r3, [r3]
   13ca0:	e2833008 	add	r3, r3, #8
   13ca4:	e50b301c 	str	r3, [fp, #-28]	; 0xffffffe4
   13ca8:	e59f32a0 	ldr	r3, [pc, #672]	; 13f50 <bcm2835_i2c_write_read_rs+0x2d4>
   13cac:	e5933000 	ldr	r3, [r3]
   13cb0:	e2833010 	add	r3, r3, #16
   13cb4:	e50b3020 	str	r3, [fp, #-32]	; 0xffffffe0
   13cb8:	e59f3290 	ldr	r3, [pc, #656]	; 13f50 <bcm2835_i2c_write_read_rs+0x2d4>
   13cbc:	e5933000 	ldr	r3, [r3]
   13cc0:	e2833004 	add	r3, r3, #4
   13cc4:	e50b3024 	str	r3, [fp, #-36]	; 0xffffffdc
   13cc8:	e59f3280 	ldr	r3, [pc, #640]	; 13f50 <bcm2835_i2c_write_read_rs+0x2d4>
   13ccc:	e5933000 	ldr	r3, [r3]
   13cd0:	e50b3028 	str	r3, [fp, #-40]	; 0xffffffd8
   13cd4:	e51b3034 	ldr	r3, [fp, #-52]	; 0xffffffcc
   13cd8:	e50b3010 	str	r3, [fp, #-16]
   13cdc:	e3a03000 	mov	r3, #0
   13ce0:	e50b3014 	str	r3, [fp, #-20]	; 0xffffffec
   13ce4:	e3a03000 	mov	r3, #0
   13ce8:	e54b3015 	strb	r3, [fp, #-21]	; 0xffffffeb
   13cec:	e3a02020 	mov	r2, #32
   13cf0:	e3a01020 	mov	r1, #32
   13cf4:	e51b0028 	ldr	r0, [fp, #-40]	; 0xffffffd8
   13cf8:	ebfff61f 	bl	1157c <bcm2835_peri_set_bits>
   13cfc:	e59f1250 	ldr	r1, [pc, #592]	; 13f54 <bcm2835_i2c_write_read_rs+0x2d8>
   13d00:	e51b0024 	ldr	r0, [fp, #-36]	; 0xffffffdc
   13d04:	ebfff5ee 	bl	114c4 <bcm2835_peri_write>
   13d08:	e51b1034 	ldr	r1, [fp, #-52]	; 0xffffffcc
   13d0c:	e51b001c 	ldr	r0, [fp, #-28]	; 0xffffffe4
   13d10:	ebfff5eb 	bl	114c4 <bcm2835_peri_write>
   13d14:	ea00000c 	b	13d4c <bcm2835_i2c_write_read_rs+0xd0>
   13d18:	e51b2030 	ldr	r2, [fp, #-48]	; 0xffffffd0
   13d1c:	e51b3014 	ldr	r3, [fp, #-20]	; 0xffffffec
   13d20:	e0823003 	add	r3, r2, r3
   13d24:	e5d33000 	ldrb	r3, [r3]
   13d28:	e1a01003 	mov	r1, r3
   13d2c:	e51b0020 	ldr	r0, [fp, #-32]	; 0xffffffe0
   13d30:	ebfff5fb 	bl	11524 <bcm2835_peri_write_nb>
   13d34:	e51b3014 	ldr	r3, [fp, #-20]	; 0xffffffec
   13d38:	e2833001 	add	r3, r3, #1
   13d3c:	e50b3014 	str	r3, [fp, #-20]	; 0xffffffec
   13d40:	e51b3010 	ldr	r3, [fp, #-16]
   13d44:	e2433001 	sub	r3, r3, #1
   13d48:	e50b3010 	str	r3, [fp, #-16]
   13d4c:	e51b3010 	ldr	r3, [fp, #-16]
   13d50:	e3530000 	cmp	r3, #0
   13d54:	0a000002 	beq	13d64 <bcm2835_i2c_write_read_rs+0xe8>
   13d58:	e51b3014 	ldr	r3, [fp, #-20]	; 0xffffffec
   13d5c:	e353000f 	cmp	r3, #15
   13d60:	9affffec 	bls	13d18 <bcm2835_i2c_write_read_rs+0x9c>
   13d64:	e59f11ec 	ldr	r1, [pc, #492]	; 13f58 <bcm2835_i2c_write_read_rs+0x2dc>
   13d68:	e51b0028 	ldr	r0, [fp, #-40]	; 0xffffffd8
   13d6c:	ebfff5d4 	bl	114c4 <bcm2835_peri_write>
   13d70:	ea000005 	b	13d8c <bcm2835_i2c_write_read_rs+0x110>
   13d74:	e51b0024 	ldr	r0, [fp, #-36]	; 0xffffffdc
   13d78:	ebfff5bd 	bl	11474 <bcm2835_peri_read_nb>
   13d7c:	e1a03000 	mov	r3, r0
   13d80:	e2033002 	and	r3, r3, #2
   13d84:	e3530000 	cmp	r3, #0
   13d88:	1a000006 	bne	13da8 <bcm2835_i2c_write_read_rs+0x12c>
   13d8c:	e51b0024 	ldr	r0, [fp, #-36]	; 0xffffffdc
   13d90:	ebfff59f 	bl	11414 <bcm2835_peri_read>
   13d94:	e1a03000 	mov	r3, r0
   13d98:	e2033001 	and	r3, r3, #1
   13d9c:	e3530000 	cmp	r3, #0
   13da0:	0afffff3 	beq	13d74 <bcm2835_i2c_write_read_rs+0xf8>
   13da4:	ea000000 	b	13dac <bcm2835_i2c_write_read_rs+0x130>
   13da8:	e1a00000 	nop			; (mov r0, r0)
   13dac:	e51b303c 	ldr	r3, [fp, #-60]	; 0xffffffc4
   13db0:	e50b3010 	str	r3, [fp, #-16]
   13db4:	e3a03000 	mov	r3, #0
   13db8:	e50b3014 	str	r3, [fp, #-20]	; 0xffffffec
   13dbc:	e51b103c 	ldr	r1, [fp, #-60]	; 0xffffffc4
   13dc0:	e51b001c 	ldr	r0, [fp, #-28]	; 0xffffffe4
   13dc4:	ebfff5be 	bl	114c4 <bcm2835_peri_write>
   13dc8:	e59f118c 	ldr	r1, [pc, #396]	; 13f5c <bcm2835_i2c_write_read_rs+0x2e0>
   13dcc:	e51b0028 	ldr	r0, [fp, #-40]	; 0xffffffd8
   13dd0:	ebfff5bb 	bl	114c4 <bcm2835_peri_write>
   13dd4:	e51b3034 	ldr	r3, [fp, #-52]	; 0xffffffcc
   13dd8:	e2833001 	add	r3, r3, #1
   13ddc:	e59f217c 	ldr	r2, [pc, #380]	; 13f60 <bcm2835_i2c_write_read_rs+0x2e4>
   13de0:	e5922000 	ldr	r2, [r2]
   13de4:	e0030392 	mul	r3, r2, r3
   13de8:	e1a02003 	mov	r2, r3
   13dec:	e3a03000 	mov	r3, #0
   13df0:	e1a00002 	mov	r0, r2
   13df4:	e1a01003 	mov	r1, r3
   13df8:	ebfff8de 	bl	12178 <bcm2835_delayMicroseconds>
   13dfc:	ea000016 	b	13e5c <bcm2835_i2c_write_read_rs+0x1e0>
   13e00:	e51b2038 	ldr	r2, [fp, #-56]	; 0xffffffc8
   13e04:	e51b3014 	ldr	r3, [fp, #-20]	; 0xffffffec
   13e08:	e0824003 	add	r4, r2, r3
   13e0c:	e51b0020 	ldr	r0, [fp, #-32]	; 0xffffffe0
   13e10:	ebfff597 	bl	11474 <bcm2835_peri_read_nb>
   13e14:	e1a03000 	mov	r3, r0
   13e18:	e6ef3073 	uxtb	r3, r3
   13e1c:	e5c43000 	strb	r3, [r4]
   13e20:	e51b3014 	ldr	r3, [fp, #-20]	; 0xffffffec
   13e24:	e2833001 	add	r3, r3, #1
   13e28:	e50b3014 	str	r3, [fp, #-20]	; 0xffffffec
   13e2c:	e51b3010 	ldr	r3, [fp, #-16]
   13e30:	e2433001 	sub	r3, r3, #1
   13e34:	e50b3010 	str	r3, [fp, #-16]
   13e38:	e51b3010 	ldr	r3, [fp, #-16]
   13e3c:	e3530000 	cmp	r3, #0
   13e40:	0a000005 	beq	13e5c <bcm2835_i2c_write_read_rs+0x1e0>
   13e44:	e51b0024 	ldr	r0, [fp, #-36]	; 0xffffffdc
   13e48:	ebfff571 	bl	11414 <bcm2835_peri_read>
   13e4c:	e1a03000 	mov	r3, r0
   13e50:	e2033020 	and	r3, r3, #32
   13e54:	e3530000 	cmp	r3, #0
   13e58:	1affffe8 	bne	13e00 <bcm2835_i2c_write_read_rs+0x184>
   13e5c:	e51b0024 	ldr	r0, [fp, #-36]	; 0xffffffdc
   13e60:	ebfff583 	bl	11474 <bcm2835_peri_read_nb>
   13e64:	e1a03000 	mov	r3, r0
   13e68:	e2033002 	and	r3, r3, #2
   13e6c:	e3530000 	cmp	r3, #0
   13e70:	0afffff0 	beq	13e38 <bcm2835_i2c_write_read_rs+0x1bc>
   13e74:	ea00000d 	b	13eb0 <bcm2835_i2c_write_read_rs+0x234>
   13e78:	e51b2038 	ldr	r2, [fp, #-56]	; 0xffffffc8
   13e7c:	e51b3014 	ldr	r3, [fp, #-20]	; 0xffffffec
   13e80:	e0824003 	add	r4, r2, r3
   13e84:	e51b0020 	ldr	r0, [fp, #-32]	; 0xffffffe0
   13e88:	ebfff561 	bl	11414 <bcm2835_peri_read>
   13e8c:	e1a03000 	mov	r3, r0
   13e90:	e6ef3073 	uxtb	r3, r3
   13e94:	e5c43000 	strb	r3, [r4]
   13e98:	e51b3014 	ldr	r3, [fp, #-20]	; 0xffffffec
   13e9c:	e2833001 	add	r3, r3, #1
   13ea0:	e50b3014 	str	r3, [fp, #-20]	; 0xffffffec
   13ea4:	e51b3010 	ldr	r3, [fp, #-16]
   13ea8:	e2433001 	sub	r3, r3, #1
   13eac:	e50b3010 	str	r3, [fp, #-16]
   13eb0:	e51b3010 	ldr	r3, [fp, #-16]
   13eb4:	e3530000 	cmp	r3, #0
   13eb8:	0a000005 	beq	13ed4 <bcm2835_i2c_write_read_rs+0x258>
   13ebc:	e51b0024 	ldr	r0, [fp, #-36]	; 0xffffffdc
   13ec0:	ebfff553 	bl	11414 <bcm2835_peri_read>
   13ec4:	e1a03000 	mov	r3, r0
   13ec8:	e2033020 	and	r3, r3, #32
   13ecc:	e3530000 	cmp	r3, #0
   13ed0:	1affffe8 	bne	13e78 <bcm2835_i2c_write_read_rs+0x1fc>
   13ed4:	e51b0024 	ldr	r0, [fp, #-36]	; 0xffffffdc
   13ed8:	ebfff54d 	bl	11414 <bcm2835_peri_read>
   13edc:	e1a03000 	mov	r3, r0
   13ee0:	e2033c01 	and	r3, r3, #256	; 0x100
   13ee4:	e3530000 	cmp	r3, #0
   13ee8:	0a000002 	beq	13ef8 <bcm2835_i2c_write_read_rs+0x27c>
   13eec:	e3a03001 	mov	r3, #1
   13ef0:	e54b3015 	strb	r3, [fp, #-21]	; 0xffffffeb
   13ef4:	ea00000d 	b	13f30 <bcm2835_i2c_write_read_rs+0x2b4>
   13ef8:	e51b0024 	ldr	r0, [fp, #-36]	; 0xffffffdc
   13efc:	ebfff544 	bl	11414 <bcm2835_peri_read>
   13f00:	e1a03000 	mov	r3, r0
   13f04:	e2033c02 	and	r3, r3, #512	; 0x200
   13f08:	e3530000 	cmp	r3, #0
   13f0c:	0a000002 	beq	13f1c <bcm2835_i2c_write_read_rs+0x2a0>
   13f10:	e3a03002 	mov	r3, #2
   13f14:	e54b3015 	strb	r3, [fp, #-21]	; 0xffffffeb
   13f18:	ea000004 	b	13f30 <bcm2835_i2c_write_read_rs+0x2b4>
   13f1c:	e51b3010 	ldr	r3, [fp, #-16]
   13f20:	e3530000 	cmp	r3, #0
   13f24:	0a000001 	beq	13f30 <bcm2835_i2c_write_read_rs+0x2b4>
   13f28:	e3a03004 	mov	r3, #4
   13f2c:	e54b3015 	strb	r3, [fp, #-21]	; 0xffffffeb
   13f30:	e3a02002 	mov	r2, #2
   13f34:	e3a01002 	mov	r1, #2
   13f38:	e51b0028 	ldr	r0, [fp, #-40]	; 0xffffffd8
   13f3c:	ebfff58e 	bl	1157c <bcm2835_peri_set_bits>
   13f40:	e55b3015 	ldrb	r3, [fp, #-21]	; 0xffffffeb
   13f44:	e1a00003 	mov	r0, r3
   13f48:	e24bd008 	sub	sp, fp, #8
   13f4c:	e8bd8810 	pop	{r4, fp, pc}
   13f50:	00026098 	muleq	r2, r8, r0
   13f54:	00000302 	andeq	r0, r0, r2, lsl #6
   13f58:	00008080 	andeq	r8, r0, r0, lsl #1
   13f5c:	00008081 	andeq	r8, r0, r1, lsl #1
   13f60:	000261bc 			; <UNDEFINED> instruction: 0x000261bc

00013f64 <bcm2835_st_read>:
   13f64:	e92d48f0 	push	{r4, r5, r6, r7, fp, lr}
   13f68:	e28db014 	add	fp, sp, #20
   13f6c:	e24dd018 	sub	sp, sp, #24
   13f70:	e59f3118 	ldr	r3, [pc, #280]	; 14090 <bcm2835_st_read+0x12c>
   13f74:	e5933000 	ldr	r3, [r3]
   13f78:	e3730001 	cmn	r3, #1
   13f7c:	1a000002 	bne	13f8c <bcm2835_st_read+0x28>
   13f80:	e3a02000 	mov	r2, #0
   13f84:	e3a03000 	mov	r3, #0
   13f88:	ea00003c 	b	14080 <bcm2835_st_read+0x11c>
   13f8c:	e59f30fc 	ldr	r3, [pc, #252]	; 14090 <bcm2835_st_read+0x12c>
   13f90:	e5933000 	ldr	r3, [r3]
   13f94:	e2833008 	add	r3, r3, #8
   13f98:	e50b3020 	str	r3, [fp, #-32]	; 0xffffffe0
   13f9c:	e51b0020 	ldr	r0, [fp, #-32]	; 0xffffffe0
   13fa0:	ebfff51b 	bl	11414 <bcm2835_peri_read>
   13fa4:	e50b0024 	str	r0, [fp, #-36]	; 0xffffffdc
   13fa8:	e59f30e0 	ldr	r3, [pc, #224]	; 14090 <bcm2835_st_read+0x12c>
   13fac:	e5933000 	ldr	r3, [r3]
   13fb0:	e2833004 	add	r3, r3, #4
   13fb4:	e50b3020 	str	r3, [fp, #-32]	; 0xffffffe0
   13fb8:	e51b0020 	ldr	r0, [fp, #-32]	; 0xffffffe0
   13fbc:	ebfff514 	bl	11414 <bcm2835_peri_read>
   13fc0:	e50b0028 	str	r0, [fp, #-40]	; 0xffffffd8
   13fc4:	e59f30c4 	ldr	r3, [pc, #196]	; 14090 <bcm2835_st_read+0x12c>
   13fc8:	e5933000 	ldr	r3, [r3]
   13fcc:	e2833008 	add	r3, r3, #8
   13fd0:	e50b3020 	str	r3, [fp, #-32]	; 0xffffffe0
   13fd4:	e51b0020 	ldr	r0, [fp, #-32]	; 0xffffffe0
   13fd8:	ebfff50d 	bl	11414 <bcm2835_peri_read>
   13fdc:	e1a03000 	mov	r3, r0
   13fe0:	e1a02003 	mov	r2, r3
   13fe4:	e3a03000 	mov	r3, #0
   13fe8:	e14b21fc 	strd	r2, [fp, #-28]	; 0xffffffe4
   13fec:	e51b3024 	ldr	r3, [fp, #-36]	; 0xffffffdc
   13ff0:	e1a00003 	mov	r0, r3
   13ff4:	e3a01000 	mov	r1, #0
   13ff8:	e14b21dc 	ldrd	r2, [fp, #-28]	; 0xffffffe4
   13ffc:	e1510003 	cmp	r1, r3
   14000:	01500002 	cmpeq	r0, r2
   14004:	1a00000b 	bne	14038 <bcm2835_st_read+0xd4>
   14008:	e14b21dc 	ldrd	r2, [fp, #-28]	; 0xffffffe4
   1400c:	e1a07002 	mov	r7, r2
   14010:	e3a06000 	mov	r6, #0
   14014:	e14b61fc 	strd	r6, [fp, #-28]	; 0xffffffe4
   14018:	e51b3028 	ldr	r3, [fp, #-40]	; 0xffffffd8
   1401c:	e1a02003 	mov	r2, r3
   14020:	e3a03000 	mov	r3, #0
   14024:	e14b01dc 	ldrd	r0, [fp, #-28]	; 0xffffffe4
   14028:	e0922000 	adds	r2, r2, r0
   1402c:	e0a33001 	adc	r3, r3, r1
   14030:	e14b21fc 	strd	r2, [fp, #-28]	; 0xffffffe4
   14034:	ea000010 	b	1407c <bcm2835_st_read+0x118>
   14038:	e14b21dc 	ldrd	r2, [fp, #-28]	; 0xffffffe4
   1403c:	e1a05002 	mov	r5, r2
   14040:	e3a04000 	mov	r4, #0
   14044:	e14b41fc 	strd	r4, [fp, #-28]	; 0xffffffe4
   14048:	e59f3040 	ldr	r3, [pc, #64]	; 14090 <bcm2835_st_read+0x12c>
   1404c:	e5933000 	ldr	r3, [r3]
   14050:	e2833004 	add	r3, r3, #4
   14054:	e50b3020 	str	r3, [fp, #-32]	; 0xffffffe0
   14058:	e51b0020 	ldr	r0, [fp, #-32]	; 0xffffffe0
   1405c:	ebfff4ec 	bl	11414 <bcm2835_peri_read>
   14060:	e1a03000 	mov	r3, r0
   14064:	e1a02003 	mov	r2, r3
   14068:	e3a03000 	mov	r3, #0
   1406c:	e14b01dc 	ldrd	r0, [fp, #-28]	; 0xffffffe4
   14070:	e0922000 	adds	r2, r2, r0
   14074:	e0a33001 	adc	r3, r3, r1
   14078:	e14b21fc 	strd	r2, [fp, #-28]	; 0xffffffe4
   1407c:	e14b21dc 	ldrd	r2, [fp, #-28]	; 0xffffffe4
   14080:	e1a00002 	mov	r0, r2
   14084:	e1a01003 	mov	r1, r3
   14088:	e24bd014 	sub	sp, fp, #20
   1408c:	e8bd88f0 	pop	{r4, r5, r6, r7, fp, pc}
   14090:	0002609c 	muleq	r2, ip, r0

00014094 <bcm2835_st_delay>:
   14094:	e92d4800 	push	{fp, lr}
   14098:	e28db004 	add	fp, sp, #4
   1409c:	e24dd018 	sub	sp, sp, #24
   140a0:	e14b01f4 	strd	r0, [fp, #-20]	; 0xffffffec
   140a4:	e14b21fc 	strd	r2, [fp, #-28]	; 0xffffffe4
   140a8:	e14b01d4 	ldrd	r0, [fp, #-20]	; 0xffffffec
   140ac:	e14b21dc 	ldrd	r2, [fp, #-28]	; 0xffffffe4
   140b0:	e0922000 	adds	r2, r2, r0
   140b4:	e0a33001 	adc	r3, r3, r1
   140b8:	e14b20fc 	strd	r2, [fp, #-12]
   140bc:	e1a00000 	nop			; (mov r0, r0)
   140c0:	ebffffa7 	bl	13f64 <bcm2835_st_read>
   140c4:	e14b20dc 	ldrd	r2, [fp, #-12]
   140c8:	e1510003 	cmp	r1, r3
   140cc:	01500002 	cmpeq	r0, r2
   140d0:	3afffffa 	bcc	140c0 <bcm2835_st_delay+0x2c>
   140d4:	e1a00000 	nop			; (mov r0, r0)
   140d8:	e24bd004 	sub	sp, fp, #4
   140dc:	e8bd8800 	pop	{fp, pc}

000140e0 <bcm2835_pwm_set_clock>:
   140e0:	e92d4800 	push	{fp, lr}
   140e4:	e28db004 	add	fp, sp, #4
   140e8:	e24dd008 	sub	sp, sp, #8
   140ec:	e50b0008 	str	r0, [fp, #-8]
   140f0:	e59f30c4 	ldr	r3, [pc, #196]	; 141bc <bcm2835_pwm_set_clock+0xdc>
   140f4:	e5933000 	ldr	r3, [r3]
   140f8:	e3730001 	cmn	r3, #1
   140fc:	0a00002b 	beq	141b0 <bcm2835_pwm_set_clock+0xd0>
   14100:	e59f30b8 	ldr	r3, [pc, #184]	; 141c0 <bcm2835_pwm_set_clock+0xe0>
   14104:	e5933000 	ldr	r3, [r3]
   14108:	e3730001 	cmn	r3, #1
   1410c:	0a000027 	beq	141b0 <bcm2835_pwm_set_clock+0xd0>
   14110:	e51b3008 	ldr	r3, [fp, #-8]
   14114:	e1a03a03 	lsl	r3, r3, #20
   14118:	e1a03a23 	lsr	r3, r3, #20
   1411c:	e50b3008 	str	r3, [fp, #-8]
   14120:	e59f3094 	ldr	r3, [pc, #148]	; 141bc <bcm2835_pwm_set_clock+0xdc>
   14124:	e5933000 	ldr	r3, [r3]
   14128:	e28330a0 	add	r3, r3, #160	; 0xa0
   1412c:	e59f1090 	ldr	r1, [pc, #144]	; 141c4 <bcm2835_pwm_set_clock+0xe4>
   14130:	e1a00003 	mov	r0, r3
   14134:	ebfff4e2 	bl	114c4 <bcm2835_peri_write>
   14138:	e3a0006e 	mov	r0, #110	; 0x6e
   1413c:	ebfff7f0 	bl	12104 <bcm2835_delay>
   14140:	ea000001 	b	1414c <bcm2835_pwm_set_clock+0x6c>
   14144:	e3a00001 	mov	r0, #1
   14148:	ebfff7ed 	bl	12104 <bcm2835_delay>
   1414c:	e59f3068 	ldr	r3, [pc, #104]	; 141bc <bcm2835_pwm_set_clock+0xdc>
   14150:	e5933000 	ldr	r3, [r3]
   14154:	e28330a0 	add	r3, r3, #160	; 0xa0
   14158:	e1a00003 	mov	r0, r3
   1415c:	ebfff4ac 	bl	11414 <bcm2835_peri_read>
   14160:	e1a03000 	mov	r3, r0
   14164:	e2033080 	and	r3, r3, #128	; 0x80
   14168:	e3530000 	cmp	r3, #0
   1416c:	1afffff4 	bne	14144 <bcm2835_pwm_set_clock+0x64>
   14170:	e59f3044 	ldr	r3, [pc, #68]	; 141bc <bcm2835_pwm_set_clock+0xdc>
   14174:	e5933000 	ldr	r3, [r3]
   14178:	e28320a4 	add	r2, r3, #164	; 0xa4
   1417c:	e51b3008 	ldr	r3, [fp, #-8]
   14180:	e1a03603 	lsl	r3, r3, #12
   14184:	e383345a 	orr	r3, r3, #1509949440	; 0x5a000000
   14188:	e1a01003 	mov	r1, r3
   1418c:	e1a00002 	mov	r0, r2
   14190:	ebfff4cb 	bl	114c4 <bcm2835_peri_write>
   14194:	e59f3020 	ldr	r3, [pc, #32]	; 141bc <bcm2835_pwm_set_clock+0xdc>
   14198:	e5933000 	ldr	r3, [r3]
   1419c:	e28330a0 	add	r3, r3, #160	; 0xa0
   141a0:	e59f1020 	ldr	r1, [pc, #32]	; 141c8 <bcm2835_pwm_set_clock+0xe8>
   141a4:	e1a00003 	mov	r0, r3
   141a8:	ebfff4c5 	bl	114c4 <bcm2835_peri_write>
   141ac:	ea000000 	b	141b4 <bcm2835_pwm_set_clock+0xd4>
   141b0:	e1a00000 	nop			; (mov r0, r0)
   141b4:	e24bd004 	sub	sp, fp, #4
   141b8:	e8bd8800 	pop	{fp, pc}
   141bc:	00026088 	andeq	r6, r2, r8, lsl #1
   141c0:	00026084 	andeq	r6, r2, r4, lsl #1
   141c4:	5a000001 	bpl	141d0 <bcm2835_pwm_set_mode+0x4>
   141c8:	5a000011 	bpl	14214 <bcm2835_pwm_set_mode+0x48>

000141cc <bcm2835_pwm_set_mode>:
   141cc:	e92d4800 	push	{fp, lr}
   141d0:	e28db004 	add	fp, sp, #4
   141d4:	e24dd010 	sub	sp, sp, #16
   141d8:	e1a03000 	mov	r3, r0
   141dc:	e54b300d 	strb	r3, [fp, #-13]
   141e0:	e1a03001 	mov	r3, r1
   141e4:	e54b300e 	strb	r3, [fp, #-14]
   141e8:	e1a03002 	mov	r3, r2
   141ec:	e54b300f 	strb	r3, [fp, #-15]
   141f0:	e59f310c 	ldr	r3, [pc, #268]	; 14304 <bcm2835_pwm_set_mode+0x138>
   141f4:	e5933000 	ldr	r3, [r3]
   141f8:	e3730001 	cmn	r3, #1
   141fc:	0a00003d 	beq	142f8 <bcm2835_pwm_set_mode+0x12c>
   14200:	e59f3100 	ldr	r3, [pc, #256]	; 14308 <bcm2835_pwm_set_mode+0x13c>
   14204:	e5933000 	ldr	r3, [r3]
   14208:	e3730001 	cmn	r3, #1
   1420c:	0a000039 	beq	142f8 <bcm2835_pwm_set_mode+0x12c>
   14210:	e59f30f0 	ldr	r3, [pc, #240]	; 14308 <bcm2835_pwm_set_mode+0x13c>
   14214:	e5933000 	ldr	r3, [r3]
   14218:	e1a00003 	mov	r0, r3
   1421c:	ebfff47c 	bl	11414 <bcm2835_peri_read>
   14220:	e50b0008 	str	r0, [fp, #-8]
   14224:	e55b300d 	ldrb	r3, [fp, #-13]
   14228:	e3530000 	cmp	r3, #0
   1422c:	1a000014 	bne	14284 <bcm2835_pwm_set_mode+0xb8>
   14230:	e55b300e 	ldrb	r3, [fp, #-14]
   14234:	e3530000 	cmp	r3, #0
   14238:	0a000003 	beq	1424c <bcm2835_pwm_set_mode+0x80>
   1423c:	e51b3008 	ldr	r3, [fp, #-8]
   14240:	e3833080 	orr	r3, r3, #128	; 0x80
   14244:	e50b3008 	str	r3, [fp, #-8]
   14248:	ea000002 	b	14258 <bcm2835_pwm_set_mode+0x8c>
   1424c:	e51b3008 	ldr	r3, [fp, #-8]
   14250:	e3c33080 	bic	r3, r3, #128	; 0x80
   14254:	e50b3008 	str	r3, [fp, #-8]
   14258:	e55b300f 	ldrb	r3, [fp, #-15]
   1425c:	e3530000 	cmp	r3, #0
   14260:	0a000003 	beq	14274 <bcm2835_pwm_set_mode+0xa8>
   14264:	e51b3008 	ldr	r3, [fp, #-8]
   14268:	e3833001 	orr	r3, r3, #1
   1426c:	e50b3008 	str	r3, [fp, #-8]
   14270:	ea00001a 	b	142e0 <bcm2835_pwm_set_mode+0x114>
   14274:	e51b3008 	ldr	r3, [fp, #-8]
   14278:	e3c33001 	bic	r3, r3, #1
   1427c:	e50b3008 	str	r3, [fp, #-8]
   14280:	ea000016 	b	142e0 <bcm2835_pwm_set_mode+0x114>
   14284:	e55b300d 	ldrb	r3, [fp, #-13]
   14288:	e3530001 	cmp	r3, #1
   1428c:	1a000013 	bne	142e0 <bcm2835_pwm_set_mode+0x114>
   14290:	e55b300e 	ldrb	r3, [fp, #-14]
   14294:	e3530000 	cmp	r3, #0
   14298:	0a000003 	beq	142ac <bcm2835_pwm_set_mode+0xe0>
   1429c:	e51b3008 	ldr	r3, [fp, #-8]
   142a0:	e3833902 	orr	r3, r3, #32768	; 0x8000
   142a4:	e50b3008 	str	r3, [fp, #-8]
   142a8:	ea000002 	b	142b8 <bcm2835_pwm_set_mode+0xec>
   142ac:	e51b3008 	ldr	r3, [fp, #-8]
   142b0:	e3c33902 	bic	r3, r3, #32768	; 0x8000
   142b4:	e50b3008 	str	r3, [fp, #-8]
   142b8:	e55b300f 	ldrb	r3, [fp, #-15]
   142bc:	e3530000 	cmp	r3, #0
   142c0:	0a000003 	beq	142d4 <bcm2835_pwm_set_mode+0x108>
   142c4:	e51b3008 	ldr	r3, [fp, #-8]
   142c8:	e3833c01 	orr	r3, r3, #256	; 0x100
   142cc:	e50b3008 	str	r3, [fp, #-8]
   142d0:	ea000002 	b	142e0 <bcm2835_pwm_set_mode+0x114>
   142d4:	e51b3008 	ldr	r3, [fp, #-8]
   142d8:	e3c33c01 	bic	r3, r3, #256	; 0x100
   142dc:	e50b3008 	str	r3, [fp, #-8]
   142e0:	e59f3020 	ldr	r3, [pc, #32]	; 14308 <bcm2835_pwm_set_mode+0x13c>
   142e4:	e5933000 	ldr	r3, [r3]
   142e8:	e51b1008 	ldr	r1, [fp, #-8]
   142ec:	e1a00003 	mov	r0, r3
   142f0:	ebfff48b 	bl	11524 <bcm2835_peri_write_nb>
   142f4:	ea000000 	b	142fc <bcm2835_pwm_set_mode+0x130>
   142f8:	e1a00000 	nop			; (mov r0, r0)
   142fc:	e24bd004 	sub	sp, fp, #4
   14300:	e8bd8800 	pop	{fp, pc}
   14304:	00026088 	andeq	r6, r2, r8, lsl #1
   14308:	00026084 	andeq	r6, r2, r4, lsl #1

0001430c <bcm2835_pwm_set_range>:
   1430c:	e92d4800 	push	{fp, lr}
   14310:	e28db004 	add	fp, sp, #4
   14314:	e24dd008 	sub	sp, sp, #8
   14318:	e1a03000 	mov	r3, r0
   1431c:	e50b100c 	str	r1, [fp, #-12]
   14320:	e54b3005 	strb	r3, [fp, #-5]
   14324:	e59f3074 	ldr	r3, [pc, #116]	; 143a0 <bcm2835_pwm_set_range+0x94>
   14328:	e5933000 	ldr	r3, [r3]
   1432c:	e3730001 	cmn	r3, #1
   14330:	0a000017 	beq	14394 <bcm2835_pwm_set_range+0x88>
   14334:	e59f3068 	ldr	r3, [pc, #104]	; 143a4 <bcm2835_pwm_set_range+0x98>
   14338:	e5933000 	ldr	r3, [r3]
   1433c:	e3730001 	cmn	r3, #1
   14340:	0a000013 	beq	14394 <bcm2835_pwm_set_range+0x88>
   14344:	e55b3005 	ldrb	r3, [fp, #-5]
   14348:	e3530000 	cmp	r3, #0
   1434c:	1a000006 	bne	1436c <bcm2835_pwm_set_range+0x60>
   14350:	e59f304c 	ldr	r3, [pc, #76]	; 143a4 <bcm2835_pwm_set_range+0x98>
   14354:	e5933000 	ldr	r3, [r3]
   14358:	e2833010 	add	r3, r3, #16
   1435c:	e51b100c 	ldr	r1, [fp, #-12]
   14360:	e1a00003 	mov	r0, r3
   14364:	ebfff46e 	bl	11524 <bcm2835_peri_write_nb>
   14368:	ea00000a 	b	14398 <bcm2835_pwm_set_range+0x8c>
   1436c:	e55b3005 	ldrb	r3, [fp, #-5]
   14370:	e3530001 	cmp	r3, #1
   14374:	1a000007 	bne	14398 <bcm2835_pwm_set_range+0x8c>
   14378:	e59f3024 	ldr	r3, [pc, #36]	; 143a4 <bcm2835_pwm_set_range+0x98>
   1437c:	e5933000 	ldr	r3, [r3]
   14380:	e2833020 	add	r3, r3, #32
   14384:	e51b100c 	ldr	r1, [fp, #-12]
   14388:	e1a00003 	mov	r0, r3
   1438c:	ebfff464 	bl	11524 <bcm2835_peri_write_nb>
   14390:	ea000000 	b	14398 <bcm2835_pwm_set_range+0x8c>
   14394:	e1a00000 	nop			; (mov r0, r0)
   14398:	e24bd004 	sub	sp, fp, #4
   1439c:	e8bd8800 	pop	{fp, pc}
   143a0:	00026088 	andeq	r6, r2, r8, lsl #1
   143a4:	00026084 	andeq	r6, r2, r4, lsl #1

000143a8 <bcm2835_pwm_set_data>:
   143a8:	e92d4800 	push	{fp, lr}
   143ac:	e28db004 	add	fp, sp, #4
   143b0:	e24dd008 	sub	sp, sp, #8
   143b4:	e1a03000 	mov	r3, r0
   143b8:	e50b100c 	str	r1, [fp, #-12]
   143bc:	e54b3005 	strb	r3, [fp, #-5]
   143c0:	e59f3074 	ldr	r3, [pc, #116]	; 1443c <bcm2835_pwm_set_data+0x94>
   143c4:	e5933000 	ldr	r3, [r3]
   143c8:	e3730001 	cmn	r3, #1
   143cc:	0a000017 	beq	14430 <bcm2835_pwm_set_data+0x88>
   143d0:	e59f3068 	ldr	r3, [pc, #104]	; 14440 <bcm2835_pwm_set_data+0x98>
   143d4:	e5933000 	ldr	r3, [r3]
   143d8:	e3730001 	cmn	r3, #1
   143dc:	0a000013 	beq	14430 <bcm2835_pwm_set_data+0x88>
   143e0:	e55b3005 	ldrb	r3, [fp, #-5]
   143e4:	e3530000 	cmp	r3, #0
   143e8:	1a000006 	bne	14408 <bcm2835_pwm_set_data+0x60>
   143ec:	e59f304c 	ldr	r3, [pc, #76]	; 14440 <bcm2835_pwm_set_data+0x98>
   143f0:	e5933000 	ldr	r3, [r3]
   143f4:	e2833014 	add	r3, r3, #20
   143f8:	e51b100c 	ldr	r1, [fp, #-12]
   143fc:	e1a00003 	mov	r0, r3
   14400:	ebfff447 	bl	11524 <bcm2835_peri_write_nb>
   14404:	ea00000a 	b	14434 <bcm2835_pwm_set_data+0x8c>
   14408:	e55b3005 	ldrb	r3, [fp, #-5]
   1440c:	e3530001 	cmp	r3, #1
   14410:	1a000007 	bne	14434 <bcm2835_pwm_set_data+0x8c>
   14414:	e59f3024 	ldr	r3, [pc, #36]	; 14440 <bcm2835_pwm_set_data+0x98>
   14418:	e5933000 	ldr	r3, [r3]
   1441c:	e2833024 	add	r3, r3, #36	; 0x24
   14420:	e51b100c 	ldr	r1, [fp, #-12]
   14424:	e1a00003 	mov	r0, r3
   14428:	ebfff43d 	bl	11524 <bcm2835_peri_write_nb>
   1442c:	ea000000 	b	14434 <bcm2835_pwm_set_data+0x8c>
   14430:	e1a00000 	nop			; (mov r0, r0)
   14434:	e24bd004 	sub	sp, fp, #4
   14438:	e8bd8800 	pop	{fp, pc}
   1443c:	00026088 	andeq	r6, r2, r8, lsl #1
   14440:	00026084 	andeq	r6, r2, r4, lsl #1

00014444 <malloc_aligned>:
   14444:	e92d4810 	push	{r4, fp, lr}
   14448:	e28db008 	add	fp, sp, #8
   1444c:	e24dd014 	sub	sp, sp, #20
   14450:	e50b0018 	str	r0, [fp, #-24]	; 0xffffffe8
   14454:	ebfff0f9 	bl	10840 <__errno_location@plt>
   14458:	e1a04000 	mov	r4, r0
   1445c:	e24b3010 	sub	r3, fp, #16
   14460:	e51b2018 	ldr	r2, [fp, #-24]	; 0xffffffe8
   14464:	e3a01a01 	mov	r1, #4096	; 0x1000
   14468:	e1a00003 	mov	r0, r3
   1446c:	ebfff0b7 	bl	10750 <posix_memalign@plt>
   14470:	e1a03000 	mov	r3, r0
   14474:	e5843000 	str	r3, [r4]
   14478:	ebfff0f0 	bl	10840 <__errno_location@plt>
   1447c:	e1a03000 	mov	r3, r0
   14480:	e5933000 	ldr	r3, [r3]
   14484:	e3530000 	cmp	r3, #0
   14488:	1a000001 	bne	14494 <malloc_aligned+0x50>
   1448c:	e51b3010 	ldr	r3, [fp, #-16]
   14490:	ea000000 	b	14498 <malloc_aligned+0x54>
   14494:	e3a03000 	mov	r3, #0
   14498:	e1a00003 	mov	r0, r3
   1449c:	e24bd008 	sub	sp, fp, #8
   144a0:	e8bd8810 	pop	{r4, fp, pc}

000144a4 <mapmem>:
   144a4:	e92d4810 	push	{r4, fp, lr}
   144a8:	e28db008 	add	fp, sp, #8
   144ac:	e24dd024 	sub	sp, sp, #36	; 0x24
   144b0:	e50b0018 	str	r0, [fp, #-24]	; 0xffffffe8
   144b4:	e50b101c 	str	r1, [fp, #-28]	; 0xffffffe4
   144b8:	e50b2020 	str	r2, [fp, #-32]	; 0xffffffe0
   144bc:	e50b3024 	str	r3, [fp, #-36]	; 0xffffffdc
   144c0:	e51b3024 	ldr	r3, [fp, #-36]	; 0xffffffdc
   144c4:	e58d3004 	str	r3, [sp, #4]
   144c8:	e51b3020 	ldr	r3, [fp, #-32]	; 0xffffffe0
   144cc:	e58d3000 	str	r3, [sp]
   144d0:	e3a03001 	mov	r3, #1
   144d4:	e3a02003 	mov	r2, #3
   144d8:	e51b101c 	ldr	r1, [fp, #-28]	; 0xffffffe4
   144dc:	e3a00000 	mov	r0, #0
   144e0:	ebfff0b2 	bl	107b0 <mmap@plt>
   144e4:	e50b0010 	str	r0, [fp, #-16]
   144e8:	e51b3010 	ldr	r3, [fp, #-16]
   144ec:	e3730001 	cmn	r3, #1
   144f0:	1a00000b 	bne	14524 <mapmem+0x80>
   144f4:	e59f3038 	ldr	r3, [pc, #56]	; 14534 <mapmem+0x90>
   144f8:	e5934000 	ldr	r4, [r3]
   144fc:	ebfff0cf 	bl	10840 <__errno_location@plt>
   14500:	e1a03000 	mov	r3, r0
   14504:	e5933000 	ldr	r3, [r3]
   14508:	e1a00003 	mov	r0, r3
   1450c:	ebfff098 	bl	10774 <strerror@plt>
   14510:	e1a03000 	mov	r3, r0
   14514:	e51b2018 	ldr	r2, [fp, #-24]	; 0xffffffe8
   14518:	e59f1018 	ldr	r1, [pc, #24]	; 14538 <mapmem+0x94>
   1451c:	e1a00004 	mov	r0, r4
   14520:	ebfff0bd 	bl	1081c <fprintf@plt>
   14524:	e51b3010 	ldr	r3, [fp, #-16]
   14528:	e1a00003 	mov	r0, r3
   1452c:	e24bd008 	sub	sp, fp, #8
   14530:	e8bd8810 	pop	{r4, fp, pc}
   14534:	000261b0 			; <UNDEFINED> instruction: 0x000261b0
   14538:	00014db0 			; <UNDEFINED> instruction: 0x00014db0

0001453c <unmapmem>:
   1453c:	e92d4800 	push	{fp, lr}
   14540:	e28db004 	add	fp, sp, #4
   14544:	e24dd008 	sub	sp, sp, #8
   14548:	e50b0008 	str	r0, [fp, #-8]
   1454c:	e50b100c 	str	r1, [fp, #-12]
   14550:	e51b3008 	ldr	r3, [fp, #-8]
   14554:	e5933000 	ldr	r3, [r3]
   14558:	e3730001 	cmn	r3, #1
   1455c:	0a000008 	beq	14584 <unmapmem+0x48>
   14560:	e51b3008 	ldr	r3, [fp, #-8]
   14564:	e5933000 	ldr	r3, [r3]
   14568:	e51b100c 	ldr	r1, [fp, #-12]
   1456c:	e1a00003 	mov	r0, r3
   14570:	ebfff0a6 	bl	10810 <munmap@plt>
   14574:	e51b3008 	ldr	r3, [fp, #-8]
   14578:	e3e02000 	mvn	r2, #0
   1457c:	e5832000 	str	r2, [r3]
   14580:	ea000000 	b	14588 <unmapmem+0x4c>
   14584:	e1a00000 	nop			; (mov r0, r0)
   14588:	e24bd004 	sub	sp, fp, #4
   1458c:	e8bd8800 	pop	{fp, pc}

00014590 <bcm2835_init>:
   14590:	e92d4810 	push	{r4, fp, lr}
   14594:	e28db008 	add	fp, sp, #8
   14598:	e24dd014 	sub	sp, sp, #20
   1459c:	e59f3494 	ldr	r3, [pc, #1172]	; 14a38 <bcm2835_init+0x4a8>
   145a0:	e5d33000 	ldrb	r3, [r3]
   145a4:	e3530000 	cmp	r3, #0
   145a8:	0a00003b 	beq	1469c <bcm2835_init+0x10c>
   145ac:	e59f3488 	ldr	r3, [pc, #1160]	; 14a3c <bcm2835_init+0x4ac>
   145b0:	e3a02202 	mov	r2, #536870912	; 0x20000000
   145b4:	e5832000 	str	r2, [r3]
   145b8:	e59f347c 	ldr	r3, [pc, #1148]	; 14a3c <bcm2835_init+0x4ac>
   145bc:	e5933000 	ldr	r3, [r3]
   145c0:	e2833601 	add	r3, r3, #1048576	; 0x100000
   145c4:	e59f2474 	ldr	r2, [pc, #1140]	; 14a40 <bcm2835_init+0x4b0>
   145c8:	e5823000 	str	r3, [r2]
   145cc:	e59f3468 	ldr	r3, [pc, #1128]	; 14a3c <bcm2835_init+0x4ac>
   145d0:	e5933000 	ldr	r3, [r3]
   145d4:	e2833601 	add	r3, r3, #1048576	; 0x100000
   145d8:	e2833a01 	add	r3, r3, #4096	; 0x1000
   145dc:	e59f2460 	ldr	r2, [pc, #1120]	; 14a44 <bcm2835_init+0x4b4>
   145e0:	e5823000 	str	r3, [r2]
   145e4:	e59f3450 	ldr	r3, [pc, #1104]	; 14a3c <bcm2835_init+0x4ac>
   145e8:	e5933000 	ldr	r3, [r3]
   145ec:	e2833602 	add	r3, r3, #2097152	; 0x200000
   145f0:	e59f2450 	ldr	r2, [pc, #1104]	; 14a48 <bcm2835_init+0x4b8>
   145f4:	e5823000 	str	r3, [r2]
   145f8:	e59f343c 	ldr	r3, [pc, #1084]	; 14a3c <bcm2835_init+0x4ac>
   145fc:	e5933000 	ldr	r3, [r3]
   14600:	e2833983 	add	r3, r3, #2146304	; 0x20c000
   14604:	e59f2440 	ldr	r2, [pc, #1088]	; 14a4c <bcm2835_init+0x4bc>
   14608:	e5823000 	str	r3, [r2]
   1460c:	e59f3428 	ldr	r3, [pc, #1064]	; 14a3c <bcm2835_init+0x4ac>
   14610:	e5933000 	ldr	r3, [r3]
   14614:	e2833981 	add	r3, r3, #2113536	; 0x204000
   14618:	e59f2430 	ldr	r2, [pc, #1072]	; 14a50 <bcm2835_init+0x4c0>
   1461c:	e5823000 	str	r3, [r2]
   14620:	e59f3414 	ldr	r3, [pc, #1044]	; 14a3c <bcm2835_init+0x4ac>
   14624:	e5933000 	ldr	r3, [r3]
   14628:	e2833981 	add	r3, r3, #2113536	; 0x204000
   1462c:	e2833a01 	add	r3, r3, #4096	; 0x1000
   14630:	e59f241c 	ldr	r2, [pc, #1052]	; 14a54 <bcm2835_init+0x4c4>
   14634:	e5823000 	str	r3, [r2]
   14638:	e59f33fc 	ldr	r3, [pc, #1020]	; 14a3c <bcm2835_init+0x4ac>
   1463c:	e5933000 	ldr	r3, [r3]
   14640:	e2833502 	add	r3, r3, #8388608	; 0x800000
   14644:	e2833901 	add	r3, r3, #16384	; 0x4000
   14648:	e59f2408 	ldr	r2, [pc, #1032]	; 14a58 <bcm2835_init+0x4c8>
   1464c:	e5823000 	str	r3, [r2]
   14650:	e59f33e4 	ldr	r3, [pc, #996]	; 14a3c <bcm2835_init+0x4ac>
   14654:	e5933000 	ldr	r3, [r3]
   14658:	e2833a03 	add	r3, r3, #12288	; 0x3000
   1465c:	e59f23f8 	ldr	r2, [pc, #1016]	; 14a5c <bcm2835_init+0x4cc>
   14660:	e5823000 	str	r3, [r2]
   14664:	e59f33d0 	ldr	r3, [pc, #976]	; 14a3c <bcm2835_init+0x4ac>
   14668:	e5933000 	ldr	r3, [r3]
   1466c:	e2833985 	add	r3, r3, #2179072	; 0x214000
   14670:	e2833a01 	add	r3, r3, #4096	; 0x1000
   14674:	e59f23e4 	ldr	r2, [pc, #996]	; 14a60 <bcm2835_init+0x4d0>
   14678:	e5823000 	str	r3, [r2]
   1467c:	e59f33b8 	ldr	r3, [pc, #952]	; 14a3c <bcm2835_init+0x4ac>
   14680:	e5933000 	ldr	r3, [r3]
   14684:	e2833985 	add	r3, r3, #2179072	; 0x214000
   14688:	e2833d42 	add	r3, r3, #4224	; 0x1080
   1468c:	e59f23d0 	ldr	r2, [pc, #976]	; 14a64 <bcm2835_init+0x4d4>
   14690:	e5823000 	str	r3, [r2]
   14694:	e3a03001 	mov	r3, #1
   14698:	ea0000e3 	b	14a2c <bcm2835_init+0x49c>
   1469c:	e59f13c4 	ldr	r1, [pc, #964]	; 14a68 <bcm2835_init+0x4d8>
   146a0:	e59f03c4 	ldr	r0, [pc, #964]	; 14a6c <bcm2835_init+0x4dc>
   146a4:	ebfff03b 	bl	10798 <fopen@plt>
   146a8:	e50b0018 	str	r0, [fp, #-24]	; 0xffffffe8
   146ac:	e51b3018 	ldr	r3, [fp, #-24]	; 0xffffffe8
   146b0:	e3530000 	cmp	r3, #0
   146b4:	0a000033 	beq	14788 <bcm2835_init+0x1f8>
   146b8:	e3a02000 	mov	r2, #0
   146bc:	e3a01004 	mov	r1, #4
   146c0:	e51b0018 	ldr	r0, [fp, #-24]	; 0xffffffe8
   146c4:	ebfff024 	bl	1075c <fseek@plt>
   146c8:	e24b001c 	sub	r0, fp, #28
   146cc:	e51b3018 	ldr	r3, [fp, #-24]	; 0xffffffe8
   146d0:	e3a02004 	mov	r2, #4
   146d4:	e3a01001 	mov	r1, #1
   146d8:	ebfff03a 	bl	107c8 <fread@plt>
   146dc:	e1a03000 	mov	r3, r0
   146e0:	e3530004 	cmp	r3, #4
   146e4:	1a00000c 	bne	1471c <bcm2835_init+0x18c>
   146e8:	e55b301c 	ldrb	r3, [fp, #-28]	; 0xffffffe4
   146ec:	e1a02c03 	lsl	r2, r3, #24
   146f0:	e55b301b 	ldrb	r3, [fp, #-27]	; 0xffffffe5
   146f4:	e1a03803 	lsl	r3, r3, #16
   146f8:	e1822003 	orr	r2, r2, r3
   146fc:	e55b301a 	ldrb	r3, [fp, #-26]	; 0xffffffe6
   14700:	e1a03403 	lsl	r3, r3, #8
   14704:	e1823003 	orr	r3, r2, r3
   14708:	e55b2019 	ldrb	r2, [fp, #-25]	; 0xffffffe7
   1470c:	e1833002 	orr	r3, r3, r2
   14710:	e1a02003 	mov	r2, r3
   14714:	e59f3354 	ldr	r3, [pc, #852]	; 14a70 <bcm2835_init+0x4e0>
   14718:	e5832000 	str	r2, [r3]
   1471c:	e3a02000 	mov	r2, #0
   14720:	e3a01008 	mov	r1, #8
   14724:	e51b0018 	ldr	r0, [fp, #-24]	; 0xffffffe8
   14728:	ebfff00b 	bl	1075c <fseek@plt>
   1472c:	e24b001c 	sub	r0, fp, #28
   14730:	e51b3018 	ldr	r3, [fp, #-24]	; 0xffffffe8
   14734:	e3a02004 	mov	r2, #4
   14738:	e3a01001 	mov	r1, #1
   1473c:	ebfff021 	bl	107c8 <fread@plt>
   14740:	e1a03000 	mov	r3, r0
   14744:	e3530004 	cmp	r3, #4
   14748:	1a00000c 	bne	14780 <bcm2835_init+0x1f0>
   1474c:	e55b301c 	ldrb	r3, [fp, #-28]	; 0xffffffe4
   14750:	e1a02c03 	lsl	r2, r3, #24
   14754:	e55b301b 	ldrb	r3, [fp, #-27]	; 0xffffffe5
   14758:	e1a03803 	lsl	r3, r3, #16
   1475c:	e1822003 	orr	r2, r2, r3
   14760:	e55b301a 	ldrb	r3, [fp, #-26]	; 0xffffffe6
   14764:	e1a03403 	lsl	r3, r3, #8
   14768:	e1823003 	orr	r3, r2, r3
   1476c:	e55b2019 	ldrb	r2, [fp, #-25]	; 0xffffffe7
   14770:	e1833002 	orr	r3, r3, r2
   14774:	e1a02003 	mov	r2, r3
   14778:	e59f32f4 	ldr	r3, [pc, #756]	; 14a74 <bcm2835_init+0x4e4>
   1477c:	e5832000 	str	r2, [r3]
   14780:	e51b0018 	ldr	r0, [fp, #-24]	; 0xffffffe8
   14784:	ebfff027 	bl	10828 <fclose@plt>
   14788:	e3e03000 	mvn	r3, #0
   1478c:	e50b3010 	str	r3, [fp, #-16]
   14790:	e3a03000 	mov	r3, #0
   14794:	e50b3014 	str	r3, [fp, #-20]	; 0xffffffec
   14798:	ebfff019 	bl	10804 <geteuid@plt>
   1479c:	e1a03000 	mov	r3, r0
   147a0:	e3530000 	cmp	r3, #0
   147a4:	1a00005b 	bne	14918 <bcm2835_init+0x388>
   147a8:	e59f12c8 	ldr	r1, [pc, #712]	; 14a78 <bcm2835_init+0x4e8>
   147ac:	e59f02c8 	ldr	r0, [pc, #712]	; 14a7c <bcm2835_init+0x4ec>
   147b0:	ebfff001 	bl	107bc <open@plt>
   147b4:	e50b0010 	str	r0, [fp, #-16]
   147b8:	e51b3010 	ldr	r3, [fp, #-16]
   147bc:	e3530000 	cmp	r3, #0
   147c0:	aa00000c 	bge	147f8 <bcm2835_init+0x268>
   147c4:	e59f32b4 	ldr	r3, [pc, #692]	; 14a80 <bcm2835_init+0x4f0>
   147c8:	e5934000 	ldr	r4, [r3]
   147cc:	ebfff01b 	bl	10840 <__errno_location@plt>
   147d0:	e1a03000 	mov	r3, r0
   147d4:	e5933000 	ldr	r3, [r3]
   147d8:	e1a00003 	mov	r0, r3
   147dc:	ebffefe4 	bl	10774 <strerror@plt>
   147e0:	e1a03000 	mov	r3, r0
   147e4:	e1a02003 	mov	r2, r3
   147e8:	e59f1294 	ldr	r1, [pc, #660]	; 14a84 <bcm2835_init+0x4f4>
   147ec:	e1a00004 	mov	r0, r4
   147f0:	ebfff009 	bl	1081c <fprintf@plt>
   147f4:	ea000082 	b	14a04 <bcm2835_init+0x474>
   147f8:	e59f3274 	ldr	r3, [pc, #628]	; 14a74 <bcm2835_init+0x4e4>
   147fc:	e5931000 	ldr	r1, [r3]
   14800:	e59f3268 	ldr	r3, [pc, #616]	; 14a70 <bcm2835_init+0x4e0>
   14804:	e5933000 	ldr	r3, [r3]
   14808:	e51b2010 	ldr	r2, [fp, #-16]
   1480c:	e59f0274 	ldr	r0, [pc, #628]	; 14a88 <bcm2835_init+0x4f8>
   14810:	ebffff23 	bl	144a4 <mapmem>
   14814:	e1a02000 	mov	r2, r0
   14818:	e59f321c 	ldr	r3, [pc, #540]	; 14a3c <bcm2835_init+0x4ac>
   1481c:	e5832000 	str	r2, [r3]
   14820:	e59f3214 	ldr	r3, [pc, #532]	; 14a3c <bcm2835_init+0x4ac>
   14824:	e5933000 	ldr	r3, [r3]
   14828:	e3730001 	cmn	r3, #1
   1482c:	0a000071 	beq	149f8 <bcm2835_init+0x468>
   14830:	e59f3204 	ldr	r3, [pc, #516]	; 14a3c <bcm2835_init+0x4ac>
   14834:	e5933000 	ldr	r3, [r3]
   14838:	e2833602 	add	r3, r3, #2097152	; 0x200000
   1483c:	e59f2204 	ldr	r2, [pc, #516]	; 14a48 <bcm2835_init+0x4b8>
   14840:	e5823000 	str	r3, [r2]
   14844:	e59f31f0 	ldr	r3, [pc, #496]	; 14a3c <bcm2835_init+0x4ac>
   14848:	e5933000 	ldr	r3, [r3]
   1484c:	e2833983 	add	r3, r3, #2146304	; 0x20c000
   14850:	e59f21f4 	ldr	r2, [pc, #500]	; 14a4c <bcm2835_init+0x4bc>
   14854:	e5823000 	str	r3, [r2]
   14858:	e59f31dc 	ldr	r3, [pc, #476]	; 14a3c <bcm2835_init+0x4ac>
   1485c:	e5933000 	ldr	r3, [r3]
   14860:	e2833601 	add	r3, r3, #1048576	; 0x100000
   14864:	e2833a01 	add	r3, r3, #4096	; 0x1000
   14868:	e59f21d4 	ldr	r2, [pc, #468]	; 14a44 <bcm2835_init+0x4b4>
   1486c:	e5823000 	str	r3, [r2]
   14870:	e59f31c4 	ldr	r3, [pc, #452]	; 14a3c <bcm2835_init+0x4ac>
   14874:	e5933000 	ldr	r3, [r3]
   14878:	e2833601 	add	r3, r3, #1048576	; 0x100000
   1487c:	e59f21bc 	ldr	r2, [pc, #444]	; 14a40 <bcm2835_init+0x4b0>
   14880:	e5823000 	str	r3, [r2]
   14884:	e59f31b0 	ldr	r3, [pc, #432]	; 14a3c <bcm2835_init+0x4ac>
   14888:	e5933000 	ldr	r3, [r3]
   1488c:	e2833981 	add	r3, r3, #2113536	; 0x204000
   14890:	e59f21b8 	ldr	r2, [pc, #440]	; 14a50 <bcm2835_init+0x4c0>
   14894:	e5823000 	str	r3, [r2]
   14898:	e59f319c 	ldr	r3, [pc, #412]	; 14a3c <bcm2835_init+0x4ac>
   1489c:	e5933000 	ldr	r3, [r3]
   148a0:	e2833981 	add	r3, r3, #2113536	; 0x204000
   148a4:	e2833a01 	add	r3, r3, #4096	; 0x1000
   148a8:	e59f21a4 	ldr	r2, [pc, #420]	; 14a54 <bcm2835_init+0x4c4>
   148ac:	e5823000 	str	r3, [r2]
   148b0:	e59f3184 	ldr	r3, [pc, #388]	; 14a3c <bcm2835_init+0x4ac>
   148b4:	e5933000 	ldr	r3, [r3]
   148b8:	e2833502 	add	r3, r3, #8388608	; 0x800000
   148bc:	e2833901 	add	r3, r3, #16384	; 0x4000
   148c0:	e59f2190 	ldr	r2, [pc, #400]	; 14a58 <bcm2835_init+0x4c8>
   148c4:	e5823000 	str	r3, [r2]
   148c8:	e59f316c 	ldr	r3, [pc, #364]	; 14a3c <bcm2835_init+0x4ac>
   148cc:	e5933000 	ldr	r3, [r3]
   148d0:	e2833a03 	add	r3, r3, #12288	; 0x3000
   148d4:	e59f2180 	ldr	r2, [pc, #384]	; 14a5c <bcm2835_init+0x4cc>
   148d8:	e5823000 	str	r3, [r2]
   148dc:	e59f3158 	ldr	r3, [pc, #344]	; 14a3c <bcm2835_init+0x4ac>
   148e0:	e5933000 	ldr	r3, [r3]
   148e4:	e2833985 	add	r3, r3, #2179072	; 0x214000
   148e8:	e2833a01 	add	r3, r3, #4096	; 0x1000
   148ec:	e59f216c 	ldr	r2, [pc, #364]	; 14a60 <bcm2835_init+0x4d0>
   148f0:	e5823000 	str	r3, [r2]
   148f4:	e59f3140 	ldr	r3, [pc, #320]	; 14a3c <bcm2835_init+0x4ac>
   148f8:	e5933000 	ldr	r3, [r3]
   148fc:	e2833985 	add	r3, r3, #2179072	; 0x214000
   14900:	e2833d42 	add	r3, r3, #4224	; 0x1080
   14904:	e59f2158 	ldr	r2, [pc, #344]	; 14a64 <bcm2835_init+0x4d4>
   14908:	e5823000 	str	r3, [r2]
   1490c:	e3a03001 	mov	r3, #1
   14910:	e50b3014 	str	r3, [fp, #-20]	; 0xffffffec
   14914:	ea00003a 	b	14a04 <bcm2835_init+0x474>
   14918:	e59f1158 	ldr	r1, [pc, #344]	; 14a78 <bcm2835_init+0x4e8>
   1491c:	e59f0168 	ldr	r0, [pc, #360]	; 14a8c <bcm2835_init+0x4fc>
   14920:	ebffefa5 	bl	107bc <open@plt>
   14924:	e50b0010 	str	r0, [fp, #-16]
   14928:	e51b3010 	ldr	r3, [fp, #-16]
   1492c:	e3530000 	cmp	r3, #0
   14930:	aa00000c 	bge	14968 <bcm2835_init+0x3d8>
   14934:	e59f3144 	ldr	r3, [pc, #324]	; 14a80 <bcm2835_init+0x4f0>
   14938:	e5934000 	ldr	r4, [r3]
   1493c:	ebffefbf 	bl	10840 <__errno_location@plt>
   14940:	e1a03000 	mov	r3, r0
   14944:	e5933000 	ldr	r3, [r3]
   14948:	e1a00003 	mov	r0, r3
   1494c:	ebffef88 	bl	10774 <strerror@plt>
   14950:	e1a03000 	mov	r3, r0
   14954:	e1a02003 	mov	r2, r3
   14958:	e59f1130 	ldr	r1, [pc, #304]	; 14a90 <bcm2835_init+0x500>
   1495c:	e1a00004 	mov	r0, r4
   14960:	ebffefad 	bl	1081c <fprintf@plt>
   14964:	ea000026 	b	14a04 <bcm2835_init+0x474>
   14968:	e59f3100 	ldr	r3, [pc, #256]	; 14a70 <bcm2835_init+0x4e0>
   1496c:	e3a02000 	mov	r2, #0
   14970:	e5832000 	str	r2, [r3]
   14974:	e59f30f8 	ldr	r3, [pc, #248]	; 14a74 <bcm2835_init+0x4e4>
   14978:	e5931000 	ldr	r1, [r3]
   1497c:	e59f30ec 	ldr	r3, [pc, #236]	; 14a70 <bcm2835_init+0x4e0>
   14980:	e5933000 	ldr	r3, [r3]
   14984:	e51b2010 	ldr	r2, [fp, #-16]
   14988:	e59f00f8 	ldr	r0, [pc, #248]	; 14a88 <bcm2835_init+0x4f8>
   1498c:	ebfffec4 	bl	144a4 <mapmem>
   14990:	e1a02000 	mov	r2, r0
   14994:	e59f30a0 	ldr	r3, [pc, #160]	; 14a3c <bcm2835_init+0x4ac>
   14998:	e5832000 	str	r2, [r3]
   1499c:	e59f3098 	ldr	r3, [pc, #152]	; 14a3c <bcm2835_init+0x4ac>
   149a0:	e5933000 	ldr	r3, [r3]
   149a4:	e3730001 	cmn	r3, #1
   149a8:	0a000014 	beq	14a00 <bcm2835_init+0x470>
   149ac:	e59f3088 	ldr	r3, [pc, #136]	; 14a3c <bcm2835_init+0x4ac>
   149b0:	e5933000 	ldr	r3, [r3]
   149b4:	e59f208c 	ldr	r2, [pc, #140]	; 14a48 <bcm2835_init+0x4b8>
   149b8:	e5823000 	str	r3, [r2]
   149bc:	e59f3078 	ldr	r3, [pc, #120]	; 14a3c <bcm2835_init+0x4ac>
   149c0:	e5933000 	ldr	r3, [r3]
   149c4:	e2833901 	add	r3, r3, #16384	; 0x4000
   149c8:	e59f2080 	ldr	r2, [pc, #128]	; 14a50 <bcm2835_init+0x4c0>
   149cc:	e5823000 	str	r3, [r2]
   149d0:	e59f3070 	ldr	r3, [pc, #112]	; 14a48 <bcm2835_init+0x4b8>
   149d4:	e5931000 	ldr	r1, [r3]
   149d8:	e59f3070 	ldr	r3, [pc, #112]	; 14a50 <bcm2835_init+0x4c0>
   149dc:	e5933000 	ldr	r3, [r3]
   149e0:	e1a02003 	mov	r2, r3
   149e4:	e59f00a8 	ldr	r0, [pc, #168]	; 14a94 <bcm2835_init+0x504>
   149e8:	ebffef5e 	bl	10768 <printf@plt>
   149ec:	e3a03001 	mov	r3, #1
   149f0:	e50b3014 	str	r3, [fp, #-20]	; 0xffffffec
   149f4:	ea000002 	b	14a04 <bcm2835_init+0x474>
   149f8:	e1a00000 	nop			; (mov r0, r0)
   149fc:	ea000000 	b	14a04 <bcm2835_init+0x474>
   14a00:	e1a00000 	nop			; (mov r0, r0)
   14a04:	e51b3010 	ldr	r3, [fp, #-16]
   14a08:	e3530000 	cmp	r3, #0
   14a0c:	ba000001 	blt	14a18 <bcm2835_init+0x488>
   14a10:	e51b0010 	ldr	r0, [fp, #-16]
   14a14:	ebffef5c 	bl	1078c <close@plt>
   14a18:	e51b3014 	ldr	r3, [fp, #-20]	; 0xffffffec
   14a1c:	e3530000 	cmp	r3, #0
   14a20:	1a000000 	bne	14a28 <bcm2835_init+0x498>
   14a24:	eb00001b 	bl	14a98 <bcm2835_close>
   14a28:	e51b3014 	ldr	r3, [fp, #-20]	; 0xffffffec
   14a2c:	e1a00003 	mov	r0, r3
   14a30:	e24bd008 	sub	sp, fp, #8
   14a34:	e8bd8810 	pop	{r4, fp, pc}
   14a38:	000261b8 			; <UNDEFINED> instruction: 0x000261b8
   14a3c:	0002607c 	andeq	r6, r2, ip, ror r0
   14a40:	0002608c 	andeq	r6, r2, ip, lsl #1
   14a44:	00026088 	andeq	r6, r2, r8, lsl #1
   14a48:	00026080 	andeq	r6, r2, r0, lsl #1
   14a4c:	00026084 	andeq	r6, r2, r4, lsl #1
   14a50:	00026090 	muleq	r2, r0, r0
   14a54:	00026094 	muleq	r2, r4, r0
   14a58:	00026098 	muleq	r2, r8, r0
   14a5c:	0002609c 	muleq	r2, ip, r0
   14a60:	000260a0 	andeq	r6, r2, r0, lsr #1
   14a64:	000260a4 	andeq	r6, r2, r4, lsr #1
   14a68:	00014dd4 	ldrdeq	r4, [r1], -r4	; <UNPREDICTABLE>
   14a6c:	00014dd8 	ldrdeq	r4, [r1], -r8
   14a70:	00026074 	andeq	r6, r2, r4, ror r0
   14a74:	00026078 	andeq	r6, r2, r8, ror r0
   14a78:	00101002 	andseq	r1, r0, r2
   14a7c:	00014df8 	strdeq	r4, [r1], -r8
   14a80:	000261b0 			; <UNDEFINED> instruction: 0x000261b0
   14a84:	00014e04 	andeq	r4, r1, r4, lsl #28
   14a88:	00014e30 	andeq	r4, r1, r0, lsr lr
   14a8c:	00014e38 	andeq	r4, r1, r8, lsr lr
   14a90:	00014e48 	andeq	r4, r1, r8, asr #28
   14a94:	00014e78 	andeq	r4, r1, r8, ror lr

00014a98 <bcm2835_close>:
   14a98:	e92d4800 	push	{fp, lr}
   14a9c:	e28db004 	add	fp, sp, #4
   14aa0:	e59f30b4 	ldr	r3, [pc, #180]	; 14b5c <bcm2835_close+0xc4>
   14aa4:	e5d33000 	ldrb	r3, [r3]
   14aa8:	e3530000 	cmp	r3, #0
   14aac:	0a000001 	beq	14ab8 <bcm2835_close+0x20>
   14ab0:	e3a03001 	mov	r3, #1
   14ab4:	ea000026 	b	14b54 <bcm2835_close+0xbc>
   14ab8:	e59f30a0 	ldr	r3, [pc, #160]	; 14b60 <bcm2835_close+0xc8>
   14abc:	e5933000 	ldr	r3, [r3]
   14ac0:	e1a01003 	mov	r1, r3
   14ac4:	e59f0098 	ldr	r0, [pc, #152]	; 14b64 <bcm2835_close+0xcc>
   14ac8:	ebfffe9b 	bl	1453c <unmapmem>
   14acc:	e59f3090 	ldr	r3, [pc, #144]	; 14b64 <bcm2835_close+0xcc>
   14ad0:	e3e02000 	mvn	r2, #0
   14ad4:	e5832000 	str	r2, [r3]
   14ad8:	e59f3088 	ldr	r3, [pc, #136]	; 14b68 <bcm2835_close+0xd0>
   14adc:	e3e02000 	mvn	r2, #0
   14ae0:	e5832000 	str	r2, [r3]
   14ae4:	e59f3080 	ldr	r3, [pc, #128]	; 14b6c <bcm2835_close+0xd4>
   14ae8:	e3e02000 	mvn	r2, #0
   14aec:	e5832000 	str	r2, [r3]
   14af0:	e59f3078 	ldr	r3, [pc, #120]	; 14b70 <bcm2835_close+0xd8>
   14af4:	e3e02000 	mvn	r2, #0
   14af8:	e5832000 	str	r2, [r3]
   14afc:	e59f3070 	ldr	r3, [pc, #112]	; 14b74 <bcm2835_close+0xdc>
   14b00:	e3e02000 	mvn	r2, #0
   14b04:	e5832000 	str	r2, [r3]
   14b08:	e59f3068 	ldr	r3, [pc, #104]	; 14b78 <bcm2835_close+0xe0>
   14b0c:	e3e02000 	mvn	r2, #0
   14b10:	e5832000 	str	r2, [r3]
   14b14:	e59f3060 	ldr	r3, [pc, #96]	; 14b7c <bcm2835_close+0xe4>
   14b18:	e3e02000 	mvn	r2, #0
   14b1c:	e5832000 	str	r2, [r3]
   14b20:	e59f3058 	ldr	r3, [pc, #88]	; 14b80 <bcm2835_close+0xe8>
   14b24:	e3e02000 	mvn	r2, #0
   14b28:	e5832000 	str	r2, [r3]
   14b2c:	e59f3050 	ldr	r3, [pc, #80]	; 14b84 <bcm2835_close+0xec>
   14b30:	e3e02000 	mvn	r2, #0
   14b34:	e5832000 	str	r2, [r3]
   14b38:	e59f3048 	ldr	r3, [pc, #72]	; 14b88 <bcm2835_close+0xf0>
   14b3c:	e3e02000 	mvn	r2, #0
   14b40:	e5832000 	str	r2, [r3]
   14b44:	e59f3040 	ldr	r3, [pc, #64]	; 14b8c <bcm2835_close+0xf4>
   14b48:	e3e02000 	mvn	r2, #0
   14b4c:	e5832000 	str	r2, [r3]
   14b50:	e3a03001 	mov	r3, #1
   14b54:	e1a00003 	mov	r0, r3
   14b58:	e8bd8800 	pop	{fp, pc}
   14b5c:	000261b8 			; <UNDEFINED> instruction: 0x000261b8
   14b60:	00026078 	andeq	r6, r2, r8, ror r0
   14b64:	0002607c 	andeq	r6, r2, ip, ror r0
   14b68:	00026080 	andeq	r6, r2, r0, lsl #1
   14b6c:	00026084 	andeq	r6, r2, r4, lsl #1
   14b70:	00026088 	andeq	r6, r2, r8, lsl #1
   14b74:	0002608c 	andeq	r6, r2, ip, lsl #1
   14b78:	00026090 	muleq	r2, r0, r0
   14b7c:	00026094 	muleq	r2, r4, r0
   14b80:	00026098 	muleq	r2, r8, r0
   14b84:	0002609c 	muleq	r2, ip, r0
   14b88:	000260a0 	andeq	r6, r2, r0, lsr #1
   14b8c:	000260a4 	andeq	r6, r2, r4, lsr #1

00014b90 <__libc_csu_init>:
   14b90:	e92d47f0 	push	{r4, r5, r6, r7, r8, r9, sl, lr}
   14b94:	e1a07000 	mov	r7, r0
   14b98:	e59f6048 	ldr	r6, [pc, #72]	; 14be8 <__libc_csu_init+0x58>
   14b9c:	e59f5048 	ldr	r5, [pc, #72]	; 14bec <__libc_csu_init+0x5c>
   14ba0:	e08f6006 	add	r6, pc, r6
   14ba4:	e08f5005 	add	r5, pc, r5
   14ba8:	e0466005 	sub	r6, r6, r5
   14bac:	e1a08001 	mov	r8, r1
   14bb0:	e1a09002 	mov	r9, r2
   14bb4:	ebffeedd 	bl	10730 <_init>
   14bb8:	e1b06146 	asrs	r6, r6, #2
   14bbc:	08bd87f0 	popeq	{r4, r5, r6, r7, r8, r9, sl, pc}
   14bc0:	e3a04000 	mov	r4, #0
   14bc4:	e2844001 	add	r4, r4, #1
   14bc8:	e4953004 	ldr	r3, [r5], #4
   14bcc:	e1a02009 	mov	r2, r9
   14bd0:	e1a01008 	mov	r1, r8
   14bd4:	e1a00007 	mov	r0, r7
   14bd8:	e12fff33 	blx	r3
   14bdc:	e1560004 	cmp	r6, r4
   14be0:	1afffff7 	bne	14bc4 <__libc_csu_init+0x34>
   14be4:	e8bd87f0 	pop	{r4, r5, r6, r7, r8, r9, sl, pc}
   14be8:	00011350 	andeq	r1, r1, r0, asr r3
   14bec:	00011348 	andeq	r1, r1, r8, asr #6

00014bf0 <__libc_csu_fini>:
   14bf0:	e12fff1e 	bx	lr

Disassembly of section .fini:

00014bf4 <_fini>:
   14bf4:	e92d4008 	push	{r3, lr}
   14bf8:	e8bd8008 	pop	{r3, pc}

Disassembly of section .rodata:

00014bfc <_IO_stdin_used>:
   14bfc:	00020001 	andeq	r0, r2, r1
   14c00:	676f7250 			; <UNDEFINED> instruction: 0x676f7250
   14c04:	206d6172 	rsbcs	r6, sp, r2, ror r1
   14c08:	6e207369 	cdpvs	3, 2, cr7, cr0, cr9, {3}
   14c0c:	7320746f 			; <UNDEFINED> instruction: 0x7320746f
   14c10:	74726174 	ldrbtvc	r6, [r2], #-372	; 0xfffffe8c
   14c14:	61206465 			; <UNDEFINED> instruction: 0x61206465
   14c18:	72272073 	eorvc	r2, r7, #115	; 0x73
   14c1c:	27746f6f 	ldrbcs	r6, [r4, -pc, ror #30]!
   14c20:	75732820 	ldrbvc	r2, [r3, #-2080]!	; 0xfffff7e0
   14c24:	0a296f64 	beq	a709bc <__bss_end__+0xa4a7f8>
   14c28:	00000000 	andeq	r0, r0, r0
   14c2c:	326d6362 	rsbcc	r6, sp, #-2013265919	; 0x88000001
   14c30:	5f353338 	svcpl	0x00353338
   14c34:	74696e69 	strbtvc	r6, [r9], #-3689	; 0xfffff197
   14c38:	66202928 	strtvs	r2, [r0], -r8, lsr #18
   14c3c:	656c6961 	strbvs	r6, [ip, #-2401]!	; 0xfffff69f
   14c40:	00000a64 	andeq	r0, r0, r4, ror #20
   14c44:	74754f0a 	ldrbtvc	r4, [r5], #-3850	; 0xfffff0f6
   14c48:	20747570 	rsbscs	r7, r4, r0, ror r5
   14c4c:	48642528 	stmdami	r4!, {r3, r5, r8, sl, sp}^
   14c50:	0a3a297a 	beq	e9f240 <__bss_end__+0xe7907c>
   14c54:	00000000 	andeq	r0, r0, r0
   14c58:	61684309 	cmnvs	r8, r9, lsl #6
   14c5c:	6c656e6e 	stclvs	14, cr6, [r5], #-440	; 0xfffffe48
   14c60:	203a3020 	eorscs	r3, sl, r0, lsr #32
   14c64:	78343025 	ldmdavc	r4!, {r0, r2, r5, ip, sp}
   14c68:	30252d68 	eorcc	r2, r5, r8, ror #26
   14c6c:	2c687834 	stclcs	8, cr7, [r8], #-208	; 0xffffff30
   14c70:	6c754620 	ldclvs	6, cr4, [r5], #-128	; 0xffffff80
   14c74:	6e4f206c 	cdpvs	0, 4, cr2, cr15, cr12, {3}
   14c78:	0000000a 	andeq	r0, r0, sl
   14c7c:	61684309 	cmnvs	r8, r9, lsl #6
   14c80:	6c656e6e 	stclvs	14, cr6, [r5], #-440	; 0xfffffe48
   14c84:	203a3120 	eorscs	r3, sl, r0, lsr #2
   14c88:	78343025 	ldmdavc	r4!, {r0, r2, r5, ip, sp}
   14c8c:	30252d68 	eorcc	r2, r5, r8, ror #26
   14c90:	2c687834 	stclcs	8, cr7, [r8], #-208	; 0xffffff30
   14c94:	74754420 	ldrbtvc	r4, [r5], #-1056	; 0xfffffbe0
   14c98:	79432079 	stmdbvc	r3, {r0, r3, r4, r5, r6, sp}^
   14c9c:	20656c63 	rsbcs	r6, r5, r3, ror #24
   14ca0:	3035203d 	eorscc	r2, r5, sp, lsr r0
   14ca4:	000a2525 	andeq	r2, sl, r5, lsr #10
   14ca8:	61684309 	cmnvs	r8, r9, lsl #6
   14cac:	6c656e6e 	stclvs	14, cr6, [r5], #-440	; 0xfffffe48
   14cb0:	203a3220 	eorscs	r3, sl, r0, lsr #4
   14cb4:	78343025 	ldmdavc	r4!, {r0, r2, r5, ip, sp}
   14cb8:	30252d68 	eorcc	r2, r5, r8, ror #26
   14cbc:	2c687834 	stclcs	8, cr7, [r8], #-208	; 0xffffff30
   14cc0:	74754420 	ldrbtvc	r4, [r5], #-1056	; 0xfffffbe0
   14cc4:	79432079 	stmdbvc	r3, {r0, r3, r4, r5, r6, sp}^
   14cc8:	20656c63 	rsbcs	r6, r5, r3, ror #24
   14ccc:	3032203d 	eorscc	r2, r2, sp, lsr r0
   14cd0:	000a2525 	andeq	r2, sl, r5, lsr #10
   14cd4:	61684309 	cmnvs	r8, r9, lsl #6
   14cd8:	6c656e6e 	stclvs	14, cr6, [r5], #-440	; 0xfffffe48
   14cdc:	203a3320 	eorscs	r3, sl, r0, lsr #6
   14ce0:	78343025 	ldmdavc	r4!, {r0, r2, r5, ip, sp}
   14ce4:	30252d68 	eorcc	r2, r5, r8, ror #26
   14ce8:	2c687834 	stclcs	8, cr7, [r8], #-208	; 0xffffff30
   14cec:	6c754620 	ldclvs	6, cr4, [r5], #-128	; 0xffffff80
   14cf0:	664f206c 	strbvs	r2, [pc], -ip, rrx
   14cf4:	00000a66 	andeq	r0, r0, r6, ror #20
   14cf8:	326d6362 	rsbcc	r6, sp, #-2013265919	; 0x88000001
   14cfc:	5f353338 	svcpl	0x00353338
   14d00:	69726570 	ldmdbvs	r2!, {r4, r5, r6, r8, sl, sp, lr}^
   14d04:	6165725f 	cmnvs	r5, pc, asr r2
   14d08:	70202064 	eorvc	r2, r0, r4, rrx
   14d0c:	72646461 	rsbvc	r6, r4, #1627389952	; 0x61000000
   14d10:	0a702520 	beq	1c1e198 <__bss_end__+0x1bf7fd4>
   14d14:	00000000 	andeq	r0, r0, r0
   14d18:	326d6362 	rsbcc	r6, sp, #-2013265919	; 0x88000001
   14d1c:	5f353338 	svcpl	0x00353338
   14d20:	69726570 	ldmdbvs	r2!, {r4, r5, r6, r8, sl, sp, lr}^
   14d24:	6165725f 	cmnvs	r5, pc, asr r2
   14d28:	626e5f64 	rsbvs	r5, lr, #100, 30	; 0x190
   14d2c:	61702020 	cmnvs	r0, r0, lsr #32
   14d30:	20726464 	rsbscs	r6, r2, r4, ror #8
   14d34:	000a7025 	andeq	r7, sl, r5, lsr #32
   14d38:	326d6362 	rsbcc	r6, sp, #-2013265919	; 0x88000001
   14d3c:	5f353338 	svcpl	0x00353338
   14d40:	69726570 	ldmdbvs	r2!, {r4, r5, r6, r8, sl, sp, lr}^
   14d44:	6972775f 	ldmdbvs	r2!, {r0, r1, r2, r3, r4, r6, r8, r9, sl, ip, sp, lr}^
   14d48:	70206574 	eorvc	r6, r0, r4, ror r5
   14d4c:	72646461 	rsbvc	r6, r4, #1627389952	; 0x61000000
   14d50:	2c702520 	cfldr64cs	mvdx2, [r0], #-128	; 0xffffff80
   14d54:	6c617620 	stclvs	6, cr7, [r1], #-128	; 0xffffff80
   14d58:	25206575 	strcs	r6, [r0, #-1397]!	; 0xfffffa8b
   14d5c:	0a583830 	beq	1622e24 <__bss_end__+0x15fcc60>
   14d60:	00000000 	andeq	r0, r0, r0
   14d64:	326d6362 	rsbcc	r6, sp, #-2013265919	; 0x88000001
   14d68:	5f353338 	svcpl	0x00353338
   14d6c:	69726570 	ldmdbvs	r2!, {r4, r5, r6, r8, sl, sp, lr}^
   14d70:	6972775f 	ldmdbvs	r2!, {r0, r1, r2, r3, r4, r6, r8, r9, sl, ip, sp, lr}^
   14d74:	6e5f6574 	mrcvs	5, 2, r6, cr15, cr4, {3}
   14d78:	61702062 	cmnvs	r0, r2, rrx
   14d7c:	20726464 	rsbscs	r6, r2, r4, ror #8
   14d80:	202c7025 	eorcs	r7, ip, r5, lsr #32
   14d84:	756c6176 	strbvc	r6, [ip, #-374]!	; 0xfffffe8a
   14d88:	30252065 	eorcc	r2, r5, r5, rrx
   14d8c:	000a5838 	andeq	r5, sl, r8, lsr r8
   14d90:	326d6362 	rsbcc	r6, sp, #-2013265919	; 0x88000001
   14d94:	5f353338 	svcpl	0x00353338
   14d98:	616c6564 	cmnvs	ip, r4, ror #10
   14d9c:	63694d79 	cmnvs	r9, #7744	; 0x1e40
   14da0:	65736f72 	ldrbvs	r6, [r3, #-3954]!	; 0xfffff08e
   14da4:	646e6f63 	strbtvs	r6, [lr], #-3939	; 0xfffff09d
   14da8:	6c252073 	stcvs	0, cr2, [r5], #-460	; 0xfffffe34
   14dac:	000a646c 	andeq	r6, sl, ip, ror #8
   14db0:	326d6362 	rsbcc	r6, sp, #-2013265919	; 0x88000001
   14db4:	5f353338 	svcpl	0x00353338
   14db8:	74696e69 	strbtvc	r6, [r9], #-3689	; 0xfffff197
   14dbc:	7325203a 			; <UNDEFINED> instruction: 0x7325203a
   14dc0:	616d6d20 	cmnvs	sp, r0, lsr #26
   14dc4:	61662070 	smcvs	25088	; 0x6200
   14dc8:	64656c69 	strbtvs	r6, [r5], #-3177	; 0xfffff397
   14dcc:	7325203a 			; <UNDEFINED> instruction: 0x7325203a
   14dd0:	0000000a 	andeq	r0, r0, sl
   14dd4:	00006272 	andeq	r6, r0, r2, ror r2
   14dd8:	6f72702f 	svcvs	0x0072702f
   14ddc:	65642f63 	strbvs	r2, [r4, #-3939]!	; 0xfffff09d
   14de0:	65636976 	strbvs	r6, [r3, #-2422]!	; 0xfffff68a
   14de4:	6572742d 	ldrbvs	r7, [r2, #-1069]!	; 0xfffffbd3
   14de8:	6f732f65 	svcvs	0x00732f65
   14dec:	61722f63 	cmnvs	r2, r3, ror #30
   14df0:	7365676e 	cmnvc	r5, #28835840	; 0x1b80000
   14df4:	00000000 	andeq	r0, r0, r0
   14df8:	7665642f 	strbtvc	r6, [r5], -pc, lsr #8
   14dfc:	6d656d2f 	stclvs	13, cr6, [r5, #-188]!	; 0xffffff44
   14e00:	00000000 	andeq	r0, r0, r0
   14e04:	326d6362 	rsbcc	r6, sp, #-2013265919	; 0x88000001
   14e08:	5f353338 	svcpl	0x00353338
   14e0c:	74696e69 	strbtvc	r6, [r9], #-3689	; 0xfffff197
   14e10:	6e55203a 	mrcvs	0, 2, r2, cr5, cr10, {1}
   14e14:	656c6261 	strbvs	r6, [ip, #-609]!	; 0xfffffd9f
   14e18:	206f7420 	rsbcs	r7, pc, r0, lsr #8
   14e1c:	6e65706f 	cdpvs	0, 6, cr7, cr5, cr15, {3}
   14e20:	65642f20 	strbvs	r2, [r4, #-3872]!	; 0xfffff0e0
   14e24:	656d2f76 	strbvs	r2, [sp, #-3958]!	; 0xfffff08a
   14e28:	25203a6d 	strcs	r3, [r0, #-2669]!	; 0xfffff593
   14e2c:	00000a73 	andeq	r0, r0, r3, ror sl
   14e30:	6f697067 	svcvs	0x00697067
   14e34:	00000000 	andeq	r0, r0, r0
   14e38:	7665642f 	strbtvc	r6, [r5], -pc, lsr #8
   14e3c:	6970672f 	ldmdbvs	r0!, {r0, r1, r2, r3, r5, r8, r9, sl, sp, lr}^
   14e40:	6d656d6f 	stclvs	13, cr6, [r5, #-444]!	; 0xfffffe44
   14e44:	00000000 	andeq	r0, r0, r0
   14e48:	326d6362 	rsbcc	r6, sp, #-2013265919	; 0x88000001
   14e4c:	5f353338 	svcpl	0x00353338
   14e50:	74696e69 	strbtvc	r6, [r9], #-3689	; 0xfffff197
   14e54:	6e55203a 	mrcvs	0, 2, r2, cr5, cr10, {1}
   14e58:	656c6261 	strbvs	r6, [ip, #-609]!	; 0xfffffd9f
   14e5c:	206f7420 	rsbcs	r7, pc, r0, lsr #8
   14e60:	6e65706f 	cdpvs	0, 6, cr7, cr5, cr15, {3}
   14e64:	65642f20 	strbvs	r2, [r4, #-3872]!	; 0xfffff0e0
   14e68:	70672f76 	rsbvc	r2, r7, r6, ror pc
   14e6c:	656d6f69 	strbvs	r6, [sp, #-3945]!	; 0xfffff097
   14e70:	25203a6d 	strcs	r3, [r0, #-2669]!	; 0xfffff593
   14e74:	00000a73 	andeq	r0, r0, r3, ror sl
   14e78:	253a7025 	ldrcs	r7, [sl, #-37]!	; 0xffffffdb
   14e7c:	Address 0x00014e7c is out of bounds.


Disassembly of section .ARM.extab:

00014e80 <.ARM.extab>:
   14e80:	7fffb9b4 	svcvc	0x00ffb9b4
   14e84:	00028400 	andeq	r8, r2, r0, lsl #8
   14e88:	0f01ffff 	svceq	0x0001ffff
   14e8c:	00006014 	andeq	r6, r0, r4, lsl r0
   14e90:	f801fc78 			; <UNDEFINED> instruction: 0xf801fc78
   14e94:	03800002 	orreq	r0, r0, #2
   14e98:	Address 0x00014e98 is out of bounds.


Disassembly of section .ARM.exidx:

00014e9c <.ARM.exidx>:
   14e9c:	7fffb9c8 	svcvc	0x00ffb9c8
   14ea0:	7fffffe0 	svcvc	0x00ffffe0
   14ea4:	7fffbb68 	svcvc	0x00ffbb68
   14ea8:	00000001 	andeq	r0, r0, r1
   14eac:	7fffbe68 	svcvc	0x00ffbe68
   14eb0:	80a8b0b0 	strhthi	fp, [r8], r0
   14eb4:	7fffbe7c 	svcvc	0x00ffbe7c
   14eb8:	80028400 	andhi	r8, r2, r0, lsl #8
   14ebc:	7fffbeac 	svcvc	0x00ffbeac
   14ec0:	8001a8b0 			; <UNDEFINED> instruction: 0x8001a8b0
   14ec4:	7fffbeec 	svcvc	0x00ffbeec
   14ec8:	80aab0b0 	strhthi	fp, [sl], r0
   14ecc:	7fffbf68 	svcvc	0x00ffbf68
   14ed0:	00000001 	andeq	r0, r0, r1
   14ed4:	7fffbfbc 	svcvc	0x00ffbfbc
   14ed8:	80a8b0b0 	strhthi	fp, [r8], r0
   14edc:	7fffbfd4 	svcvc	0x00ffbfd4
   14ee0:	80aab0b0 	strhthi	fp, [sl], r0
   14ee4:	7fffbffc 	svcvc	0x00ffbffc
   14ee8:	80a8b0b0 	strhthi	fp, [r8], r0
   14eec:	7fffc008 	svcvc	0x00ffc008
   14ef0:	80aab0b0 	strhthi	fp, [sl], r0
   14ef4:	7fffc030 	svcvc	0x00ffc030
   14ef8:	80a8b0b0 	strhthi	fp, [r8], r0
   14efc:	7fffc040 	svcvc	0x00ffc040
   14f00:	80aab0b0 	strhthi	fp, [sl], r0
   14f04:	7fffc068 	svcvc	0x00ffc068
   14f08:	80a8b0b0 	strhthi	fp, [r8], r0
   14f0c:	7fffc078 	svcvc	0x00ffc078
   14f10:	80aab0b0 	strhthi	fp, [sl], r0
   14f14:	7fffc0b8 	svcvc	0x00ffc0b8
   14f18:	80acb0b0 	strhthi	fp, [ip], r0
   14f1c:	7fffc120 	svcvc	0x00ffc120
   14f20:	80aab0b0 	strhthi	fp, [sl], r0
   14f24:	7fffc148 	svcvc	0x00ffc148
   14f28:	80028400 	andhi	r8, r2, r0, lsl #8
   14f2c:	7fffc1d8 	svcvc	0x00ffc1d8
   14f30:	80acb0b0 	strhthi	fp, [ip], r0
   14f34:	7fffc228 	svcvc	0x00ffc228
   14f38:	00000001 	andeq	r0, r0, r1
   14f3c:	7fffc230 	svcvc	0x00ffc230
   14f40:	80028400 	andhi	r8, r2, r0, lsl #8
   14f44:	7fffc274 	svcvc	0x00ffc274
   14f48:	00000001 	andeq	r0, r0, r1
   14f4c:	7fffc284 	svcvc	0x00ffc284
   14f50:	80acb0b0 	strhthi	fp, [ip], r0
   14f54:	7fffc2dc 	svcvc	0x00ffc2dc
   14f58:	00000001 	andeq	r0, r0, r1

Disassembly of section .eh_frame:

00014f5c <__FRAME_END__>:
   14f5c:	00000000 	andeq	r0, r0, r0

Disassembly of section .init_array:

00025ef4 <__frame_dummy_init_array_entry>:
   25ef4:	00010afc 	strdeq	r0, [r1], -ip

Disassembly of section .fini_array:

00025ef8 <__do_global_dtors_aux_fini_array_entry>:
   25ef8:	00010ad4 	ldrdeq	r0, [r1], -r4

Disassembly of section .jcr:

00025efc <__JCR_END__>:
   25efc:	00000000 	andeq	r0, r0, r0

Disassembly of section .dynamic:

00025f00 <_DYNAMIC>:
   25f00:	00000001 	andeq	r0, r0, r1
   25f04:	00000001 	andeq	r0, r0, r1
   25f08:	00000001 	andeq	r0, r0, r1
   25f0c:	00000090 	muleq	r0, r0, r0
   25f10:	00000001 	andeq	r0, r0, r1
   25f14:	0000009a 	muleq	r0, sl, r0
   25f18:	00000001 	andeq	r0, r0, r1
   25f1c:	000000cd 	andeq	r0, r0, sp, asr #1
   25f20:	0000000c 	andeq	r0, r0, ip
   25f24:	00010730 	andeq	r0, r1, r0, lsr r7
   25f28:	0000000d 	andeq	r0, r0, sp
   25f2c:	00014bf4 	strdeq	r4, [r1], -r4	; <UNPREDICTABLE>
   25f30:	00000019 	andeq	r0, r0, r9, lsl r0
   25f34:	00025ef4 	strdeq	r5, [r2], -r4
   25f38:	0000001b 	andeq	r0, r0, fp, lsl r0
   25f3c:	00000004 	andeq	r0, r0, r4
   25f40:	0000001a 	andeq	r0, r0, sl, lsl r0
   25f44:	00025ef8 	strdeq	r5, [r2], -r8
   25f48:	0000001c 	andeq	r0, r0, ip, lsl r0
   25f4c:	00000004 	andeq	r0, r0, r4
   25f50:	6ffffef5 	svcvs	0x00fffef5
   25f54:	000101b4 			; <UNDEFINED> instruction: 0x000101b4
   25f58:	00000005 	andeq	r0, r0, r5
   25f5c:	00010444 	andeq	r0, r1, r4, asr #8
   25f60:	00000006 	andeq	r0, r0, r6
   25f64:	00010274 	andeq	r0, r1, r4, ror r2
   25f68:	0000000a 	andeq	r0, r0, sl
   25f6c:	00000189 	andeq	r0, r0, r9, lsl #3
   25f70:	0000000b 	andeq	r0, r0, fp
   25f74:	00000010 	andeq	r0, r0, r0, lsl r0
   25f78:	00000015 	andeq	r0, r0, r5, lsl r0
   25f7c:	00000000 	andeq	r0, r0, r0
   25f80:	00000003 	andeq	r0, r0, r3
   25f84:	00026000 	andeq	r6, r2, r0
   25f88:	00000002 	andeq	r0, r0, r2
   25f8c:	000000b8 	strheq	r0, [r0], -r8
   25f90:	00000014 	andeq	r0, r0, r4, lsl r0
   25f94:	00000011 	andeq	r0, r0, r1, lsl r0
   25f98:	00000017 	andeq	r0, r0, r7, lsl r0
   25f9c:	00010678 	andeq	r0, r1, r8, ror r6
   25fa0:	00000011 	andeq	r0, r0, r1, lsl r0
   25fa4:	00010668 	andeq	r0, r1, r8, ror #12
   25fa8:	00000012 	andeq	r0, r0, r2, lsl r0
   25fac:	00000010 	andeq	r0, r0, r0, lsl r0
   25fb0:	00000013 	andeq	r0, r0, r3, lsl r0
   25fb4:	00000008 	andeq	r0, r0, r8
   25fb8:	6ffffffe 	svcvs	0x00fffffe
   25fbc:	00010608 	andeq	r0, r1, r8, lsl #12
   25fc0:	6fffffff 	svcvs	0x00ffffff
   25fc4:	00000003 	andeq	r0, r0, r3
   25fc8:	6ffffff0 	svcvs	0x00fffff0
   25fcc:	000105ce 	andeq	r0, r1, lr, asr #11
	...

Disassembly of section .got:

00026000 <_GLOBAL_OFFSET_TABLE_>:
   26000:	00025f00 	andeq	r5, r2, r0, lsl #30
	...
   2600c:	0001073c 	andeq	r0, r1, ip, lsr r7
   26010:	0001073c 	andeq	r0, r1, ip, lsr r7
   26014:	0001073c 	andeq	r0, r1, ip, lsr r7
   26018:	0001073c 	andeq	r0, r1, ip, lsr r7
   2601c:	0001073c 	andeq	r0, r1, ip, lsr r7
   26020:	0001073c 	andeq	r0, r1, ip, lsr r7
   26024:	0001073c 	andeq	r0, r1, ip, lsr r7
   26028:	0001073c 	andeq	r0, r1, ip, lsr r7
   2602c:	0001073c 	andeq	r0, r1, ip, lsr r7
   26030:	0001073c 	andeq	r0, r1, ip, lsr r7
   26034:	0001073c 	andeq	r0, r1, ip, lsr r7
   26038:	0001073c 	andeq	r0, r1, ip, lsr r7
   2603c:	0001073c 	andeq	r0, r1, ip, lsr r7
   26040:	0001073c 	andeq	r0, r1, ip, lsr r7
   26044:	0001073c 	andeq	r0, r1, ip, lsr r7
   26048:	0001073c 	andeq	r0, r1, ip, lsr r7
   2604c:	0001073c 	andeq	r0, r1, ip, lsr r7
   26050:	0001073c 	andeq	r0, r1, ip, lsr r7
   26054:	0001073c 	andeq	r0, r1, ip, lsr r7
   26058:	0001073c 	andeq	r0, r1, ip, lsr r7
   2605c:	0001073c 	andeq	r0, r1, ip, lsr r7
   26060:	0001073c 	andeq	r0, r1, ip, lsr r7
   26064:	0001073c 	andeq	r0, r1, ip, lsr r7
   26068:	00000000 	andeq	r0, r0, r0

Disassembly of section .data:

0002606c <__data_start>:
   2606c:	00000000 	andeq	r0, r0, r0

00026070 <__dso_handle>:
   26070:	00000000 	andeq	r0, r0, r0

00026074 <bcm2835_peripherals_base>:
   26074:	20000000 	andcs	r0, r0, r0

00026078 <bcm2835_peripherals_size>:
   26078:	01000000 	mrseq	r0, (UNDEF: 0)

0002607c <bcm2835_peripherals>:
   2607c:	ffffffff 			; <UNDEFINED> instruction: 0xffffffff

00026080 <bcm2835_gpio>:
   26080:	ffffffff 			; <UNDEFINED> instruction: 0xffffffff

00026084 <bcm2835_pwm>:
   26084:	ffffffff 			; <UNDEFINED> instruction: 0xffffffff

00026088 <bcm2835_clk>:
   26088:	ffffffff 			; <UNDEFINED> instruction: 0xffffffff

0002608c <bcm2835_pads>:
   2608c:	ffffffff 			; <UNDEFINED> instruction: 0xffffffff

00026090 <bcm2835_spi0>:
   26090:	ffffffff 			; <UNDEFINED> instruction: 0xffffffff

00026094 <bcm2835_bsc0>:
   26094:	ffffffff 			; <UNDEFINED> instruction: 0xffffffff

00026098 <bcm2835_bsc1>:
   26098:	ffffffff 			; <UNDEFINED> instruction: 0xffffffff

0002609c <bcm2835_st>:
   2609c:	ffffffff 			; <UNDEFINED> instruction: 0xffffffff

000260a0 <bcm2835_aux>:
   260a0:	ffffffff 			; <UNDEFINED> instruction: 0xffffffff

000260a4 <bcm2835_spi1>:
   260a4:	ffffffff 			; <UNDEFINED> instruction: 0xffffffff

000260a8 <bcm2835_spi_bit_order>:
   260a8:	00000001 	andeq	r0, r0, r1

000260ac <bcm2835_byte_reverse_table>:
   260ac:	c0408000 	subgt	r8, r0, r0
   260b0:	e060a020 	rsb	sl, r0, r0, lsr #32
   260b4:	d0509010 	subsle	r9, r0, r0, lsl r0
   260b8:	f070b030 			; <UNDEFINED> instruction: 0xf070b030
   260bc:	c8488808 	stmdagt	r8, {r3, fp, pc}^
   260c0:	e868a828 	stmda	r8!, {r3, r5, fp, sp, pc}^
   260c4:	d8589818 	ldmdale	r8, {r3, r4, fp, ip, pc}^
   260c8:	f878b838 			; <UNDEFINED> instruction: 0xf878b838
   260cc:	c4448404 	strbgt	r8, [r4], #-1028	; 0xfffffbfc
   260d0:	e464a424 	strbt	sl, [r4], #-1060	; 0xfffffbdc
   260d4:	d4549414 	ldrble	r9, [r4], #-1044	; 0xfffffbec
   260d8:	f474b434 			; <UNDEFINED> instruction: 0xf474b434
   260dc:	cc4c8c0c 	mcrrgt	12, 0, r8, ip, cr12
   260e0:	ec6cac2c 	stcl	12, cr10, [ip], #-176	; 0xffffff50
   260e4:	dc5c9c1c 	mrrcle	12, 1, r9, ip, cr12
   260e8:	fc7cbc3c 	ldc2l	12, cr11, [ip], #-240	; 0xffffff10
   260ec:	c2428202 	subgt	r8, r2, #536870912	; 0x20000000
   260f0:	e262a222 	rsb	sl, r2, #536870914	; 0x20000002
   260f4:	d2529212 	subsle	r9, r2, #536870913	; 0x20000001
   260f8:	f272b232 	vqsub.s64	d27, d2, d18
   260fc:	ca4a8a0a 	bgt	12c892c <__bss_end__+0x12a2768>
   26100:	ea6aaa2a 	b	1ad09b0 <__bss_end__+0x1aaa7ec>
   26104:	da5a9a1a 	ble	16cc974 <__bss_end__+0x16a67b0>
   26108:	fa7aba3a 	blx	1ed49f8 <__bss_end__+0x1eae834>
   2610c:	c6468606 	strbgt	r8, [r6], -r6, lsl #12
   26110:	e666a626 	strbt	sl, [r6], -r6, lsr #12
   26114:	d6569616 			; <UNDEFINED> instruction: 0xd6569616
   26118:	f676b636 			; <UNDEFINED> instruction: 0xf676b636
   2611c:	ce4e8e0e 	cdpgt	14, 4, cr8, cr14, cr14, {0}
   26120:	ee6eae2e 	cdp	14, 6, cr10, cr14, cr14, {1}
   26124:	de5e9e1e 	mrcle	14, 2, r9, cr14, cr14, {0}
   26128:	fe7ebe3e 	mrc2	14, 3, fp, cr14, cr14, {1}
   2612c:	c1418101 	cmpgt	r1, r1, lsl #2
   26130:	e161a121 	cmn	r1, r1, lsr #2
   26134:	d1519111 	cmple	r1, r1, lsl r1
   26138:	f171b131 			; <UNDEFINED> instruction: 0xf171b131
   2613c:	c9498909 	stmdbgt	r9, {r0, r3, r8, fp, pc}^
   26140:	e969a929 	stmdb	r9!, {r0, r3, r5, r8, fp, sp, pc}^
   26144:	d9599919 	ldmdble	r9, {r0, r3, r4, r8, fp, ip, pc}^
   26148:	f979b939 			; <UNDEFINED> instruction: 0xf979b939
   2614c:	c5458505 	strbgt	r8, [r5, #-1285]	; 0xfffffafb
   26150:	e565a525 	strb	sl, [r5, #-1317]!	; 0xfffffadb
   26154:	d5559515 	ldrble	r9, [r5, #-1301]	; 0xfffffaeb
   26158:	f575b535 			; <UNDEFINED> instruction: 0xf575b535
   2615c:	cd4d8d0d 	stclgt	13, cr8, [sp, #-52]	; 0xffffffcc
   26160:	ed6dad2d 	stcl	13, cr10, [sp, #-180]!	; 0xffffff4c
   26164:	dd5d9d1d 	ldclle	13, cr9, [sp, #-116]	; 0xffffff8c
   26168:	fd7dbd3d 	ldc2l	13, cr11, [sp, #-244]!	; 0xffffff0c
   2616c:	c3438303 	movtgt	r8, #13059	; 0x3303
   26170:	e363a323 	cmn	r3, #-1946157056	; 0x8c000000
   26174:	d3539313 	cmple	r3, #1275068416	; 0x4c000000
   26178:	f373b333 	vcge.u<illegal width 64>	d27, d3, d19
   2617c:	cb4b8b0b 	blgt	1308db0 <__bss_end__+0x12e2bec>
   26180:	eb6bab2b 	bl	1b10e34 <__bss_end__+0x1aeac70>
   26184:	db5b9b1b 	blle	170cdf8 <__bss_end__+0x16e6c34>
   26188:	fb7bbb3b 	blx	1f14e7e <__bss_end__+0x1eeecba>
   2618c:	c7478707 	strbgt	r8, [r7, -r7, lsl #14]
   26190:	e767a727 	strb	sl, [r7, -r7, lsr #14]!
   26194:	d7579717 	smmlale	r7, r7, r7, r9
   26198:	f777b737 			; <UNDEFINED> instruction: 0xf777b737
   2619c:	cf4f8f0f 	svcgt	0x004f8f0f
   261a0:	ef6faf2f 	svc	0x006faf2f
   261a4:	df5f9f1f 	svcle	0x005f9f1f
   261a8:	ff7fbf3f 			; <UNDEFINED> instruction: 0xff7fbf3f

Disassembly of section .bss:

000261b0 <stderr@@GLIBC_2.4>:
   261b0:	00000000 	andeq	r0, r0, r0

000261b4 <completed.10395>:
   261b4:	00000000 	andeq	r0, r0, r0

000261b8 <debug>:
   261b8:	00000000 	andeq	r0, r0, r0

000261bc <i2c_byte_wait_us>:
   261bc:	00000000 	andeq	r0, r0, r0

000261c0 <spi1_speed>:
   261c0:	00000000 	andeq	r0, r0, r0

Disassembly of section .comment:

00000000 <.comment>:
   0:	3a434347 	bcc	10d0d24 <__bss_end__+0x10aab60>
   4:	61522820 	cmpvs	r2, r0, lsr #16
   8:	69627073 	stmdbvs	r2!, {r0, r1, r4, r5, r6, ip, sp, lr}^
   c:	36206e61 	strtcc	r6, [r0], -r1, ror #28
  10:	302e332e 	eorcc	r3, lr, lr, lsr #6
  14:	2b38312d 	blcs	e0c4d0 <__bss_end__+0xde630c>
  18:	31697072 	smccc	38658	; 0x9702
  1c:	6265642b 	rsbvs	r6, r5, #721420288	; 0x2b000000
  20:	29317539 	ldmdbcs	r1!, {r0, r3, r4, r5, r8, sl, ip, sp, lr}
  24:	332e3620 			; <UNDEFINED> instruction: 0x332e3620
  28:	3220302e 	eorcc	r3, r0, #46	; 0x2e
  2c:	30373130 	eorscc	r3, r7, r0, lsr r1
  30:	00363135 	eorseq	r3, r6, r5, lsr r1

Disassembly of section .ARM.attributes:

00000000 <.ARM.attributes>:
   0:	00002e41 	andeq	r2, r0, r1, asr #28
   4:	61656100 	cmnvs	r5, r0, lsl #2
   8:	01006962 	tsteq	r0, r2, ror #18
   c:	00000024 	andeq	r0, r0, r4, lsr #32
  10:	06003605 	streq	r3, [r0], -r5, lsl #12
  14:	09010806 	stmdbeq	r1, {r1, r2, fp}
  18:	12020a01 	andne	r0, r2, #4096	; 0x1000
  1c:	14011304 	strne	r1, [r1], #-772	; 0xfffffcfc
  20:	17011501 	strne	r1, [r1, -r1, lsl #10]
  24:	19011803 	stmdbne	r1, {r0, r1, fp, ip}
  28:	1c021a01 			; <UNDEFINED> instruction: 0x1c021a01
  2c:	Address 0x0000002c is out of bounds.

