In archive lib_linux/libmidi.a:

midi.o:     file format elf64-x86-64


Disassembly of section .text._ZN4MidiC2Ev:

0000000000000000 <Midi::Midi()>:
   0:	f3 0f 1e fa          	endbr64 
   4:	55                   	push   %rbp
   5:	48 89 e5             	mov    %rsp,%rbp
   8:	48 89 7d f8          	mov    %rdi,-0x8(%rbp)
   c:	48 8b 45 f8          	mov    -0x8(%rbp),%rax
  10:	c7 00 12 7a 00 00    	movl   $0x7a12,(%rax)
  16:	48 8b 45 f8          	mov    -0x8(%rbp),%rax
  1a:	c7 40 04 01 00 00 00 	movl   $0x1,0x4(%rax)
  21:	48 8b 45 f8          	mov    -0x8(%rbp),%rax
  25:	c6 40 08 00          	movb   $0x0,0x8(%rax)
  29:	48 8b 45 f8          	mov    -0x8(%rbp),%rax
  2d:	c6 80 98 00 00 00 00 	movb   $0x0,0x98(%rax)
  34:	48 8b 45 f8          	mov    -0x8(%rbp),%rax
  38:	c6 80 99 00 00 00 00 	movb   $0x0,0x99(%rax)
  3f:	48 8b 45 f8          	mov    -0x8(%rbp),%rax
  43:	c6 80 9a 00 00 00 00 	movb   $0x0,0x9a(%rax)
  4a:	48 8b 45 f8          	mov    -0x8(%rbp),%rax
  4e:	c6 80 9b 00 00 00 00 	movb   $0x0,0x9b(%rax)
  55:	48 8b 45 f8          	mov    -0x8(%rbp),%rax
  59:	48 89 05 00 00 00 00 	mov    %rax,0x0(%rip)        # 60 <Midi::Midi()+0x60>
  60:	90                   	nop
  61:	5d                   	pop    %rbp
  62:	c3                   	ret    

mididescription.o:     file format elf64-x86-64


Disassembly of section .text._ZN15MidiDescription7GetTypeEN4midi5TypesE:

0000000000000000 <MidiDescription::GetType(midi::Types)>:
   0:	f3 0f 1e fa          	endbr64 
   4:	55                   	push   %rbp
   5:	48 89 e5             	mov    %rsp,%rbp
   8:	89 f8                	mov    %edi,%eax
   a:	88 45 fc             	mov    %al,-0x4(%rbp)
   d:	80 7d fc 00          	cmpb   $0x0,-0x4(%rbp)
  11:	74 3d                	je     50 <MidiDescription::GetType(midi::Types)+0x50>
  13:	80 7d fc 80          	cmpb   $0x80,-0x4(%rbp)
  17:	0f 82 ff 00 00 00    	jb     11c <MidiDescription::GetType(midi::Types)+0x11c>
  1d:	0f b6 45 fc          	movzbl -0x4(%rbp),%eax
  21:	83 c0 80             	add    $0xffffff80,%eax
  24:	3c 7f                	cmp    $0x7f,%al
  26:	0f 87 f0 00 00 00    	ja     11c <MidiDescription::GetType(midi::Types)+0x11c>
  2c:	0f b6 c0             	movzbl %al,%eax
  2f:	48 8d 14 85 00 00 00 	lea    0x0(,%rax,4),%rdx
  36:	00 
  37:	48 8d 05 00 00 00 00 	lea    0x0(%rip),%rax        # 3e <MidiDescription::GetType(midi::Types)+0x3e>
  3e:	8b 04 02             	mov    (%rdx,%rax,1),%eax
  41:	48 98                	cltq   
  43:	48 8d 15 00 00 00 00 	lea    0x0(%rip),%rdx        # 4a <MidiDescription::GetType(midi::Types)+0x4a>
  4a:	48 01 d0             	add    %rdx,%rax
  4d:	3e ff e0             	notrack jmp *%rax
  50:	48 8d 05 00 00 00 00 	lea    0x0(%rip),%rax        # 57 <MidiDescription::GetType(midi::Types)+0x57>
  57:	e9 c7 00 00 00       	jmp    123 <MidiDescription::GetType(midi::Types)+0x123>
  5c:	48 8d 05 00 00 00 00 	lea    0x0(%rip),%rax        # 63 <MidiDescription::GetType(midi::Types)+0x63>
  63:	e9 bb 00 00 00       	jmp    123 <MidiDescription::GetType(midi::Types)+0x123>
  68:	48 8d 05 00 00 00 00 	lea    0x0(%rip),%rax        # 6f <MidiDescription::GetType(midi::Types)+0x6f>
  6f:	e9 af 00 00 00       	jmp    123 <MidiDescription::GetType(midi::Types)+0x123>
  74:	48 8d 05 00 00 00 00 	lea    0x0(%rip),%rax        # 7b <MidiDescription::GetType(midi::Types)+0x7b>
  7b:	e9 a3 00 00 00       	jmp    123 <MidiDescription::GetType(midi::Types)+0x123>
  80:	80 7d fc 77          	cmpb   $0x77,-0x4(%rbp)
  84:	77 0c                	ja     92 <MidiDescription::GetType(midi::Types)+0x92>
  86:	48 8d 05 00 00 00 00 	lea    0x0(%rip),%rax        # 8d <MidiDescription::GetType(midi::Types)+0x8d>
  8d:	e9 91 00 00 00       	jmp    123 <MidiDescription::GetType(midi::Types)+0x123>
  92:	48 8d 05 00 00 00 00 	lea    0x0(%rip),%rax        # 99 <MidiDescription::GetType(midi::Types)+0x99>
  99:	e9 85 00 00 00       	jmp    123 <MidiDescription::GetType(midi::Types)+0x123>
  9e:	48 8d 05 00 00 00 00 	lea    0x0(%rip),%rax        # a5 <MidiDescription::GetType(midi::Types)+0xa5>
  a5:	eb 7c                	jmp    123 <MidiDescription::GetType(midi::Types)+0x123>
  a7:	48 8d 05 00 00 00 00 	lea    0x0(%rip),%rax        # ae <MidiDescription::GetType(midi::Types)+0xae>
  ae:	eb 73                	jmp    123 <MidiDescription::GetType(midi::Types)+0x123>
  b0:	48 8d 05 00 00 00 00 	lea    0x0(%rip),%rax        # b7 <MidiDescription::GetType(midi::Types)+0xb7>
  b7:	eb 6a                	jmp    123 <MidiDescription::GetType(midi::Types)+0x123>
  b9:	48 8d 05 00 00 00 00 	lea    0x0(%rip),%rax        # c0 <MidiDescription::GetType(midi::Types)+0xc0>
  c0:	eb 61                	jmp    123 <MidiDescription::GetType(midi::Types)+0x123>
  c2:	48 8d 05 00 00 00 00 	lea    0x0(%rip),%rax        # c9 <MidiDescription::GetType(midi::Types)+0xc9>
  c9:	eb 58                	jmp    123 <MidiDescription::GetType(midi::Types)+0x123>
  cb:	48 8d 05 00 00 00 00 	lea    0x0(%rip),%rax        # d2 <MidiDescription::GetType(midi::Types)+0xd2>
  d2:	eb 4f                	jmp    123 <MidiDescription::GetType(midi::Types)+0x123>
  d4:	48 8d 05 00 00 00 00 	lea    0x0(%rip),%rax        # db <MidiDescription::GetType(midi::Types)+0xdb>
  db:	eb 46                	jmp    123 <MidiDescription::GetType(midi::Types)+0x123>
  dd:	48 8d 05 00 00 00 00 	lea    0x0(%rip),%rax        # e4 <MidiDescription::GetType(midi::Types)+0xe4>
  e4:	eb 3d                	jmp    123 <MidiDescription::GetType(midi::Types)+0x123>
  e6:	48 8d 05 00 00 00 00 	lea    0x0(%rip),%rax        # ed <MidiDescription::GetType(midi::Types)+0xed>
  ed:	eb 34                	jmp    123 <MidiDescription::GetType(midi::Types)+0x123>
  ef:	48 8d 05 00 00 00 00 	lea    0x0(%rip),%rax        # f6 <MidiDescription::GetType(midi::Types)+0xf6>
  f6:	eb 2b                	jmp    123 <MidiDescription::GetType(midi::Types)+0x123>
  f8:	48 8d 05 00 00 00 00 	lea    0x0(%rip),%rax        # ff <MidiDescription::GetType(midi::Types)+0xff>
  ff:	eb 22                	jmp    123 <MidiDescription::GetType(midi::Types)+0x123>
 101:	48 8d 05 00 00 00 00 	lea    0x0(%rip),%rax        # 108 <MidiDescription::GetType(midi::Types)+0x108>
 108:	eb 19                	jmp    123 <MidiDescription::GetType(midi::Types)+0x123>
 10a:	48 8d 05 00 00 00 00 	lea    0x0(%rip),%rax        # 111 <MidiDescription::GetType(midi::Types)+0x111>
 111:	eb 10                	jmp    123 <MidiDescription::GetType(midi::Types)+0x123>
 113:	48 8d 05 00 00 00 00 	lea    0x0(%rip),%rax        # 11a <MidiDescription::GetType(midi::Types)+0x11a>
 11a:	eb 07                	jmp    123 <MidiDescription::GetType(midi::Types)+0x123>
 11c:	48 8d 05 00 00 00 00 	lea    0x0(%rip),%rax        # 123 <MidiDescription::GetType(midi::Types)+0x123>
 123:	5d                   	pop    %rbp
 124:	c3                   	ret    

Disassembly of section .text._ZN15MidiDescription16GetControlChangeEN4midi7control6ChangeE:

0000000000000000 <MidiDescription::GetControlChange(midi::control::Change)>:
   0:	f3 0f 1e fa          	endbr64 
   4:	55                   	push   %rbp
   5:	48 89 e5             	mov    %rsp,%rbp
   8:	89 f8                	mov    %edi,%eax
   a:	88 45 fc             	mov    %al,-0x4(%rbp)
   d:	0f b6 45 fc          	movzbl -0x4(%rbp),%eax
  11:	83 e8 78             	sub    $0x78,%eax
  14:	3c 07                	cmp    $0x7,%al
  16:	77 6c                	ja     84 <MidiDescription::GetControlChange(midi::control::Change)+0x84>
  18:	0f b6 c0             	movzbl %al,%eax
  1b:	48 8d 14 85 00 00 00 	lea    0x0(,%rax,4),%rdx
  22:	00 
  23:	48 8d 05 00 00 00 00 	lea    0x0(%rip),%rax        # 2a <MidiDescription::GetControlChange(midi::control::Change)+0x2a>
  2a:	8b 04 02             	mov    (%rdx,%rax,1),%eax
  2d:	48 98                	cltq   
  2f:	48 8d 15 00 00 00 00 	lea    0x0(%rip),%rdx        # 36 <MidiDescription::GetControlChange(midi::control::Change)+0x36>
  36:	48 01 d0             	add    %rdx,%rax
  39:	3e ff e0             	notrack jmp *%rax
  3c:	48 8d 05 00 00 00 00 	lea    0x0(%rip),%rax        # 43 <MidiDescription::GetControlChange(midi::control::Change)+0x43>
  43:	eb 46                	jmp    8b <MidiDescription::GetControlChange(midi::control::Change)+0x8b>
  45:	48 8d 05 00 00 00 00 	lea    0x0(%rip),%rax        # 4c <MidiDescription::GetControlChange(midi::control::Change)+0x4c>
  4c:	eb 3d                	jmp    8b <MidiDescription::GetControlChange(midi::control::Change)+0x8b>
  4e:	48 8d 05 00 00 00 00 	lea    0x0(%rip),%rax        # 55 <MidiDescription::GetControlChange(midi::control::Change)+0x55>
  55:	eb 34                	jmp    8b <MidiDescription::GetControlChange(midi::control::Change)+0x8b>
  57:	48 8d 05 00 00 00 00 	lea    0x0(%rip),%rax        # 5e <MidiDescription::GetControlChange(midi::control::Change)+0x5e>
  5e:	eb 2b                	jmp    8b <MidiDescription::GetControlChange(midi::control::Change)+0x8b>
  60:	48 8d 05 00 00 00 00 	lea    0x0(%rip),%rax        # 67 <MidiDescription::GetControlChange(midi::control::Change)+0x67>
  67:	eb 22                	jmp    8b <MidiDescription::GetControlChange(midi::control::Change)+0x8b>
  69:	48 8d 05 00 00 00 00 	lea    0x0(%rip),%rax        # 70 <MidiDescription::GetControlChange(midi::control::Change)+0x70>
  70:	eb 19                	jmp    8b <MidiDescription::GetControlChange(midi::control::Change)+0x8b>
  72:	48 8d 05 00 00 00 00 	lea    0x0(%rip),%rax        # 79 <MidiDescription::GetControlChange(midi::control::Change)+0x79>
  79:	eb 10                	jmp    8b <MidiDescription::GetControlChange(midi::control::Change)+0x8b>
  7b:	48 8d 05 00 00 00 00 	lea    0x0(%rip),%rax        # 82 <MidiDescription::GetControlChange(midi::control::Change)+0x82>
  82:	eb 07                	jmp    8b <MidiDescription::GetControlChange(midi::control::Change)+0x8b>
  84:	48 8d 05 00 00 00 00 	lea    0x0(%rip),%rax        # 8b <MidiDescription::GetControlChange(midi::control::Change)+0x8b>
  8b:	5d                   	pop    %rbp
  8c:	c3                   	ret    

Disassembly of section .text._ZN15MidiDescription18GetControlFunctionEN4midi7control8FunctionE:

0000000000000000 <MidiDescription::GetControlFunction(midi::control::Function)>:
   0:	f3 0f 1e fa          	endbr64 
   4:	55                   	push   %rbp
   5:	48 89 e5             	mov    %rsp,%rbp
   8:	89 f8                	mov    %edi,%eax
   a:	88 45 ec             	mov    %al,-0x14(%rbp)
   d:	0f b6 45 ec          	movzbl -0x14(%rbp),%eax
  11:	88 45 ff             	mov    %al,-0x1(%rbp)
  14:	80 7d ff 13          	cmpb   $0x13,-0x1(%rbp)
  18:	76 12                	jbe    2c <MidiDescription::GetControlFunction(midi::control::Function)+0x2c>
  1a:	80 7d ff 1f          	cmpb   $0x1f,-0x1(%rbp)
  1e:	77 0c                	ja     2c <MidiDescription::GetControlFunction(midi::control::Function)+0x2c>
  20:	48 8d 05 00 00 00 00 	lea    0x0(%rip),%rax        # 27 <MidiDescription::GetControlFunction(midi::control::Function)+0x27>
  27:	e9 38 01 00 00       	jmp    164 <MidiDescription::GetControlFunction(midi::control::Function)+0x164>
  2c:	80 7d ff 65          	cmpb   $0x65,-0x1(%rbp)
  30:	76 12                	jbe    44 <MidiDescription::GetControlFunction(midi::control::Function)+0x44>
  32:	80 7d ff 77          	cmpb   $0x77,-0x1(%rbp)
  36:	77 0c                	ja     44 <MidiDescription::GetControlFunction(midi::control::Function)+0x44>
  38:	48 8d 05 00 00 00 00 	lea    0x0(%rip),%rax        # 3f <MidiDescription::GetControlFunction(midi::control::Function)+0x3f>
  3f:	e9 20 01 00 00       	jmp    164 <MidiDescription::GetControlFunction(midi::control::Function)+0x164>
  44:	80 7d ec 45          	cmpb   $0x45,-0x14(%rbp)
  48:	0f 87 0f 01 00 00    	ja     15d <MidiDescription::GetControlFunction(midi::control::Function)+0x15d>
  4e:	0f b6 45 ec          	movzbl -0x14(%rbp),%eax
  52:	48 8d 14 85 00 00 00 	lea    0x0(,%rax,4),%rdx
  59:	00 
  5a:	48 8d 05 00 00 00 00 	lea    0x0(%rip),%rax        # 61 <MidiDescription::GetControlFunction(midi::control::Function)+0x61>
  61:	8b 04 02             	mov    (%rdx,%rax,1),%eax
  64:	48 98                	cltq   
  66:	48 8d 15 00 00 00 00 	lea    0x0(%rip),%rdx        # 6d <MidiDescription::GetControlFunction(midi::control::Function)+0x6d>
  6d:	48 01 d0             	add    %rdx,%rax
  70:	3e ff e0             	notrack jmp *%rax
  73:	48 8d 05 00 00 00 00 	lea    0x0(%rip),%rax        # 7a <MidiDescription::GetControlFunction(midi::control::Function)+0x7a>
  7a:	e9 e5 00 00 00       	jmp    164 <MidiDescription::GetControlFunction(midi::control::Function)+0x164>
  7f:	48 8d 05 00 00 00 00 	lea    0x0(%rip),%rax        # 86 <MidiDescription::GetControlFunction(midi::control::Function)+0x86>
  86:	e9 d9 00 00 00       	jmp    164 <MidiDescription::GetControlFunction(midi::control::Function)+0x164>
  8b:	48 8d 05 00 00 00 00 	lea    0x0(%rip),%rax        # 92 <MidiDescription::GetControlFunction(midi::control::Function)+0x92>
  92:	e9 cd 00 00 00       	jmp    164 <MidiDescription::GetControlFunction(midi::control::Function)+0x164>
  97:	48 8d 05 00 00 00 00 	lea    0x0(%rip),%rax        # 9e <MidiDescription::GetControlFunction(midi::control::Function)+0x9e>
  9e:	e9 c1 00 00 00       	jmp    164 <MidiDescription::GetControlFunction(midi::control::Function)+0x164>
  a3:	48 8d 05 00 00 00 00 	lea    0x0(%rip),%rax        # aa <MidiDescription::GetControlFunction(midi::control::Function)+0xaa>
  aa:	e9 b5 00 00 00       	jmp    164 <MidiDescription::GetControlFunction(midi::control::Function)+0x164>
  af:	48 8d 05 00 00 00 00 	lea    0x0(%rip),%rax        # b6 <MidiDescription::GetControlFunction(midi::control::Function)+0xb6>
  b6:	e9 a9 00 00 00       	jmp    164 <MidiDescription::GetControlFunction(midi::control::Function)+0x164>
  bb:	48 8d 05 00 00 00 00 	lea    0x0(%rip),%rax        # c2 <MidiDescription::GetControlFunction(midi::control::Function)+0xc2>
  c2:	e9 9d 00 00 00       	jmp    164 <MidiDescription::GetControlFunction(midi::control::Function)+0x164>
  c7:	48 8d 05 00 00 00 00 	lea    0x0(%rip),%rax        # ce <MidiDescription::GetControlFunction(midi::control::Function)+0xce>
  ce:	e9 91 00 00 00       	jmp    164 <MidiDescription::GetControlFunction(midi::control::Function)+0x164>
  d3:	48 8d 05 00 00 00 00 	lea    0x0(%rip),%rax        # da <MidiDescription::GetControlFunction(midi::control::Function)+0xda>
  da:	e9 85 00 00 00       	jmp    164 <MidiDescription::GetControlFunction(midi::control::Function)+0x164>
  df:	48 8d 05 00 00 00 00 	lea    0x0(%rip),%rax        # e6 <MidiDescription::GetControlFunction(midi::control::Function)+0xe6>
  e6:	eb 7c                	jmp    164 <MidiDescription::GetControlFunction(midi::control::Function)+0x164>
  e8:	48 8d 05 00 00 00 00 	lea    0x0(%rip),%rax        # ef <MidiDescription::GetControlFunction(midi::control::Function)+0xef>
  ef:	eb 73                	jmp    164 <MidiDescription::GetControlFunction(midi::control::Function)+0x164>
  f1:	48 8d 05 00 00 00 00 	lea    0x0(%rip),%rax        # f8 <MidiDescription::GetControlFunction(midi::control::Function)+0xf8>
  f8:	eb 6a                	jmp    164 <MidiDescription::GetControlFunction(midi::control::Function)+0x164>
  fa:	48 8d 05 00 00 00 00 	lea    0x0(%rip),%rax        # 101 <MidiDescription::GetControlFunction(midi::control::Function)+0x101>
 101:	eb 61                	jmp    164 <MidiDescription::GetControlFunction(midi::control::Function)+0x164>
 103:	48 8d 05 00 00 00 00 	lea    0x0(%rip),%rax        # 10a <MidiDescription::GetControlFunction(midi::control::Function)+0x10a>
 10a:	eb 58                	jmp    164 <MidiDescription::GetControlFunction(midi::control::Function)+0x164>
 10c:	48 8d 05 00 00 00 00 	lea    0x0(%rip),%rax        # 113 <MidiDescription::GetControlFunction(midi::control::Function)+0x113>
 113:	eb 4f                	jmp    164 <MidiDescription::GetControlFunction(midi::control::Function)+0x164>
 115:	48 8d 05 00 00 00 00 	lea    0x0(%rip),%rax        # 11c <MidiDescription::GetControlFunction(midi::control::Function)+0x11c>
 11c:	eb 46                	jmp    164 <MidiDescription::GetControlFunction(midi::control::Function)+0x164>
 11e:	48 8d 05 00 00 00 00 	lea    0x0(%rip),%rax        # 125 <MidiDescription::GetControlFunction(midi::control::Function)+0x125>
 125:	eb 3d                	jmp    164 <MidiDescription::GetControlFunction(midi::control::Function)+0x164>
 127:	48 8d 05 00 00 00 00 	lea    0x0(%rip),%rax        # 12e <MidiDescription::GetControlFunction(midi::control::Function)+0x12e>
 12e:	eb 34                	jmp    164 <MidiDescription::GetControlFunction(midi::control::Function)+0x164>
 130:	48 8d 05 00 00 00 00 	lea    0x0(%rip),%rax        # 137 <MidiDescription::GetControlFunction(midi::control::Function)+0x137>
 137:	eb 2b                	jmp    164 <MidiDescription::GetControlFunction(midi::control::Function)+0x164>
 139:	48 8d 05 00 00 00 00 	lea    0x0(%rip),%rax        # 140 <MidiDescription::GetControlFunction(midi::control::Function)+0x140>
 140:	eb 22                	jmp    164 <MidiDescription::GetControlFunction(midi::control::Function)+0x164>
 142:	48 8d 05 00 00 00 00 	lea    0x0(%rip),%rax        # 149 <MidiDescription::GetControlFunction(midi::control::Function)+0x149>
 149:	eb 19                	jmp    164 <MidiDescription::GetControlFunction(midi::control::Function)+0x164>
 14b:	48 8d 05 00 00 00 00 	lea    0x0(%rip),%rax        # 152 <MidiDescription::GetControlFunction(midi::control::Function)+0x152>
 152:	eb 10                	jmp    164 <MidiDescription::GetControlFunction(midi::control::Function)+0x164>
 154:	48 8d 05 00 00 00 00 	lea    0x0(%rip),%rax        # 15b <MidiDescription::GetControlFunction(midi::control::Function)+0x15b>
 15b:	eb 07                	jmp    164 <MidiDescription::GetControlFunction(midi::control::Function)+0x164>
 15d:	48 8d 05 00 00 00 00 	lea    0x0(%rip),%rax        # 164 <MidiDescription::GetControlFunction(midi::control::Function)+0x164>
 164:	5d                   	pop    %rbp
 165:	c3                   	ret    

Disassembly of section .text._ZN15MidiDescription10GetKeyNameEh:

0000000000000000 <MidiDescription::GetKeyName(unsigned char)>:
   0:	f3 0f 1e fa          	endbr64 
   4:	55                   	push   %rbp
   5:	48 89 e5             	mov    %rsp,%rbp
   8:	48 83 ec 20          	sub    $0x20,%rsp
   c:	89 f8                	mov    %edi,%eax
   e:	88 45 ec             	mov    %al,-0x14(%rbp)
  11:	0f b6 45 ec          	movzbl -0x14(%rbp),%eax
  15:	84 c0                	test   %al,%al
  17:	79 0c                	jns    25 <MidiDescription::GetKeyName(unsigned char)+0x25>
  19:	48 8d 05 00 00 00 00 	lea    0x0(%rip),%rax        # 20 <MidiDescription::GetKeyName(unsigned char)+0x20>
  20:	e9 8d 00 00 00       	jmp    b2 <MidiDescription::GetKeyName(unsigned char)+0xb2>
  25:	0f b6 4d ec          	movzbl -0x14(%rbp),%ecx
  29:	ba ab ff ff ff       	mov    $0xffffffab,%edx
  2e:	89 d0                	mov    %edx,%eax
  30:	f6 e1                	mul    %cl
  32:	66 c1 e8 08          	shr    $0x8,%ax
  36:	89 c2                	mov    %eax,%edx
  38:	c0 ea 03             	shr    $0x3,%dl
  3b:	89 d0                	mov    %edx,%eax
  3d:	01 c0                	add    %eax,%eax
  3f:	01 d0                	add    %edx,%eax
  41:	c1 e0 02             	shl    $0x2,%eax
  44:	29 c1                	sub    %eax,%ecx
  46:	89 ca                	mov    %ecx,%edx
  48:	0f b6 c2             	movzbl %dl,%eax
  4b:	89 45 f8             	mov    %eax,-0x8(%rbp)
  4e:	0f b6 45 ec          	movzbl -0x14(%rbp),%eax
  52:	ba ab ff ff ff       	mov    $0xffffffab,%edx
  57:	f6 e2                	mul    %dl
  59:	66 c1 e8 08          	shr    $0x8,%ax
  5d:	c0 e8 03             	shr    $0x3,%al
  60:	0f b6 c0             	movzbl %al,%eax
  63:	89 45 fc             	mov    %eax,-0x4(%rbp)
  66:	8b 45 f8             	mov    -0x8(%rbp),%eax
  69:	48 63 d0             	movslq %eax,%rdx
  6c:	48 89 d0             	mov    %rdx,%rax
  6f:	48 01 c0             	add    %rax,%rax
  72:	48 01 d0             	add    %rdx,%rax
  75:	48 8d 15 00 00 00 00 	lea    0x0(%rip),%rdx        # 7c <MidiDescription::GetKeyName(unsigned char)+0x7c>
  7c:	48 01 d0             	add    %rdx,%rax
  7f:	8b 55 fc             	mov    -0x4(%rbp),%edx
  82:	41 89 d0             	mov    %edx,%r8d
  85:	48 89 c1             	mov    %rax,%rcx
  88:	48 8d 05 00 00 00 00 	lea    0x0(%rip),%rax        # 8f <MidiDescription::GetKeyName(unsigned char)+0x8f>
  8f:	48 89 c2             	mov    %rax,%rdx
  92:	be 07 00 00 00       	mov    $0x7,%esi
  97:	48 8d 05 00 00 00 00 	lea    0x0(%rip),%rax        # 9e <MidiDescription::GetKeyName(unsigned char)+0x9e>
  9e:	48 89 c7             	mov    %rax,%rdi
  a1:	b8 00 00 00 00       	mov    $0x0,%eax
  a6:	e8 00 00 00 00       	call   ab <MidiDescription::GetKeyName(unsigned char)+0xab>
  ab:	48 8d 05 00 00 00 00 	lea    0x0(%rip),%rax        # b2 <MidiDescription::GetKeyName(unsigned char)+0xb2>
  b2:	c9                   	leave  
  b3:	c3                   	ret    

Disassembly of section .text._ZN15MidiDescription14GetDrumKitNameEh:

0000000000000000 <MidiDescription::GetDrumKitName(unsigned char)>:
   0:	f3 0f 1e fa          	endbr64 
   4:	55                   	push   %rbp
   5:	48 89 e5             	mov    %rsp,%rbp
   8:	89 f8                	mov    %edi,%eax
   a:	88 45 ec             	mov    %al,-0x14(%rbp)
   d:	48 c7 45 f8 08 00 00 	movq   $0x8,-0x8(%rbp)
  14:	00 
  15:	c7 45 f4 00 00 00 00 	movl   $0x0,-0xc(%rbp)
  1c:	eb 47                	jmp    65 <MidiDescription::GetDrumKitName(unsigned char)+0x65>
  1e:	8b 45 f4             	mov    -0xc(%rbp),%eax
  21:	48 89 c2             	mov    %rax,%rdx
  24:	48 c1 e2 04          	shl    $0x4,%rdx
  28:	48 01 c2             	add    %rax,%rdx
  2b:	48 8d 05 00 00 00 00 	lea    0x0(%rip),%rax        # 32 <MidiDescription::GetDrumKitName(unsigned char)+0x32>
  32:	0f b6 04 02          	movzbl (%rdx,%rax,1),%eax
  36:	0f b6 c0             	movzbl %al,%eax
  39:	0f b6 55 ec          	movzbl -0x14(%rbp),%edx
  3d:	83 c2 01             	add    $0x1,%edx
  40:	39 d0                	cmp    %edx,%eax
  42:	75 1d                	jne    61 <MidiDescription::GetDrumKitName(unsigned char)+0x61>
  44:	8b 55 f4             	mov    -0xc(%rbp),%edx
  47:	48 89 d0             	mov    %rdx,%rax
  4a:	48 c1 e0 04          	shl    $0x4,%rax
  4e:	48 01 d0             	add    %rdx,%rax
  51:	48 8d 15 00 00 00 00 	lea    0x0(%rip),%rdx        # 58 <MidiDescription::GetDrumKitName(unsigned char)+0x58>
  58:	48 01 d0             	add    %rdx,%rax
  5b:	48 83 c0 01          	add    $0x1,%rax
  5f:	eb 11                	jmp    72 <MidiDescription::GetDrumKitName(unsigned char)+0x72>
  61:	83 45 f4 01          	addl   $0x1,-0xc(%rbp)
  65:	83 7d f4 07          	cmpl   $0x7,-0xc(%rbp)
  69:	76 b3                	jbe    1e <MidiDescription::GetDrumKitName(unsigned char)+0x1e>
  6b:	48 8d 05 00 00 00 00 	lea    0x0(%rip),%rax        # 72 <MidiDescription::GetDrumKitName(unsigned char)+0x72>
  72:	5d                   	pop    %rbp
  73:	c3                   	ret    

Disassembly of section .text._ZN15MidiDescription17GetInstrumentNameEh:

0000000000000000 <MidiDescription::GetInstrumentName(unsigned char)>:
   0:	f3 0f 1e fa          	endbr64 
   4:	55                   	push   %rbp
   5:	48 89 e5             	mov    %rsp,%rbp
   8:	89 f8                	mov    %edi,%eax
   a:	88 45 fc             	mov    %al,-0x4(%rbp)
   d:	0f b6 45 fc          	movzbl -0x4(%rbp),%eax
  11:	84 c0                	test   %al,%al
  13:	79 09                	jns    1e <MidiDescription::GetInstrumentName(unsigned char)+0x1e>
  15:	48 8d 05 00 00 00 00 	lea    0x0(%rip),%rax        # 1c <MidiDescription::GetInstrumentName(unsigned char)+0x1c>
  1c:	eb 17                	jmp    35 <MidiDescription::GetInstrumentName(unsigned char)+0x35>
  1e:	0f b6 45 fc          	movzbl -0x4(%rbp),%eax
  22:	48 98                	cltq   
  24:	48 c1 e0 05          	shl    $0x5,%rax
  28:	48 89 c2             	mov    %rax,%rdx
  2b:	48 8d 05 00 00 00 00 	lea    0x0(%rip),%rax        # 32 <MidiDescription::GetInstrumentName(unsigned char)+0x32>
  32:	48 01 d0             	add    %rdx,%rax
  35:	5d                   	pop    %rbp
  36:	c3                   	ret    

midiparamsconst.o:     file format elf64-x86-64


midiparams.o:     file format elf64-x86-64


Disassembly of section .text._ZNK10MidiParams9isMaskSetEj:

0000000000000000 <MidiParams::isMaskSet(unsigned int) const>:
   0:	f3 0f 1e fa          	endbr64 
   4:	55                   	push   %rbp
   5:	48 89 e5             	mov    %rsp,%rbp
   8:	48 89 7d f8          	mov    %rdi,-0x8(%rbp)
   c:	89 75 f4             	mov    %esi,-0xc(%rbp)
   f:	48 8b 45 f8          	mov    -0x8(%rbp),%rax
  13:	8b 40 08             	mov    0x8(%rax),%eax
  16:	23 45 f4             	and    -0xc(%rbp),%eax
  19:	39 45 f4             	cmp    %eax,-0xc(%rbp)
  1c:	0f 94 c0             	sete   %al
  1f:	5d                   	pop    %rbp
  20:	c3                   	ret    

Disassembly of section .text._ZN4Midi11SetBaudrateEj:

0000000000000000 <Midi::SetBaudrate(unsigned int)>:
   0:	f3 0f 1e fa          	endbr64 
   4:	55                   	push   %rbp
   5:	48 89 e5             	mov    %rsp,%rbp
   8:	48 89 7d f8          	mov    %rdi,-0x8(%rbp)
   c:	89 75 f4             	mov    %esi,-0xc(%rbp)
   f:	48 8b 45 f8          	mov    -0x8(%rbp),%rax
  13:	8b 55 f4             	mov    -0xc(%rbp),%edx
  16:	89 10                	mov    %edx,(%rax)
  18:	90                   	nop
  19:	5d                   	pop    %rbp
  1a:	c3                   	ret    

Disassembly of section .text._ZN4Midi14SetActiveSenseEb:

0000000000000000 <Midi::SetActiveSense(bool)>:
   0:	f3 0f 1e fa          	endbr64 
   4:	55                   	push   %rbp
   5:	48 89 e5             	mov    %rsp,%rbp
   8:	48 89 7d f8          	mov    %rdi,-0x8(%rbp)
   c:	89 f0                	mov    %esi,%eax
   e:	88 45 f4             	mov    %al,-0xc(%rbp)
  11:	48 8b 45 f8          	mov    -0x8(%rbp),%rax
  15:	0f b6 55 f4          	movzbl -0xc(%rbp),%edx
  19:	88 50 08             	mov    %dl,0x8(%rax)
  1c:	90                   	nop
  1d:	5d                   	pop    %rbp
  1e:	c3                   	ret    

Disassembly of section .text._ZN4Midi3GetEv:

0000000000000000 <Midi::Get()>:
   0:	f3 0f 1e fa          	endbr64 
   4:	55                   	push   %rbp
   5:	48 89 e5             	mov    %rsp,%rbp
   8:	48 8b 05 00 00 00 00 	mov    0x0(%rip),%rax        # f <Midi::Get()+0xf>
   f:	5d                   	pop    %rbp
  10:	c3                   	ret    

Disassembly of section .text._ZN10MidiParamsC2EP15MidiParamsStore:

0000000000000000 <MidiParams::MidiParams(MidiParamsStore*)>:
   0:	f3 0f 1e fa          	endbr64 
   4:	55                   	push   %rbp
   5:	48 89 e5             	mov    %rsp,%rbp
   8:	48 89 7d f8          	mov    %rdi,-0x8(%rbp)
   c:	48 89 75 f0          	mov    %rsi,-0x10(%rbp)
  10:	48 8b 45 f8          	mov    -0x8(%rbp),%rax
  14:	48 8b 55 f0          	mov    -0x10(%rbp),%rdx
  18:	48 89 10             	mov    %rdx,(%rax)
  1b:	48 8b 45 f8          	mov    -0x8(%rbp),%rax
  1f:	c7 40 08 02 00 00 00 	movl   $0x2,0x8(%rax)
  26:	48 8b 45 f8          	mov    -0x8(%rbp),%rax
  2a:	c7 40 0c 12 7a 00 00 	movl   $0x7a12,0xc(%rax)
  31:	90                   	nop
  32:	5d                   	pop    %rbp
  33:	c3                   	ret    

Disassembly of section .text._ZN10MidiParams4LoadEv:

0000000000000000 <MidiParams::Load()>:
   0:	f3 0f 1e fa          	endbr64 
   4:	55                   	push   %rbp
   5:	48 89 e5             	mov    %rsp,%rbp
   8:	53                   	push   %rbx
   9:	48 83 ec 38          	sub    $0x38,%rsp
   d:	48 89 7d c8          	mov    %rdi,-0x38(%rbp)
  11:	64 48 8b 04 25 28 00 	mov    %fs:0x28,%rax
  18:	00 00 
  1a:	48 89 45 e8          	mov    %rax,-0x18(%rbp)
  1e:	31 c0                	xor    %eax,%eax
  20:	48 8b 45 c8          	mov    -0x38(%rbp),%rax
  24:	c7 40 08 02 00 00 00 	movl   $0x2,0x8(%rax)
  2b:	48 8b 55 c8          	mov    -0x38(%rbp),%rdx
  2f:	48 8d 45 d0          	lea    -0x30(%rbp),%rax
  33:	48 8d 0d 00 00 00 00 	lea    0x0(%rip),%rcx        # 3a <MidiParams::Load()+0x3a>
  3a:	48 89 ce             	mov    %rcx,%rsi
  3d:	48 89 c7             	mov    %rax,%rdi
  40:	e8 00 00 00 00       	call   45 <MidiParams::Load()+0x45>
  45:	48 8d 45 d0          	lea    -0x30(%rbp),%rax
  49:	48 8d 15 00 00 00 00 	lea    0x0(%rip),%rdx        # 50 <MidiParams::Load()+0x50>
  50:	48 89 d6             	mov    %rdx,%rsi
  53:	48 89 c7             	mov    %rax,%rdi
  56:	e8 00 00 00 00       	call   5b <MidiParams::Load()+0x5b>
  5b:	84 c0                	test   %al,%al
  5d:	74 36                	je     95 <MidiParams::Load()+0x95>
  5f:	48 8b 45 c8          	mov    -0x38(%rbp),%rax
  63:	48 8b 00             	mov    (%rax),%rax
  66:	48 85 c0             	test   %rax,%rax
  69:	74 67                	je     d2 <MidiParams::Load()+0xd2>
  6b:	48 8b 45 c8          	mov    -0x38(%rbp),%rax
  6f:	48 8b 00             	mov    (%rax),%rax
  72:	48 8b 55 c8          	mov    -0x38(%rbp),%rdx
  76:	48 8b 12             	mov    (%rdx),%rdx
  79:	48 8b 12             	mov    (%rdx),%rdx
  7c:	48 83 c2 10          	add    $0x10,%rdx
  80:	48 8b 12             	mov    (%rdx),%rdx
  83:	48 8b 4d c8          	mov    -0x38(%rbp),%rcx
  87:	48 83 c1 08          	add    $0x8,%rcx
  8b:	48 89 ce             	mov    %rcx,%rsi
  8e:	48 89 c7             	mov    %rax,%rdi
  91:	ff d2                	call   *%rdx
  93:	eb 3d                	jmp    d2 <MidiParams::Load()+0xd2>
  95:	48 8b 45 c8          	mov    -0x38(%rbp),%rax
  99:	48 8b 00             	mov    (%rax),%rax
  9c:	48 85 c0             	test   %rax,%rax
  9f:	74 2a                	je     cb <MidiParams::Load()+0xcb>
  a1:	48 8b 45 c8          	mov    -0x38(%rbp),%rax
  a5:	48 8b 00             	mov    (%rax),%rax
  a8:	48 8b 55 c8          	mov    -0x38(%rbp),%rdx
  ac:	48 8b 12             	mov    (%rdx),%rdx
  af:	48 8b 12             	mov    (%rdx),%rdx
  b2:	48 83 c2 18          	add    $0x18,%rdx
  b6:	48 8b 12             	mov    (%rdx),%rdx
  b9:	48 8b 4d c8          	mov    -0x38(%rbp),%rcx
  bd:	48 83 c1 08          	add    $0x8,%rcx
  c1:	48 89 ce             	mov    %rcx,%rsi
  c4:	48 89 c7             	mov    %rax,%rdi
  c7:	ff d2                	call   *%rdx
  c9:	eb 07                	jmp    d2 <MidiParams::Load()+0xd2>
  cb:	bb 00 00 00 00       	mov    $0x0,%ebx
  d0:	eb 05                	jmp    d7 <MidiParams::Load()+0xd7>
  d2:	bb 01 00 00 00       	mov    $0x1,%ebx
  d7:	48 8d 45 d0          	lea    -0x30(%rbp),%rax
  db:	48 89 c7             	mov    %rax,%rdi
  de:	e8 00 00 00 00       	call   e3 <MidiParams::Load()+0xe3>
  e3:	89 d8                	mov    %ebx,%eax
  e5:	48 8b 55 e8          	mov    -0x18(%rbp),%rdx
  e9:	64 48 2b 14 25 28 00 	sub    %fs:0x28,%rdx
  f0:	00 00 
  f2:	74 05                	je     f9 <MidiParams::Load()+0xf9>
  f4:	e8 00 00 00 00       	call   f9 <MidiParams::Load()+0xf9>
  f9:	48 8b 5d f8          	mov    -0x8(%rbp),%rbx
  fd:	c9                   	leave  
  fe:	c3                   	ret    

Disassembly of section .text._ZN10MidiParams4LoadEPKcj:

0000000000000000 <MidiParams::Load(char const*, unsigned int)>:
   0:	f3 0f 1e fa          	endbr64 
   4:	55                   	push   %rbp
   5:	48 89 e5             	mov    %rsp,%rbp
   8:	48 83 ec 40          	sub    $0x40,%rsp
   c:	48 89 7d d8          	mov    %rdi,-0x28(%rbp)
  10:	48 89 75 d0          	mov    %rsi,-0x30(%rbp)
  14:	89 55 cc             	mov    %edx,-0x34(%rbp)
  17:	64 48 8b 04 25 28 00 	mov    %fs:0x28,%rax
  1e:	00 00 
  20:	48 89 45 f8          	mov    %rax,-0x8(%rbp)
  24:	31 c0                	xor    %eax,%eax
  26:	48 8b 45 d8          	mov    -0x28(%rbp),%rax
  2a:	48 8b 00             	mov    (%rax),%rax
  2d:	48 85 c0             	test   %rax,%rax
  30:	74 71                	je     a3 <MidiParams::Load(char const*, unsigned int)+0xa3>
  32:	48 8b 45 d8          	mov    -0x28(%rbp),%rax
  36:	c7 40 08 02 00 00 00 	movl   $0x2,0x8(%rax)
  3d:	48 8b 55 d8          	mov    -0x28(%rbp),%rdx
  41:	48 8d 45 e0          	lea    -0x20(%rbp),%rax
  45:	48 8d 0d 00 00 00 00 	lea    0x0(%rip),%rcx        # 4c <MidiParams::Load(char const*, unsigned int)+0x4c>
  4c:	48 89 ce             	mov    %rcx,%rsi
  4f:	48 89 c7             	mov    %rax,%rdi
  52:	e8 00 00 00 00       	call   57 <MidiParams::Load(char const*, unsigned int)+0x57>
  57:	8b 55 cc             	mov    -0x34(%rbp),%edx
  5a:	48 8b 4d d0          	mov    -0x30(%rbp),%rcx
  5e:	48 8d 45 e0          	lea    -0x20(%rbp),%rax
  62:	48 89 ce             	mov    %rcx,%rsi
  65:	48 89 c7             	mov    %rax,%rdi
  68:	e8 00 00 00 00       	call   6d <MidiParams::Load(char const*, unsigned int)+0x6d>
  6d:	48 8b 45 d8          	mov    -0x28(%rbp),%rax
  71:	48 8b 00             	mov    (%rax),%rax
  74:	48 8b 55 d8          	mov    -0x28(%rbp),%rdx
  78:	48 8b 12             	mov    (%rdx),%rdx
  7b:	48 8b 12             	mov    (%rdx),%rdx
  7e:	48 83 c2 10          	add    $0x10,%rdx
  82:	48 8b 12             	mov    (%rdx),%rdx
  85:	48 8b 4d d8          	mov    -0x28(%rbp),%rcx
  89:	48 83 c1 08          	add    $0x8,%rcx
  8d:	48 89 ce             	mov    %rcx,%rsi
  90:	48 89 c7             	mov    %rax,%rdi
  93:	ff d2                	call   *%rdx
  95:	48 8d 45 e0          	lea    -0x20(%rbp),%rax
  99:	48 89 c7             	mov    %rax,%rdi
  9c:	e8 00 00 00 00       	call   a1 <MidiParams::Load(char const*, unsigned int)+0xa1>
  a1:	eb 01                	jmp    a4 <MidiParams::Load(char const*, unsigned int)+0xa4>
  a3:	90                   	nop
  a4:	48 8b 45 f8          	mov    -0x8(%rbp),%rax
  a8:	64 48 2b 04 25 28 00 	sub    %fs:0x28,%rax
  af:	00 00 
  b1:	74 05                	je     b8 <MidiParams::Load(char const*, unsigned int)+0xb8>
  b3:	e8 00 00 00 00       	call   b8 <MidiParams::Load(char const*, unsigned int)+0xb8>
  b8:	c9                   	leave  
  b9:	c3                   	ret    

Disassembly of section .text._ZN10MidiParams16callbackFunctionEPKc:

0000000000000000 <MidiParams::callbackFunction(char const*)>:
   0:	f3 0f 1e fa          	endbr64 
   4:	55                   	push   %rbp
   5:	48 89 e5             	mov    %rsp,%rbp
   8:	48 83 ec 20          	sub    $0x20,%rsp
   c:	48 89 7d e8          	mov    %rdi,-0x18(%rbp)
  10:	48 89 75 e0          	mov    %rsi,-0x20(%rbp)
  14:	64 48 8b 04 25 28 00 	mov    %fs:0x28,%rax
  1b:	00 00 
  1d:	48 89 45 f8          	mov    %rax,-0x8(%rbp)
  21:	31 c0                	xor    %eax,%eax
  23:	48 8d 55 f4          	lea    -0xc(%rbp),%rdx
  27:	48 8b 45 e0          	mov    -0x20(%rbp),%rax
  2b:	48 8d 0d 00 00 00 00 	lea    0x0(%rip),%rcx        # 32 <MidiParams::callbackFunction(char const*)+0x32>
  32:	48 89 ce             	mov    %rcx,%rsi
  35:	48 89 c7             	mov    %rax,%rdi
  38:	e8 00 00 00 00       	call   3d <MidiParams::callbackFunction(char const*)+0x3d>
  3d:	85 c0                	test   %eax,%eax
  3f:	0f 94 c0             	sete   %al
  42:	84 c0                	test   %al,%al
  44:	74 5d                	je     a3 <MidiParams::callbackFunction(char const*)+0xa3>
  46:	8b 45 f4             	mov    -0xc(%rbp),%eax
  49:	3d 12 7a 00 00       	cmp    $0x7a12,%eax
  4e:	74 33                	je     83 <MidiParams::callbackFunction(char const*)+0x83>
  50:	8b 45 f4             	mov    -0xc(%rbp),%eax
  53:	3d 7f 25 00 00       	cmp    $0x257f,%eax
  58:	76 29                	jbe    83 <MidiParams::callbackFunction(char const*)+0x83>
  5a:	8b 45 f4             	mov    -0xc(%rbp),%eax
  5d:	3d 00 c2 01 00       	cmp    $0x1c200,%eax
  62:	77 1f                	ja     83 <MidiParams::callbackFunction(char const*)+0x83>
  64:	8b 55 f4             	mov    -0xc(%rbp),%edx
  67:	48 8b 45 e8          	mov    -0x18(%rbp),%rax
  6b:	89 50 0c             	mov    %edx,0xc(%rax)
  6e:	48 8b 45 e8          	mov    -0x18(%rbp),%rax
  72:	8b 40 08             	mov    0x8(%rax),%eax
  75:	83 c8 01             	or     $0x1,%eax
  78:	89 c2                	mov    %eax,%edx
  7a:	48 8b 45 e8          	mov    -0x18(%rbp),%rax
  7e:	89 50 08             	mov    %edx,0x8(%rax)
  81:	eb 74                	jmp    f7 <MidiParams::callbackFunction(char const*)+0xf7>
  83:	48 8b 45 e8          	mov    -0x18(%rbp),%rax
  87:	c7 40 0c 12 7a 00 00 	movl   $0x7a12,0xc(%rax)
  8e:	48 8b 45 e8          	mov    -0x18(%rbp),%rax
  92:	8b 40 08             	mov    0x8(%rax),%eax
  95:	83 e0 fe             	and    $0xfffffffe,%eax
  98:	89 c2                	mov    %eax,%edx
  9a:	48 8b 45 e8          	mov    -0x18(%rbp),%rax
  9e:	89 50 08             	mov    %edx,0x8(%rax)
  a1:	eb 54                	jmp    f7 <MidiParams::callbackFunction(char const*)+0xf7>
  a3:	48 8d 55 f3          	lea    -0xd(%rbp),%rdx
  a7:	48 8b 45 e0          	mov    -0x20(%rbp),%rax
  ab:	48 8d 0d 00 00 00 00 	lea    0x0(%rip),%rcx        # b2 <MidiParams::callbackFunction(char const*)+0xb2>
  b2:	48 89 ce             	mov    %rcx,%rsi
  b5:	48 89 c7             	mov    %rax,%rdi
  b8:	e8 00 00 00 00       	call   bd <MidiParams::callbackFunction(char const*)+0xbd>
  bd:	85 c0                	test   %eax,%eax
  bf:	0f 94 c0             	sete   %al
  c2:	84 c0                	test   %al,%al
  c4:	74 31                	je     f7 <MidiParams::callbackFunction(char const*)+0xf7>
  c6:	0f b6 45 f3          	movzbl -0xd(%rbp),%eax
  ca:	84 c0                	test   %al,%al
  cc:	74 15                	je     e3 <MidiParams::callbackFunction(char const*)+0xe3>
  ce:	48 8b 45 e8          	mov    -0x18(%rbp),%rax
  d2:	8b 40 08             	mov    0x8(%rax),%eax
  d5:	83 c8 02             	or     $0x2,%eax
  d8:	89 c2                	mov    %eax,%edx
  da:	48 8b 45 e8          	mov    -0x18(%rbp),%rax
  de:	89 50 08             	mov    %edx,0x8(%rax)
  e1:	eb 13                	jmp    f6 <MidiParams::callbackFunction(char const*)+0xf6>
  e3:	48 8b 45 e8          	mov    -0x18(%rbp),%rax
  e7:	8b 40 08             	mov    0x8(%rax),%eax
  ea:	83 e0 fd             	and    $0xfffffffd,%eax
  ed:	89 c2                	mov    %eax,%edx
  ef:	48 8b 45 e8          	mov    -0x18(%rbp),%rax
  f3:	89 50 08             	mov    %edx,0x8(%rax)
  f6:	90                   	nop
  f7:	48 8b 45 f8          	mov    -0x8(%rbp),%rax
  fb:	64 48 2b 04 25 28 00 	sub    %fs:0x28,%rax
 102:	00 00 
 104:	74 05                	je     10b <MidiParams::callbackFunction(char const*)+0x10b>
 106:	e8 00 00 00 00       	call   10b <MidiParams::callbackFunction(char const*)+0x10b>
 10b:	c9                   	leave  
 10c:	c3                   	ret    

Disassembly of section .text._ZN10MidiParams3SetEv:

0000000000000000 <MidiParams::Set()>:
   0:	f3 0f 1e fa          	endbr64 
   4:	55                   	push   %rbp
   5:	48 89 e5             	mov    %rsp,%rbp
   8:	48 83 ec 10          	sub    $0x10,%rsp
   c:	48 89 7d f8          	mov    %rdi,-0x8(%rbp)
  10:	48 8b 45 f8          	mov    -0x8(%rbp),%rax
  14:	be 01 00 00 00       	mov    $0x1,%esi
  19:	48 89 c7             	mov    %rax,%rdi
  1c:	e8 00 00 00 00       	call   21 <MidiParams::Set()+0x21>
  21:	84 c0                	test   %al,%al
  23:	74 19                	je     3e <MidiParams::Set()+0x3e>
  25:	e8 00 00 00 00       	call   2a <MidiParams::Set()+0x2a>
  2a:	48 89 c2             	mov    %rax,%rdx
  2d:	48 8b 45 f8          	mov    -0x8(%rbp),%rax
  31:	8b 40 0c             	mov    0xc(%rax),%eax
  34:	89 c6                	mov    %eax,%esi
  36:	48 89 d7             	mov    %rdx,%rdi
  39:	e8 00 00 00 00       	call   3e <MidiParams::Set()+0x3e>
  3e:	48 8b 45 f8          	mov    -0x8(%rbp),%rax
  42:	be 02 00 00 00       	mov    $0x2,%esi
  47:	48 89 c7             	mov    %rax,%rdi
  4a:	e8 00 00 00 00       	call   4f <MidiParams::Set()+0x4f>
  4f:	84 c0                	test   %al,%al
  51:	74 12                	je     65 <MidiParams::Set()+0x65>
  53:	e8 00 00 00 00       	call   58 <MidiParams::Set()+0x58>
  58:	be 01 00 00 00       	mov    $0x1,%esi
  5d:	48 89 c7             	mov    %rax,%rdi
  60:	e8 00 00 00 00       	call   65 <MidiParams::Set()+0x65>
  65:	90                   	nop
  66:	c9                   	leave  
  67:	c3                   	ret    

Disassembly of section .text._ZN10MidiParams4DumpEv:

0000000000000000 <MidiParams::Dump()>:
   0:	f3 0f 1e fa          	endbr64 
   4:	55                   	push   %rbp
   5:	48 89 e5             	mov    %rsp,%rbp
   8:	48 89 7d f8          	mov    %rdi,-0x8(%rbp)
   c:	90                   	nop
   d:	5d                   	pop    %rbp
   e:	c3                   	ret    

Disassembly of section .text._ZN10MidiParams22staticCallbackFunctionEPvPKc:

0000000000000000 <MidiParams::staticCallbackFunction(void*, char const*)>:
   0:	f3 0f 1e fa          	endbr64 
   4:	55                   	push   %rbp
   5:	48 89 e5             	mov    %rsp,%rbp
   8:	48 83 ec 10          	sub    $0x10,%rsp
   c:	48 89 7d f8          	mov    %rdi,-0x8(%rbp)
  10:	48 89 75 f0          	mov    %rsi,-0x10(%rbp)
  14:	48 8b 55 f0          	mov    -0x10(%rbp),%rdx
  18:	48 8b 45 f8          	mov    -0x8(%rbp),%rax
  1c:	48 89 d6             	mov    %rdx,%rsi
  1f:	48 89 c7             	mov    %rax,%rdi
  22:	e8 00 00 00 00       	call   27 <MidiParams::staticCallbackFunction(void*, char const*)+0x27>
  27:	90                   	nop
  28:	c9                   	leave  
  29:	c3                   	ret    

applemidi.o:     file format elf64-x86-64


Disassembly of section .text._ZN8Hardware3GetEv:

0000000000000000 <Hardware::Get()>:
   0:	f3 0f 1e fa          	endbr64 
   4:	55                   	push   %rbp
   5:	48 89 e5             	mov    %rsp,%rbp
   8:	48 8b 05 00 00 00 00 	mov    0x0(%rip),%rax        # f <Hardware::Get()+0xf>
   f:	5d                   	pop    %rbp
  10:	c3                   	ret    

Disassembly of section .text._ZNK7Network5GetIpEv:

0000000000000000 <Network::GetIp() const>:
   0:	f3 0f 1e fa          	endbr64 
   4:	55                   	push   %rbp
   5:	48 89 e5             	mov    %rsp,%rbp
   8:	48 89 7d f8          	mov    %rdi,-0x8(%rbp)
   c:	48 8b 45 f8          	mov    -0x8(%rbp),%rax
  10:	8b 40 10             	mov    0x10(%rax),%eax
  13:	5d                   	pop    %rbp
  14:	c3                   	ret    

Disassembly of section .text._ZNK7Network11GetHostNameEv:

0000000000000000 <Network::GetHostName() const>:
   0:	f3 0f 1e fa          	endbr64 
   4:	55                   	push   %rbp
   5:	48 89 e5             	mov    %rsp,%rbp
   8:	48 89 7d f8          	mov    %rdi,-0x8(%rbp)
   c:	48 8b 45 f8          	mov    -0x8(%rbp),%rax
  10:	48 83 c0 1c          	add    $0x1c,%rax
  14:	5d                   	pop    %rbp
  15:	c3                   	ret    

Disassembly of section .text._ZN7Network3GetEv:

0000000000000000 <Network::Get()>:
   0:	f3 0f 1e fa          	endbr64 
   4:	55                   	push   %rbp
   5:	48 89 e5             	mov    %rsp,%rbp
   8:	48 8b 05 00 00 00 00 	mov    0x0(%rip),%rax        # f <Network::Get()+0xf>
   f:	5d                   	pop    %rbp
  10:	c3                   	ret    

Disassembly of section .text._ZN9AppleMidi14SetSessionNameEPKc:

0000000000000000 <AppleMidi::SetSessionName(char const*)>:
   0:	f3 0f 1e fa          	endbr64 
   4:	55                   	push   %rbp
   5:	48 89 e5             	mov    %rsp,%rbp
   8:	48 83 ec 30          	sub    $0x30,%rsp
   c:	48 89 7d d8          	mov    %rdi,-0x28(%rbp)
  10:	48 89 75 d0          	mov    %rsi,-0x30(%rbp)
  14:	64 48 8b 04 25 28 00 	mov    %fs:0x28,%rax
  1b:	00 00 
  1d:	48 89 45 f8          	mov    %rax,-0x8(%rbp)
  21:	31 c0                	xor    %eax,%eax
  23:	48 c7 45 e8 18 00 00 	movq   $0x18,-0x18(%rbp)
  2a:	00 
  2b:	48 8b 45 d0          	mov    -0x30(%rbp),%rax
  2f:	48 89 c7             	mov    %rax,%rdi
  32:	e8 00 00 00 00       	call   37 <AppleMidi::SetSessionName(char const*)+0x37>
  37:	48 89 45 e0          	mov    %rax,-0x20(%rbp)
  3b:	48 8d 55 e8          	lea    -0x18(%rbp),%rdx
  3f:	48 8d 45 e0          	lea    -0x20(%rbp),%rax
  43:	48 89 d6             	mov    %rdx,%rsi
  46:	48 89 c7             	mov    %rax,%rdi
  49:	e8 00 00 00 00       	call   4e <AppleMidi::SetSessionName(char const*)+0x4e>
  4e:	48 8b 00             	mov    (%rax),%rax
  51:	48 89 45 f0          	mov    %rax,-0x10(%rbp)
  55:	48 8b 45 d8          	mov    -0x28(%rbp),%rax
  59:	48 8d 48 34          	lea    0x34(%rax),%rcx
  5d:	48 8b 55 f0          	mov    -0x10(%rbp),%rdx
  61:	48 8b 45 d0          	mov    -0x30(%rbp),%rax
  65:	48 89 c6             	mov    %rax,%rsi
  68:	48 89 cf             	mov    %rcx,%rdi
  6b:	e8 00 00 00 00       	call   70 <AppleMidi::SetSessionName(char const*)+0x70>
  70:	48 8b 55 d8          	mov    -0x28(%rbp),%rdx
  74:	48 8b 45 f0          	mov    -0x10(%rbp),%rax
  78:	48 01 d0             	add    %rdx,%rax
  7b:	48 83 c0 34          	add    $0x34,%rax
  7f:	c6 00 00             	movb   $0x0,(%rax)
  82:	48 8b 45 f0          	mov    -0x10(%rbp),%rax
  86:	8d 50 11             	lea    0x11(%rax),%edx
  89:	48 8b 45 d8          	mov    -0x28(%rbp),%rax
  8d:	66 89 50 1c          	mov    %dx,0x1c(%rax)
  91:	90                   	nop
  92:	48 8b 45 f8          	mov    -0x8(%rbp),%rax
  96:	64 48 2b 04 25 28 00 	sub    %fs:0x28,%rax
  9d:	00 00 
  9f:	74 05                	je     a6 <AppleMidi::SetSessionName(char const*)+0xa6>
  a1:	e8 00 00 00 00       	call   a6 <AppleMidi::SetSessionName(char const*)+0xa6>
  a6:	c9                   	leave  
  a7:	c3                   	ret    

Disassembly of section .text._ZN9AppleMidi3NowEv:

0000000000000000 <AppleMidi::Now()>:
   0:	f3 0f 1e fa          	endbr64 
   4:	55                   	push   %rbp
   5:	48 89 e5             	mov    %rsp,%rbp
   8:	48 83 ec 20          	sub    $0x20,%rsp
   c:	48 89 7d e8          	mov    %rdi,-0x18(%rbp)
  10:	e8 00 00 00 00       	call   15 <AppleMidi::Now()+0x15>
  15:	48 89 c7             	mov    %rax,%rdi
  18:	e8 00 00 00 00       	call   1d <AppleMidi::Now()+0x1d>
  1d:	48 8b 55 e8          	mov    -0x18(%rbp),%rdx
  21:	8b 52 08             	mov    0x8(%rdx),%edx
  24:	29 d0                	sub    %edx,%eax
  26:	89 45 fc             	mov    %eax,-0x4(%rbp)
  29:	8b 55 fc             	mov    -0x4(%rbp),%edx
  2c:	89 d0                	mov    %edx,%eax
  2e:	c1 e0 02             	shl    $0x2,%eax
  31:	01 d0                	add    %edx,%eax
  33:	01 c0                	add    %eax,%eax
  35:	c9                   	leave  
  36:	c3                   	ret    

Disassembly of section .text._ZN9AppleMidiC2Ev:

0000000000000000 <AppleMidi::AppleMidi()>:
   0:	f3 0f 1e fa          	endbr64 
   4:	55                   	push   %rbp
   5:	48 89 e5             	mov    %rsp,%rbp
   8:	48 83 ec 10          	sub    $0x10,%rsp
   c:	48 89 7d f8          	mov    %rdi,-0x8(%rbp)
  10:	48 8b 45 f8          	mov    -0x8(%rbp),%rax
  14:	48 89 c7             	mov    %rax,%rdi
  17:	e8 00 00 00 00       	call   1c <AppleMidi::AppleMidi()+0x1c>
  1c:	48 8d 15 00 00 00 00 	lea    0x0(%rip),%rdx        # 23 <AppleMidi::AppleMidi()+0x23>
  23:	48 8b 45 f8          	mov    -0x8(%rbp),%rax
  27:	48 89 10             	mov    %rdx,(%rax)
  2a:	48 8b 45 f8          	mov    -0x8(%rbp),%rax
  2e:	c7 40 08 00 00 00 00 	movl   $0x0,0x8(%rax)
  35:	e8 00 00 00 00       	call   3a <AppleMidi::AppleMidi()+0x3a>
  3a:	48 89 c7             	mov    %rax,%rdi
  3d:	e8 00 00 00 00       	call   42 <AppleMidi::AppleMidi()+0x42>
  42:	48 8b 55 f8          	mov    -0x8(%rbp),%rdx
  46:	89 42 0c             	mov    %eax,0xc(%rdx)
  49:	48 8b 45 f8          	mov    -0x8(%rbp),%rax
  4d:	c7 40 10 ff ff ff ff 	movl   $0xffffffff,0x10(%rax)
  54:	48 8b 45 f8          	mov    -0x8(%rbp),%rax
  58:	c7 40 14 ff ff ff ff 	movl   $0xffffffff,0x14(%rax)
  5f:	48 8b 45 f8          	mov    -0x8(%rbp),%rax
  63:	c7 40 18 00 00 00 00 	movl   $0x0,0x18(%rax)
  6a:	48 8b 45 f8          	mov    -0x8(%rbp),%rax
  6e:	66 c7 40 1c 10 00    	movw   $0x10,0x1c(%rax)
  74:	48 8b 45 f8          	mov    -0x8(%rbp),%rax
  78:	66 c7 40 1e 8c 13    	movw   $0x138c,0x1e(%rax)
  7e:	48 8b 45 f8          	mov    -0x8(%rbp),%rax
  82:	66 c7 40 20 00 00    	movw   $0x0,0x20(%rax)
  88:	48 8b 45 f8          	mov    -0x8(%rbp),%rax
  8c:	66 c7 40 22 00 00    	movw   $0x0,0x22(%rax)
  92:	48 8b 45 f8          	mov    -0x8(%rbp),%rax
  96:	48 c7 40 60 00 00 00 	movq   $0x0,0x60(%rax)
  9d:	00 
  9e:	48 8b 45 f8          	mov    -0x8(%rbp),%rax
  a2:	66 c7 40 24 ff ff    	movw   $0xffff,0x24(%rax)
  a8:	48 8b 45 f8          	mov    -0x8(%rbp),%rax
  ac:	c7 40 28 00 00 00 02 	movl   $0x2000000,0x28(%rax)
  b3:	48 8b 45 f8          	mov    -0x8(%rbp),%rax
  b7:	8b 50 0c             	mov    0xc(%rax),%edx
  ba:	48 8b 45 f8          	mov    -0x8(%rbp),%rax
  be:	89 50 30             	mov    %edx,0x30(%rax)
  c1:	e8 00 00 00 00       	call   c6 <AppleMidi::AppleMidi()+0xc6>
  c6:	48 89 c7             	mov    %rax,%rdi
  c9:	e8 00 00 00 00       	call   ce <AppleMidi::AppleMidi()+0xce>
  ce:	48 89 c2             	mov    %rax,%rdx
  d1:	48 8b 45 f8          	mov    -0x8(%rbp),%rax
  d5:	48 89 d6             	mov    %rdx,%rsi
  d8:	48 89 c7             	mov    %rax,%rdi
  db:	e8 00 00 00 00       	call   e0 <AppleMidi::AppleMidi()+0xe0>
  e0:	bf 00 02 00 00       	mov    $0x200,%edi
  e5:	e8 00 00 00 00       	call   ea <AppleMidi::AppleMidi()+0xea>
  ea:	48 89 c2             	mov    %rax,%rdx
  ed:	48 8b 45 f8          	mov    -0x8(%rbp),%rax
  f1:	48 89 50 60          	mov    %rdx,0x60(%rax)
  f5:	48 8b 45 f8          	mov    -0x8(%rbp),%rax
  f9:	48 83 c0 50          	add    $0x50,%rax
  fd:	ba 10 00 00 00       	mov    $0x10,%edx
 102:	be 00 00 00 00       	mov    $0x0,%esi
 107:	48 89 c7             	mov    %rax,%rdi
 10a:	e8 00 00 00 00       	call   10f <AppleMidi::AppleMidi()+0x10f>
 10f:	90                   	nop
 110:	c9                   	leave  
 111:	c3                   	ret    

Disassembly of section .text._ZN9AppleMidi20HandleControlMessageEv:

0000000000000000 <AppleMidi::HandleControlMessage()>:
   0:	f3 0f 1e fa          	endbr64 
   4:	55                   	push   %rbp
   5:	48 89 e5             	mov    %rsp,%rbp
   8:	48 83 ec 20          	sub    $0x20,%rsp
   c:	48 89 7d e8          	mov    %rdi,-0x18(%rbp)
  10:	48 8b 45 e8          	mov    -0x18(%rbp),%rax
  14:	48 8b 40 60          	mov    0x60(%rax),%rax
  18:	48 89 45 f8          	mov    %rax,-0x8(%rbp)
  1c:	48 8b 45 e8          	mov    -0x18(%rbp),%rax
  20:	8b 40 50             	mov    0x50(%rax),%eax
  23:	85 c0                	test   %eax,%eax
  25:	0f 85 9e 00 00 00    	jne    c9 <AppleMidi::HandleControlMessage()+0xc9>
  2b:	48 8b 45 e8          	mov    -0x18(%rbp),%rax
  2f:	8b 40 54             	mov    0x54(%rax),%eax
  32:	85 c0                	test   %eax,%eax
  34:	0f 85 46 01 00 00    	jne    180 <AppleMidi::HandleControlMessage()+0x180>
  3a:	48 8b 45 f8          	mov    -0x8(%rbp),%rax
  3e:	0f b7 40 02          	movzwl 0x2(%rax),%eax
  42:	66 3d 49 4e          	cmp    $0x4e49,%ax
  46:	0f 85 34 01 00 00    	jne    180 <AppleMidi::HandleControlMessage()+0x180>
  4c:	48 8b 45 e8          	mov    -0x18(%rbp),%rax
  50:	66 c7 40 26 4f 4b    	movw   $0x4b4f,0x26(%rax)
  56:	48 8b 45 f8          	mov    -0x8(%rbp),%rax
  5a:	8b 50 08             	mov    0x8(%rax),%edx
  5d:	48 8b 45 e8          	mov    -0x18(%rbp),%rax
  61:	89 50 2c             	mov    %edx,0x2c(%rax)
  64:	e8 00 00 00 00       	call   69 <AppleMidi::HandleControlMessage()+0x69>
  69:	48 89 c7             	mov    %rax,%rdi
  6c:	48 8b 45 e8          	mov    -0x18(%rbp),%rax
  70:	0f b7 40 20          	movzwl 0x20(%rax),%eax
  74:	44 0f b7 c0          	movzwl %ax,%r8d
  78:	48 8b 45 e8          	mov    -0x18(%rbp),%rax
  7c:	8b 48 18             	mov    0x18(%rax),%ecx
  7f:	48 8b 45 e8          	mov    -0x18(%rbp),%rax
  83:	0f b7 40 1c          	movzwl 0x1c(%rax),%eax
  87:	0f b7 d0             	movzwl %ax,%edx
  8a:	48 8b 45 e8          	mov    -0x18(%rbp),%rax
  8e:	48 8d 70 24          	lea    0x24(%rax),%rsi
  92:	48 8b 45 e8          	mov    -0x18(%rbp),%rax
  96:	8b 40 10             	mov    0x10(%rax),%eax
  99:	45 89 c1             	mov    %r8d,%r9d
  9c:	41 89 c8             	mov    %ecx,%r8d
  9f:	89 d1                	mov    %edx,%ecx
  a1:	48 89 f2             	mov    %rsi,%rdx
  a4:	89 c6                	mov    %eax,%esi
  a6:	e8 00 00 00 00       	call   ab <AppleMidi::HandleControlMessage()+0xab>
  ab:	48 8b 45 e8          	mov    -0x18(%rbp),%rax
  af:	c7 40 50 01 00 00 00 	movl   $0x1,0x50(%rax)
  b6:	48 8b 45 e8          	mov    -0x18(%rbp),%rax
  ba:	8b 50 18             	mov    0x18(%rax),%edx
  bd:	48 8b 45 e8          	mov    -0x18(%rbp),%rax
  c1:	89 50 54             	mov    %edx,0x54(%rax)
  c4:	e9 b8 00 00 00       	jmp    181 <AppleMidi::HandleControlMessage()+0x181>
  c9:	48 8b 45 e8          	mov    -0x18(%rbp),%rax
  cd:	8b 40 50             	mov    0x50(%rax),%eax
  d0:	83 f8 03             	cmp    $0x3,%eax
  d3:	0f 85 a8 00 00 00    	jne    181 <AppleMidi::HandleControlMessage()+0x181>
  d9:	48 8b 45 e8          	mov    -0x18(%rbp),%rax
  dd:	8b 50 54             	mov    0x54(%rax),%edx
  e0:	48 8b 45 e8          	mov    -0x18(%rbp),%rax
  e4:	8b 40 18             	mov    0x18(%rax),%eax
  e7:	39 c2                	cmp    %eax,%edx
  e9:	75 26                	jne    111 <AppleMidi::HandleControlMessage()+0x111>
  eb:	48 8b 45 f8          	mov    -0x8(%rbp),%rax
  ef:	0f b7 40 02          	movzwl 0x2(%rax),%eax
  f3:	66 3d 42 59          	cmp    $0x5942,%ax
  f7:	75 18                	jne    111 <AppleMidi::HandleControlMessage()+0x111>
  f9:	48 8b 45 e8          	mov    -0x18(%rbp),%rax
  fd:	c7 40 50 00 00 00 00 	movl   $0x0,0x50(%rax)
 104:	48 8b 45 e8          	mov    -0x18(%rbp),%rax
 108:	c7 40 54 00 00 00 00 	movl   $0x0,0x54(%rax)
 10f:	eb 70                	jmp    181 <AppleMidi::HandleControlMessage()+0x181>
 111:	48 8b 45 f8          	mov    -0x8(%rbp),%rax
 115:	0f b7 40 02          	movzwl 0x2(%rax),%eax
 119:	66 3d 49 4e          	cmp    $0x4e49,%ax
 11d:	75 62                	jne    181 <AppleMidi::HandleControlMessage()+0x181>
 11f:	48 8b 45 e8          	mov    -0x18(%rbp),%rax
 123:	66 c7 40 26 4e 4f    	movw   $0x4f4e,0x26(%rax)
 129:	48 8b 45 f8          	mov    -0x8(%rbp),%rax
 12d:	8b 50 08             	mov    0x8(%rax),%edx
 130:	48 8b 45 e8          	mov    -0x18(%rbp),%rax
 134:	89 50 2c             	mov    %edx,0x2c(%rax)
 137:	e8 00 00 00 00       	call   13c <AppleMidi::HandleControlMessage()+0x13c>
 13c:	48 89 c7             	mov    %rax,%rdi
 13f:	48 8b 45 e8          	mov    -0x18(%rbp),%rax
 143:	0f b7 40 20          	movzwl 0x20(%rax),%eax
 147:	44 0f b7 c0          	movzwl %ax,%r8d
 14b:	48 8b 45 e8          	mov    -0x18(%rbp),%rax
 14f:	8b 48 18             	mov    0x18(%rax),%ecx
 152:	48 8b 45 e8          	mov    -0x18(%rbp),%rax
 156:	0f b7 40 1c          	movzwl 0x1c(%rax),%eax
 15a:	0f b7 d0             	movzwl %ax,%edx
 15d:	48 8b 45 e8          	mov    -0x18(%rbp),%rax
 161:	48 8d 70 24          	lea    0x24(%rax),%rsi
 165:	48 8b 45 e8          	mov    -0x18(%rbp),%rax
 169:	8b 40 10             	mov    0x10(%rax),%eax
 16c:	45 89 c1             	mov    %r8d,%r9d
 16f:	41 89 c8             	mov    %ecx,%r8d
 172:	89 d1                	mov    %edx,%ecx
 174:	48 89 f2             	mov    %rsi,%rdx
 177:	89 c6                	mov    %eax,%esi
 179:	e8 00 00 00 00       	call   17e <AppleMidi::HandleControlMessage()+0x17e>
 17e:	eb 01                	jmp    181 <AppleMidi::HandleControlMessage()+0x181>
 180:	90                   	nop
 181:	c9                   	leave  
 182:	c3                   	ret    

Disassembly of section .text._ZN9AppleMidi17HandleMidiMessageEv:

0000000000000000 <AppleMidi::HandleMidiMessage()>:
   0:	f3 0f 1e fa          	endbr64 
   4:	55                   	push   %rbp
   5:	48 89 e5             	mov    %rsp,%rbp
   8:	48 83 ec 30          	sub    $0x30,%rsp
   c:	48 89 7d d8          	mov    %rdi,-0x28(%rbp)
  10:	48 8b 45 d8          	mov    -0x28(%rbp),%rax
  14:	48 8b 40 60          	mov    0x60(%rax),%rax
  18:	0f b7 00             	movzwl (%rax),%eax
  1b:	66 3d 80 61          	cmp    $0x6180,%ax
  1f:	75 27                	jne    48 <AppleMidi::HandleMidiMessage()+0x48>
  21:	48 8b 45 d8          	mov    -0x28(%rbp),%rax
  25:	48 8b 00             	mov    (%rax),%rax
  28:	48 83 c0 10          	add    $0x10,%rax
  2c:	48 8b 08             	mov    (%rax),%rcx
  2f:	48 8b 45 d8          	mov    -0x28(%rbp),%rax
  33:	48 8b 50 60          	mov    0x60(%rax),%rdx
  37:	48 8b 45 d8          	mov    -0x28(%rbp),%rax
  3b:	48 89 d6             	mov    %rdx,%rsi
  3e:	48 89 c7             	mov    %rax,%rdi
  41:	ff d1                	call   *%rcx
  43:	e9 ca 02 00 00       	jmp    312 <AppleMidi::HandleMidiMessage()+0x312>
  48:	48 8b 45 d8          	mov    -0x28(%rbp),%rax
  4c:	0f b7 40 22          	movzwl 0x22(%rax),%eax
  50:	66 83 f8 0f          	cmp    $0xf,%ax
  54:	0f 86 b8 02 00 00    	jbe    312 <AppleMidi::HandleMidiMessage()+0x312>
  5a:	48 8b 45 d8          	mov    -0x28(%rbp),%rax
  5e:	48 8b 40 60          	mov    0x60(%rax),%rax
  62:	0f b7 00             	movzwl (%rax),%eax
  65:	66 83 f8 ff          	cmp    $0xffff,%ax
  69:	0f 85 a3 02 00 00    	jne    312 <AppleMidi::HandleMidiMessage()+0x312>
  6f:	48 8b 45 d8          	mov    -0x28(%rbp),%rax
  73:	8b 40 50             	mov    0x50(%rax),%eax
  76:	83 f8 01             	cmp    $0x1,%eax
  79:	0f 85 b1 00 00 00    	jne    130 <AppleMidi::HandleMidiMessage()+0x130>
  7f:	48 8b 45 d8          	mov    -0x28(%rbp),%rax
  83:	48 8b 40 60          	mov    0x60(%rax),%rax
  87:	48 89 45 f8          	mov    %rax,-0x8(%rbp)
  8b:	48 8b 45 f8          	mov    -0x8(%rbp),%rax
  8f:	0f b7 40 02          	movzwl 0x2(%rax),%eax
  93:	66 3d 49 4e          	cmp    $0x4e49,%ax
  97:	0f 85 74 02 00 00    	jne    311 <AppleMidi::HandleMidiMessage()+0x311>
  9d:	48 8b 45 d8          	mov    -0x28(%rbp),%rax
  a1:	66 c7 40 26 4f 4b    	movw   $0x4b4f,0x26(%rax)
  a7:	48 8b 45 f8          	mov    -0x8(%rbp),%rax
  ab:	8b 50 08             	mov    0x8(%rax),%edx
  ae:	48 8b 45 d8          	mov    -0x28(%rbp),%rax
  b2:	89 50 2c             	mov    %edx,0x2c(%rax)
  b5:	e8 00 00 00 00       	call   ba <AppleMidi::HandleMidiMessage()+0xba>
  ba:	48 89 c7             	mov    %rax,%rdi
  bd:	48 8b 45 d8          	mov    -0x28(%rbp),%rax
  c1:	0f b7 40 20          	movzwl 0x20(%rax),%eax
  c5:	44 0f b7 c0          	movzwl %ax,%r8d
  c9:	48 8b 45 d8          	mov    -0x28(%rbp),%rax
  cd:	8b 48 18             	mov    0x18(%rax),%ecx
  d0:	48 8b 45 d8          	mov    -0x28(%rbp),%rax
  d4:	0f b7 40 1c          	movzwl 0x1c(%rax),%eax
  d8:	0f b7 d0             	movzwl %ax,%edx
  db:	48 8b 45 d8          	mov    -0x28(%rbp),%rax
  df:	48 8d 70 24          	lea    0x24(%rax),%rsi
  e3:	48 8b 45 d8          	mov    -0x28(%rbp),%rax
  e7:	8b 40 14             	mov    0x14(%rax),%eax
  ea:	45 89 c1             	mov    %r8d,%r9d
  ed:	41 89 c8             	mov    %ecx,%r8d
  f0:	89 d1                	mov    %edx,%ecx
  f2:	48 89 f2             	mov    %rsi,%rdx
  f5:	89 c6                	mov    %eax,%esi
  f7:	e8 00 00 00 00       	call   fc <AppleMidi::HandleMidiMessage()+0xfc>
  fc:	48 8b 45 d8          	mov    -0x28(%rbp),%rax
 100:	c7 40 50 03 00 00 00 	movl   $0x3,0x50(%rax)
 107:	48 8b 45 d8          	mov    -0x28(%rbp),%rax
 10b:	0f b7 50 20          	movzwl 0x20(%rax),%edx
 10f:	48 8b 45 d8          	mov    -0x28(%rbp),%rax
 113:	66 89 50 58          	mov    %dx,0x58(%rax)
 117:	e8 00 00 00 00       	call   11c <AppleMidi::HandleMidiMessage()+0x11c>
 11c:	48 89 c7             	mov    %rax,%rdi
 11f:	e8 00 00 00 00       	call   124 <AppleMidi::HandleMidiMessage()+0x124>
 124:	48 8b 55 d8          	mov    -0x28(%rbp),%rdx
 128:	89 42 5c             	mov    %eax,0x5c(%rdx)
 12b:	e9 e1 01 00 00       	jmp    311 <AppleMidi::HandleMidiMessage()+0x311>
 130:	48 8b 45 d8          	mov    -0x28(%rbp),%rax
 134:	8b 40 50             	mov    0x50(%rax),%eax
 137:	83 f8 03             	cmp    $0x3,%eax
 13a:	0f 85 d2 01 00 00    	jne    312 <AppleMidi::HandleMidiMessage()+0x312>
 140:	48 8b 45 d8          	mov    -0x28(%rbp),%rax
 144:	48 8b 40 60          	mov    0x60(%rax),%rax
 148:	48 89 45 e8          	mov    %rax,-0x18(%rbp)
 14c:	48 8b 45 e8          	mov    -0x18(%rbp),%rax
 150:	0f b7 40 02          	movzwl 0x2(%rax),%eax
 154:	66 3d 43 4b          	cmp    $0x4b43,%ax
 158:	0f 85 b4 01 00 00    	jne    312 <AppleMidi::HandleMidiMessage()+0x312>
 15e:	48 8b 45 d8          	mov    -0x28(%rbp),%rax
 162:	48 8b 40 60          	mov    0x60(%rax),%rax
 166:	48 89 45 f0          	mov    %rax,-0x10(%rbp)
 16a:	e8 00 00 00 00       	call   16f <AppleMidi::HandleMidiMessage()+0x16f>
 16f:	48 89 c7             	mov    %rax,%rdi
 172:	e8 00 00 00 00       	call   177 <AppleMidi::HandleMidiMessage()+0x177>
 177:	48 8b 55 d8          	mov    -0x28(%rbp),%rdx
 17b:	89 42 5c             	mov    %eax,0x5c(%rdx)
 17e:	48 8b 45 f0          	mov    -0x10(%rbp),%rax
 182:	0f b6 40 08          	movzbl 0x8(%rax),%eax
 186:	84 c0                	test   %al,%al
 188:	75 72                	jne    1fc <AppleMidi::HandleMidiMessage()+0x1fc>
 18a:	48 8b 45 d8          	mov    -0x28(%rbp),%rax
 18e:	8b 50 0c             	mov    0xc(%rax),%edx
 191:	48 8b 45 f0          	mov    -0x10(%rbp),%rax
 195:	89 50 04             	mov    %edx,0x4(%rax)
 198:	48 8b 45 f0          	mov    -0x10(%rbp),%rax
 19c:	c6 40 08 01          	movb   $0x1,0x8(%rax)
 1a0:	48 8b 45 d8          	mov    -0x28(%rbp),%rax
 1a4:	48 89 c7             	mov    %rax,%rdi
 1a7:	e8 00 00 00 00       	call   1ac <AppleMidi::HandleMidiMessage()+0x1ac>
 1ac:	89 c0                	mov    %eax,%eax
 1ae:	48 0f c8             	bswap  %rax
 1b1:	48 89 c2             	mov    %rax,%rdx
 1b4:	48 8b 45 f0          	mov    -0x10(%rbp),%rax
 1b8:	48 89 50 14          	mov    %rdx,0x14(%rax)
 1bc:	e8 00 00 00 00       	call   1c1 <AppleMidi::HandleMidiMessage()+0x1c1>
 1c1:	48 89 c7             	mov    %rax,%rdi
 1c4:	48 8b 45 d8          	mov    -0x28(%rbp),%rax
 1c8:	0f b7 40 20          	movzwl 0x20(%rax),%eax
 1cc:	0f b7 f0             	movzwl %ax,%esi
 1cf:	48 8b 45 d8          	mov    -0x28(%rbp),%rax
 1d3:	8b 48 18             	mov    0x18(%rax),%ecx
 1d6:	48 8b 45 d8          	mov    -0x28(%rbp),%rax
 1da:	48 8b 50 60          	mov    0x60(%rax),%rdx
 1de:	48 8b 45 d8          	mov    -0x28(%rbp),%rax
 1e2:	8b 40 14             	mov    0x14(%rax),%eax
 1e5:	41 89 f1             	mov    %esi,%r9d
 1e8:	41 89 c8             	mov    %ecx,%r8d
 1eb:	b9 24 00 00 00       	mov    $0x24,%ecx
 1f0:	89 c6                	mov    %eax,%esi
 1f2:	e8 00 00 00 00       	call   1f7 <AppleMidi::HandleMidiMessage()+0x1f7>
 1f7:	e9 16 01 00 00       	jmp    312 <AppleMidi::HandleMidiMessage()+0x312>
 1fc:	48 8b 45 f0          	mov    -0x10(%rbp),%rax
 200:	0f b6 40 08          	movzbl 0x8(%rax),%eax
 204:	3c 01                	cmp    $0x1,%al
 206:	75 72                	jne    27a <AppleMidi::HandleMidiMessage()+0x27a>
 208:	48 8b 45 d8          	mov    -0x28(%rbp),%rax
 20c:	8b 50 0c             	mov    0xc(%rax),%edx
 20f:	48 8b 45 f0          	mov    -0x10(%rbp),%rax
 213:	89 50 04             	mov    %edx,0x4(%rax)
 216:	48 8b 45 f0          	mov    -0x10(%rbp),%rax
 21a:	c6 40 08 02          	movb   $0x2,0x8(%rax)
 21e:	48 8b 45 d8          	mov    -0x28(%rbp),%rax
 222:	48 89 c7             	mov    %rax,%rdi
 225:	e8 00 00 00 00       	call   22a <AppleMidi::HandleMidiMessage()+0x22a>
 22a:	89 c0                	mov    %eax,%eax
 22c:	48 0f c8             	bswap  %rax
 22f:	48 89 c2             	mov    %rax,%rdx
 232:	48 8b 45 f0          	mov    -0x10(%rbp),%rax
 236:	48 89 50 1c          	mov    %rdx,0x1c(%rax)
 23a:	e8 00 00 00 00       	call   23f <AppleMidi::HandleMidiMessage()+0x23f>
 23f:	48 89 c7             	mov    %rax,%rdi
 242:	48 8b 45 d8          	mov    -0x28(%rbp),%rax
 246:	0f b7 40 20          	movzwl 0x20(%rax),%eax
 24a:	0f b7 f0             	movzwl %ax,%esi
 24d:	48 8b 45 d8          	mov    -0x28(%rbp),%rax
 251:	8b 48 18             	mov    0x18(%rax),%ecx
 254:	48 8b 45 d8          	mov    -0x28(%rbp),%rax
 258:	48 8b 50 60          	mov    0x60(%rax),%rdx
 25c:	48 8b 45 d8          	mov    -0x28(%rbp),%rax
 260:	8b 40 14             	mov    0x14(%rax),%eax
 263:	41 89 f1             	mov    %esi,%r9d
 266:	41 89 c8             	mov    %ecx,%r8d
 269:	b9 24 00 00 00       	mov    $0x24,%ecx
 26e:	89 c6                	mov    %eax,%esi
 270:	e8 00 00 00 00       	call   275 <AppleMidi::HandleMidiMessage()+0x275>
 275:	e9 98 00 00 00       	jmp    312 <AppleMidi::HandleMidiMessage()+0x312>
 27a:	48 8b 45 f0          	mov    -0x10(%rbp),%rax
 27e:	0f b6 40 08          	movzbl 0x8(%rax),%eax
 282:	3c 02                	cmp    $0x2,%al
 284:	0f 85 88 00 00 00    	jne    312 <AppleMidi::HandleMidiMessage()+0x312>
 28a:	48 8b 45 d8          	mov    -0x28(%rbp),%rax
 28e:	8b 50 0c             	mov    0xc(%rax),%edx
 291:	48 8b 45 f0          	mov    -0x10(%rbp),%rax
 295:	89 50 04             	mov    %edx,0x4(%rax)
 298:	48 8b 45 f0          	mov    -0x10(%rbp),%rax
 29c:	c6 40 08 00          	movb   $0x0,0x8(%rax)
 2a0:	48 8b 45 d8          	mov    -0x28(%rbp),%rax
 2a4:	48 89 c7             	mov    %rax,%rdi
 2a7:	e8 00 00 00 00       	call   2ac <AppleMidi::HandleMidiMessage()+0x2ac>
 2ac:	89 c0                	mov    %eax,%eax
 2ae:	48 0f c8             	bswap  %rax
 2b1:	48 89 c2             	mov    %rax,%rdx
 2b4:	48 8b 45 f0          	mov    -0x10(%rbp),%rax
 2b8:	48 89 50 0c          	mov    %rdx,0xc(%rax)
 2bc:	48 8b 45 f0          	mov    -0x10(%rbp),%rax
 2c0:	48 c7 40 14 00 00 00 	movq   $0x0,0x14(%rax)
 2c7:	00 
 2c8:	48 8b 45 f0          	mov    -0x10(%rbp),%rax
 2cc:	48 c7 40 1c 00 00 00 	movq   $0x0,0x1c(%rax)
 2d3:	00 
 2d4:	e8 00 00 00 00       	call   2d9 <AppleMidi::HandleMidiMessage()+0x2d9>
 2d9:	48 89 c7             	mov    %rax,%rdi
 2dc:	48 8b 45 d8          	mov    -0x28(%rbp),%rax
 2e0:	0f b7 40 20          	movzwl 0x20(%rax),%eax
 2e4:	0f b7 f0             	movzwl %ax,%esi
 2e7:	48 8b 45 d8          	mov    -0x28(%rbp),%rax
 2eb:	8b 48 18             	mov    0x18(%rax),%ecx
 2ee:	48 8b 45 d8          	mov    -0x28(%rbp),%rax
 2f2:	48 8b 50 60          	mov    0x60(%rax),%rdx
 2f6:	48 8b 45 d8          	mov    -0x28(%rbp),%rax
 2fa:	8b 40 14             	mov    0x14(%rax),%eax
 2fd:	41 89 f1             	mov    %esi,%r9d
 300:	41 89 c8             	mov    %ecx,%r8d
 303:	b9 24 00 00 00       	mov    $0x24,%ecx
 308:	89 c6                	mov    %eax,%esi
 30a:	e8 00 00 00 00       	call   30f <AppleMidi::HandleMidiMessage()+0x30f>
 30f:	eb 01                	jmp    312 <AppleMidi::HandleMidiMessage()+0x312>
 311:	90                   	nop
 312:	c9                   	leave  
 313:	c3                   	ret    

Disassembly of section .text._ZN9AppleMidi3RunEv:

0000000000000000 <AppleMidi::Run()>:
   0:	f3 0f 1e fa          	endbr64 
   4:	55                   	push   %rbp
   5:	48 89 e5             	mov    %rsp,%rbp
   8:	48 83 ec 10          	sub    $0x10,%rsp
   c:	48 89 7d f8          	mov    %rdi,-0x8(%rbp)
  10:	e8 00 00 00 00       	call   15 <AppleMidi::Run()+0x15>
  15:	48 89 c7             	mov    %rax,%rdi
  18:	48 8b 45 f8          	mov    -0x8(%rbp),%rax
  1c:	48 8d 70 20          	lea    0x20(%rax),%rsi
  20:	48 8b 45 f8          	mov    -0x8(%rbp),%rax
  24:	48 8d 48 18          	lea    0x18(%rax),%rcx
  28:	48 8b 45 f8          	mov    -0x8(%rbp),%rax
  2c:	48 8b 50 60          	mov    0x60(%rax),%rdx
  30:	48 8b 45 f8          	mov    -0x8(%rbp),%rax
  34:	8b 40 14             	mov    0x14(%rax),%eax
  37:	49 89 f1             	mov    %rsi,%r9
  3a:	49 89 c8             	mov    %rcx,%r8
  3d:	b9 00 02 00 00       	mov    $0x200,%ecx
  42:	89 c6                	mov    %eax,%esi
  44:	e8 00 00 00 00       	call   49 <AppleMidi::Run()+0x49>
  49:	48 8b 55 f8          	mov    -0x8(%rbp),%rdx
  4d:	66 89 42 22          	mov    %ax,0x22(%rdx)
  51:	48 8b 45 f8          	mov    -0x8(%rbp),%rax
  55:	0f b7 40 22          	movzwl 0x22(%rax),%eax
  59:	66 83 f8 0b          	cmp    $0xb,%ax
  5d:	0f 97 c0             	seta   %al
  60:	0f b6 c0             	movzbl %al,%eax
  63:	48 85 c0             	test   %rax,%rax
  66:	74 1e                	je     86 <AppleMidi::Run()+0x86>
  68:	48 8b 45 f8          	mov    -0x8(%rbp),%rax
  6c:	8b 50 54             	mov    0x54(%rax),%edx
  6f:	48 8b 45 f8          	mov    -0x8(%rbp),%rax
  73:	8b 40 18             	mov    0x18(%rax),%eax
  76:	39 c2                	cmp    %eax,%edx
  78:	75 0c                	jne    86 <AppleMidi::Run()+0x86>
  7a:	48 8b 45 f8          	mov    -0x8(%rbp),%rax
  7e:	48 89 c7             	mov    %rax,%rdi
  81:	e8 00 00 00 00       	call   86 <AppleMidi::Run()+0x86>
  86:	e8 00 00 00 00       	call   8b <AppleMidi::Run()+0x8b>
  8b:	48 89 c7             	mov    %rax,%rdi
  8e:	48 8b 45 f8          	mov    -0x8(%rbp),%rax
  92:	48 8d 70 20          	lea    0x20(%rax),%rsi
  96:	48 8b 45 f8          	mov    -0x8(%rbp),%rax
  9a:	48 8d 48 18          	lea    0x18(%rax),%rcx
  9e:	48 8b 45 f8          	mov    -0x8(%rbp),%rax
  a2:	48 8b 50 60          	mov    0x60(%rax),%rdx
  a6:	48 8b 45 f8          	mov    -0x8(%rbp),%rax
  aa:	8b 40 10             	mov    0x10(%rax),%eax
  ad:	49 89 f1             	mov    %rsi,%r9
  b0:	49 89 c8             	mov    %rcx,%r8
  b3:	b9 00 02 00 00       	mov    $0x200,%ecx
  b8:	89 c6                	mov    %eax,%esi
  ba:	e8 00 00 00 00       	call   bf <AppleMidi::Run()+0xbf>
  bf:	48 8b 55 f8          	mov    -0x8(%rbp),%rdx
  c3:	66 89 42 22          	mov    %ax,0x22(%rdx)
  c7:	48 8b 45 f8          	mov    -0x8(%rbp),%rax
  cb:	0f b7 40 22          	movzwl 0x22(%rax),%eax
  cf:	66 83 f8 0f          	cmp    $0xf,%ax
  d3:	0f 97 c0             	seta   %al
  d6:	0f b6 c0             	movzbl %al,%eax
  d9:	48 85 c0             	test   %rax,%rax
  dc:	74 1d                	je     fb <AppleMidi::Run()+0xfb>
  de:	48 8b 45 f8          	mov    -0x8(%rbp),%rax
  e2:	48 8b 40 60          	mov    0x60(%rax),%rax
  e6:	0f b7 00             	movzwl (%rax),%eax
  e9:	66 83 f8 ff          	cmp    $0xffff,%ax
  ed:	75 0c                	jne    fb <AppleMidi::Run()+0xfb>
  ef:	48 8b 45 f8          	mov    -0x8(%rbp),%rax
  f3:	48 89 c7             	mov    %rax,%rdi
  f6:	e8 00 00 00 00       	call   fb <AppleMidi::Run()+0xfb>
  fb:	48 8b 45 f8          	mov    -0x8(%rbp),%rax
  ff:	8b 40 50             	mov    0x50(%rax),%eax
 102:	83 f8 03             	cmp    $0x3,%eax
 105:	75 41                	jne    148 <AppleMidi::Run()+0x148>
 107:	e8 00 00 00 00       	call   10c <AppleMidi::Run()+0x10c>
 10c:	48 89 c7             	mov    %rax,%rdi
 10f:	e8 00 00 00 00       	call   114 <AppleMidi::Run()+0x114>
 114:	48 8b 55 f8          	mov    -0x8(%rbp),%rdx
 118:	8b 52 5c             	mov    0x5c(%rdx),%edx
 11b:	29 d0                	sub    %edx,%eax
 11d:	3d 90 5f 01 00       	cmp    $0x15f90,%eax
 122:	0f 97 c0             	seta   %al
 125:	0f b6 c0             	movzbl %al,%eax
 128:	48 85 c0             	test   %rax,%rax
 12b:	0f 95 c0             	setne  %al
 12e:	84 c0                	test   %al,%al
 130:	74 16                	je     148 <AppleMidi::Run()+0x148>
 132:	48 8b 45 f8          	mov    -0x8(%rbp),%rax
 136:	c7 40 50 00 00 00 00 	movl   $0x0,0x50(%rax)
 13d:	48 8b 45 f8          	mov    -0x8(%rbp),%rax
 141:	c7 40 54 00 00 00 00 	movl   $0x0,0x54(%rax)
 148:	48 8b 45 f8          	mov    -0x8(%rbp),%rax
 14c:	48 89 c7             	mov    %rax,%rdi
 14f:	e8 00 00 00 00       	call   154 <AppleMidi::Run()+0x154>
 154:	90                   	nop
 155:	c9                   	leave  
 156:	c3                   	ret    

Disassembly of section .text._ZSt3minImERKT_S2_S2_:

0000000000000000 <unsigned long const& std::min<unsigned long>(unsigned long const&, unsigned long const&)>:
   0:	f3 0f 1e fa          	endbr64 
   4:	55                   	push   %rbp
   5:	48 89 e5             	mov    %rsp,%rbp
   8:	48 89 7d f8          	mov    %rdi,-0x8(%rbp)
   c:	48 89 75 f0          	mov    %rsi,-0x10(%rbp)
  10:	48 8b 45 f0          	mov    -0x10(%rbp),%rax
  14:	48 8b 10             	mov    (%rax),%rdx
  17:	48 8b 45 f8          	mov    -0x8(%rbp),%rax
  1b:	48 8b 00             	mov    (%rax),%rax
  1e:	48 39 c2             	cmp    %rax,%rdx
  21:	73 06                	jae    29 <unsigned long const& std::min<unsigned long>(unsigned long const&, unsigned long const&)+0x29>
  23:	48 8b 45 f0          	mov    -0x10(%rbp),%rax
  27:	eb 04                	jmp    2d <unsigned long const& std::min<unsigned long>(unsigned long const&, unsigned long const&)+0x2d>
  29:	48 8b 45 f8          	mov    -0x8(%rbp),%rax
  2d:	5d                   	pop    %rbp
  2e:	c3                   	ret    

rtpmidi.o:     file format elf64-x86-64


Disassembly of section .text._ZN7Network3GetEv:

0000000000000000 <Network::Get()>:
   0:	f3 0f 1e fa          	endbr64 
   4:	55                   	push   %rbp
   5:	48 89 e5             	mov    %rsp,%rbp
   8:	48 8b 05 00 00 00 00 	mov    0x0(%rip),%rax        # f <Network::Get()+0xf>
   f:	5d                   	pop    %rbp
  10:	c3                   	ret    

Disassembly of section .text._ZN9AppleMidiD2Ev:

0000000000000000 <AppleMidi::~AppleMidi()>:
   0:	f3 0f 1e fa          	endbr64 
   4:	55                   	push   %rbp
   5:	48 89 e5             	mov    %rsp,%rbp
   8:	48 83 ec 10          	sub    $0x10,%rsp
   c:	48 89 7d f8          	mov    %rdi,-0x8(%rbp)
  10:	48 8d 15 00 00 00 00 	lea    0x0(%rip),%rdx        # 17 <AppleMidi::~AppleMidi()+0x17>
  17:	48 8b 45 f8          	mov    -0x8(%rbp),%rax
  1b:	48 89 10             	mov    %rdx,(%rax)
  1e:	48 8b 45 f8          	mov    -0x8(%rbp),%rax
  22:	48 89 c7             	mov    %rax,%rdi
  25:	e8 00 00 00 00       	call   2a <AppleMidi::~AppleMidi()+0x2a>
  2a:	48 8b 45 f8          	mov    -0x8(%rbp),%rax
  2e:	48 89 c7             	mov    %rax,%rdi
  31:	e8 00 00 00 00       	call   36 <AppleMidi::~AppleMidi()+0x36>
  36:	90                   	nop
  37:	c9                   	leave  
  38:	c3                   	ret    

Disassembly of section .text._ZN9AppleMidiD0Ev:

0000000000000000 <AppleMidi::~AppleMidi()>:
   0:	f3 0f 1e fa          	endbr64 
   4:	55                   	push   %rbp
   5:	48 89 e5             	mov    %rsp,%rbp
   8:	48 83 ec 10          	sub    $0x10,%rsp
   c:	48 89 7d f8          	mov    %rdi,-0x8(%rbp)
  10:	48 8b 45 f8          	mov    -0x8(%rbp),%rax
  14:	48 89 c7             	mov    %rax,%rdi
  17:	e8 00 00 00 00       	call   1c <AppleMidi::~AppleMidi()+0x1c>
  1c:	48 8b 45 f8          	mov    -0x8(%rbp),%rax
  20:	48 89 c7             	mov    %rax,%rdi
  23:	e8 00 00 00 00       	call   28 <AppleMidi::~AppleMidi()+0x28>
  28:	c9                   	leave  
  29:	c3                   	ret    

Disassembly of section .text._ZN9AppleMidi4StopEv:

0000000000000000 <AppleMidi::Stop()>:
   0:	f3 0f 1e fa          	endbr64 
   4:	55                   	push   %rbp
   5:	48 89 e5             	mov    %rsp,%rbp
   8:	48 83 ec 10          	sub    $0x10,%rsp
   c:	48 89 7d f8          	mov    %rdi,-0x8(%rbp)
  10:	48 8b 45 f8          	mov    -0x8(%rbp),%rax
  14:	48 89 c7             	mov    %rax,%rdi
  17:	e8 00 00 00 00       	call   1c <AppleMidi::Stop()+0x1c>
  1c:	e8 00 00 00 00       	call   21 <AppleMidi::Stop()+0x21>
  21:	48 89 c2             	mov    %rax,%rdx
  24:	48 8b 45 f8          	mov    -0x8(%rbp),%rax
  28:	0f b7 40 1e          	movzwl 0x1e(%rax),%eax
  2c:	83 c0 01             	add    $0x1,%eax
  2f:	0f b7 c0             	movzwl %ax,%eax
  32:	89 c6                	mov    %eax,%esi
  34:	48 89 d7             	mov    %rdx,%rdi
  37:	e8 00 00 00 00       	call   3c <AppleMidi::Stop()+0x3c>
  3c:	e8 00 00 00 00       	call   41 <AppleMidi::Stop()+0x41>
  41:	48 89 c2             	mov    %rax,%rdx
  44:	48 8b 45 f8          	mov    -0x8(%rbp),%rax
  48:	0f b7 40 1e          	movzwl 0x1e(%rax),%eax
  4c:	0f b7 c0             	movzwl %ax,%eax
  4f:	89 c6                	mov    %eax,%esi
  51:	48 89 d7             	mov    %rdx,%rdi
  54:	e8 00 00 00 00       	call   59 <AppleMidi::Stop()+0x59>
  59:	90                   	nop
  5a:	c9                   	leave  
  5b:	c3                   	ret    

Disassembly of section .text._ZN7RtpMidi21GetTypeFromStatusByteEh:

0000000000000000 <RtpMidi::GetTypeFromStatusByte(unsigned char)>:
   0:	f3 0f 1e fa          	endbr64 
   4:	55                   	push   %rbp
   5:	48 89 e5             	mov    %rsp,%rbp
   8:	48 89 7d f8          	mov    %rdi,-0x8(%rbp)
   c:	89 f0                	mov    %esi,%eax
   e:	88 45 f4             	mov    %al,-0xc(%rbp)
  11:	0f b6 45 f4          	movzbl -0xc(%rbp),%eax
  15:	84 c0                	test   %al,%al
  17:	79 18                	jns    31 <RtpMidi::GetTypeFromStatusByte(unsigned char)+0x31>
  19:	80 7d f4 f4          	cmpb   $0xf4,-0xc(%rbp)
  1d:	74 12                	je     31 <RtpMidi::GetTypeFromStatusByte(unsigned char)+0x31>
  1f:	80 7d f4 f5          	cmpb   $0xf5,-0xc(%rbp)
  23:	74 0c                	je     31 <RtpMidi::GetTypeFromStatusByte(unsigned char)+0x31>
  25:	80 7d f4 f9          	cmpb   $0xf9,-0xc(%rbp)
  29:	74 06                	je     31 <RtpMidi::GetTypeFromStatusByte(unsigned char)+0x31>
  2b:	80 7d f4 fd          	cmpb   $0xfd,-0xc(%rbp)
  2f:	75 07                	jne    38 <RtpMidi::GetTypeFromStatusByte(unsigned char)+0x38>
  31:	b8 00 00 00 00       	mov    $0x0,%eax
  36:	eb 13                	jmp    4b <RtpMidi::GetTypeFromStatusByte(unsigned char)+0x4b>
  38:	80 7d f4 ef          	cmpb   $0xef,-0xc(%rbp)
  3c:	77 09                	ja     47 <RtpMidi::GetTypeFromStatusByte(unsigned char)+0x47>
  3e:	0f b6 45 f4          	movzbl -0xc(%rbp),%eax
  42:	83 e0 f0             	and    $0xfffffff0,%eax
  45:	eb 04                	jmp    4b <RtpMidi::GetTypeFromStatusByte(unsigned char)+0x4b>
  47:	0f b6 45 f4          	movzbl -0xc(%rbp),%eax
  4b:	5d                   	pop    %rbp
  4c:	c3                   	ret    

Disassembly of section .text._ZN7RtpMidi24GetChannelFromStatusByteEh:

0000000000000000 <RtpMidi::GetChannelFromStatusByte(unsigned char)>:
   0:	f3 0f 1e fa          	endbr64 
   4:	55                   	push   %rbp
   5:	48 89 e5             	mov    %rsp,%rbp
   8:	48 89 7d f8          	mov    %rdi,-0x8(%rbp)
   c:	89 f0                	mov    %esi,%eax
   e:	88 45 f4             	mov    %al,-0xc(%rbp)
  11:	0f b6 45 f4          	movzbl -0xc(%rbp),%eax
  15:	83 e0 0f             	and    $0xf,%eax
  18:	83 c0 01             	add    $0x1,%eax
  1b:	5d                   	pop    %rbp
  1c:	c3                   	ret    

Disassembly of section .text._ZN7RtpMidi10DecodeTimeEjj:

0000000000000000 <RtpMidi::DecodeTime(unsigned int, unsigned int)>:
   0:	f3 0f 1e fa          	endbr64 
   4:	55                   	push   %rbp
   5:	48 89 e5             	mov    %rsp,%rbp
   8:	48 89 7d d8          	mov    %rdi,-0x28(%rbp)
   c:	89 75 d4             	mov    %esi,-0x2c(%rbp)
   f:	89 55 d0             	mov    %edx,-0x30(%rbp)
  12:	c7 45 f0 00 00 00 00 	movl   $0x0,-0x10(%rbp)
  19:	48 c7 45 f8 00 00 00 	movq   $0x0,-0x8(%rbp)
  20:	00 
  21:	c7 45 f4 00 00 00 00 	movl   $0x0,-0xc(%rbp)
  28:	eb 47                	jmp    71 <RtpMidi::DecodeTime(unsigned int, unsigned int)+0x71>
  2a:	48 8b 45 d8          	mov    -0x28(%rbp),%rax
  2e:	48 8b 80 00 01 00 00 	mov    0x100(%rax),%rax
  35:	8b 4d f0             	mov    -0x10(%rbp),%ecx
  38:	8b 55 d0             	mov    -0x30(%rbp),%edx
  3b:	01 ca                	add    %ecx,%edx
  3d:	89 d2                	mov    %edx,%edx
  3f:	48 01 d0             	add    %rdx,%rax
  42:	0f b6 00             	movzbl (%rax),%eax
  45:	88 45 ef             	mov    %al,-0x11(%rbp)
  48:	48 8b 45 f8          	mov    -0x8(%rbp),%rax
  4c:	48 c1 e0 07          	shl    $0x7,%rax
  50:	48 89 c2             	mov    %rax,%rdx
  53:	0f b6 45 ef          	movzbl -0x11(%rbp),%eax
  57:	83 e0 7f             	and    $0x7f,%eax
  5a:	48 09 d0             	or     %rdx,%rax
  5d:	48 89 45 f8          	mov    %rax,-0x8(%rbp)
  61:	83 45 f0 01          	addl   $0x1,-0x10(%rbp)
  65:	0f b6 45 ef          	movzbl -0x11(%rbp),%eax
  69:	84 c0                	test   %al,%al
  6b:	79 0c                	jns    79 <RtpMidi::DecodeTime(unsigned int, unsigned int)+0x79>
  6d:	83 45 f4 01          	addl   $0x1,-0xc(%rbp)
  71:	83 7d f4 03          	cmpl   $0x3,-0xc(%rbp)
  75:	76 b3                	jbe    2a <RtpMidi::DecodeTime(unsigned int, unsigned int)+0x2a>
  77:	eb 01                	jmp    7a <RtpMidi::DecodeTime(unsigned int, unsigned int)+0x7a>
  79:	90                   	nop
  7a:	8b 45 f0             	mov    -0x10(%rbp),%eax
  7d:	5d                   	pop    %rbp
  7e:	c3                   	ret    

Disassembly of section .text._ZN7RtpMidi10DecodeMidiEjj:

0000000000000000 <RtpMidi::DecodeMidi(unsigned int, unsigned int)>:
   0:	f3 0f 1e fa          	endbr64 
   4:	55                   	push   %rbp
   5:	48 89 e5             	mov    %rsp,%rbp
   8:	48 83 ec 20          	sub    $0x20,%rsp
   c:	48 89 7d e8          	mov    %rdi,-0x18(%rbp)
  10:	89 75 e4             	mov    %esi,-0x1c(%rbp)
  13:	89 55 e0             	mov    %edx,-0x20(%rbp)
  16:	c7 45 fc ff ff ff ff 	movl   $0xffffffff,-0x4(%rbp)
  1d:	48 8b 45 e8          	mov    -0x18(%rbp),%rax
  21:	48 8b 90 00 01 00 00 	mov    0x100(%rax),%rdx
  28:	8b 45 e0             	mov    -0x20(%rbp),%eax
  2b:	48 01 d0             	add    %rdx,%rax
  2e:	0f b6 00             	movzbl (%rax),%eax
  31:	88 45 fa             	mov    %al,-0x6(%rbp)
  34:	0f b6 55 fa          	movzbl -0x6(%rbp),%edx
  38:	48 8b 45 e8          	mov    -0x18(%rbp),%rax
  3c:	89 d6                	mov    %edx,%esi
  3e:	48 89 c7             	mov    %rax,%rdi
  41:	e8 00 00 00 00       	call   46 <RtpMidi::DecodeMidi(unsigned int, unsigned int)+0x46>
  46:	88 45 fb             	mov    %al,-0x5(%rbp)
  49:	48 8b 45 e8          	mov    -0x18(%rbp),%rax
  4d:	48 8b 80 00 01 00 00 	mov    0x100(%rax),%rax
  54:	48 83 c0 04          	add    $0x4,%rax
  58:	8b 00                	mov    (%rax),%eax
  5a:	0f c8                	bswap  %eax
  5c:	89 c2                	mov    %eax,%edx
  5e:	48 8b 45 e8          	mov    -0x18(%rbp),%rax
  62:	89 50 68             	mov    %edx,0x68(%rax)
  65:	48 8b 45 e8          	mov    -0x18(%rbp),%rax
  69:	0f b6 55 fb          	movzbl -0x5(%rbp),%edx
  6d:	88 50 6c             	mov    %dl,0x6c(%rax)
  70:	48 8b 45 e8          	mov    -0x18(%rbp),%rax
  74:	c6 40 6d 00          	movb   $0x0,0x6d(%rax)
  78:	48 8b 45 e8          	mov    -0x18(%rbp),%rax
  7c:	c6 40 6e 00          	movb   $0x0,0x6e(%rax)
  80:	48 8b 45 e8          	mov    -0x18(%rbp),%rax
  84:	c6 40 6f 00          	movb   $0x0,0x6f(%rax)
  88:	80 7d fb f1          	cmpb   $0xf1,-0x5(%rbp)
  8c:	73 51                	jae    df <RtpMidi::DecodeMidi(unsigned int, unsigned int)+0xdf>
  8e:	80 7d fb f0          	cmpb   $0xf0,-0x5(%rbp)
  92:	0f 84 a4 01 00 00    	je     23c <RtpMidi::DecodeMidi(unsigned int, unsigned int)+0x23c>
  98:	80 7d fb f0          	cmpb   $0xf0,-0x5(%rbp)
  9c:	0f 87 25 02 00 00    	ja     2c7 <RtpMidi::DecodeMidi(unsigned int, unsigned int)+0x2c7>
  a2:	80 7d fb e0          	cmpb   $0xe0,-0x5(%rbp)
  a6:	0f 84 22 01 00 00    	je     1ce <RtpMidi::DecodeMidi(unsigned int, unsigned int)+0x1ce>
  ac:	80 7d fb e0          	cmpb   $0xe0,-0x5(%rbp)
  b0:	0f 87 11 02 00 00    	ja     2c7 <RtpMidi::DecodeMidi(unsigned int, unsigned int)+0x2c7>
  b6:	80 7d fb d0          	cmpb   $0xd0,-0x5(%rbp)
  ba:	0f 84 bf 00 00 00    	je     17f <RtpMidi::DecodeMidi(unsigned int, unsigned int)+0x17f>
  c0:	80 7d fb d0          	cmpb   $0xd0,-0x5(%rbp)
  c4:	0f 87 fd 01 00 00    	ja     2c7 <RtpMidi::DecodeMidi(unsigned int, unsigned int)+0x2c7>
  ca:	80 7d fb b0          	cmpb   $0xb0,-0x5(%rbp)
  ce:	0f 87 89 00 00 00    	ja     15d <RtpMidi::DecodeMidi(unsigned int, unsigned int)+0x15d>
  d4:	80 7d fb 80          	cmpb   $0x80,-0x5(%rbp)
  d8:	73 55                	jae    12f <RtpMidi::DecodeMidi(unsigned int, unsigned int)+0x12f>
  da:	e9 e8 01 00 00       	jmp    2c7 <RtpMidi::DecodeMidi(unsigned int, unsigned int)+0x2c7>
  df:	0f b6 45 fb          	movzbl -0x5(%rbp),%eax
  e3:	83 c0 0f             	add    $0xf,%eax
  e6:	0f b6 c0             	movzbl %al,%eax
  e9:	ba 01 00 00 00       	mov    $0x1,%edx
  ee:	89 c1                	mov    %eax,%ecx
  f0:	48 d3 e2             	shl    %cl,%rdx
  f3:	48 89 d0             	mov    %rdx,%rax
  f6:	48 89 c2             	mov    %rax,%rdx
  f9:	81 e2 a0 6e 00 00    	and    $0x6ea0,%edx
  ff:	48 85 d2             	test   %rdx,%rdx
 102:	0f 95 c2             	setne  %dl
 105:	84 d2                	test   %dl,%dl
 107:	75 5f                	jne    168 <RtpMidi::DecodeMidi(unsigned int, unsigned int)+0x168>
 109:	48 89 c2             	mov    %rax,%rdx
 10c:	83 e2 05             	and    $0x5,%edx
 10f:	48 85 d2             	test   %rdx,%rdx
 112:	0f 95 c2             	setne  %dl
 115:	84 d2                	test   %dl,%dl
 117:	75 66                	jne    17f <RtpMidi::DecodeMidi(unsigned int, unsigned int)+0x17f>
 119:	83 e0 02             	and    $0x2,%eax
 11c:	48 85 c0             	test   %rax,%rax
 11f:	0f 95 c0             	setne  %al
 122:	84 c0                	test   %al,%al
 124:	0f 85 a4 00 00 00    	jne    1ce <RtpMidi::DecodeMidi(unsigned int, unsigned int)+0x1ce>
 12a:	e9 98 01 00 00       	jmp    2c7 <RtpMidi::DecodeMidi(unsigned int, unsigned int)+0x2c7>
 12f:	0f b6 45 fb          	movzbl -0x5(%rbp),%eax
 133:	83 c0 80             	add    $0xffffff80,%eax
 136:	0f b6 c0             	movzbl %al,%eax
 139:	48 ba 01 00 01 00 01 	movabs $0x1000100010001,%rdx
 140:	00 01 00 
 143:	89 c1                	mov    %eax,%ecx
 145:	48 d3 ea             	shr    %cl,%rdx
 148:	48 89 d0             	mov    %rdx,%rax
 14b:	83 e0 01             	and    $0x1,%eax
 14e:	48 85 c0             	test   %rax,%rax
 151:	0f 95 c0             	setne  %al
 154:	84 c0                	test   %al,%al
 156:	75 76                	jne    1ce <RtpMidi::DecodeMidi(unsigned int, unsigned int)+0x1ce>
 158:	e9 6a 01 00 00       	jmp    2c7 <RtpMidi::DecodeMidi(unsigned int, unsigned int)+0x2c7>
 15d:	80 7d fb c0          	cmpb   $0xc0,-0x5(%rbp)
 161:	74 1c                	je     17f <RtpMidi::DecodeMidi(unsigned int, unsigned int)+0x17f>
 163:	e9 5f 01 00 00       	jmp    2c7 <RtpMidi::DecodeMidi(unsigned int, unsigned int)+0x2c7>
 168:	48 8b 45 e8          	mov    -0x18(%rbp),%rax
 16c:	c6 80 f0 00 00 00 01 	movb   $0x1,0xf0(%rax)
 173:	c7 45 fc 01 00 00 00 	movl   $0x1,-0x4(%rbp)
 17a:	e9 49 01 00 00       	jmp    2c8 <RtpMidi::DecodeMidi(unsigned int, unsigned int)+0x2c8>
 17f:	0f b6 55 fa          	movzbl -0x6(%rbp),%edx
 183:	48 8b 45 e8          	mov    -0x18(%rbp),%rax
 187:	89 d6                	mov    %edx,%esi
 189:	48 89 c7             	mov    %rax,%rdi
 18c:	e8 00 00 00 00       	call   191 <RtpMidi::DecodeMidi(unsigned int, unsigned int)+0x191>
 191:	48 8b 55 e8          	mov    -0x18(%rbp),%rdx
 195:	88 42 6d             	mov    %al,0x6d(%rdx)
 198:	48 8b 45 e8          	mov    -0x18(%rbp),%rax
 19c:	48 8b 90 00 01 00 00 	mov    0x100(%rax),%rdx
 1a3:	83 45 e0 01          	addl   $0x1,-0x20(%rbp)
 1a7:	8b 45 e0             	mov    -0x20(%rbp),%eax
 1aa:	48 01 d0             	add    %rdx,%rax
 1ad:	0f b6 10             	movzbl (%rax),%edx
 1b0:	48 8b 45 e8          	mov    -0x18(%rbp),%rax
 1b4:	88 50 6e             	mov    %dl,0x6e(%rax)
 1b7:	48 8b 45 e8          	mov    -0x18(%rbp),%rax
 1bb:	c6 80 f0 00 00 00 02 	movb   $0x2,0xf0(%rax)
 1c2:	c7 45 fc 02 00 00 00 	movl   $0x2,-0x4(%rbp)
 1c9:	e9 fa 00 00 00       	jmp    2c8 <RtpMidi::DecodeMidi(unsigned int, unsigned int)+0x2c8>
 1ce:	0f b6 55 fa          	movzbl -0x6(%rbp),%edx
 1d2:	48 8b 45 e8          	mov    -0x18(%rbp),%rax
 1d6:	89 d6                	mov    %edx,%esi
 1d8:	48 89 c7             	mov    %rax,%rdi
 1db:	e8 00 00 00 00       	call   1e0 <RtpMidi::DecodeMidi(unsigned int, unsigned int)+0x1e0>
 1e0:	48 8b 55 e8          	mov    -0x18(%rbp),%rdx
 1e4:	88 42 6d             	mov    %al,0x6d(%rdx)
 1e7:	48 8b 45 e8          	mov    -0x18(%rbp),%rax
 1eb:	48 8b 90 00 01 00 00 	mov    0x100(%rax),%rdx
 1f2:	83 45 e0 01          	addl   $0x1,-0x20(%rbp)
 1f6:	8b 45 e0             	mov    -0x20(%rbp),%eax
 1f9:	48 01 d0             	add    %rdx,%rax
 1fc:	0f b6 10             	movzbl (%rax),%edx
 1ff:	48 8b 45 e8          	mov    -0x18(%rbp),%rax
 203:	88 50 6e             	mov    %dl,0x6e(%rax)
 206:	48 8b 45 e8          	mov    -0x18(%rbp),%rax
 20a:	48 8b 90 00 01 00 00 	mov    0x100(%rax),%rdx
 211:	83 45 e0 01          	addl   $0x1,-0x20(%rbp)
 215:	8b 45 e0             	mov    -0x20(%rbp),%eax
 218:	48 01 d0             	add    %rdx,%rax
 21b:	0f b6 10             	movzbl (%rax),%edx
 21e:	48 8b 45 e8          	mov    -0x18(%rbp),%rax
 222:	88 50 6f             	mov    %dl,0x6f(%rax)
 225:	48 8b 45 e8          	mov    -0x18(%rbp),%rax
 229:	c6 80 f0 00 00 00 03 	movb   $0x3,0xf0(%rax)
 230:	c7 45 fc 03 00 00 00 	movl   $0x3,-0x4(%rbp)
 237:	e9 8c 00 00 00       	jmp    2c8 <RtpMidi::DecodeMidi(unsigned int, unsigned int)+0x2c8>
 23c:	c7 45 fc 00 00 00 00 	movl   $0x0,-0x4(%rbp)
 243:	eb 3f                	jmp    284 <RtpMidi::DecodeMidi(unsigned int, unsigned int)+0x284>
 245:	48 8b 45 e8          	mov    -0x18(%rbp),%rax
 249:	48 8b 88 00 01 00 00 	mov    0x100(%rax),%rcx
 250:	8b 45 e0             	mov    -0x20(%rbp),%eax
 253:	8d 50 01             	lea    0x1(%rax),%edx
 256:	89 55 e0             	mov    %edx,-0x20(%rbp)
 259:	89 c0                	mov    %eax,%eax
 25b:	48 01 c8             	add    %rcx,%rax
 25e:	0f b6 08             	movzbl (%rax),%ecx
 261:	48 8b 55 e8          	mov    -0x18(%rbp),%rdx
 265:	8b 45 fc             	mov    -0x4(%rbp),%eax
 268:	48 98                	cltq   
 26a:	88 4c 02 70          	mov    %cl,0x70(%rdx,%rax,1)
 26e:	48 8b 55 e8          	mov    -0x18(%rbp),%rdx
 272:	8b 45 fc             	mov    -0x4(%rbp),%eax
 275:	48 98                	cltq   
 277:	0f b6 44 02 70       	movzbl 0x70(%rdx,%rax,1),%eax
 27c:	3c f7                	cmp    $0xf7,%al
 27e:	74 16                	je     296 <RtpMidi::DecodeMidi(unsigned int, unsigned int)+0x296>
 280:	83 45 fc 01          	addl   $0x1,-0x4(%rbp)
 284:	8b 45 fc             	mov    -0x4(%rbp),%eax
 287:	39 45 e4             	cmp    %eax,-0x1c(%rbp)
 28a:	76 0b                	jbe    297 <RtpMidi::DecodeMidi(unsigned int, unsigned int)+0x297>
 28c:	8b 45 fc             	mov    -0x4(%rbp),%eax
 28f:	83 f8 7f             	cmp    $0x7f,%eax
 292:	76 b1                	jbe    245 <RtpMidi::DecodeMidi(unsigned int, unsigned int)+0x245>
 294:	eb 01                	jmp    297 <RtpMidi::DecodeMidi(unsigned int, unsigned int)+0x297>
 296:	90                   	nop
 297:	83 45 fc 01          	addl   $0x1,-0x4(%rbp)
 29b:	8b 45 fc             	mov    -0x4(%rbp),%eax
 29e:	89 c2                	mov    %eax,%edx
 2a0:	48 8b 45 e8          	mov    -0x18(%rbp),%rax
 2a4:	88 50 6e             	mov    %dl,0x6e(%rax)
 2a7:	8b 45 fc             	mov    -0x4(%rbp),%eax
 2aa:	c1 f8 08             	sar    $0x8,%eax
 2ad:	89 c2                	mov    %eax,%edx
 2af:	48 8b 45 e8          	mov    -0x18(%rbp),%rax
 2b3:	88 50 6f             	mov    %dl,0x6f(%rax)
 2b6:	8b 45 fc             	mov    -0x4(%rbp),%eax
 2b9:	89 c2                	mov    %eax,%edx
 2bb:	48 8b 45 e8          	mov    -0x18(%rbp),%rax
 2bf:	88 90 f0 00 00 00    	mov    %dl,0xf0(%rax)
 2c5:	eb 01                	jmp    2c8 <RtpMidi::DecodeMidi(unsigned int, unsigned int)+0x2c8>
 2c7:	90                   	nop
 2c8:	48 8b 45 e8          	mov    -0x18(%rbp),%rax
 2cc:	48 8b 80 f8 00 00 00 	mov    0xf8(%rax),%rax
 2d3:	48 85 c0             	test   %rax,%rax
 2d6:	74 30                	je     308 <RtpMidi::DecodeMidi(unsigned int, unsigned int)+0x308>
 2d8:	48 8b 45 e8          	mov    -0x18(%rbp),%rax
 2dc:	48 8b 80 f8 00 00 00 	mov    0xf8(%rax),%rax
 2e3:	48 8b 55 e8          	mov    -0x18(%rbp),%rdx
 2e7:	48 8b 92 f8 00 00 00 	mov    0xf8(%rdx),%rdx
 2ee:	48 8b 12             	mov    (%rdx),%rdx
 2f1:	48 83 c2 10          	add    $0x10,%rdx
 2f5:	48 8b 12             	mov    (%rdx),%rdx
 2f8:	48 8b 4d e8          	mov    -0x18(%rbp),%rcx
 2fc:	48 83 c1 68          	add    $0x68,%rcx
 300:	48 89 ce             	mov    %rcx,%rsi
 303:	48 89 c7             	mov    %rax,%rdi
 306:	ff d2                	call   *%rdx
 308:	8b 45 fc             	mov    -0x4(%rbp),%eax
 30b:	c9                   	leave  
 30c:	c3                   	ret    

Disassembly of section .text._ZN7RtpMidi13HandleRtpMidiEPKh:

0000000000000000 <RtpMidi::HandleRtpMidi(unsigned char const*)>:
   0:	f3 0f 1e fa          	endbr64 
   4:	55                   	push   %rbp
   5:	48 89 e5             	mov    %rsp,%rbp
   8:	48 83 ec 30          	sub    $0x30,%rsp
   c:	48 89 7d d8          	mov    %rdi,-0x28(%rbp)
  10:	48 89 75 d0          	mov    %rsi,-0x30(%rbp)
  14:	48 8b 45 d8          	mov    -0x28(%rbp),%rax
  18:	48 8b 55 d0          	mov    -0x30(%rbp),%rdx
  1c:	48 89 90 00 01 00 00 	mov    %rdx,0x100(%rax)
  23:	48 8b 45 d8          	mov    -0x28(%rbp),%rax
  27:	48 8b 80 00 01 00 00 	mov    0x100(%rax),%rax
  2e:	0f b6 40 0c          	movzbl 0xc(%rax),%eax
  32:	88 45 ea             	mov    %al,-0x16(%rbp)
  35:	0f b6 45 ea          	movzbl -0x16(%rbp),%eax
  39:	83 e0 0f             	and    $0xf,%eax
  3c:	89 45 ec             	mov    %eax,-0x14(%rbp)
  3f:	0f b6 45 ea          	movzbl -0x16(%rbp),%eax
  43:	84 c0                	test   %al,%al
  45:	79 2c                	jns    73 <RtpMidi::HandleRtpMidi(unsigned char const*)+0x73>
  47:	48 8b 45 d8          	mov    -0x28(%rbp),%rax
  4b:	48 8b 80 00 01 00 00 	mov    0x100(%rax),%rax
  52:	0f b6 40 0d          	movzbl 0xd(%rax),%eax
  56:	88 45 eb             	mov    %al,-0x15(%rbp)
  59:	8b 45 ec             	mov    -0x14(%rbp),%eax
  5c:	c1 e0 08             	shl    $0x8,%eax
  5f:	89 c2                	mov    %eax,%edx
  61:	0f b6 45 eb          	movzbl -0x15(%rbp),%eax
  65:	09 d0                	or     %edx,%eax
  67:	89 45 ec             	mov    %eax,-0x14(%rbp)
  6a:	c7 45 f0 0e 00 00 00 	movl   $0xe,-0x10(%rbp)
  71:	eb 07                	jmp    7a <RtpMidi::HandleRtpMidi(unsigned char const*)+0x7a>
  73:	c7 45 f0 0d 00 00 00 	movl   $0xd,-0x10(%rbp)
  7a:	c7 45 f4 00 00 00 00 	movl   $0x0,-0xc(%rbp)
  81:	eb 6d                	jmp    f0 <RtpMidi::HandleRtpMidi(unsigned char const*)+0xf0>
  83:	83 7d f4 00          	cmpl   $0x0,-0xc(%rbp)
  87:	75 0b                	jne    94 <RtpMidi::HandleRtpMidi(unsigned char const*)+0x94>
  89:	0f b6 45 ea          	movzbl -0x16(%rbp),%eax
  8d:	83 e0 20             	and    $0x20,%eax
  90:	85 c0                	test   %eax,%eax
  92:	74 29                	je     bd <RtpMidi::HandleRtpMidi(unsigned char const*)+0xbd>
  94:	8b 55 f0             	mov    -0x10(%rbp),%edx
  97:	8b 4d ec             	mov    -0x14(%rbp),%ecx
  9a:	48 8b 45 d8          	mov    -0x28(%rbp),%rax
  9e:	89 ce                	mov    %ecx,%esi
  a0:	48 89 c7             	mov    %rax,%rdi
  a3:	e8 00 00 00 00       	call   a8 <RtpMidi::HandleRtpMidi(unsigned char const*)+0xa8>
  a8:	89 45 f8             	mov    %eax,-0x8(%rbp)
  ab:	83 7d f8 00          	cmpl   $0x0,-0x8(%rbp)
  af:	78 47                	js     f8 <RtpMidi::HandleRtpMidi(unsigned char const*)+0xf8>
  b1:	8b 45 f8             	mov    -0x8(%rbp),%eax
  b4:	01 45 f0             	add    %eax,-0x10(%rbp)
  b7:	8b 45 f8             	mov    -0x8(%rbp),%eax
  ba:	29 45 ec             	sub    %eax,-0x14(%rbp)
  bd:	83 7d ec 00          	cmpl   $0x0,-0x14(%rbp)
  c1:	74 2d                	je     f0 <RtpMidi::HandleRtpMidi(unsigned char const*)+0xf0>
  c3:	8b 55 f0             	mov    -0x10(%rbp),%edx
  c6:	8b 4d ec             	mov    -0x14(%rbp),%ecx
  c9:	48 8b 45 d8          	mov    -0x28(%rbp),%rax
  cd:	89 ce                	mov    %ecx,%esi
  cf:	48 89 c7             	mov    %rax,%rdi
  d2:	e8 00 00 00 00       	call   d7 <RtpMidi::HandleRtpMidi(unsigned char const*)+0xd7>
  d7:	89 45 fc             	mov    %eax,-0x4(%rbp)
  da:	83 7d fc 00          	cmpl   $0x0,-0x4(%rbp)
  de:	78 1b                	js     fb <RtpMidi::HandleRtpMidi(unsigned char const*)+0xfb>
  e0:	8b 45 fc             	mov    -0x4(%rbp),%eax
  e3:	01 45 f0             	add    %eax,-0x10(%rbp)
  e6:	8b 45 fc             	mov    -0x4(%rbp),%eax
  e9:	29 45 ec             	sub    %eax,-0x14(%rbp)
  ec:	83 45 f4 01          	addl   $0x1,-0xc(%rbp)
  f0:	83 7d ec 00          	cmpl   $0x0,-0x14(%rbp)
  f4:	75 8d                	jne    83 <RtpMidi::HandleRtpMidi(unsigned char const*)+0x83>
  f6:	eb 04                	jmp    fc <RtpMidi::HandleRtpMidi(unsigned char const*)+0xfc>
  f8:	90                   	nop
  f9:	eb 01                	jmp    fc <RtpMidi::HandleRtpMidi(unsigned char const*)+0xfc>
  fb:	90                   	nop
  fc:	c9                   	leave  
  fd:	c3                   	ret    

Disassembly of section .text._ZN7RtpMidiD2Ev:

0000000000000000 <RtpMidi::~RtpMidi()>:
   0:	f3 0f 1e fa          	endbr64 
   4:	55                   	push   %rbp
   5:	48 89 e5             	mov    %rsp,%rbp
   8:	48 83 ec 10          	sub    $0x10,%rsp
   c:	48 89 7d f8          	mov    %rdi,-0x8(%rbp)
  10:	48 8d 15 00 00 00 00 	lea    0x0(%rip),%rdx        # 17 <RtpMidi::~RtpMidi()+0x17>
  17:	48 8b 45 f8          	mov    -0x8(%rbp),%rax
  1b:	48 89 10             	mov    %rdx,(%rax)
  1e:	48 8b 45 f8          	mov    -0x8(%rbp),%rax
  22:	48 89 c7             	mov    %rax,%rdi
  25:	e8 00 00 00 00       	call   2a <RtpMidi::~RtpMidi()+0x2a>
  2a:	90                   	nop
  2b:	c9                   	leave  
  2c:	c3                   	ret    

Disassembly of section .text._ZN7RtpMidiD0Ev:

0000000000000000 <RtpMidi::~RtpMidi()>:
   0:	f3 0f 1e fa          	endbr64 
   4:	55                   	push   %rbp
   5:	48 89 e5             	mov    %rsp,%rbp
   8:	48 83 ec 10          	sub    $0x10,%rsp
   c:	48 89 7d f8          	mov    %rdi,-0x8(%rbp)
  10:	48 8b 45 f8          	mov    -0x8(%rbp),%rax
  14:	48 89 c7             	mov    %rax,%rdi
  17:	e8 00 00 00 00       	call   1c <RtpMidi::~RtpMidi()+0x1c>
  1c:	48 8b 45 f8          	mov    -0x8(%rbp),%rax
  20:	48 89 c7             	mov    %rax,%rdi
  23:	e8 00 00 00 00       	call   28 <RtpMidi::~RtpMidi()+0x28>
  28:	c9                   	leave  
  29:	c3                   	ret    
