In archive lib_linux/libws28xx.a:

pixelconfiguration.o:     file format elf64-x86-64


Disassembly of section .text._ZN5gammaL17get_table_defaultEN5pixel4TypeE:

0000000000000000 <gamma::get_table_default(pixel::Type)>:
   0:	48 8d 05 00 00 00 00 	lea    0x0(%rip),%rax        # 7 <gamma::get_table_default(pixel::Type)+0x7>
   7:	85 ff                	test   %edi,%edi
   9:	74 24                	je     2f <gamma::get_table_default(pixel::Type)+0x2f>
   b:	8d 57 f5             	lea    -0xb(%rdi),%edx
   e:	48 8d 05 00 00 00 00 	lea    0x0(%rip),%rax        # 15 <gamma::get_table_default(pixel::Type)+0x15>
  15:	83 fa 01             	cmp    $0x1,%edx
  18:	76 15                	jbe    2f <gamma::get_table_default(pixel::Type)+0x2f>
  1a:	83 ff 0d             	cmp    $0xd,%edi
  1d:	48 8d 05 00 00 00 00 	lea    0x0(%rip),%rax        # 24 <gamma::get_table_default(pixel::Type)+0x24>
  24:	48 8d 15 00 00 00 00 	lea    0x0(%rip),%rdx        # 2b <gamma::get_table_default(pixel::Type)+0x2b>
  2b:	48 0f 44 c2          	cmove  %rdx,%rax
  2f:	c3                   	ret    

Disassembly of section .text._ZN5gammaL9get_tableEj:

0000000000000000 <gamma::get_table(unsigned int)>:
   0:	8d 57 ec             	lea    -0x14(%rdi),%edx
   3:	48 8d 05 00 00 00 00 	lea    0x0(%rip),%rax        # a <gamma::get_table(unsigned int)+0xa>
   a:	83 fa 05             	cmp    $0x5,%edx
   d:	77 47                	ja     56 <gamma::get_table(unsigned int)+0x56>
   f:	83 ef 15             	sub    $0x15,%edi
  12:	48 8d 05 00 00 00 00 	lea    0x0(%rip),%rax        # 19 <gamma::get_table(unsigned int)+0x19>
  19:	83 ff 04             	cmp    $0x4,%edi
  1c:	77 38                	ja     56 <gamma::get_table(unsigned int)+0x56>
  1e:	48 8d 15 00 00 00 00 	lea    0x0(%rip),%rdx        # 25 <gamma::get_table(unsigned int)+0x25>
  25:	48 63 04 ba          	movslq (%rdx,%rdi,4),%rax
  29:	48 01 d0             	add    %rdx,%rax
  2c:	3e ff e0             	notrack jmp *%rax
  2f:	48 8d 05 00 00 00 00 	lea    0x0(%rip),%rax        # 36 <gamma::get_table(unsigned int)+0x36>
  36:	c3                   	ret    
  37:	48 8d 05 00 00 00 00 	lea    0x0(%rip),%rax        # 3e <gamma::get_table(unsigned int)+0x3e>
  3e:	c3                   	ret    
  3f:	48 8d 05 00 00 00 00 	lea    0x0(%rip),%rax        # 46 <gamma::get_table(unsigned int)+0x46>
  46:	c3                   	ret    
  47:	48 8d 05 00 00 00 00 	lea    0x0(%rip),%rax        # 4e <gamma::get_table(unsigned int)+0x4e>
  4e:	c3                   	ret    
  4f:	48 8d 05 00 00 00 00 	lea    0x0(%rip),%rax        # 56 <gamma::get_table(unsigned int)+0x56>
  56:	c3                   	ret    

Disassembly of section .text._ZN18PixelConfiguration8ValidateERj:

0000000000000000 <PixelConfiguration::Validate(unsigned int&)>:
   0:	f3 0f 1e fa          	endbr64 
   4:	41 55                	push   %r13
   6:	b9 2a 00 00 00       	mov    $0x2a,%ecx
   b:	49 89 f5             	mov    %rsi,%r13
   e:	41 54                	push   %r12
  10:	4c 8d 25 00 00 00 00 	lea    0x0(%rip),%r12        # 17 <PixelConfiguration::Validate(unsigned int&)+0x17>
  17:	55                   	push   %rbp
  18:	48 8d 2d 00 00 00 00 	lea    0x0(%rip),%rbp        # 1f <PixelConfiguration::Validate(unsigned int&)+0x1f>
  1f:	4c 89 e2             	mov    %r12,%rdx
  22:	53                   	push   %rbx
  23:	48 89 ee             	mov    %rbp,%rsi
  26:	48 89 fb             	mov    %rdi,%rbx
  29:	48 8d 3d 00 00 00 00 	lea    0x0(%rip),%rdi        # 30 <PixelConfiguration::Validate(unsigned int&)+0x30>
  30:	48 83 ec 18          	sub    $0x18,%rsp
  34:	64 48 8b 04 25 28 00 	mov    %fs:0x28,%rax
  3b:	00 00 
  3d:	48 89 44 24 08       	mov    %rax,0x8(%rsp)
  42:	31 c0                	xor    %eax,%eax
  44:	e8 00 00 00 00       	call   49 <PixelConfiguration::Validate(unsigned int&)+0x49>
  49:	8b 3b                	mov    (%rbx),%edi
  4b:	8b 43 04             	mov    0x4(%rbx),%eax
  4e:	83 ff 07             	cmp    $0x7,%edi
  51:	8d 57 f5             	lea    -0xb(%rdi),%edx
  54:	75 17                	jne    6d <PixelConfiguration::Validate(unsigned int&)+0x6d>
  56:	b9 00 02 00 00       	mov    $0x200,%ecx
  5b:	39 c8                	cmp    %ecx,%eax
  5d:	0f 47 c1             	cmova  %ecx,%eax
  60:	89 43 04             	mov    %eax,0x4(%rbx)
  63:	41 c7 45 00 04 00 00 	movl   $0x4,0x0(%r13)
  6a:	00 
  6b:	eb 2c                	jmp    99 <PixelConfiguration::Validate(unsigned int&)+0x99>
  6d:	b9 a8 02 00 00       	mov    $0x2a8,%ecx
  72:	39 c8                	cmp    %ecx,%eax
  74:	0f 47 c1             	cmova  %ecx,%eax
  77:	89 43 04             	mov    %eax,0x4(%rbx)
  7a:	41 c7 45 00 03 00 00 	movl   $0x3,0x0(%r13)
  81:	00 
  82:	83 fa 01             	cmp    $0x1,%edx
  85:	77 12                	ja     99 <PixelConfiguration::Validate(unsigned int&)+0x99>
  87:	8a 43 12             	mov    0x12(%rbx),%al
  8a:	89 c1                	mov    %eax,%ecx
  8c:	83 c9 e0             	or     $0xffffffe0,%ecx
  8f:	3c 1f                	cmp    $0x1f,%al
  91:	b0 ff                	mov    $0xff,%al
  93:	0f 46 c1             	cmovbe %ecx,%eax
  96:	88 43 12             	mov    %al,0x12(%rbx)
  99:	8b 43 08             	mov    0x8(%rbx),%eax
  9c:	83 fa 02             	cmp    $0x2,%edx
  9f:	76 04                	jbe    a5 <PixelConfiguration::Validate(unsigned int&)+0xa5>
  a1:	85 ff                	test   %edi,%edi
  a3:	75 49                	jne    ee <PixelConfiguration::Validate(unsigned int&)+0xee>
  a5:	c6 43 15 00          	movb   $0x0,0x15(%rbx)
  a9:	83 f8 06             	cmp    $0x6,%eax
  ac:	75 07                	jne    b5 <PixelConfiguration::Validate(unsigned int&)+0xb5>
  ae:	c7 43 08 00 00 00 00 	movl   $0x0,0x8(%rbx)
  b5:	8b 43 0c             	mov    0xc(%rbx),%eax
  b8:	83 ff 0d             	cmp    $0xd,%edi
  bb:	75 1d                	jne    da <PixelConfiguration::Validate(unsigned int&)+0xda>
  bd:	85 c0                	test   %eax,%eax
  bf:	75 09                	jne    ca <PixelConfiguration::Validate(unsigned int&)+0xca>
  c1:	c7 43 0c 00 09 3d 00 	movl   $0x3d0900,0xc(%rbx)
  c8:	eb 75                	jmp    13f <PixelConfiguration::Validate(unsigned int&)+0x13f>
  ca:	3d c0 e1 e4 00       	cmp    $0xe4e1c0,%eax
  cf:	76 6e                	jbe    13f <PixelConfiguration::Validate(unsigned int&)+0x13f>
  d1:	c7 43 0c c0 e1 e4 00 	movl   $0xe4e1c0,0xc(%rbx)
  d8:	eb 65                	jmp    13f <PixelConfiguration::Validate(unsigned int&)+0x13f>
  da:	85 c0                	test   %eax,%eax
  dc:	74 e3                	je     c1 <PixelConfiguration::Validate(unsigned int&)+0xc1>
  de:	3d 40 78 7d 01       	cmp    $0x17d7840,%eax
  e3:	76 5a                	jbe    13f <PixelConfiguration::Validate(unsigned int&)+0x13f>
  e5:	c7 43 0c 40 78 7d 01 	movl   $0x17d7840,0xc(%rbx)
  ec:	eb 51                	jmp    13f <PixelConfiguration::Validate(unsigned int&)+0x13f>
  ee:	c6 43 15 01          	movb   $0x1,0x15(%rbx)
  f2:	83 f8 06             	cmp    $0x6,%eax
  f5:	75 08                	jne    ff <PixelConfiguration::Validate(unsigned int&)+0xff>
  f7:	e8 00 00 00 00       	call   fc <PixelConfiguration::Validate(unsigned int&)+0xfc>
  fc:	89 43 08             	mov    %eax,0x8(%rbx)
  ff:	8a 43 11             	mov    0x11(%rbx),%al
 102:	38 43 10             	cmp    %al,0x10(%rbx)
 105:	72 06                	jb     10d <PixelConfiguration::Validate(unsigned int&)+0x10d>
 107:	66 c7 43 10 00 00    	movw   $0x0,0x10(%rbx)
 10d:	8b 3b                	mov    (%rbx),%edi
 10f:	48 8d 54 24 07       	lea    0x7(%rsp),%rdx
 114:	48 8d 74 24 06       	lea    0x6(%rsp),%rsi
 119:	e8 00 00 00 00       	call   11e <PixelConfiguration::Validate(unsigned int&)+0x11e>
 11e:	80 7b 10 00          	cmpb   $0x0,0x10(%rbx)
 122:	75 07                	jne    12b <PixelConfiguration::Validate(unsigned int&)+0x12b>
 124:	8a 44 24 06          	mov    0x6(%rsp),%al
 128:	88 43 10             	mov    %al,0x10(%rbx)
 12b:	80 7b 11 00          	cmpb   $0x0,0x11(%rbx)
 12f:	75 07                	jne    138 <PixelConfiguration::Validate(unsigned int&)+0x138>
 131:	8a 44 24 07          	mov    0x7(%rsp),%al
 135:	88 43 11             	mov    %al,0x11(%rbx)
 138:	c7 43 0c 00 a8 61 00 	movl   $0x61a800,0xc(%rbx)
 13f:	80 7b 14 00          	cmpb   $0x0,0x14(%rbx)
 143:	48 8d 05 00 00 00 00 	lea    0x0(%rip),%rax        # 14a <PixelConfiguration::Validate(unsigned int&)+0x14a>
 14a:	74 17                	je     163 <PixelConfiguration::Validate(unsigned int&)+0x163>
 14c:	0f b6 7b 13          	movzbl 0x13(%rbx),%edi
 150:	40 84 ff             	test   %dil,%dil
 153:	75 09                	jne    15e <PixelConfiguration::Validate(unsigned int&)+0x15e>
 155:	8b 3b                	mov    (%rbx),%edi
 157:	e8 00 00 00 00       	call   15c <PixelConfiguration::Validate(unsigned int&)+0x15c>
 15c:	eb 05                	jmp    163 <PixelConfiguration::Validate(unsigned int&)+0x163>
 15e:	e8 00 00 00 00       	call   163 <PixelConfiguration::Validate(unsigned int&)+0x163>
 163:	48 89 43 18          	mov    %rax,0x18(%rbx)
 167:	48 8b 44 24 08       	mov    0x8(%rsp),%rax
 16c:	64 48 2b 04 25 28 00 	sub    %fs:0x28,%rax
 173:	00 00 
 175:	74 05                	je     17c <PixelConfiguration::Validate(unsigned int&)+0x17c>
 177:	e8 00 00 00 00       	call   17c <PixelConfiguration::Validate(unsigned int&)+0x17c>
 17c:	48 83 c4 18          	add    $0x18,%rsp
 180:	4c 89 e2             	mov    %r12,%rdx
 183:	48 89 ee             	mov    %rbp,%rsi
 186:	b9 75 00 00 00       	mov    $0x75,%ecx
 18b:	5b                   	pop    %rbx
 18c:	48 8d 3d 00 00 00 00 	lea    0x0(%rip),%rdi        # 193 <PixelConfiguration::Validate(unsigned int&)+0x193>
 193:	5d                   	pop    %rbp
 194:	31 c0                	xor    %eax,%eax
 196:	41 5c                	pop    %r12
 198:	41 5d                	pop    %r13
 19a:	e9 00 00 00 00       	jmp    19f <.LC14+0xf0>

Disassembly of section .text._ZN18PixelConfiguration6GetTxHEN5pixel4TypeERhS2_:

0000000000000000 <PixelConfiguration::GetTxH(pixel::Type, unsigned char&, unsigned char&)>:
   0:	f3 0f 1e fa          	endbr64 
   4:	c6 06 c0             	movb   $0xc0,(%rsi)
   7:	b0 f8                	mov    $0xf8,%al
   9:	83 ff 03             	cmp    $0x3,%edi
   c:	74 0e                	je     1c <PixelConfiguration::GetTxH(pixel::Type, unsigned char&, unsigned char&)+0x1c>
   e:	83 ef 08             	sub    $0x8,%edi
  11:	83 ff 03             	cmp    $0x3,%edi
  14:	19 c0                	sbb    %eax,%eax
  16:	83 e0 0c             	and    $0xc,%eax
  19:	83 e8 10             	sub    $0x10,%eax
  1c:	88 02                	mov    %al,(%rdx)
  1e:	c3                   	ret    

Disassembly of section .text._ZN18PixelConfiguration5PrintEv:

0000000000000000 <PixelConfiguration::Print()>:
   0:	f3 0f 1e fa          	endbr64 
   4:	41 54                	push   %r12
   6:	55                   	push   %rbp
   7:	53                   	push   %rbx
   8:	48 89 fb             	mov    %rdi,%rbx
   b:	48 8d 3d 00 00 00 00 	lea    0x0(%rip),%rdi        # 12 <PixelConfiguration::Print()+0x12>
  12:	e8 00 00 00 00       	call   17 <PixelConfiguration::Print()+0x17>
  17:	44 8b 23             	mov    (%rbx),%r12d
  1a:	44 89 e7             	mov    %r12d,%edi
  1d:	e8 00 00 00 00       	call   22 <PixelConfiguration::Print()+0x22>
  22:	44 89 e2             	mov    %r12d,%edx
  25:	48 8d 3d 00 00 00 00 	lea    0x0(%rip),%rdi        # 2c <PixelConfiguration::Print()+0x2c>
  2c:	48 89 c6             	mov    %rax,%rsi
  2f:	31 c0                	xor    %eax,%eax
  31:	e8 00 00 00 00       	call   36 <PixelConfiguration::Print()+0x36>
  36:	8b 73 04             	mov    0x4(%rbx),%esi
  39:	31 c0                	xor    %eax,%eax
  3b:	48 8d 3d 00 00 00 00 	lea    0x0(%rip),%rdi        # 42 <PixelConfiguration::Print()+0x42>
  42:	e8 00 00 00 00       	call   47 <PixelConfiguration::Print()+0x47>
  47:	80 7b 15 00          	cmpb   $0x0,0x15(%rbx)
  4b:	74 60                	je     ad <PixelConfiguration::Print()+0xad>
  4d:	44 8b 63 08          	mov    0x8(%rbx),%r12d
  51:	44 89 e7             	mov    %r12d,%edi
  54:	e8 00 00 00 00       	call   59 <PixelConfiguration::Print()+0x59>
  59:	44 89 e2             	mov    %r12d,%edx
  5c:	48 8d 3d 00 00 00 00 	lea    0x0(%rip),%rdi        # 63 <PixelConfiguration::Print()+0x63>
  63:	48 89 c6             	mov    %rax,%rsi
  66:	31 c0                	xor    %eax,%eax
  68:	e8 00 00 00 00       	call   6d <PixelConfiguration::Print()+0x6d>
  6d:	0f b6 6b 10          	movzbl 0x10(%rbx),%ebp
  71:	89 ef                	mov    %ebp,%edi
  73:	e8 00 00 00 00       	call   78 <PixelConfiguration::Print()+0x78>
  78:	89 ee                	mov    %ebp,%esi
  7a:	48 8d 3d 00 00 00 00 	lea    0x0(%rip),%rdi        # 81 <PixelConfiguration::Print()+0x81>
  81:	b0 01                	mov    $0x1,%al
  83:	f3 0f 5a c0          	cvtss2sd %xmm0,%xmm0
  87:	e8 00 00 00 00       	call   8c <PixelConfiguration::Print()+0x8c>
  8c:	0f b6 6b 11          	movzbl 0x11(%rbx),%ebp
  90:	89 ef                	mov    %ebp,%edi
  92:	e8 00 00 00 00       	call   97 <PixelConfiguration::Print()+0x97>
  97:	89 ee                	mov    %ebp,%esi
  99:	48 8d 3d 00 00 00 00 	lea    0x0(%rip),%rdi        # a0 <PixelConfiguration::Print()+0xa0>
  a0:	b0 01                	mov    $0x1,%al
  a2:	f3 0f 5a c0          	cvtss2sd %xmm0,%xmm0
  a6:	e8 00 00 00 00       	call   ab <PixelConfiguration::Print()+0xab>
  ab:	eb 1c                	jmp    c9 <PixelConfiguration::Print()+0xc9>
  ad:	8b 03                	mov    (%rbx),%eax
  af:	83 e8 0b             	sub    $0xb,%eax
  b2:	83 f8 01             	cmp    $0x1,%eax
  b5:	77 12                	ja     c9 <PixelConfiguration::Print()+0xc9>
  b7:	0f b6 73 12          	movzbl 0x12(%rbx),%esi
  bb:	48 8d 3d 00 00 00 00 	lea    0x0(%rip),%rdi        # c2 <PixelConfiguration::Print()+0xc2>
  c2:	31 c0                	xor    %eax,%eax
  c4:	e8 00 00 00 00       	call   c9 <PixelConfiguration::Print()+0xc9>
  c9:	80 7b 14 00          	cmpb   $0x0,0x14(%rbx)
  cd:	48 8d 05 00 00 00 00 	lea    0x0(%rip),%rax        # d4 <PixelConfiguration::Print()+0xd4>
  d4:	48 8d 35 00 00 00 00 	lea    0x0(%rip),%rsi        # db <PixelConfiguration::Print()+0xdb>
  db:	48 0f 44 f0          	cmove  %rax,%rsi
  df:	48 8d 3d 00 00 00 00 	lea    0x0(%rip),%rdi        # e6 <PixelConfiguration::Print()+0xe6>
  e6:	31 c0                	xor    %eax,%eax
  e8:	e8 00 00 00 00       	call   ed <PixelConfiguration::Print()+0xed>
  ed:	8b 73 0c             	mov    0xc(%rbx),%esi
  f0:	48 8d 3d 00 00 00 00 	lea    0x0(%rip),%rdi        # f7 <PixelConfiguration::Print()+0xf7>
  f7:	5b                   	pop    %rbx
  f8:	31 c0                	xor    %eax,%eax
  fa:	5d                   	pop    %rbp
  fb:	41 5c                	pop    %r12
  fd:	e9 00 00 00 00       	jmp    102 <.LC14+0x53>

pixeltype.o:     file format elf64-x86-64


Disassembly of section .text._ZN9PixelType7GetTypeEN5pixel4TypeE:

0000000000000000 <PixelType::GetType(pixel::Type)>:
   0:	f3 0f 1e fa          	endbr64 
   4:	48 8d 05 00 00 00 00 	lea    0x0(%rip),%rax        # b <PixelType::GetType(pixel::Type)+0xb>
   b:	83 ff 0d             	cmp    $0xd,%edi
   e:	7f 0d                	jg     1d <PixelType::GetType(pixel::Type)+0x1d>
  10:	89 ff                	mov    %edi,%edi
  12:	48 8d 05 00 00 00 00 	lea    0x0(%rip),%rax        # 19 <PixelType::GetType(pixel::Type)+0x19>
  19:	48 8d 04 f8          	lea    (%rax,%rdi,8),%rax
  1d:	c3                   	ret    

Disassembly of section .text._ZN9PixelType7GetTypeEPKc:

0000000000000000 <PixelType::GetType(char const*)>:
   0:	f3 0f 1e fa          	endbr64 
   4:	41 54                	push   %r12
   6:	55                   	push   %rbp
   7:	53                   	push   %rbx
   8:	48 85 ff             	test   %rdi,%rdi
   b:	75 1f                	jne    2c <PixelType::GetType(char const*)+0x2c>
   d:	48 8d 0d 00 00 00 00 	lea    0x0(%rip),%rcx        # 14 <PixelType::GetType(char const*)+0x14>
  14:	ba 3c 00 00 00       	mov    $0x3c,%edx
  19:	48 8d 35 00 00 00 00 	lea    0x0(%rip),%rsi        # 20 <PixelType::GetType(char const*)+0x20>
  20:	48 8d 3d 00 00 00 00 	lea    0x0(%rip),%rdi        # 27 <PixelType::GetType(char const*)+0x27>
  27:	e8 00 00 00 00       	call   2c <PixelType::GetType(char const*)+0x2c>
  2c:	48 89 fd             	mov    %rdi,%rbp
  2f:	31 db                	xor    %ebx,%ebx
  31:	4c 8d 25 00 00 00 00 	lea    0x0(%rip),%r12        # 38 <PixelType::GetType(char const*)+0x38>
  38:	49 8d 34 dc          	lea    (%r12,%rbx,8),%rsi
  3c:	48 89 ef             	mov    %rbp,%rdi
  3f:	e8 00 00 00 00       	call   44 <PixelType::GetType(char const*)+0x44>
  44:	85 c0                	test   %eax,%eax
  46:	75 04                	jne    4c <PixelType::GetType(char const*)+0x4c>
  48:	89 d8                	mov    %ebx,%eax
  4a:	eb 0e                	jmp    5a <PixelType::GetType(char const*)+0x5a>
  4c:	48 ff c3             	inc    %rbx
  4f:	48 83 fb 0e          	cmp    $0xe,%rbx
  53:	75 e3                	jne    38 <PixelType::GetType(char const*)+0x38>
  55:	b8 0e 00 00 00       	mov    $0xe,%eax
  5a:	5b                   	pop    %rbx
  5b:	5d                   	pop    %rbp
  5c:	41 5c                	pop    %r12
  5e:	c3                   	ret    

Disassembly of section .text._ZN9PixelType6GetMapEPKc:

0000000000000000 <PixelType::GetMap(char const*)>:
   0:	f3 0f 1e fa          	endbr64 
   4:	41 54                	push   %r12
   6:	55                   	push   %rbp
   7:	53                   	push   %rbx
   8:	48 85 ff             	test   %rdi,%rdi
   b:	75 1f                	jne    2c <PixelType::GetMap(char const*)+0x2c>
   d:	48 8d 0d 00 00 00 00 	lea    0x0(%rip),%rcx        # 14 <PixelType::GetMap(char const*)+0x14>
  14:	ba 48 00 00 00       	mov    $0x48,%edx
  19:	48 8d 35 00 00 00 00 	lea    0x0(%rip),%rsi        # 20 <PixelType::GetMap(char const*)+0x20>
  20:	48 8d 3d 00 00 00 00 	lea    0x0(%rip),%rdi        # 27 <PixelType::GetMap(char const*)+0x27>
  27:	e8 00 00 00 00       	call   2c <PixelType::GetMap(char const*)+0x2c>
  2c:	48 89 fd             	mov    %rdi,%rbp
  2f:	31 db                	xor    %ebx,%ebx
  31:	4c 8d 25 00 00 00 00 	lea    0x0(%rip),%r12        # 38 <PixelType::GetMap(char const*)+0x38>
  38:	49 8d 3c 9c          	lea    (%r12,%rbx,4),%rdi
  3c:	ba 03 00 00 00       	mov    $0x3,%edx
  41:	48 89 ee             	mov    %rbp,%rsi
  44:	e8 00 00 00 00       	call   49 <PixelType::GetMap(char const*)+0x49>
  49:	85 c0                	test   %eax,%eax
  4b:	75 04                	jne    51 <PixelType::GetMap(char const*)+0x51>
  4d:	89 d8                	mov    %ebx,%eax
  4f:	eb 0e                	jmp    5f <PixelType::GetMap(char const*)+0x5f>
  51:	48 ff c3             	inc    %rbx
  54:	48 83 fb 06          	cmp    $0x6,%rbx
  58:	75 de                	jne    38 <PixelType::GetMap(char const*)+0x38>
  5a:	b8 06 00 00 00       	mov    $0x6,%eax
  5f:	5b                   	pop    %rbx
  60:	5d                   	pop    %rbp
  61:	41 5c                	pop    %r12
  63:	c3                   	ret    

Disassembly of section .text._ZN9PixelType6GetMapEN5pixel3MapE:

0000000000000000 <PixelType::GetMap(pixel::Map)>:
   0:	f3 0f 1e fa          	endbr64 
   4:	48 8d 05 00 00 00 00 	lea    0x0(%rip),%rax        # b <PixelType::GetMap(pixel::Map)+0xb>
   b:	83 ff 05             	cmp    $0x5,%edi
   e:	7f 0d                	jg     1d <PixelType::GetMap(pixel::Map)+0x1d>
  10:	89 ff                	mov    %edi,%edi
  12:	48 8d 05 00 00 00 00 	lea    0x0(%rip),%rax        # 19 <PixelType::GetMap(pixel::Map)+0x19>
  19:	48 8d 04 b8          	lea    (%rax,%rdi,4),%rax
  1d:	c3                   	ret    

Disassembly of section .text._ZN9PixelType6GetMapEN5pixel4TypeE:

0000000000000000 <PixelType::GetMap(pixel::Type)>:
   0:	f3 0f 1e fa          	endbr64 
   4:	89 fa                	mov    %edi,%edx
   6:	31 c0                	xor    %eax,%eax
   8:	83 e2 f7             	and    $0xfffffff7,%edx
   b:	ff ca                	dec    %edx
   d:	74 16                	je     25 <PixelType::GetMap(pixel::Type)+0x25>
   f:	b8 04 00 00 00       	mov    $0x4,%eax
  14:	83 ff 08             	cmp    $0x8,%edi
  17:	74 0c                	je     25 <PixelType::GetMap(pixel::Type)+0x25>
  19:	31 c0                	xor    %eax,%eax
  1b:	83 ff 0a             	cmp    $0xa,%edi
  1e:	0f 94 c0             	sete   %al
  21:	8d 44 40 02          	lea    0x2(%rax,%rax,2),%eax
  25:	c3                   	ret    

Disassembly of section .text._ZN9PixelType10ConvertTxHEh:

0000000000000000 <PixelType::ConvertTxH(unsigned char)>:
   0:	f3 0f 1e fa          	endbr64 
   4:	f3 0f 10 05 00 00 00 	movss  0x0(%rip),%xmm0        # c <PixelType::ConvertTxH(unsigned char)+0xc>
   b:	00 
   c:	40 80 ff f0          	cmp    $0xf0,%dil
  10:	74 5d                	je     6f <PixelType::ConvertTxH(unsigned char)+0x6f>
  12:	77 2e                	ja     42 <PixelType::ConvertTxH(unsigned char)+0x42>
  14:	f3 0f 10 05 00 00 00 	movss  0x0(%rip),%xmm0        # 1c <PixelType::ConvertTxH(unsigned char)+0x1c>
  1b:	00 
  1c:	40 80 ff c0          	cmp    $0xc0,%dil
  20:	74 4d                	je     6f <PixelType::ConvertTxH(unsigned char)+0x6f>
  22:	f3 0f 10 05 00 00 00 	movss  0x0(%rip),%xmm0        # 2a <PixelType::ConvertTxH(unsigned char)+0x2a>
  29:	00 
  2a:	40 80 ff e0          	cmp    $0xe0,%dil
  2e:	74 3f                	je     6f <PixelType::ConvertTxH(unsigned char)+0x6f>
  30:	0f 57 c0             	xorps  %xmm0,%xmm0
  33:	40 80 ff 80          	cmp    $0x80,%dil
  37:	75 36                	jne    6f <PixelType::ConvertTxH(unsigned char)+0x6f>
  39:	f3 0f 10 05 00 00 00 	movss  0x0(%rip),%xmm0        # 41 <PixelType::ConvertTxH(unsigned char)+0x41>
  40:	00 
  41:	c3                   	ret    
  42:	f3 0f 10 05 00 00 00 	movss  0x0(%rip),%xmm0        # 4a <PixelType::ConvertTxH(unsigned char)+0x4a>
  49:	00 
  4a:	40 80 ff fc          	cmp    $0xfc,%dil
  4e:	74 1f                	je     6f <PixelType::ConvertTxH(unsigned char)+0x6f>
  50:	f3 0f 10 05 00 00 00 	movss  0x0(%rip),%xmm0        # 58 <PixelType::ConvertTxH(unsigned char)+0x58>
  57:	00 
  58:	40 80 ff fe          	cmp    $0xfe,%dil
  5c:	74 11                	je     6f <PixelType::ConvertTxH(unsigned char)+0x6f>
  5e:	0f 57 c0             	xorps  %xmm0,%xmm0
  61:	40 80 ff f8          	cmp    $0xf8,%dil
  65:	75 08                	jne    6f <PixelType::ConvertTxH(unsigned char)+0x6f>
  67:	f3 0f 10 05 00 00 00 	movss  0x0(%rip),%xmm0        # 6f <PixelType::ConvertTxH(unsigned char)+0x6f>
  6e:	00 
  6f:	c3                   	ret    

Disassembly of section .text._ZN9PixelType10ConvertTxHEf:

0000000000000000 <PixelType::ConvertTxH(float)>:
   0:	f3 0f 1e fa          	endbr64 
   4:	f3 0f 10 0d 00 00 00 	movss  0x0(%rip),%xmm1        # c <PixelType::ConvertTxH(float)+0xc>
   b:	00 
   c:	31 c0                	xor    %eax,%eax
   e:	0f 2f c8             	comiss %xmm0,%xmm1
  11:	77 6c                	ja     7f <PixelType::ConvertTxH(float)+0x7f>
  13:	f3 0f 10 0d 00 00 00 	movss  0x0(%rip),%xmm1        # 1b <PixelType::ConvertTxH(float)+0x1b>
  1a:	00 
  1b:	b0 80                	mov    $0x80,%al
  1d:	0f 2f c8             	comiss %xmm0,%xmm1
  20:	77 5d                	ja     7f <PixelType::ConvertTxH(float)+0x7f>
  22:	f3 0f 10 0d 00 00 00 	movss  0x0(%rip),%xmm1        # 2a <PixelType::ConvertTxH(float)+0x2a>
  29:	00 
  2a:	b0 c0                	mov    $0xc0,%al
  2c:	0f 2f c8             	comiss %xmm0,%xmm1
  2f:	77 4e                	ja     7f <PixelType::ConvertTxH(float)+0x7f>
  31:	f3 0f 10 0d 00 00 00 	movss  0x0(%rip),%xmm1        # 39 <PixelType::ConvertTxH(float)+0x39>
  38:	00 
  39:	b0 e0                	mov    $0xe0,%al
  3b:	0f 2f c8             	comiss %xmm0,%xmm1
  3e:	77 3f                	ja     7f <PixelType::ConvertTxH(float)+0x7f>
  40:	f3 0f 10 0d 00 00 00 	movss  0x0(%rip),%xmm1        # 48 <PixelType::ConvertTxH(float)+0x48>
  47:	00 
  48:	b0 f0                	mov    $0xf0,%al
  4a:	0f 2f c8             	comiss %xmm0,%xmm1
  4d:	77 30                	ja     7f <PixelType::ConvertTxH(float)+0x7f>
  4f:	f3 0f 10 0d 00 00 00 	movss  0x0(%rip),%xmm1        # 57 <PixelType::ConvertTxH(float)+0x57>
  56:	00 
  57:	b0 f8                	mov    $0xf8,%al
  59:	0f 2f c8             	comiss %xmm0,%xmm1
  5c:	77 21                	ja     7f <PixelType::ConvertTxH(float)+0x7f>
  5e:	f3 0f 10 0d 00 00 00 	movss  0x0(%rip),%xmm1        # 66 <PixelType::ConvertTxH(float)+0x66>
  65:	00 
  66:	b0 fc                	mov    $0xfc,%al
  68:	0f 2f c8             	comiss %xmm0,%xmm1
  6b:	77 12                	ja     7f <PixelType::ConvertTxH(float)+0x7f>
  6d:	f3 0f 10 0d 00 00 00 	movss  0x0(%rip),%xmm1        # 75 <PixelType::ConvertTxH(float)+0x75>
  74:	00 
  75:	b0 fe                	mov    $0xfe,%al
  77:	b2 00                	mov    $0x0,%dl
  79:	0f 2f c8             	comiss %xmm0,%xmm1
  7c:	0f 46 c2             	cmovbe %edx,%eax
  7f:	c3                   	ret    
