In archive lib/librdm.a:

rdmconst.o:     file format elf32-littlearm


Disassembly of section .rodata:

00000000 <RDMConst::MANUFACTURER_ID>:
   0:	00000050 	andeq	r0, r0, r0, asr r0

00000004 <RDMConst::MANUFACTURER_NAME>:
   4:	70747468 	rsbsvc	r7, r4, r8, ror #8
   8:	772f2f3a 			; <UNDEFINED> instruction: 0x772f2f3a
   c:	6f2e7777 	svcvs	0x002e7777
  10:	676e6172 			; <UNDEFINED> instruction: 0x676e6172
  14:	2d697065 	stclcs	0, cr7, [r9, #-404]!	; 0xfffffe6c
  18:	2e786d64 	cdpcs	13, 7, cr6, cr8, cr4, {3}
  1c:	0067726f 	rsbeq	r7, r7, pc, ror #4

Disassembly of section .comment:

00000000 <.comment>:
   0:	43434700 	movtmi	r4, #14080	; 0x3700
   4:	4728203a 			; <UNDEFINED> instruction: 0x4728203a
   8:	2029554e 	eorcs	r5, r9, lr, asr #10
   c:	322e3031 	eorcc	r3, lr, #49	; 0x31
  10:	Address 0x0000000000000010 is out of bounds.


Disassembly of section .ARM.attributes:

00000000 <.ARM.attributes>:
   0:	00003b41 	andeq	r3, r0, r1, asr #22
   4:	61656100 	cmnvs	r5, r0, lsl #2
   8:	01006962 	tsteq	r0, r2, ror #18
   c:	00000031 	andeq	r0, r0, r1, lsr r0
  10:	4d524105 	ldfmie	f4, [r2, #-20]	; 0xffffffec
  14:	36373131 			; <UNDEFINED> instruction: 0x36373131
  18:	2d465a4a 	vstrcs	s11, [r6, #-296]	; 0xfffffed8
  1c:	07060053 	smlsdeq	r6, r3, r0, r0
  20:	01090108 	tsteq	r9, r8, lsl #2
  24:	0412020a 	ldreq	r0, [r2], #-522	; 0xfffffdf6
  28:	01150114 	tsteq	r5, r4, lsl r1
  2c:	01180317 	tsteq	r8, r7, lsl r3
  30:	011a0119 	tsteq	sl, r9, lsl r1
  34:	021e011c 	andseq	r0, lr, #28, 2
  38:	01440122 	cmpeq	r4, r2, lsr #2

rdmdevice.o:     file format elf32-littlearm


Disassembly of section .text:

00000000 <RDMDevice::RDMDevice()>:
   0:	e3a03000 	mov	r3, #0
   4:	e92d4030 	push	{r4, r5, lr}
   8:	e59fc168 	ldr	ip, [pc, #360]	; 178 <RDMDevice::RDMDevice()+0x178>
   c:	e5c03000 	strb	r3, [r0]
  10:	e5c03072 	strb	r3, [r0, #114]	; 0x72
  14:	e1c037b4 	strh	r3, [r0, #116]	; 0x74
  18:	e5803078 	str	r3, [r0, #120]	; 0x78
  1c:	e5dc2000 	ldrb	r2, [ip]
  20:	e1a04000 	mov	r4, r0
  24:	e1520003 	cmp	r2, r3
  28:	e24dd00c 	sub	sp, sp, #12
  2c:	e280502c 	add	r5, r0, #44	; 0x2c
  30:	0a00004e 	beq	170 <RDMDevice::RDMDevice()+0x170>
  34:	e1a0300c 	mov	r3, ip
  38:	e5f31001 	ldrb	r1, [r3, #1]!
  3c:	e3510000 	cmp	r1, #0
  40:	1afffffc 	bne	38 <RDMDevice::RDMDevice()+0x38>
  44:	e043100c 	sub	r1, r3, ip
  48:	e3510020 	cmp	r1, #32
  4c:	23a01020 	movcs	r1, #32
  50:	e153000c 	cmp	r3, ip
  54:	e6efc071 	uxtb	ip, r1
  58:	0a000008 	beq	80 <RDMDevice::RDMDevice()+0x80>
  5c:	e281102c 	add	r1, r1, #44	; 0x2c
  60:	e1a03005 	mov	r3, r5
  64:	e59f0110 	ldr	r0, [pc, #272]	; 17c <RDMDevice::RDMDevice()+0x17c>
  68:	e0841001 	add	r1, r4, r1
  6c:	ea000000 	b	74 <RDMDevice::RDMDevice()+0x74>
  70:	e4d02001 	ldrb	r2, [r0], #1
  74:	e4c32001 	strb	r2, [r3], #1
  78:	e1510003 	cmp	r1, r3
  7c:	1afffffb 	bne	70 <RDMDevice::RDMDevice()+0x70>
  80:	e59f30f8 	ldr	r3, [pc, #248]	; 180 <RDMDevice::RDMDevice()+0x180>
  84:	e5c4c04c 	strb	ip, [r4, #76]	; 0x4c
  88:	e5d31000 	ldrb	r1, [r3]
  8c:	e59f20f0 	ldr	r2, [pc, #240]	; 184 <RDMDevice::RDMDevice()+0x184>
  90:	e5c41001 	strb	r1, [r4, #1]
  94:	e5d33001 	ldrb	r3, [r3, #1]
  98:	e1a0100d 	mov	r1, sp
  9c:	e5920000 	ldr	r0, [r2]
  a0:	e5c43002 	strb	r3, [r4, #2]
  a4:	ebfffffe 	bl	0 <Network::MacAddressCopyTo(unsigned char*)>
  a8:	e5dd1003 	ldrb	r1, [sp, #3]
  ac:	e5dd2002 	ldrb	r2, [sp, #2]
  b0:	e5dd3004 	ldrb	r3, [sp, #4]
  b4:	e5c41004 	strb	r1, [r4, #4]
  b8:	e5c41009 	strb	r1, [r4, #9]
  bc:	e5dd1005 	ldrb	r1, [sp, #5]
  c0:	e5c42003 	strb	r2, [r4, #3]
  c4:	e5c4200a 	strb	r2, [r4, #10]
  c8:	e5c43005 	strb	r3, [r4, #5]
  cc:	e5c43008 	strb	r3, [r4, #8]
  d0:	e59f20b0 	ldr	r2, [pc, #176]	; 188 <RDMDevice::RDMDevice()+0x188>
  d4:	e3a03077 	mov	r3, #119	; 0x77
  d8:	e5c41006 	strb	r1, [r4, #6]
  dc:	e5c41007 	strb	r1, [r4, #7]
  e0:	ea000000 	b	e8 <RDMDevice::RDMDevice()+0xe8>
  e4:	e5f23001 	ldrb	r3, [r2, #1]!
  e8:	e3530000 	cmp	r3, #0
  ec:	1afffffc 	bne	e4 <RDMDevice::RDMDevice()+0xe4>
  f0:	e59f3094 	ldr	r3, [pc, #148]	; 18c <RDMDevice::RDMDevice()+0x18c>
  f4:	e0420003 	sub	r0, r2, r3
  f8:	e3500020 	cmp	r0, #32
  fc:	23a00020 	movcs	r0, #32
 100:	e1520003 	cmp	r2, r3
 104:	0a000007 	beq	128 <RDMDevice::RDMDevice()+0x128>
 108:	e280102c 	add	r1, r0, #44	; 0x2c
 10c:	e3a02077 	mov	r2, #119	; 0x77
 110:	e0841001 	add	r1, r4, r1
 114:	ea000000 	b	11c <RDMDevice::RDMDevice()+0x11c>
 118:	e5f32001 	ldrb	r2, [r3, #1]!
 11c:	e4c52001 	strb	r2, [r5], #1
 120:	e1510005 	cmp	r1, r5
 124:	1afffffb 	bne	118 <RDMDevice::RDMDevice()+0x118>
 128:	e3e0c902 	mvn	ip, #32768	; 0x8000
 12c:	e3a0e00a 	mov	lr, #10
 130:	e5c4004c 	strb	r0, [r4, #76]	; 0x4c
 134:	e3a02052 	mov	r2, #82	; 0x52
 138:	e59f1050 	ldr	r1, [pc, #80]	; 190 <RDMDevice::RDMDevice()+0x190>
 13c:	e2843052 	add	r3, r4, #82	; 0x52
 140:	e284005c 	add	r0, r4, #92	; 0x5c
 144:	e1c4c4be 	strh	ip, [r4, #78]	; 0x4e
 148:	e1c4c5b0 	strh	ip, [r4, #80]	; 0x50
 14c:	e5c4e072 	strb	lr, [r4, #114]	; 0x72
 150:	ea000000 	b	158 <RDMDevice::RDMDevice()+0x158>
 154:	e4d12001 	ldrb	r2, [r1], #1
 158:	e4c32001 	strb	r2, [r3], #1
 15c:	e1530000 	cmp	r3, r0
 160:	1afffffb 	bne	154 <RDMDevice::RDMDevice()+0x154>
 164:	e1a00004 	mov	r0, r4
 168:	e28dd00c 	add	sp, sp, #12
 16c:	e8bd8030 	pop	{r4, r5, pc}
 170:	e1a0c002 	mov	ip, r2
 174:	eaffffc1 	b	80 <RDMDevice::RDMDevice()+0x80>
 178:	00000000 	andeq	r0, r0, r0
 17c:	00000001 	andeq	r0, r0, r1
	...
 188:	00000001 	andeq	r0, r0, r1
 18c:	00000000 	andeq	r0, r0, r0
 190:	00000001 	andeq	r0, r0, r1

00000194 <RDMDevice::Print()>:
 194:	e92d4010 	push	{r4, lr}
 198:	e1a04000 	mov	r4, r0
 19c:	e24dd008 	sub	sp, sp, #8
 1a0:	e59f007c 	ldr	r0, [pc, #124]	; 224 <RDMDevice::Print()+0x90>
 1a4:	ebfffffe 	bl	0 <printf>
 1a8:	e5d4104c 	ldrb	r1, [r4, #76]	; 0x4c
 1ac:	e284202c 	add	r2, r4, #44	; 0x2c
 1b0:	e59f0070 	ldr	r0, [pc, #112]	; 228 <RDMDevice::Print()+0x94>
 1b4:	ebfffffe 	bl	0 <printf>
 1b8:	e5d42002 	ldrb	r2, [r4, #2]
 1bc:	e5d41001 	ldrb	r1, [r4, #1]
 1c0:	e59f0064 	ldr	r0, [pc, #100]	; 22c <RDMDevice::Print()+0x98>
 1c4:	ebfffffe 	bl	0 <printf>
 1c8:	e5d40007 	ldrb	r0, [r4, #7]
 1cc:	e5d43008 	ldrb	r3, [r4, #8]
 1d0:	e5d42009 	ldrb	r2, [r4, #9]
 1d4:	e5d4100a 	ldrb	r1, [r4, #10]
 1d8:	e58d0000 	str	r0, [sp]
 1dc:	e59f004c 	ldr	r0, [pc, #76]	; 230 <RDMDevice::Print()+0x9c>
 1e0:	ebfffffe 	bl	0 <printf>
 1e4:	e5d4102b 	ldrb	r1, [r4, #43]	; 0x2b
 1e8:	e284200b 	add	r2, r4, #11
 1ec:	e59f0040 	ldr	r0, [pc, #64]	; 234 <RDMDevice::Print()+0xa0>
 1f0:	ebfffffe 	bl	0 <printf>
 1f4:	e1d414be 	ldrh	r1, [r4, #78]	; 0x4e
 1f8:	e59f0038 	ldr	r0, [pc, #56]	; 238 <RDMDevice::Print()+0xa4>
 1fc:	e6ef2071 	uxtb	r2, r1
 200:	e1a01421 	lsr	r1, r1, #8
 204:	ebfffffe 	bl	0 <printf>
 208:	e1d415b0 	ldrh	r1, [r4, #80]	; 0x50
 20c:	e59f0028 	ldr	r0, [pc, #40]	; 23c <RDMDevice::Print()+0xa8>
 210:	e6ef2071 	uxtb	r2, r1
 214:	e1a01421 	lsr	r1, r1, #8
 218:	e28dd008 	add	sp, sp, #8
 21c:	e8bd4010 	pop	{r4, lr}
 220:	eafffffe 	b	0 <printf>
 224:	00000018 	andeq	r0, r0, r8, lsl r0
 228:	00000034 	andeq	r0, r0, r4, lsr r0
 22c:	00000050 	andeq	r0, r0, r0, asr r0
 230:	00000070 	andeq	r0, r0, r0, ror r0
 234:	00000098 	muleq	r0, r8, r0
 238:	000000b4 	strheq	r0, [r0], -r4
 23c:	000000d4 	ldrdeq	r0, [r0], -r4

Disassembly of section .rodata.str1.4:

00000000 <.LC0>:
   0:	2e777777 	mrccs	7, 3, r7, cr7, cr7, {3}
   4:	6e61726f 	cdpvs	2, 6, cr7, cr1, cr15, {3}
   8:	69706567 	ldmdbvs	r0!, {r0, r1, r2, r5, r6, r8, sl, sp, lr}^
   c:	786d642d 	stmdavc	sp!, {r0, r2, r3, r5, sl, sp, lr}^
  10:	67726f2e 	ldrbvs	r6, [r2, -lr, lsr #30]!
  14:	00000000 	andeq	r0, r0, r0
  18:	204d4452 	subcs	r4, sp, r2, asr r4
  1c:	69766544 	ldmdbvs	r6!, {r2, r6, r8, sl, sp, lr}^
  20:	63206563 			; <UNDEFINED> instruction: 0x63206563
  24:	69666e6f 	stmdbvs	r6!, {r0, r1, r2, r3, r5, r6, r9, sl, fp, sp, lr}^
  28:	61727567 	cmnvs	r2, r7, ror #10
  2c:	6e6f6974 			; <UNDEFINED> instruction: 0x6e6f6974
  30:	0000000a 	andeq	r0, r0, sl
  34:	6e614d20 	cdpvs	13, 6, cr4, cr1, cr0, {1}
  38:	63616675 	cmnvs	r1, #122683392	; 0x7500000
  3c:	65727574 	ldrbvs	r7, [r2, #-1396]!	; 0xfffffa8c
  40:	614e2072 	hvcvs	57858	; 0xe202
  44:	3a20656d 	bcc	819600 <RDMDevice::Print()+0x81946c>
  48:	2a2e2520 	bcs	b894d0 <RDMDevice::Print()+0xb8933c>
  4c:	00000a73 	andeq	r0, r0, r3, ror sl
  50:	6e614d20 	cdpvs	13, 6, cr4, cr1, cr0, {1}
  54:	63616675 	cmnvs	r1, #122683392	; 0x7500000
  58:	65727574 	ldrbvs	r7, [r2, #-1396]!	; 0xfffffa8c
  5c:	44492072 	strbmi	r2, [r9], #-114	; 0xffffff8e
  60:	3a202020 	bcc	8080e8 <RDMDevice::Print()+0x807f54>
  64:	322e2520 	eorcc	r2, lr, #32, 10	; 0x8000000
  68:	322e2558 	eorcc	r2, lr, #88, 10	; 0x16000000
  6c:	00000a58 	andeq	r0, r0, r8, asr sl
  70:	72655320 	rsbvc	r5, r5, #32, 6	; 0x80000000
  74:	206c6169 	rsbcs	r6, ip, r9, ror #2
  78:	626d754e 	rsbvs	r7, sp, #327155712	; 0x13800000
  7c:	20207265 	eorcs	r7, r0, r5, ror #4
  80:	3a202020 	bcc	808108 <RDMDevice::Print()+0x807f74>
  84:	322e2520 	eorcc	r2, lr, #32, 10	; 0x8000000
  88:	322e2558 	eorcc	r2, lr, #88, 10	; 0x16000000
  8c:	322e2558 	eorcc	r2, lr, #88, 10	; 0x16000000
  90:	322e2558 	eorcc	r2, lr, #88, 10	; 0x16000000
  94:	00000a58 	andeq	r0, r0, r8, asr sl
  98:	6f6f5220 	svcvs	0x006f5220
  9c:	616c2074 	smcvs	49668	; 0xc204
  a0:	206c6562 	rsbcs	r6, ip, r2, ror #10
  a4:	20202020 	eorcs	r2, r0, r0, lsr #32
  a8:	3a202020 	bcc	808130 <RDMDevice::Print()+0x807f9c>
  ac:	2a2e2520 	bcs	b89534 <RDMDevice::Print()+0xb893a0>
  b0:	00000a73 	andeq	r0, r0, r3, ror sl
  b4:	6f725020 	svcvs	0x00725020
  b8:	74637564 	strbtvc	r7, [r3], #-1380	; 0xfffffa9c
  bc:	74614320 	strbtvc	r4, [r1], #-800	; 0xfffffce0
  c0:	726f6765 	rsbvc	r6, pc, #26476544	; 0x1940000
  c4:	3a202079 	bcc	8082b0 <RDMDevice::Print()+0x80811c>
  c8:	322e2520 	eorcc	r2, lr, #32, 10	; 0x8000000
  cc:	322e2558 	eorcc	r2, lr, #88, 10	; 0x16000000
  d0:	00000a58 	andeq	r0, r0, r8, asr sl
  d4:	6f725020 	svcvs	0x00725020
  d8:	74637564 	strbtvc	r7, [r3], #-1380	; 0xfffffa9c
  dc:	74654420 	strbtvc	r4, [r5], #-1056	; 0xfffffbe0
  e0:	206c6961 	rsbcs	r6, ip, r1, ror #18
  e4:	3a202020 	bcc	80816c <RDMDevice::Print()+0x807fd8>
  e8:	322e2520 	eorcc	r2, lr, #32, 10	; 0x8000000
  ec:	322e2558 	eorcc	r2, lr, #88, 10	; 0x16000000
  f0:	Address 0x00000000000000f0 is out of bounds.


Disassembly of section .rodata:

00000000 <DEVICE_LABEL>:
   0:	204d4452 	subcs	r4, sp, r2, asr r4
   4:	69766544 	ldmdbvs	r6!, {r2, r6, r8, sl, sp, lr}^
   8:	Address 0x0000000000000008 is out of bounds.


Disassembly of section .comment:

00000000 <.comment>:
   0:	43434700 	movtmi	r4, #14080	; 0x3700
   4:	4728203a 			; <UNDEFINED> instruction: 0x4728203a
   8:	2029554e 	eorcs	r5, r9, lr, asr #10
   c:	322e3031 	eorcc	r3, lr, #49	; 0x31
  10:	Address 0x0000000000000010 is out of bounds.


Disassembly of section .ARM.attributes:

00000000 <.ARM.attributes>:
   0:	00003241 	andeq	r3, r0, r1, asr #4
   4:	61656100 	cmnvs	r5, r0, lsl #2
   8:	01006962 	tsteq	r0, r2, ror #18
   c:	00000028 	andeq	r0, r0, r8, lsr #32
  10:	4b5a3605 	blmi	168d82c <RDMDevice::Print()+0x168d698>
  14:	08070600 	stmdaeq	r7, {r9, sl}
  18:	0a010901 	beq	42424 <RDMDevice::Print()+0x42290>
  1c:	14041202 	strne	r1, [r4], #-514	; 0xfffffdfe
  20:	17011501 	strne	r1, [r1, -r1, lsl #10]
  24:	19011803 	stmdbne	r1, {r0, r1, fp, ip}
  28:	1c011a01 			; <UNDEFINED> instruction: 0x1c011a01
  2c:	22021e01 	andcs	r1, r2, #1, 28
  30:	Address 0x0000000000000030 is out of bounds.


rdmdeviceparamsconst.o:     file format elf32-littlearm


Disassembly of section .rodata:

00000000 <RDMDeviceParamsConst::PRODUCT_DETAIL>:
   0:	646f7270 	strbtvs	r7, [pc], #-624	; 8 <RDMDeviceParamsConst::PRODUCT_DETAIL+0x8>
   4:	5f746375 	svcpl	0x00746375
   8:	61746564 	cmnvs	r4, r4, ror #10
   c:	00006c69 	andeq	r6, r0, r9, ror #24

00000010 <RDMDeviceParamsConst::PRODUCT_CATEGORY>:
  10:	646f7270 	strbtvs	r7, [pc], #-624	; 18 <RDMDeviceParamsConst::PRODUCT_CATEGORY+0x8>
  14:	5f746375 	svcpl	0x00746375
  18:	65746163 	ldrbvs	r6, [r4, #-355]!	; 0xfffffe9d
  1c:	79726f67 	ldmdbvc	r2!, {r0, r1, r2, r5, r6, r8, r9, sl, fp, sp, lr}^
  20:	00000000 	andeq	r0, r0, r0

00000024 <RDMDeviceParamsConst::LABEL>:
  24:	69766564 	ldmdbvs	r6!, {r2, r5, r6, r8, sl, sp, lr}^
  28:	6c5f6563 	cfldr64vs	mvdx6, [pc], {99}	; 0x63
  2c:	6c656261 	sfmvs	f6, 2, [r5], #-388	; 0xfffffe7c
  30:	00000000 	andeq	r0, r0, r0

00000034 <RDMDeviceParamsConst::FILE_NAME>:
  34:	5f6d6472 	svcpl	0x006d6472
  38:	69766564 	ldmdbvs	r6!, {r2, r5, r6, r8, sl, sp, lr}^
  3c:	742e6563 	strtvc	r6, [lr], #-1379	; 0xfffffa9d
  40:	Address 0x0000000000000040 is out of bounds.


Disassembly of section .comment:

00000000 <.comment>:
   0:	43434700 	movtmi	r4, #14080	; 0x3700
   4:	4728203a 			; <UNDEFINED> instruction: 0x4728203a
   8:	2029554e 	eorcs	r5, r9, lr, asr #10
   c:	322e3031 	eorcc	r3, lr, #49	; 0x31
  10:	Address 0x0000000000000010 is out of bounds.


Disassembly of section .ARM.attributes:

00000000 <.ARM.attributes>:
   0:	00003b41 	andeq	r3, r0, r1, asr #22
   4:	61656100 	cmnvs	r5, r0, lsl #2
   8:	01006962 	tsteq	r0, r2, ror #18
   c:	00000031 	andeq	r0, r0, r1, lsr r0
  10:	4d524105 	ldfmie	f4, [r2, #-20]	; 0xffffffec
  14:	36373131 			; <UNDEFINED> instruction: 0x36373131
  18:	2d465a4a 	vstrcs	s11, [r6, #-296]	; 0xfffffed8
  1c:	07060053 	smlsdeq	r6, r3, r0, r0
  20:	01090108 	tsteq	r9, r8, lsl #2
  24:	0412020a 	ldreq	r0, [r2], #-522	; 0xfffffdf6
  28:	01150114 	tsteq	r5, r4, lsl r1
  2c:	01180317 	tsteq	r8, r7, lsl r3
  30:	011a0119 	tsteq	sl, r9, lsl r1
  34:	021e011c 	andseq	r0, lr, #28, 2
  38:	01440122 	cmpeq	r4, r2, lsr #2

rdmdeviceparams.o:     file format elf32-littlearm


Disassembly of section .text:

00000000 <memcpy.isra.0>:
   0:	eafffffe 	b	0 <memcpy>

00000004 <RDMDeviceParams::RDMDeviceParams(RDMDeviceParamsStore*)>:
   4:	e92d4010 	push	{r4, lr}
   8:	e5801000 	str	r1, [r0]
   c:	e3a01000 	mov	r1, #0
  10:	e1a04000 	mov	r4, r0
  14:	e5801004 	str	r1, [r0, #4]
  18:	e3a02020 	mov	r2, #32
  1c:	e2800008 	add	r0, r0, #8
  20:	ebfffffe 	bl	0 <memset>
  24:	e59f3010 	ldr	r3, [pc, #16]	; 3c <RDMDeviceParams::RDMDeviceParams(RDMDeviceParamsStore*)+0x38>
  28:	e1a00004 	mov	r0, r4
  2c:	e5843028 	str	r3, [r4, #40]	; 0x28
  30:	e3a0307f 	mov	r3, #127	; 0x7f
  34:	e5c4302c 	strb	r3, [r4, #44]	; 0x2c
  38:	e8bd8010 	pop	{r4, pc}
  3c:	ff7fff00 			; <UNDEFINED> instruction: 0xff7fff00

00000040 <RDMDeviceParams::Load()>:
  40:	e3a03000 	mov	r3, #0
  44:	e92d4037 	push	{r0, r1, r2, r4, r5, lr}
  48:	e1a02000 	mov	r2, r0
  4c:	e5803004 	str	r3, [r0, #4]
  50:	e1a04000 	mov	r4, r0
  54:	e59f1068 	ldr	r1, [pc, #104]	; c4 <RDMDeviceParams::Load()+0x84>
  58:	e1a0000d 	mov	r0, sp
  5c:	ebfffffe 	bl	0 <ReadConfigFile::ReadConfigFile(void (*)(void*, char const*), void*)>
  60:	e1a0000d 	mov	r0, sp
  64:	e59f105c 	ldr	r1, [pc, #92]	; c8 <RDMDeviceParams::Load()+0x88>
  68:	ebfffffe 	bl	0 <ReadConfigFile::Read(char const*)>
  6c:	e2505000 	subs	r5, r0, #0
  70:	e5940000 	ldr	r0, [r4]
  74:	0a000006 	beq	94 <RDMDeviceParams::Load()+0x54>
  78:	e3500000 	cmp	r0, #0
  7c:	0a00000b 	beq	b0 <RDMDeviceParams::Load()+0x70>
  80:	e5903000 	ldr	r3, [r0]
  84:	e2841004 	add	r1, r4, #4
  88:	e5933008 	ldr	r3, [r3, #8]
  8c:	e12fff33 	blx	r3
  90:	ea000006 	b	b0 <RDMDeviceParams::Load()+0x70>
  94:	e3500000 	cmp	r0, #0
  98:	0a000004 	beq	b0 <RDMDeviceParams::Load()+0x70>
  9c:	e5903000 	ldr	r3, [r0]
  a0:	e2841004 	add	r1, r4, #4
  a4:	e593300c 	ldr	r3, [r3, #12]
  a8:	e12fff33 	blx	r3
  ac:	e3a05001 	mov	r5, #1
  b0:	e1a0000d 	mov	r0, sp
  b4:	ebfffffe 	bl	0 <ReadConfigFile::~ReadConfigFile()>
  b8:	e1a00005 	mov	r0, r5
  bc:	e28dd00c 	add	sp, sp, #12
  c0:	e8bd8030 	pop	{r4, r5, pc}
	...

000000cc <RDMDeviceParams::Load(char const*, unsigned int)>:
  cc:	e5903000 	ldr	r3, [r0]
  d0:	e3530000 	cmp	r3, #0
  d4:	012fff1e 	bxeq	lr
  d8:	e3a03000 	mov	r3, #0
  dc:	e92d4073 	push	{r0, r1, r4, r5, r6, lr}
  e0:	e1a05001 	mov	r5, r1
  e4:	e1a06002 	mov	r6, r2
  e8:	e1a04000 	mov	r4, r0
  ec:	e5803004 	str	r3, [r0, #4]
  f0:	e1a02000 	mov	r2, r0
  f4:	e59f1038 	ldr	r1, [pc, #56]	; 134 <RDMDeviceParams::Load(char const*, unsigned int)+0x68>
  f8:	e1a0000d 	mov	r0, sp
  fc:	ebfffffe 	bl	0 <ReadConfigFile::ReadConfigFile(void (*)(void*, char const*), void*)>
 100:	e1a02006 	mov	r2, r6
 104:	e1a01005 	mov	r1, r5
 108:	e1a0000d 	mov	r0, sp
 10c:	ebfffffe 	bl	0 <ReadConfigFile::Read(char const*, unsigned int)>
 110:	e1a01004 	mov	r1, r4
 114:	e4910004 	ldr	r0, [r1], #4
 118:	e5903000 	ldr	r3, [r0]
 11c:	e5933008 	ldr	r3, [r3, #8]
 120:	e12fff33 	blx	r3
 124:	e1a0000d 	mov	r0, sp
 128:	ebfffffe 	bl	0 <ReadConfigFile::~ReadConfigFile()>
 12c:	e28dd008 	add	sp, sp, #8
 130:	e8bd8070 	pop	{r4, r5, r6, pc}
 134:	00000000 	andeq	r0, r0, r0

00000138 <RDMDeviceParams::callbackFunction(char const*)>:
 138:	e92d4037 	push	{r0, r1, r2, r4, r5, lr}
 13c:	e3a03020 	mov	r3, #32
 140:	e1a05001 	mov	r5, r1
 144:	e58d3004 	str	r3, [sp, #4]
 148:	e2802008 	add	r2, r0, #8
 14c:	e1a04000 	mov	r4, r0
 150:	e59f1094 	ldr	r1, [pc, #148]	; 1ec <RDMDeviceParams::callbackFunction(char const*)+0xb4>
 154:	e1a00005 	mov	r0, r5
 158:	e28d3004 	add	r3, sp, #4
 15c:	ebfffffe 	bl	0 <Sscan::Char(char const*, char const*, char*, unsigned int&)>
 160:	e3500000 	cmp	r0, #0
 164:	1a000004 	bne	17c <RDMDeviceParams::callbackFunction(char const*)+0x44>
 168:	e59d3004 	ldr	r3, [sp, #4]
 16c:	e5c43028 	strb	r3, [r4, #40]	; 0x28
 170:	e5943004 	ldr	r3, [r4, #4]
 174:	e3833001 	orr	r3, r3, #1
 178:	ea000018 	b	1e0 <RDMDeviceParams::callbackFunction(char const*)+0xa8>
 17c:	e1a00005 	mov	r0, r5
 180:	e59f1068 	ldr	r1, [pc, #104]	; 1f0 <RDMDeviceParams::callbackFunction(char const*)+0xb8>
 184:	e28d2002 	add	r2, sp, #2
 188:	ebfffffe 	bl	0 <Sscan::HexUint16(char const*, char const*, unsigned short&)>
 18c:	e3500000 	cmp	r0, #0
 190:	1a000006 	bne	1b0 <RDMDeviceParams::callbackFunction(char const*)+0x78>
 194:	e5dd3002 	ldrb	r3, [sp, #2]
 198:	e5c43029 	strb	r3, [r4, #41]	; 0x29
 19c:	e5dd3003 	ldrb	r3, [sp, #3]
 1a0:	e5c4302a 	strb	r3, [r4, #42]	; 0x2a
 1a4:	e5943004 	ldr	r3, [r4, #4]
 1a8:	e3833002 	orr	r3, r3, #2
 1ac:	ea00000b 	b	1e0 <RDMDeviceParams::callbackFunction(char const*)+0xa8>
 1b0:	e1a00005 	mov	r0, r5
 1b4:	e59f1038 	ldr	r1, [pc, #56]	; 1f4 <RDMDeviceParams::callbackFunction(char const*)+0xbc>
 1b8:	e28d2002 	add	r2, sp, #2
 1bc:	ebfffffe 	bl	0 <Sscan::HexUint16(char const*, char const*, unsigned short&)>
 1c0:	e3500000 	cmp	r0, #0
 1c4:	1a000006 	bne	1e4 <RDMDeviceParams::callbackFunction(char const*)+0xac>
 1c8:	e5dd3002 	ldrb	r3, [sp, #2]
 1cc:	e5c4302b 	strb	r3, [r4, #43]	; 0x2b
 1d0:	e5dd3003 	ldrb	r3, [sp, #3]
 1d4:	e5c4302c 	strb	r3, [r4, #44]	; 0x2c
 1d8:	e5943004 	ldr	r3, [r4, #4]
 1dc:	e3833004 	orr	r3, r3, #4
 1e0:	e5843004 	str	r3, [r4, #4]
 1e4:	e28dd00c 	add	sp, sp, #12
 1e8:	e8bd8030 	pop	{r4, r5, pc}
	...

000001f8 <RDMDeviceParams::staticCallbackFunction(void*, char const*)>:
 1f8:	eafffffe 	b	138 <RDMDeviceParams::callbackFunction(char const*)>

000001fc <RDMDeviceParams::Set(RDMDevice*)>:
 1fc:	e5903004 	ldr	r3, [r0, #4]
 200:	e92d41f0 	push	{r4, r5, r6, r7, r8, lr}
 204:	e3130001 	tst	r3, #1
 208:	e1a05000 	mov	r5, r0
 20c:	e1a04001 	mov	r4, r1
 210:	0a000018 	beq	278 <RDMDeviceParams::Set(RDMDevice*)+0x7c>
 214:	e5d06028 	ldrb	r6, [r0, #40]	; 0x28
 218:	e5d43000 	ldrb	r3, [r4]
 21c:	e3560020 	cmp	r6, #32
 220:	23a06020 	movcs	r6, #32
 224:	e3530000 	cmp	r3, #0
 228:	e2801008 	add	r1, r0, #8
 22c:	0a00000d 	beq	268 <RDMDeviceParams::Set(RDMDevice*)+0x6c>
 230:	e284700b 	add	r7, r4, #11
 234:	e1a00007 	mov	r0, r7
 238:	e1a02006 	mov	r2, r6
 23c:	ebffff6f 	bl	0 <memcpy.isra.0>
 240:	e5940078 	ldr	r0, [r4, #120]	; 0x78
 244:	e5c4602b 	strb	r6, [r4, #43]	; 0x2b
 248:	e3500000 	cmp	r0, #0
 24c:	0a000009 	beq	278 <RDMDeviceParams::Set(RDMDevice*)+0x7c>
 250:	e5902000 	ldr	r2, [r0]
 254:	e1a01007 	mov	r1, r7
 258:	e5928008 	ldr	r8, [r2, #8]
 25c:	e1a02006 	mov	r2, r6
 260:	e12fff38 	blx	r8
 264:	ea000003 	b	278 <RDMDeviceParams::Set(RDMDevice*)+0x7c>
 268:	e1a02006 	mov	r2, r6
 26c:	e2840052 	add	r0, r4, #82	; 0x52
 270:	ebffff62 	bl	0 <memcpy.isra.0>
 274:	e5c46072 	strb	r6, [r4, #114]	; 0x72
 278:	e5952004 	ldr	r2, [r5, #4]
 27c:	e3120002 	tst	r2, #2
 280:	15953028 	ldrne	r3, [r5, #40]	; 0x28
 284:	11a03423 	lsrne	r3, r3, #8
 288:	11c434be 	strhne	r3, [r4, #78]	; 0x4e
 28c:	e3120004 	tst	r2, #4
 290:	15d5302b 	ldrbne	r3, [r5, #43]	; 0x2b
 294:	15d5202c 	ldrbne	r2, [r5, #44]	; 0x2c
 298:	11833402 	orrne	r3, r3, r2, lsl #8
 29c:	11c435b0 	strhne	r3, [r4, #80]	; 0x50
 2a0:	e8bd81f0 	pop	{r4, r5, r6, r7, r8, pc}

000002a4 <RDMDeviceParams::Dump()>:
 2a4:	e12fff1e 	bx	lr

000002a8 <RDMDeviceParams::Builder(TRDMDeviceParams const*, char*, unsigned int, unsigned int&)>:
 2a8:	e92d4070 	push	{r4, r5, r6, lr}
 2ac:	e3510000 	cmp	r1, #0
 2b0:	e1a04000 	mov	r4, r0
 2b4:	e1a05002 	mov	r5, r2
 2b8:	e1a06003 	mov	r6, r3
 2bc:	e24dd038 	sub	sp, sp, #56	; 0x38
 2c0:	e2800004 	add	r0, r0, #4
 2c4:	0a000002 	beq	2d4 <RDMDeviceParams::Builder(TRDMDeviceParams const*, char*, unsigned int, unsigned int&)+0x2c>
 2c8:	e3a02029 	mov	r2, #41	; 0x29
 2cc:	ebffff4b 	bl	0 <memcpy.isra.0>
 2d0:	ea000005 	b	2ec <RDMDeviceParams::Builder(TRDMDeviceParams const*, char*, unsigned int, unsigned int&)+0x44>
 2d4:	e5943000 	ldr	r3, [r4]
 2d8:	e1a01000 	mov	r1, r0
 2dc:	e5932000 	ldr	r2, [r3]
 2e0:	e1a00003 	mov	r0, r3
 2e4:	e592200c 	ldr	r2, [r2, #12]
 2e8:	e12fff32 	blx	r2
 2ec:	e1a03006 	mov	r3, r6
 2f0:	e1a02005 	mov	r2, r5
 2f4:	e59f1150 	ldr	r1, [pc, #336]	; 44c <RDMDeviceParams::Builder(TRDMDeviceParams const*, char*, unsigned int, unsigned int&)+0x1a4>
 2f8:	e28d0008 	add	r0, sp, #8
 2fc:	e28d6014 	add	r6, sp, #20
 300:	ebfffffe 	bl	0 <PropertiesBuilder::PropertiesBuilder(char const*, char*, unsigned int)>
 304:	e3a02020 	mov	r2, #32
 308:	e2841008 	add	r1, r4, #8
 30c:	e1a00006 	mov	r0, r6
 310:	ebffff3a 	bl	0 <memcpy.isra.0>
 314:	e5d43028 	ldrb	r3, [r4, #40]	; 0x28
 318:	e28d2038 	add	r2, sp, #56	; 0x38
 31c:	e0823003 	add	r3, r2, r3
 320:	e3a02000 	mov	r2, #0
 324:	e1dd10be 	ldrh	r1, [sp, #14]
 328:	e1dd50bc 	ldrh	r5, [sp, #12]
 32c:	e5432024 	strb	r2, [r3, #-36]	; 0xffffffdc
 330:	e1510005 	cmp	r1, r5
 334:	2a00001c 	bcs	3ac <RDMDeviceParams::Builder(TRDMDeviceParams const*, char*, unsigned int, unsigned int&)+0x104>
 338:	e5942004 	ldr	r2, [r4, #4]
 33c:	e59d3008 	ldr	r3, [sp, #8]
 340:	e3120001 	tst	r2, #1
 344:	e0830001 	add	r0, r3, r1
 348:	e0455001 	sub	r5, r5, r1
 34c:	e5dd3010 	ldrb	r3, [sp, #16]
 350:	1a000002 	bne	360 <RDMDeviceParams::Builder(TRDMDeviceParams const*, char*, unsigned int, unsigned int&)+0xb8>
 354:	e3530000 	cmp	r3, #0
 358:	1a000002 	bne	368 <RDMDeviceParams::Builder(TRDMDeviceParams const*, char*, unsigned int, unsigned int&)+0xc0>
 35c:	ea000009 	b	388 <RDMDeviceParams::Builder(TRDMDeviceParams const*, char*, unsigned int, unsigned int&)+0xe0>
 360:	e3530000 	cmp	r3, #0
 364:	0a000003 	beq	378 <RDMDeviceParams::Builder(TRDMDeviceParams const*, char*, unsigned int, unsigned int&)+0xd0>
 368:	e59f30e0 	ldr	r3, [pc, #224]	; 450 <RDMDeviceParams::Builder(TRDMDeviceParams const*, char*, unsigned int, unsigned int&)+0x1a8>
 36c:	e59f20e0 	ldr	r2, [pc, #224]	; 454 <RDMDeviceParams::Builder(TRDMDeviceParams const*, char*, unsigned int, unsigned int&)+0x1ac>
 370:	e58d6000 	str	r6, [sp]
 374:	ea000006 	b	394 <RDMDeviceParams::Builder(TRDMDeviceParams const*, char*, unsigned int, unsigned int&)+0xec>
 378:	e59f30d0 	ldr	r3, [pc, #208]	; 450 <RDMDeviceParams::Builder(TRDMDeviceParams const*, char*, unsigned int, unsigned int&)+0x1a8>
 37c:	e59f20d4 	ldr	r2, [pc, #212]	; 458 <RDMDeviceParams::Builder(TRDMDeviceParams const*, char*, unsigned int, unsigned int&)+0x1b0>
 380:	e58d6000 	str	r6, [sp]
 384:	ea000002 	b	394 <RDMDeviceParams::Builder(TRDMDeviceParams const*, char*, unsigned int, unsigned int&)+0xec>
 388:	e59f30c0 	ldr	r3, [pc, #192]	; 450 <RDMDeviceParams::Builder(TRDMDeviceParams const*, char*, unsigned int, unsigned int&)+0x1a8>
 38c:	e59f20c8 	ldr	r2, [pc, #200]	; 45c <RDMDeviceParams::Builder(TRDMDeviceParams const*, char*, unsigned int, unsigned int&)+0x1b4>
 390:	e58d6000 	str	r6, [sp]
 394:	e1a01005 	mov	r1, r5
 398:	ebfffffe 	bl	0 <snprintf>
 39c:	e1550000 	cmp	r5, r0
 3a0:	a1dd30be 	ldrhge	r3, [sp, #14]
 3a4:	a0830000 	addge	r0, r3, r0
 3a8:	a1cd00be 	strhge	r0, [sp, #14]
 3ac:	e3a05004 	mov	r5, #4
 3b0:	e5943004 	ldr	r3, [r4, #4]
 3b4:	e5942028 	ldr	r2, [r4, #40]	; 0x28
 3b8:	e1a030a3 	lsr	r3, r3, #1
 3bc:	e1a02422 	lsr	r2, r2, #8
 3c0:	e59f1098 	ldr	r1, [pc, #152]	; 460 <RDMDeviceParams::Builder(TRDMDeviceParams const*, char*, unsigned int, unsigned int&)+0x1b8>
 3c4:	e2033001 	and	r3, r3, #1
 3c8:	e6ff2072 	uxth	r2, r2
 3cc:	e58d5000 	str	r5, [sp]
 3d0:	e28d0008 	add	r0, sp, #8
 3d4:	ebfffffe 	bl	0 <PropertiesBuilder::AddHex(char const*, unsigned int, bool, unsigned int)>
 3d8:	e5943004 	ldr	r3, [r4, #4]
 3dc:	e5d4102c 	ldrb	r1, [r4, #44]	; 0x2c
 3e0:	e5d4202b 	ldrb	r2, [r4, #43]	; 0x2b
 3e4:	e1a03123 	lsr	r3, r3, #2
 3e8:	e2033001 	and	r3, r3, #1
 3ec:	e1822401 	orr	r2, r2, r1, lsl #8
 3f0:	e58d5000 	str	r5, [sp]
 3f4:	e59f1068 	ldr	r1, [pc, #104]	; 464 <RDMDeviceParams::Builder(TRDMDeviceParams const*, char*, unsigned int, unsigned int&)+0x1bc>
 3f8:	e28d0008 	add	r0, sp, #8
 3fc:	ebfffffe 	bl	0 <PropertiesBuilder::AddHex(char const*, unsigned int, bool, unsigned int)>
 400:	e5dd3010 	ldrb	r3, [sp, #16]
 404:	e3530000 	cmp	r3, #0
 408:	0a00000a 	beq	438 <RDMDeviceParams::Builder(TRDMDeviceParams const*, char*, unsigned int, unsigned int&)+0x190>
 40c:	e1dd20be 	ldrh	r2, [sp, #14]
 410:	e59d3008 	ldr	r3, [sp, #8]
 414:	e0833002 	add	r3, r3, r2
 418:	e3a0207d 	mov	r2, #125	; 0x7d
 41c:	e5432001 	strb	r2, [r3, #-1]
 420:	e1dd30be 	ldrh	r3, [sp, #14]
 424:	e59d1008 	ldr	r1, [sp, #8]
 428:	e7c12003 	strb	r2, [r1, r3]
 42c:	e1dd30be 	ldrh	r3, [sp, #14]
 430:	e2833001 	add	r3, r3, #1
 434:	e1cd30be 	strh	r3, [sp, #14]
 438:	e1dd20be 	ldrh	r2, [sp, #14]
 43c:	e59d3048 	ldr	r3, [sp, #72]	; 0x48
 440:	e5832000 	str	r2, [r3]
 444:	e28dd038 	add	sp, sp, #56	; 0x38
 448:	e8bd8070 	pop	{r4, r5, r6, pc}
	...
 458:	0000000b 	andeq	r0, r0, fp
 45c:	00000012 	andeq	r0, r0, r2, lsl r0
	...

00000468 <RDMDeviceParams::Save(char*, unsigned int, unsigned int&)>:
 468:	e590c000 	ldr	ip, [r0]
 46c:	e35c0000 	cmp	ip, #0
 470:	1a000001 	bne	47c <RDMDeviceParams::Save(char*, unsigned int, unsigned int&)+0x14>
 474:	e583c000 	str	ip, [r3]
 478:	e12fff1e 	bx	lr
 47c:	e92d4007 	push	{r0, r1, r2, lr}
 480:	e58d3000 	str	r3, [sp]
 484:	e1a03002 	mov	r3, r2
 488:	e1a02001 	mov	r2, r1
 48c:	e3a01000 	mov	r1, #0
 490:	ebfffffe 	bl	2a8 <RDMDeviceParams::Builder(TRDMDeviceParams const*, char*, unsigned int, unsigned int&)>
 494:	e28dd00c 	add	sp, sp, #12
 498:	e49df004 	pop	{pc}		; (ldr pc, [sp], #4)

Disassembly of section .rodata.str1.1:

00000000 <.rodata.str1.1>:
   0:	22732522 	rsbscs	r2, r3, #142606336	; 0x8800000
   4:	7325223a 			; <UNDEFINED> instruction: 0x7325223a
   8:	25002c22 	strcs	r2, [r0, #-3106]	; 0xfffff3de
   c:	73253d73 			; <UNDEFINED> instruction: 0x73253d73
  10:	2523000a 	strcs	r0, [r3, #-10]!
  14:	73253d73 			; <UNDEFINED> instruction: 0x73253d73
  18:	Address 0x0000000000000018 is out of bounds.


Disassembly of section .comment:

00000000 <.comment>:
   0:	43434700 	movtmi	r4, #14080	; 0x3700
   4:	4728203a 			; <UNDEFINED> instruction: 0x4728203a
   8:	2029554e 	eorcs	r5, r9, lr, asr #10
   c:	322e3031 	eorcc	r3, lr, #49	; 0x31
  10:	Address 0x0000000000000010 is out of bounds.


Disassembly of section .ARM.attributes:

00000000 <.ARM.attributes>:
   0:	00003241 	andeq	r3, r0, r1, asr #4
   4:	61656100 	cmnvs	r5, r0, lsl #2
   8:	01006962 	tsteq	r0, r2, ror #18
   c:	00000028 	andeq	r0, r0, r8, lsr #32
  10:	4b5a3605 	blmi	168d82c <RDMDeviceParams::Save(char*, unsigned int, unsigned int&)+0x168d3c4>
  14:	08070600 	stmdaeq	r7, {r9, sl}
  18:	0a010901 	beq	42424 <RDMDeviceParams::Save(char*, unsigned int, unsigned int&)+0x41fbc>
  1c:	14041202 	strne	r1, [r4], #-514	; 0xfffffdfe
  20:	17011501 	strne	r1, [r1, -r1, lsl #10]
  24:	19011803 	stmdbne	r1, {r0, r1, fp, ip}
  28:	1c011a01 			; <UNDEFINED> instruction: 0x1c011a01
  2c:	22021e01 	andcs	r1, r2, #1, 28
  30:	Address 0x0000000000000030 is out of bounds.


rdmdeviceresponder.o:     file format elf32-littlearm


Disassembly of section .group:

00000000 <RDMDeviceResponder::~RDMDeviceResponder()>:
   0:	00000001 	andeq	r0, r0, r1
   4:	00000006 	andeq	r0, r0, r6
   8:	00000007 	andeq	r0, r0, r7
   c:	00000008 	andeq	r0, r0, r8
  10:	00000009 	andeq	r0, r0, r9

Disassembly of section .text:

00000000 <RDMDeviceResponder::PersonalityUpdate(LightSet*)>:
   0:	e12fff1e 	bx	lr

00000004 <RDMDeviceResponder::DmxStartAddressUpdate()>:
   4:	e12fff1e 	bx	lr

00000008 <RDMDeviceResponder::RDMDeviceResponder(RDMPersonality**, unsigned int)>:
   8:	e92d4070 	push	{r4, r5, r6, lr}
   c:	e1a04000 	mov	r4, r0
  10:	e2800004 	add	r0, r0, #4
  14:	e1a06001 	mov	r6, r1
  18:	e1a05002 	mov	r5, r2
  1c:	ebfffffe 	bl	0 <RDMDevice::RDMDevice()>
  20:	e1a00004 	mov	r0, r4
  24:	e59f3098 	ldr	r3, [pc, #152]	; c4 <RDMDeviceResponder::RDMDeviceResponder(RDMPersonality**, unsigned int)+0xbc>
  28:	e4803080 	str	r3, [r0], #128	; 0x80
  2c:	ebfffffe 	bl	0 <RDMIdentify::RDMIdentify()>
  30:	e2840084 	add	r0, r4, #132	; 0x84
  34:	ebfffffe 	bl	0 <RDMSensors::RDMSensors()>
  38:	e284008c 	add	r0, r4, #140	; 0x8c
  3c:	ebfffffe 	bl	0 <RDMSubDevices::RDMSubDevices()>
  40:	e3a0c065 	mov	ip, #101	; 0x65
  44:	e3a02001 	mov	r2, #1
  48:	e3a00000 	mov	r0, #0
  4c:	e59f3074 	ldr	r3, [pc, #116]	; c8 <RDMDeviceResponder::RDMDeviceResponder(RDMPersonality**, unsigned int)+0xc0>
  50:	e5846094 	str	r6, [r4, #148]	; 0x94
  54:	e5834000 	str	r4, [r3]
  58:	e59f306c 	ldr	r3, [pc, #108]	; cc <RDMDeviceResponder::RDMDeviceResponder(RDMPersonality**, unsigned int)+0xc4>
  5c:	e28410b0 	add	r1, r4, #176	; 0xb0
  60:	e58430c4 	str	r3, [r4, #196]	; 0xc4
  64:	e5c4c0c3 	strb	ip, [r4, #195]	; 0xc3
  68:	e284309d 	add	r3, r4, #157	; 0x9d
  6c:	e1c42cb8 	strh	r2, [r4, #200]	; 0xc8
  70:	e4c30001 	strb	r0, [r3], #1
  74:	e1530001 	cmp	r3, r1
  78:	1afffffc 	bne	70 <RDMDeviceResponder::RDMDeviceResponder(RDMPersonality**, unsigned int)+0x68>
  7c:	e3a00000 	mov	r0, #0
  80:	e28410c3 	add	r1, r4, #195	; 0xc3
  84:	e4c30001 	strb	r0, [r3], #1
  88:	e1510003 	cmp	r1, r3
  8c:	1afffffc 	bne	84 <RDMDeviceResponder::RDMDeviceResponder(RDMPersonality**, unsigned int)+0x7c>
  90:	e5c450aa 	strb	r5, [r4, #170]	; 0xaa
  94:	ebfffffe 	bl	0 <RDMSoftwareVersion::GetVersion()>
  98:	e5840098 	str	r0, [r4, #152]	; 0x98
  9c:	ebfffffe 	bl	0 <RDMSoftwareVersion::GetVersionLength()>
  a0:	e5943094 	ldr	r3, [r4, #148]	; 0x94
  a4:	e5c4009c 	strb	r0, [r4, #156]	; 0x9c
  a8:	e5933000 	ldr	r3, [r3]
  ac:	e1a00004 	mov	r0, r4
  b0:	e5933004 	ldr	r3, [r3, #4]
  b4:	e3530000 	cmp	r3, #0
  b8:	03e03000 	mvneq	r3, #0
  bc:	01c43cb8 	strheq	r3, [r4, #200]	; 0xc8
  c0:	e8bd8070 	pop	{r4, r5, r6, pc}
  c4:	00000008 	andeq	r0, r0, r8
  c8:	00000000 	andeq	r0, r0, r0
  cc:	0000016e 	andeq	r0, r0, lr, ror #2

000000d0 <RDMDeviceResponder::Init()>:
  d0:	e3a03001 	mov	r3, #1
  d4:	e92d4070 	push	{r4, r5, r6, lr}
  d8:	e5d0e076 	ldrb	lr, [r0, #118]	; 0x76
  dc:	e1a04000 	mov	r4, r0
  e0:	e35e0020 	cmp	lr, #32
  e4:	31a0200e 	movcc	r2, lr
  e8:	23a02020 	movcs	r2, #32
  ec:	e35e0000 	cmp	lr, #0
  f0:	e5c03004 	strb	r3, [r0, #4]
  f4:	e280100f 	add	r1, r0, #15
  f8:	0a00006c 	beq	2b0 <RDMDeviceResponder::Init()+0x1e0>
  fc:	e1a0c002 	mov	ip, r2
 100:	e282e056 	add	lr, r2, #86	; 0x56
 104:	e2803056 	add	r3, r0, #86	; 0x56
 108:	e6e0e07e 	uxtab	lr, r0, lr
 10c:	e4d30001 	ldrb	r0, [r3], #1
 110:	e15e0003 	cmp	lr, r3
 114:	e5430048 	strb	r0, [r3, #-72]	; 0xffffffb8
 118:	1afffffb 	bne	10c <RDMDeviceResponder::Init()+0x3c>
 11c:	e594007c 	ldr	r0, [r4, #124]	; 0x7c
 120:	e5c4202f 	strb	r2, [r4, #47]	; 0x2f
 124:	e3500000 	cmp	r0, #0
 128:	0a00005e 	beq	2a8 <RDMDeviceResponder::Init()+0x1d8>
 12c:	e5903000 	ldr	r3, [r0]
 130:	e5933008 	ldr	r3, [r3, #8]
 134:	e12fff33 	blx	r3
 138:	e5d4c02f 	ldrb	ip, [r4, #47]	; 0x2f
 13c:	e5d40076 	ldrb	r0, [r4, #118]	; 0x76
 140:	e35c0000 	cmp	ip, #0
 144:	0a000006 	beq	164 <RDMDeviceResponder::Init()+0x94>
 148:	e284300e 	add	r3, r4, #14
 14c:	e083100c 	add	r1, r3, ip
 150:	e5f32001 	ldrb	r2, [r3, #1]!
 154:	e0800002 	add	r0, r0, r2
 158:	e1530001 	cmp	r3, r1
 15c:	e6ff0070 	uxth	r0, r0
 160:	1afffffa 	bne	150 <RDMDeviceResponder::Init()+0x80>
 164:	e1c407b8 	strh	r0, [r4, #120]	; 0x78
 168:	ebfffffe 	bl	0 <RDMSoftwareVersion::GetVersionId()>
 16c:	e59f3150 	ldr	r3, [pc, #336]	; 2c4 <RDMDeviceResponder::Init()+0x1f4>
 170:	e1d425b2 	ldrh	r2, [r4, #82]	; 0x52
 174:	e5933000 	ldr	r3, [r3]
 178:	e1a01c20 	lsr	r1, r0, #24
 17c:	e5933000 	ldr	r3, [r3]
 180:	e5c420a2 	strb	r2, [r4, #162]	; 0xa2
 184:	e5c430a0 	strb	r3, [r4, #160]	; 0xa0
 188:	e1a03423 	lsr	r3, r3, #8
 18c:	e5c4309f 	strb	r3, [r4, #159]	; 0x9f
 190:	e1a02422 	lsr	r2, r2, #8
 194:	e3a03000 	mov	r3, #0
 198:	e5c420a1 	strb	r2, [r4, #161]	; 0xa1
 19c:	e3a02001 	mov	r2, #1
 1a0:	e5c4309e 	strb	r3, [r4, #158]	; 0x9e
 1a4:	e5c400a6 	strb	r0, [r4, #166]	; 0xa6
 1a8:	e5c410a3 	strb	r1, [r4, #163]	; 0xa3
 1ac:	e5943094 	ldr	r3, [r4, #148]	; 0x94
 1b0:	e1a01820 	lsr	r1, r0, #16
 1b4:	e1a00420 	lsr	r0, r0, #8
 1b8:	e5c4209d 	strb	r2, [r4, #157]	; 0x9d
 1bc:	e5c410a4 	strb	r1, [r4, #164]	; 0xa4
 1c0:	e5c400a5 	strb	r0, [r4, #165]	; 0xa5
 1c4:	e5933000 	ldr	r3, [r3]
 1c8:	e1d469b0 	ldrh	r6, [r4, #144]	; 0x90
 1cc:	e5935004 	ldr	r5, [r3, #4]
 1d0:	e3550000 	cmp	r5, #0
 1d4:	0a00002c 	beq	28c <RDMDeviceResponder::Init()+0x1bc>
 1d8:	e5953000 	ldr	r3, [r5]
 1dc:	e1a00005 	mov	r0, r5
 1e0:	e5933028 	ldr	r3, [r3, #40]	; 0x28
 1e4:	e12fff33 	blx	r3
 1e8:	e1a03000 	mov	r3, r0
 1ec:	e1a03423 	lsr	r3, r3, #8
 1f0:	e5c430a7 	strb	r3, [r4, #167]	; 0xa7
 1f4:	e5953000 	ldr	r3, [r5]
 1f8:	e1a00005 	mov	r0, r5
 1fc:	e5933028 	ldr	r3, [r3, #40]	; 0x28
 200:	e12fff33 	blx	r3
 204:	e1a03000 	mov	r3, r0
 208:	e5c430a8 	strb	r3, [r4, #168]	; 0xa8
 20c:	e5953000 	ldr	r3, [r5]
 210:	e1a00005 	mov	r0, r5
 214:	e5933024 	ldr	r3, [r3, #36]	; 0x24
 218:	e12fff33 	blx	r3
 21c:	e1a03000 	mov	r3, r0
 220:	e1a03423 	lsr	r3, r3, #8
 224:	e5c430ab 	strb	r3, [r4, #171]	; 0xab
 228:	e5953000 	ldr	r3, [r5]
 22c:	e1a00005 	mov	r0, r5
 230:	e5933024 	ldr	r3, [r3, #36]	; 0x24
 234:	e12fff33 	blx	r3
 238:	e5d4209d 	ldrb	r2, [r4, #157]	; 0x9d
 23c:	e5c400ac 	strb	r0, [r4, #172]	; 0xac
 240:	e3a00001 	mov	r0, #1
 244:	e5d43088 	ldrb	r3, [r4, #136]	; 0x88
 248:	e1a01426 	lsr	r1, r6, #8
 24c:	e5c410ad 	strb	r1, [r4, #173]	; 0xad
 250:	e5c430af 	strb	r3, [r4, #175]	; 0xaf
 254:	e5c460ae 	strb	r6, [r4, #174]	; 0xae
 258:	e28430b0 	add	r3, r4, #176	; 0xb0
 25c:	e28410c3 	add	r1, r4, #195	; 0xc3
 260:	e5c400a9 	strb	r0, [r4, #169]	; 0xa9
 264:	ea000000 	b	26c <RDMDeviceResponder::Init()+0x19c>
 268:	e5532013 	ldrb	r2, [r3, #-19]	; 0xffffffed
 26c:	e4c32001 	strb	r2, [r3], #1
 270:	e1530001 	cmp	r3, r1
 274:	1afffffb 	bne	268 <RDMDeviceResponder::Init()+0x198>
 278:	e5d430ac 	ldrb	r3, [r4, #172]	; 0xac
 27c:	e5d420a9 	ldrb	r2, [r4, #169]	; 0xa9
 280:	e0833002 	add	r3, r3, r2
 284:	e1c43cb6 	strh	r3, [r4, #198]	; 0xc6
 288:	e8bd8070 	pop	{r4, r5, r6, pc}
 28c:	e1d43cb8 	ldrh	r3, [r4, #200]	; 0xc8
 290:	e5c450a7 	strb	r5, [r4, #167]	; 0xa7
 294:	e5c430ac 	strb	r3, [r4, #172]	; 0xac
 298:	e1a03423 	lsr	r3, r3, #8
 29c:	e5c450a8 	strb	r5, [r4, #168]	; 0xa8
 2a0:	e5c430ab 	strb	r3, [r4, #171]	; 0xab
 2a4:	eaffffe5 	b	240 <RDMDeviceResponder::Init()+0x170>
 2a8:	e5d40076 	ldrb	r0, [r4, #118]	; 0x76
 2ac:	eaffffa5 	b	148 <RDMDeviceResponder::Init()+0x78>
 2b0:	e590007c 	ldr	r0, [r0, #124]	; 0x7c
 2b4:	e5c4e02f 	strb	lr, [r4, #47]	; 0x2f
 2b8:	e3500000 	cmp	r0, #0
 2bc:	1affff9a 	bne	12c <RDMDeviceResponder::Init()+0x5c>
 2c0:	eaffffa7 	b	164 <RDMDeviceResponder::Init()+0x94>
 2c4:	00000000 	andeq	r0, r0, r0

000002c8 <RDMDeviceResponder::Print()>:
 2c8:	e92d4070 	push	{r4, r5, r6, lr}
 2cc:	e1a04000 	mov	r4, r0
 2d0:	e24dd008 	sub	sp, sp, #8
 2d4:	e2800004 	add	r0, r0, #4
 2d8:	ebfffffe 	bl	0 <RDMDevice::Print()>
 2dc:	e5943094 	ldr	r3, [r4, #148]	; 0x94
 2e0:	e59f0084 	ldr	r0, [pc, #132]	; 36c <RDMDeviceResponder::Print()+0xa4>
 2e4:	e5935000 	ldr	r5, [r3]
 2e8:	e5956028 	ldr	r6, [r5, #40]	; 0x28
 2ec:	ebfffffe 	bl	0 <printf>
 2f0:	e5d4209e 	ldrb	r2, [r4, #158]	; 0x9e
 2f4:	e5d4109d 	ldrb	r1, [r4, #157]	; 0x9d
 2f8:	e59f0070 	ldr	r0, [pc, #112]	; 370 <RDMDeviceResponder::Print()+0xa8>
 2fc:	ebfffffe 	bl	0 <printf>
 300:	e5d430ac 	ldrb	r3, [r4, #172]	; 0xac
 304:	e5d410ab 	ldrb	r1, [r4, #171]	; 0xab
 308:	e59f0064 	ldr	r0, [pc, #100]	; 374 <RDMDeviceResponder::Print()+0xac>
 30c:	e0831401 	add	r1, r3, r1, lsl #8
 310:	ebfffffe 	bl	0 <printf>
 314:	e5d430a8 	ldrb	r3, [r4, #168]	; 0xa8
 318:	e5d410a7 	ldrb	r1, [r4, #167]	; 0xa7
 31c:	e2855008 	add	r5, r5, #8
 320:	e0831401 	add	r1, r3, r1, lsl #8
 324:	e59f004c 	ldr	r0, [pc, #76]	; 378 <RDMDeviceResponder::Print()+0xb0>
 328:	ebfffffe 	bl	0 <printf>
 32c:	e5d420aa 	ldrb	r2, [r4, #170]	; 0xaa
 330:	e5d410a9 	ldrb	r1, [r4, #169]	; 0xa9
 334:	e6ef3076 	uxtb	r3, r6
 338:	e58d5000 	str	r5, [sp]
 33c:	e59f0038 	ldr	r0, [pc, #56]	; 37c <RDMDeviceResponder::Print()+0xb4>
 340:	ebfffffe 	bl	0 <printf>
 344:	e5d410ad 	ldrb	r1, [r4, #173]	; 0xad
 348:	e5d430ae 	ldrb	r3, [r4, #174]	; 0xae
 34c:	e59f002c 	ldr	r0, [pc, #44]	; 380 <RDMDeviceResponder::Print()+0xb8>
 350:	e0831401 	add	r1, r3, r1, lsl #8
 354:	ebfffffe 	bl	0 <printf>
 358:	e5d410af 	ldrb	r1, [r4, #175]	; 0xaf
 35c:	e59f0020 	ldr	r0, [pc, #32]	; 384 <RDMDeviceResponder::Print()+0xbc>
 360:	e28dd008 	add	sp, sp, #8
 364:	e8bd4070 	pop	{r4, r5, r6, lr}
 368:	eafffffe 	b	0 <printf>
 36c:	00000000 	andeq	r0, r0, r0
 370:	00000020 	andeq	r0, r0, r0, lsr #32
 374:	0000003c 	andeq	r0, r0, ip, lsr r0
 378:	00000054 	andeq	r0, r0, r4, asr r0
 37c:	0000006c 	andeq	r0, r0, ip, rrx
 380:	0000008c 	andeq	r0, r0, ip, lsl #1
 384:	000000a4 	andeq	r0, r0, r4, lsr #1

Disassembly of section .bss:

00000000 <RDMDeviceResponder::s_pThis>:
   0:	00000000 	andeq	r0, r0, r0

Disassembly of section .text._ZN18RDMDeviceResponderD2Ev:

00000000 <RDMDeviceResponder::~RDMDeviceResponder()>:
   0:	e92d4010 	push	{r4, lr}
   4:	e1a04000 	mov	r4, r0
   8:	e59f3014 	ldr	r3, [pc, #20]	; 24 <RDMDeviceResponder::~RDMDeviceResponder()+0x24>
   c:	e480308c 	str	r3, [r0], #140	; 0x8c
  10:	ebfffffe 	bl	0 <RDMSubDevices::~RDMSubDevices()>
  14:	e2840084 	add	r0, r4, #132	; 0x84
  18:	ebfffffe 	bl	0 <RDMSensors::~RDMSensors()>
  1c:	e1a00004 	mov	r0, r4
  20:	e8bd8010 	pop	{r4, pc}
  24:	00000008 	andeq	r0, r0, r8

Disassembly of section .text._ZN18RDMDeviceResponderD0Ev:

00000000 <RDMDeviceResponder::~RDMDeviceResponder()>:
   0:	e92d4010 	push	{r4, lr}
   4:	e1a04000 	mov	r4, r0
   8:	e59f301c 	ldr	r3, [pc, #28]	; 2c <RDMDeviceResponder::~RDMDeviceResponder()+0x2c>
   c:	e480308c 	str	r3, [r0], #140	; 0x8c
  10:	ebfffffe 	bl	0 <RDMSubDevices::~RDMSubDevices()>
  14:	e2840084 	add	r0, r4, #132	; 0x84
  18:	ebfffffe 	bl	0 <RDMSensors::~RDMSensors()>
  1c:	e1a00004 	mov	r0, r4
  20:	ebfffffe 	bl	0 <operator delete(void*)>
  24:	e1a00004 	mov	r0, r4
  28:	e8bd8010 	pop	{r4, pc}
  2c:	00000008 	andeq	r0, r0, r8

Disassembly of section .rodata.str1.4:

00000000 <.rodata.str1.4>:
   0:	204d4452 	subcs	r4, sp, r2, asr r4
   4:	70736552 	rsbsvc	r6, r3, r2, asr r5
   8:	65646e6f 	strbvs	r6, [r4, #-3695]!	; 0xfffff191
   c:	6f632072 	svcvs	0x00632072
  10:	6769666e 	strbvs	r6, [r9, -lr, ror #12]!
  14:	74617275 	strbtvc	r7, [r1], #-629	; 0xfffffd8b
  18:	0a6e6f69 	beq	1b9bdc4 <RDMDeviceResponder::Print()+0x1b9bafc>
  1c:	00000000 	andeq	r0, r0, r0
  20:	6f725020 	svcvs	0x00725020
  24:	6f636f74 	svcvs	0x00636f74
  28:	6556206c 	ldrbvs	r2, [r6, #-108]	; 0xffffff94
  2c:	6f697372 	svcvs	0x00697372
  30:	6425206e 	strtvs	r2, [r5], #-110	; 0xffffff92
  34:	0a64252e 	beq	19094f4 <RDMDeviceResponder::Print()+0x190922c>
  38:	00000000 	andeq	r0, r0, r0
  3c:	584d4420 	stmdapl	sp, {r5, sl, lr}^
  40:	64644120 	strbtvs	r4, [r4], #-288	; 0xfffffee0
  44:	73736572 	cmnvc	r3, #478150656	; 0x1c800000
  48:	20202020 	eorcs	r2, r0, r0, lsr #32
  4c:	203a2020 	eorscs	r2, sl, r0, lsr #32
  50:	000a6425 	andeq	r6, sl, r5, lsr #8
  54:	584d4420 	stmdapl	sp, {r5, sl, lr}^
  58:	6f6f4620 	svcvs	0x006f4620
  5c:	69727074 	ldmdbvs	r2!, {r2, r4, r5, r6, ip, sp, lr}^
  60:	2020746e 	eorcs	r7, r0, lr, ror #8
  64:	203a2020 	eorscs	r2, sl, r0, lsr #32
  68:	000a6425 	andeq	r6, sl, r5, lsr #8
  6c:	72655020 	rsbvc	r5, r5, #32
  70:	616e6f73 	smcvs	59123	; 0xe6f3
  74:	7974696c 	ldmdbvc	r4!, {r2, r3, r5, r6, r8, fp, sp, lr}^
  78:	20642520 	rsbcs	r2, r4, r0, lsr #10
  7c:	2520666f 	strcs	r6, [r0, #-1647]!	; 0xfffff991
  80:	255b2064 	ldrbcs	r2, [fp, #-100]	; 0xffffff9c
  84:	5d732a2e 	vldmdbpl	r3!, {s5-s50}
  88:	0000000a 	andeq	r0, r0, sl
  8c:	62755320 	rsbsvs	r5, r5, #32, 6	; 0x80000000
  90:	76654420 	strbtvc	r4, [r5], -r0, lsr #8
  94:	73656369 	cmnvc	r5, #-1543503871	; 0xa4000001
  98:	20202020 	eorcs	r2, r0, r0, lsr #32
  9c:	203a2020 	eorscs	r2, sl, r0, lsr #32
  a0:	000a6425 	andeq	r6, sl, r5, lsr #8
  a4:	6e655320 	cdpvs	3, 6, cr5, cr5, cr0, {1}
  a8:	73726f73 	cmnvc	r2, #460	; 0x1cc
  ac:	20202020 	eorcs	r2, r0, r0, lsr #32
  b0:	20202020 	eorcs	r2, r0, r0, lsr #32
  b4:	203a2020 	eorscs	r2, sl, r0, lsr #32
  b8:	000a6425 	andeq	r6, sl, r5, lsr #8

Disassembly of section .rodata:

00000000 <vtable for RDMDeviceResponder>:
	...

Disassembly of section .comment:

00000000 <.comment>:
   0:	43434700 	movtmi	r4, #14080	; 0x3700
   4:	4728203a 			; <UNDEFINED> instruction: 0x4728203a
   8:	2029554e 	eorcs	r5, r9, lr, asr #10
   c:	322e3031 	eorcc	r3, lr, #49	; 0x31
  10:	Address 0x0000000000000010 is out of bounds.


Disassembly of section .ARM.attributes:

00000000 <.ARM.attributes>:
   0:	00003241 	andeq	r3, r0, r1, asr #4
   4:	61656100 	cmnvs	r5, r0, lsl #2
   8:	01006962 	tsteq	r0, r2, ror #18
   c:	00000028 	andeq	r0, r0, r8, lsr #32
  10:	4b5a3605 	blmi	168d82c <RDMDeviceResponder::Print()+0x168d564>
  14:	08070600 	stmdaeq	r7, {r9, sl}
  18:	0a010901 	beq	42424 <RDMDeviceResponder::Print()+0x4215c>
  1c:	14041202 	strne	r1, [r4], #-514	; 0xfffffdfe
  20:	17011501 	strne	r1, [r1, -r1, lsl #10]
  24:	19011803 	stmdbne	r1, {r0, r1, fp, ip}
  28:	1c011a01 			; <UNDEFINED> instruction: 0x1c011a01
  2c:	22021e01 	andcs	r1, r2, #1, 28
  30:	Address 0x0000000000000030 is out of bounds.


rdmhandler.o:     file format elf32-littlearm


Disassembly of section .group:

00000000 <.group>:
   0:	00000001 	andeq	r0, r0, r1
   4:	00000008 	andeq	r0, r0, r8

Disassembly of section .group:

00000000 <.group>:
   0:	00000001 	andeq	r0, r0, r1
   4:	00000009 	andeq	r0, r0, r9

Disassembly of section .group:

00000000 <.group>:
   0:	00000001 	andeq	r0, r0, r1
   4:	0000000a 	andeq	r0, r0, sl

Disassembly of section .text:

00000000 <RDMHandler::RDMHandler(bool)>:
       0:	e3a02000 	mov	r2, #0
       4:	e5c01000 	strb	r1, [r0]
       8:	e5c02001 	strb	r2, [r0, #1]
       c:	e5802004 	str	r2, [r0, #4]
      10:	e5802008 	str	r2, [r0, #8]
      14:	e12fff1e 	bx	lr

00000018 <RDMHandler::HandleString(char const*, unsigned int)>:
      18:	e590c008 	ldr	ip, [r0, #8]
      1c:	e3520000 	cmp	r2, #0
      20:	e5cc2017 	strb	r2, [ip, #23]
      24:	012fff1e 	bxeq	lr
      28:	e3520020 	cmp	r2, #32
      2c:	e92d4030 	push	{r4, r5, lr}
      30:	9a00005a 	bls	1a0 <RDMHandler::HandleString(char const*, unsigned int)+0x188>
      34:	e3e04001 	mvn	r4, #1
      38:	e242e021 	sub	lr, r2, #33	; 0x21
      3c:	e3cee01f 	bic	lr, lr, #31
      40:	e2815042 	add	r5, r1, #66	; 0x42
      44:	e2813022 	add	r3, r1, #34	; 0x22
      48:	e28c003a 	add	r0, ip, #58	; 0x3a
      4c:	e08ee005 	add	lr, lr, r5
      50:	e0444001 	sub	r4, r4, r1
      54:	e5535022 	ldrb	r5, [r3, #-34]	; 0xffffffde
      58:	f5d3f000 	pld	[r3]
      5c:	e5405022 	strb	r5, [r0, #-34]	; 0xffffffde
      60:	e5535021 	ldrb	r5, [r3, #-33]	; 0xffffffdf
      64:	f5d0f000 	pld	[r0]
      68:	e5405021 	strb	r5, [r0, #-33]	; 0xffffffdf
      6c:	e5535020 	ldrb	r5, [r3, #-32]	; 0xffffffe0
      70:	e2800020 	add	r0, r0, #32
      74:	e5405040 	strb	r5, [r0, #-64]	; 0xffffffc0
      78:	e553501f 	ldrb	r5, [r3, #-31]	; 0xffffffe1
      7c:	e540503f 	strb	r5, [r0, #-63]	; 0xffffffc1
      80:	e553501e 	ldrb	r5, [r3, #-30]	; 0xffffffe2
      84:	e540503e 	strb	r5, [r0, #-62]	; 0xffffffc2
      88:	e553501d 	ldrb	r5, [r3, #-29]	; 0xffffffe3
      8c:	e540503d 	strb	r5, [r0, #-61]	; 0xffffffc3
      90:	e553501c 	ldrb	r5, [r3, #-28]	; 0xffffffe4
      94:	e540503c 	strb	r5, [r0, #-60]	; 0xffffffc4
      98:	e553501b 	ldrb	r5, [r3, #-27]	; 0xffffffe5
      9c:	e540503b 	strb	r5, [r0, #-59]	; 0xffffffc5
      a0:	e553501a 	ldrb	r5, [r3, #-26]	; 0xffffffe6
      a4:	e540503a 	strb	r5, [r0, #-58]	; 0xffffffc6
      a8:	e5535019 	ldrb	r5, [r3, #-25]	; 0xffffffe7
      ac:	e5405039 	strb	r5, [r0, #-57]	; 0xffffffc7
      b0:	e5535018 	ldrb	r5, [r3, #-24]	; 0xffffffe8
      b4:	e5405038 	strb	r5, [r0, #-56]	; 0xffffffc8
      b8:	e5535017 	ldrb	r5, [r3, #-23]	; 0xffffffe9
      bc:	e5405037 	strb	r5, [r0, #-55]	; 0xffffffc9
      c0:	e5535016 	ldrb	r5, [r3, #-22]	; 0xffffffea
      c4:	e5405036 	strb	r5, [r0, #-54]	; 0xffffffca
      c8:	e5535015 	ldrb	r5, [r3, #-21]	; 0xffffffeb
      cc:	e5405035 	strb	r5, [r0, #-53]	; 0xffffffcb
      d0:	e5535014 	ldrb	r5, [r3, #-20]	; 0xffffffec
      d4:	e5405034 	strb	r5, [r0, #-52]	; 0xffffffcc
      d8:	e5535013 	ldrb	r5, [r3, #-19]	; 0xffffffed
      dc:	e5405033 	strb	r5, [r0, #-51]	; 0xffffffcd
      e0:	e5535012 	ldrb	r5, [r3, #-18]	; 0xffffffee
      e4:	e5405032 	strb	r5, [r0, #-50]	; 0xffffffce
      e8:	e5535011 	ldrb	r5, [r3, #-17]	; 0xffffffef
      ec:	e5405031 	strb	r5, [r0, #-49]	; 0xffffffcf
      f0:	e5535010 	ldrb	r5, [r3, #-16]
      f4:	e5405030 	strb	r5, [r0, #-48]	; 0xffffffd0
      f8:	e553500f 	ldrb	r5, [r3, #-15]
      fc:	e540502f 	strb	r5, [r0, #-47]	; 0xffffffd1
     100:	e553500e 	ldrb	r5, [r3, #-14]
     104:	e540502e 	strb	r5, [r0, #-46]	; 0xffffffd2
     108:	e553500d 	ldrb	r5, [r3, #-13]
     10c:	e540502d 	strb	r5, [r0, #-45]	; 0xffffffd3
     110:	e553500c 	ldrb	r5, [r3, #-12]
     114:	e540502c 	strb	r5, [r0, #-44]	; 0xffffffd4
     118:	e553500b 	ldrb	r5, [r3, #-11]
     11c:	e540502b 	strb	r5, [r0, #-43]	; 0xffffffd5
     120:	e553500a 	ldrb	r5, [r3, #-10]
     124:	e540502a 	strb	r5, [r0, #-42]	; 0xffffffd6
     128:	e5535009 	ldrb	r5, [r3, #-9]
     12c:	e5405029 	strb	r5, [r0, #-41]	; 0xffffffd7
     130:	e5535008 	ldrb	r5, [r3, #-8]
     134:	e5405028 	strb	r5, [r0, #-40]	; 0xffffffd8
     138:	e5535007 	ldrb	r5, [r3, #-7]
     13c:	e5405027 	strb	r5, [r0, #-39]	; 0xffffffd9
     140:	e5535006 	ldrb	r5, [r3, #-6]
     144:	e5405026 	strb	r5, [r0, #-38]	; 0xffffffda
     148:	e5535005 	ldrb	r5, [r3, #-5]
     14c:	e5405025 	strb	r5, [r0, #-37]	; 0xffffffdb
     150:	e5535004 	ldrb	r5, [r3, #-4]
     154:	e5405024 	strb	r5, [r0, #-36]	; 0xffffffdc
     158:	e5535003 	ldrb	r5, [r3, #-3]
     15c:	e5405023 	strb	r5, [r0, #-35]	; 0xffffffdd
     160:	e0845003 	add	r5, r4, r3
     164:	e2833020 	add	r3, r3, #32
     168:	e153000e 	cmp	r3, lr
     16c:	1affffb8 	bne	54 <RDMHandler::HandleString(char const*, unsigned int)+0x3c>
     170:	e2450001 	sub	r0, r5, #1
     174:	e2855018 	add	r5, r5, #24
     178:	e08cc005 	add	ip, ip, r5
     17c:	e0810000 	add	r0, r1, r0
     180:	e1a03000 	mov	r3, r0
     184:	e2833002 	add	r3, r3, #2
     188:	e5f0e001 	ldrb	lr, [r0, #1]!
     18c:	e0433001 	sub	r3, r3, r1
     190:	e1520003 	cmp	r2, r3
     194:	e4cce001 	strb	lr, [ip], #1
     198:	8afffff8 	bhi	180 <RDMHandler::HandleString(char const*, unsigned int)+0x168>
     19c:	e8bd8030 	pop	{r4, r5, pc}
     1a0:	e3a05000 	mov	r5, #0
     1a4:	eafffff1 	b	170 <RDMHandler::HandleString(char const*, unsigned int)+0x158>

000001a8 <RDMHandler::CreateRespondMessage(unsigned char, unsigned short)>:
     1a8:	e92d4070 	push	{r4, r5, r6, lr}
     1ac:	e3e0e033 	mvn	lr, #51	; 0x33
     1b0:	e3a04000 	mov	r4, #0
     1b4:	e5903008 	ldr	r3, [r0, #8]
     1b8:	e590c004 	ldr	ip, [r0, #4]
     1bc:	e5c3e000 	strb	lr, [r3]
     1c0:	e5dce000 	ldrb	lr, [ip]
     1c4:	e3510000 	cmp	r1, #0
     1c8:	e5c3e001 	strb	lr, [r3, #1]
     1cc:	e5dce00e 	ldrb	lr, [ip, #14]
     1d0:	e5c34011 	strb	r4, [r3, #17]
     1d4:	e5c3e00f 	strb	lr, [r3, #15]
     1d8:	e5dce011 	ldrb	lr, [ip, #17]
     1dc:	e5c3e012 	strb	lr, [r3, #18]
     1e0:	e5dce012 	ldrb	lr, [ip, #18]
     1e4:	e5c3e013 	strb	lr, [r3, #19]
     1e8:	e5dce013 	ldrb	lr, [ip, #19]
     1ec:	e28ee001 	add	lr, lr, #1
     1f0:	e5c3e014 	strb	lr, [r3, #20]
     1f4:	e5dce014 	ldrb	lr, [ip, #20]
     1f8:	e5c3e015 	strb	lr, [r3, #21]
     1fc:	e5dce015 	ldrb	lr, [ip, #21]
     200:	e5c3e016 	strb	lr, [r3, #22]
     204:	0a00007c 	beq	3fc <RDMHandler::CreateRespondMessage(unsigned char, unsigned short)+0x254>
     208:	e241e001 	sub	lr, r1, #1
     20c:	e35e0001 	cmp	lr, #1
     210:	88bd8070 	pophi	{r4, r5, r6, pc}
     214:	e5c32019 	strb	r2, [r3, #25]
     218:	e1a02422 	lsr	r2, r2, #8
     21c:	e5c32018 	strb	r2, [r3, #24]
     220:	e3a0201a 	mov	r2, #26
     224:	e5c31010 	strb	r1, [r3, #16]
     228:	e3a01002 	mov	r1, #2
     22c:	e1a0e002 	mov	lr, r2
     230:	e5c31017 	strb	r1, [r3, #23]
     234:	e5c32002 	strb	r2, [r3, #2]
     238:	e59f11f4 	ldr	r1, [pc, #500]	; 434 <RDMHandler::CreateRespondMessage(unsigned char, unsigned short)+0x28c>
     23c:	e28c2008 	add	r2, ip, #8
     240:	e5911000 	ldr	r1, [r1]
     244:	e2833003 	add	r3, r3, #3
     248:	e28cc00e 	add	ip, ip, #14
     24c:	e2811005 	add	r1, r1, #5
     250:	e4d24001 	ldrb	r4, [r2], #1
     254:	e4c34001 	strb	r4, [r3], #1
     258:	e4d14001 	ldrb	r4, [r1], #1
     25c:	e152000c 	cmp	r2, ip
     260:	e5c34005 	strb	r4, [r3, #5]
     264:	1afffff9 	bne	250 <RDMHandler::CreateRespondMessage(unsigned char, unsigned short)+0xa8>
     268:	e35e0000 	cmp	lr, #0
     26c:	e5904008 	ldr	r4, [r0, #8]
     270:	0a000068 	beq	418 <RDMHandler::CreateRespondMessage(unsigned char, unsigned short)+0x270>
     274:	e35e0020 	cmp	lr, #32
     278:	9a00006a 	bls	428 <RDMHandler::CreateRespondMessage(unsigned char, unsigned short)+0x280>
     27c:	e3e05001 	mvn	r5, #1
     280:	e3a0c000 	mov	ip, #0
     284:	e24e2021 	sub	r2, lr, #33	; 0x21
     288:	e3c2201f 	bic	r2, r2, #31
     28c:	e2843042 	add	r3, r4, #66	; 0x42
     290:	e2841022 	add	r1, r4, #34	; 0x22
     294:	e0822003 	add	r2, r2, r3
     298:	e0455004 	sub	r5, r5, r4
     29c:	e5513021 	ldrb	r3, [r1, #-33]	; 0xffffffdf
     2a0:	e5516022 	ldrb	r6, [r1, #-34]	; 0xffffffde
     2a4:	f5d1f000 	pld	[r1]
     2a8:	e0866003 	add	r6, r6, r3
     2ac:	e5513020 	ldrb	r3, [r1, #-32]	; 0xffffffe0
     2b0:	e0836006 	add	r6, r3, r6
     2b4:	e551301f 	ldrb	r3, [r1, #-31]	; 0xffffffe1
     2b8:	e0833006 	add	r3, r3, r6
     2bc:	e551601e 	ldrb	r6, [r1, #-30]	; 0xffffffe2
     2c0:	e0863003 	add	r3, r6, r3
     2c4:	e551601d 	ldrb	r6, [r1, #-29]	; 0xffffffe3
     2c8:	e0866003 	add	r6, r6, r3
     2cc:	e551301c 	ldrb	r3, [r1, #-28]	; 0xffffffe4
     2d0:	e0836006 	add	r6, r3, r6
     2d4:	e551301b 	ldrb	r3, [r1, #-27]	; 0xffffffe5
     2d8:	e0833006 	add	r3, r3, r6
     2dc:	e551601a 	ldrb	r6, [r1, #-26]	; 0xffffffe6
     2e0:	e0863003 	add	r3, r6, r3
     2e4:	e5516019 	ldrb	r6, [r1, #-25]	; 0xffffffe7
     2e8:	e0866003 	add	r6, r6, r3
     2ec:	e5513018 	ldrb	r3, [r1, #-24]	; 0xffffffe8
     2f0:	e0836006 	add	r6, r3, r6
     2f4:	e5513017 	ldrb	r3, [r1, #-23]	; 0xffffffe9
     2f8:	e0833006 	add	r3, r3, r6
     2fc:	e5516016 	ldrb	r6, [r1, #-22]	; 0xffffffea
     300:	e0863003 	add	r3, r6, r3
     304:	e5516015 	ldrb	r6, [r1, #-21]	; 0xffffffeb
     308:	e0866003 	add	r6, r6, r3
     30c:	e5513014 	ldrb	r3, [r1, #-20]	; 0xffffffec
     310:	e0836006 	add	r6, r3, r6
     314:	e5513013 	ldrb	r3, [r1, #-19]	; 0xffffffed
     318:	e0833006 	add	r3, r3, r6
     31c:	e5516012 	ldrb	r6, [r1, #-18]	; 0xffffffee
     320:	e0863003 	add	r3, r6, r3
     324:	e5516011 	ldrb	r6, [r1, #-17]	; 0xffffffef
     328:	e0866003 	add	r6, r6, r3
     32c:	e5513010 	ldrb	r3, [r1, #-16]
     330:	e0836006 	add	r6, r3, r6
     334:	e551300f 	ldrb	r3, [r1, #-15]
     338:	e0833006 	add	r3, r3, r6
     33c:	e551600e 	ldrb	r6, [r1, #-14]
     340:	e0863003 	add	r3, r6, r3
     344:	e551600d 	ldrb	r6, [r1, #-13]
     348:	e0866003 	add	r6, r6, r3
     34c:	e551300c 	ldrb	r3, [r1, #-12]
     350:	e0836006 	add	r6, r3, r6
     354:	e551300b 	ldrb	r3, [r1, #-11]
     358:	e0833006 	add	r3, r3, r6
     35c:	e551600a 	ldrb	r6, [r1, #-10]
     360:	e0863003 	add	r3, r6, r3
     364:	e5516009 	ldrb	r6, [r1, #-9]
     368:	e0866003 	add	r6, r6, r3
     36c:	e5513008 	ldrb	r3, [r1, #-8]
     370:	e0836006 	add	r6, r3, r6
     374:	e5513007 	ldrb	r3, [r1, #-7]
     378:	e0833006 	add	r3, r3, r6
     37c:	e5516006 	ldrb	r6, [r1, #-6]
     380:	e0863003 	add	r3, r6, r3
     384:	e5516005 	ldrb	r6, [r1, #-5]
     388:	e0866003 	add	r6, r6, r3
     38c:	e5513004 	ldrb	r3, [r1, #-4]
     390:	e0836006 	add	r6, r3, r6
     394:	e5513003 	ldrb	r3, [r1, #-3]
     398:	e0833006 	add	r3, r3, r6
     39c:	e08cc003 	add	ip, ip, r3
     3a0:	e0853001 	add	r3, r5, r1
     3a4:	e2811020 	add	r1, r1, #32
     3a8:	e1520001 	cmp	r2, r1
     3ac:	e6ffc07c 	uxth	ip, ip
     3b0:	1affffb9 	bne	29c <RDMHandler::CreateRespondMessage(unsigned char, unsigned short)+0xf4>
     3b4:	e2433001 	sub	r3, r3, #1
     3b8:	e0841003 	add	r1, r4, r3
     3bc:	e1a03001 	mov	r3, r1
     3c0:	e5f12001 	ldrb	r2, [r1, #1]!
     3c4:	e2833002 	add	r3, r3, #2
     3c8:	e0433004 	sub	r3, r3, r4
     3cc:	e08c2002 	add	r2, ip, r2
     3d0:	e15e0003 	cmp	lr, r3
     3d4:	e6ffc072 	uxth	ip, r2
     3d8:	8afffff7 	bhi	3bc <RDMHandler::CreateRespondMessage(unsigned char, unsigned short)+0x214>
     3dc:	e084400e 	add	r4, r4, lr
     3e0:	e1a0342c 	lsr	r3, ip, #8
     3e4:	e28ee001 	add	lr, lr, #1
     3e8:	e6ef207c 	uxtb	r2, ip
     3ec:	e5c43000 	strb	r3, [r4]
     3f0:	e5903008 	ldr	r3, [r0, #8]
     3f4:	e7c3200e 	strb	r2, [r3, lr]
     3f8:	e8bd8070 	pop	{r4, r5, r6, pc}
     3fc:	e5d32017 	ldrb	r2, [r3, #23]
     400:	e5c31010 	strb	r1, [r3, #16]
     404:	e2822018 	add	r2, r2, #24
     408:	e6ef2072 	uxtb	r2, r2
     40c:	e1a0e002 	mov	lr, r2
     410:	e5c32002 	strb	r2, [r3, #2]
     414:	eaffff87 	b	238 <RDMHandler::CreateRespondMessage(unsigned char, unsigned short)+0x90>
     418:	e1a0200e 	mov	r2, lr
     41c:	e3a0e001 	mov	lr, #1
     420:	e1a03002 	mov	r3, r2
     424:	eafffff0 	b	3ec <RDMHandler::CreateRespondMessage(unsigned char, unsigned short)+0x244>
     428:	e3a0c000 	mov	ip, #0
     42c:	e1a0300c 	mov	r3, ip
     430:	eaffffdf 	b	3b4 <RDMHandler::CreateRespondMessage(unsigned char, unsigned short)+0x20c>
     434:	00000000 	andeq	r0, r0, r0

00000438 <RDMHandler::SetResetDevice(bool, unsigned short)>:
     438:	e5903004 	ldr	r3, [r0, #4]
     43c:	e5d32016 	ldrb	r2, [r3, #22]
     440:	e3520001 	cmp	r2, #1
     444:	1a000015 	bne	4a0 <RDMHandler::SetResetDevice(bool, unsigned short)+0x68>
     448:	e5d33017 	ldrb	r3, [r3, #23]
     44c:	e3530001 	cmp	r3, #1
     450:	135300ff 	cmpne	r3, #255	; 0xff
     454:	13a02001 	movne	r2, #1
     458:	03a02000 	moveq	r2, #0
     45c:	1a000012 	bne	4ac <RDMHandler::SetResetDevice(bool, unsigned short)+0x74>
     460:	e5901008 	ldr	r1, [r0, #8]
     464:	e35300ff 	cmp	r3, #255	; 0xff
     468:	e92d4010 	push	{r4, lr}
     46c:	e1a04000 	mov	r4, r0
     470:	e5c12017 	strb	r2, [r1, #23]
     474:	0a000004 	beq	48c <RDMHandler::SetResetDevice(bool, unsigned short)+0x54>
     478:	e59f3038 	ldr	r3, [pc, #56]	; 4b8 <RDMHandler::SetResetDevice(bool, unsigned short)+0x80>
     47c:	e5930000 	ldr	r0, [r3]
     480:	ebfffffe 	bl	0 <Hardware::Reboot()>
     484:	e3500000 	cmp	r0, #0
     488:	18bd8010 	popne	{r4, pc}
     48c:	e1a00004 	mov	r0, r4
     490:	e8bd4010 	pop	{r4, lr}
     494:	e3a02004 	mov	r2, #4
     498:	e3a01002 	mov	r1, #2
     49c:	eafffffe 	b	1a8 <RDMHandler::CreateRespondMessage(unsigned char, unsigned short)>
     4a0:	e3a02001 	mov	r2, #1
     4a4:	e3a01002 	mov	r1, #2
     4a8:	eafffffe 	b	1a8 <RDMHandler::CreateRespondMessage(unsigned char, unsigned short)>
     4ac:	e3a02006 	mov	r2, #6
     4b0:	e3a01002 	mov	r1, #2
     4b4:	eafffffe 	b	1a8 <RDMHandler::CreateRespondMessage(unsigned char, unsigned short)>
     4b8:	00000000 	andeq	r0, r0, r0

000004bc <RDMHandler::SetDeviceHours(bool, unsigned short)>:
     4bc:	e3a02004 	mov	r2, #4
     4c0:	e3a01002 	mov	r1, #2
     4c4:	eafffffe 	b	1a8 <RDMHandler::CreateRespondMessage(unsigned char, unsigned short)>

000004c8 <RDMHandler::GetPowerState(unsigned short)>:
     4c8:	e3a01001 	mov	r1, #1
     4cc:	e3e02000 	mvn	r2, #0
     4d0:	e5903008 	ldr	r3, [r0, #8]
     4d4:	e5c31017 	strb	r1, [r3, #23]
     4d8:	e5c32018 	strb	r2, [r3, #24]
     4dc:	e5903004 	ldr	r3, [r0, #4]
     4e0:	e5d32016 	ldrb	r2, [r3, #22]
     4e4:	e3520000 	cmp	r2, #0
     4e8:	03a02018 	moveq	r2, #24
     4ec:	05c32001 	strbeq	r2, [r3, #1]
     4f0:	e3a02000 	mov	r2, #0
     4f4:	e1a01002 	mov	r1, r2
     4f8:	eafffffe 	b	1a8 <RDMHandler::CreateRespondMessage(unsigned char, unsigned short)>

000004fc <RDMHandler::GetIdentifyDevice(unsigned short)>:
     4fc:	e3a01001 	mov	r1, #1
     500:	e59f302c 	ldr	r3, [pc, #44]	; 534 <RDMHandler::GetIdentifyDevice(unsigned short)+0x38>
     504:	e5d32000 	ldrb	r2, [r3]
     508:	e5903008 	ldr	r3, [r0, #8]
     50c:	e5c31017 	strb	r1, [r3, #23]
     510:	e5c32018 	strb	r2, [r3, #24]
     514:	e5903004 	ldr	r3, [r0, #4]
     518:	e5d32016 	ldrb	r2, [r3, #22]
     51c:	e3520000 	cmp	r2, #0
     520:	03a02018 	moveq	r2, #24
     524:	05c32001 	strbeq	r2, [r3, #1]
     528:	e3a02000 	mov	r2, #0
     52c:	e1a01002 	mov	r1, r2
     530:	eafffffe 	b	1a8 <RDMHandler::CreateRespondMessage(unsigned char, unsigned short)>
     534:	00000000 	andeq	r0, r0, r0

00000538 <RDMHandler::GetProductDetailIdList(unsigned short)>:
     538:	e3a0c002 	mov	ip, #2
     53c:	e59f3038 	ldr	r3, [pc, #56]	; 57c <RDMHandler::GetProductDetailIdList(unsigned short)+0x44>
     540:	e5933000 	ldr	r3, [r3]
     544:	e1d325b4 	ldrh	r2, [r3, #84]	; 0x54
     548:	e5903008 	ldr	r3, [r0, #8]
     54c:	e1a01422 	lsr	r1, r2, #8
     550:	e5c31018 	strb	r1, [r3, #24]
     554:	e5c32019 	strb	r2, [r3, #25]
     558:	e5c3c017 	strb	ip, [r3, #23]
     55c:	e5903004 	ldr	r3, [r0, #4]
     560:	e5d32016 	ldrb	r2, [r3, #22]
     564:	e3520000 	cmp	r2, #0
     568:	03a02018 	moveq	r2, #24
     56c:	05c32001 	strbeq	r2, [r3, #1]
     570:	e3a02000 	mov	r2, #0
     574:	e1a01002 	mov	r1, r2
     578:	eafffffe 	b	1a8 <RDMHandler::CreateRespondMessage(unsigned char, unsigned short)>
     57c:	00000000 	andeq	r0, r0, r0

00000580 <RDMHandler::GetDisplayLevel(unsigned short)>:
     580:	e3a01001 	mov	r1, #1
     584:	e59f3038 	ldr	r3, [pc, #56]	; 5c4 <RDMHandler::GetDisplayLevel(unsigned short)+0x44>
     588:	e5902008 	ldr	r2, [r0, #8]
     58c:	e5933000 	ldr	r3, [r3]
     590:	e5c21017 	strb	r1, [r2, #23]
     594:	e5933018 	ldr	r3, [r3, #24]
     598:	e3530000 	cmp	r3, #0
     59c:	15d33006 	ldrbne	r3, [r3, #6]
     5a0:	e5c23018 	strb	r3, [r2, #24]
     5a4:	e5903004 	ldr	r3, [r0, #4]
     5a8:	e5d32016 	ldrb	r2, [r3, #22]
     5ac:	e3520000 	cmp	r2, #0
     5b0:	03a02018 	moveq	r2, #24
     5b4:	05c32001 	strbeq	r2, [r3, #1]
     5b8:	e3a02000 	mov	r2, #0
     5bc:	e1a01002 	mov	r1, r2
     5c0:	eafffffe 	b	1a8 <RDMHandler::CreateRespondMessage(unsigned char, unsigned short)>
     5c4:	00000000 	andeq	r0, r0, r0

000005c8 <RDMHandler::GetLanguage(unsigned short)>:
     5c8:	e3a01002 	mov	r1, #2
     5cc:	e59f3038 	ldr	r3, [pc, #56]	; 60c <RDMHandler::GetLanguage(unsigned short)+0x44>
     5d0:	e5932000 	ldr	r2, [r3]
     5d4:	e5903008 	ldr	r3, [r0, #8]
     5d8:	e5c31017 	strb	r1, [r3, #23]
     5dc:	e5d210c3 	ldrb	r1, [r2, #195]	; 0xc3
     5e0:	e5c31018 	strb	r1, [r3, #24]
     5e4:	e5d220c4 	ldrb	r2, [r2, #196]	; 0xc4
     5e8:	e5c32019 	strb	r2, [r3, #25]
     5ec:	e5903004 	ldr	r3, [r0, #4]
     5f0:	e5d32016 	ldrb	r2, [r3, #22]
     5f4:	e3520000 	cmp	r2, #0
     5f8:	03a02018 	moveq	r2, #24
     5fc:	05c32001 	strbeq	r2, [r3, #1]
     600:	e3a02000 	mov	r2, #0
     604:	e1a01002 	mov	r1, r2
     608:	eafffffe 	b	1a8 <RDMHandler::CreateRespondMessage(unsigned char, unsigned short)>
     60c:	00000000 	andeq	r0, r0, r0

00000610 <RDMHandler::GetDisplayInvert(unsigned short)>:
     610:	e3a01001 	mov	r1, #1
     614:	e59f3038 	ldr	r3, [pc, #56]	; 654 <RDMHandler::GetDisplayInvert(unsigned short)+0x44>
     618:	e5902008 	ldr	r2, [r0, #8]
     61c:	e5933000 	ldr	r3, [r3]
     620:	e5c21017 	strb	r1, [r2, #23]
     624:	e5933018 	ldr	r3, [r3, #24]
     628:	e3530000 	cmp	r3, #0
     62c:	15d33007 	ldrbne	r3, [r3, #7]
     630:	e5c23018 	strb	r3, [r2, #24]
     634:	e5903004 	ldr	r3, [r0, #4]
     638:	e5d32016 	ldrb	r2, [r3, #22]
     63c:	e3520000 	cmp	r2, #0
     640:	03a02018 	moveq	r2, #24
     644:	05c32001 	strbeq	r2, [r3, #1]
     648:	e3a02000 	mov	r2, #0
     64c:	e1a01002 	mov	r1, r2
     650:	eafffffe 	b	1a8 <RDMHandler::CreateRespondMessage(unsigned char, unsigned short)>
     654:	00000000 	andeq	r0, r0, r0

00000658 <RDMHandler::GetManufacturerLabel(unsigned short)>:
     658:	e92d40f0 	push	{r4, r5, r6, r7, lr}
     65c:	e59f319c 	ldr	r3, [pc, #412]	; 800 <RDMHandler::GetManufacturerLabel(unsigned short)+0x1a8>
     660:	e5902008 	ldr	r2, [r0, #8]
     664:	e593c000 	ldr	ip, [r3]
     668:	e5dce050 	ldrb	lr, [ip, #80]	; 0x50
     66c:	e35e0000 	cmp	lr, #0
     670:	e5c2e017 	strb	lr, [r2, #23]
     674:	0a000058 	beq	7dc <RDMHandler::GetManufacturerLabel(unsigned short)+0x184>
     678:	e35e0020 	cmp	lr, #32
     67c:	e3a05000 	mov	r5, #0
     680:	e24e601f 	sub	r6, lr, #31
     684:	9a000049 	bls	7b0 <RDMHandler::GetManufacturerLabel(unsigned short)+0x158>
     688:	e28c1052 	add	r1, ip, #82	; 0x52
     68c:	e282303a 	add	r3, r2, #58	; 0x3a
     690:	e5514022 	ldrb	r4, [r1, #-34]	; 0xffffffde
     694:	f5d1f000 	pld	[r1]
     698:	e5434022 	strb	r4, [r3, #-34]	; 0xffffffde
     69c:	e5514021 	ldrb	r4, [r1, #-33]	; 0xffffffdf
     6a0:	f5d3f000 	pld	[r3]
     6a4:	e5434021 	strb	r4, [r3, #-33]	; 0xffffffdf
     6a8:	e5514020 	ldrb	r4, [r1, #-32]	; 0xffffffe0
     6ac:	e2833020 	add	r3, r3, #32
     6b0:	e5434040 	strb	r4, [r3, #-64]	; 0xffffffc0
     6b4:	e551401f 	ldrb	r4, [r1, #-31]	; 0xffffffe1
     6b8:	e2811020 	add	r1, r1, #32
     6bc:	e543403f 	strb	r4, [r3, #-63]	; 0xffffffc1
     6c0:	e551403e 	ldrb	r4, [r1, #-62]	; 0xffffffc2
     6c4:	e543403e 	strb	r4, [r3, #-62]	; 0xffffffc2
     6c8:	e551403d 	ldrb	r4, [r1, #-61]	; 0xffffffc3
     6cc:	e543403d 	strb	r4, [r3, #-61]	; 0xffffffc3
     6d0:	e551403c 	ldrb	r4, [r1, #-60]	; 0xffffffc4
     6d4:	e543403c 	strb	r4, [r3, #-60]	; 0xffffffc4
     6d8:	e551403b 	ldrb	r4, [r1, #-59]	; 0xffffffc5
     6dc:	e543403b 	strb	r4, [r3, #-59]	; 0xffffffc5
     6e0:	e551403a 	ldrb	r4, [r1, #-58]	; 0xffffffc6
     6e4:	e543403a 	strb	r4, [r3, #-58]	; 0xffffffc6
     6e8:	e5514039 	ldrb	r4, [r1, #-57]	; 0xffffffc7
     6ec:	e5434039 	strb	r4, [r3, #-57]	; 0xffffffc7
     6f0:	e5514038 	ldrb	r4, [r1, #-56]	; 0xffffffc8
     6f4:	e5434038 	strb	r4, [r3, #-56]	; 0xffffffc8
     6f8:	e5514037 	ldrb	r4, [r1, #-55]	; 0xffffffc9
     6fc:	e5434037 	strb	r4, [r3, #-55]	; 0xffffffc9
     700:	e5514036 	ldrb	r4, [r1, #-54]	; 0xffffffca
     704:	e5434036 	strb	r4, [r3, #-54]	; 0xffffffca
     708:	e5514035 	ldrb	r4, [r1, #-53]	; 0xffffffcb
     70c:	e5434035 	strb	r4, [r3, #-53]	; 0xffffffcb
     710:	e5514034 	ldrb	r4, [r1, #-52]	; 0xffffffcc
     714:	e5434034 	strb	r4, [r3, #-52]	; 0xffffffcc
     718:	e5514033 	ldrb	r4, [r1, #-51]	; 0xffffffcd
     71c:	e5434033 	strb	r4, [r3, #-51]	; 0xffffffcd
     720:	e5514032 	ldrb	r4, [r1, #-50]	; 0xffffffce
     724:	e5434032 	strb	r4, [r3, #-50]	; 0xffffffce
     728:	e5514031 	ldrb	r4, [r1, #-49]	; 0xffffffcf
     72c:	e5434031 	strb	r4, [r3, #-49]	; 0xffffffcf
     730:	e5514030 	ldrb	r4, [r1, #-48]	; 0xffffffd0
     734:	e5434030 	strb	r4, [r3, #-48]	; 0xffffffd0
     738:	e551402f 	ldrb	r4, [r1, #-47]	; 0xffffffd1
     73c:	e543402f 	strb	r4, [r3, #-47]	; 0xffffffd1
     740:	e551402e 	ldrb	r4, [r1, #-46]	; 0xffffffd2
     744:	e543402e 	strb	r4, [r3, #-46]	; 0xffffffd2
     748:	e551702d 	ldrb	r7, [r1, #-45]	; 0xffffffd3
     74c:	e2854021 	add	r4, r5, #33	; 0x21
     750:	e543702d 	strb	r7, [r3, #-45]	; 0xffffffd3
     754:	e551702c 	ldrb	r7, [r1, #-44]	; 0xffffffd4
     758:	e1560004 	cmp	r6, r4
     75c:	e543702c 	strb	r7, [r3, #-44]	; 0xffffffd4
     760:	e551702b 	ldrb	r7, [r1, #-43]	; 0xffffffd5
     764:	e2855020 	add	r5, r5, #32
     768:	e543702b 	strb	r7, [r3, #-43]	; 0xffffffd5
     76c:	e551702a 	ldrb	r7, [r1, #-42]	; 0xffffffd6
     770:	e543702a 	strb	r7, [r3, #-42]	; 0xffffffd6
     774:	e5514029 	ldrb	r4, [r1, #-41]	; 0xffffffd7
     778:	e5434029 	strb	r4, [r3, #-41]	; 0xffffffd7
     77c:	e5514028 	ldrb	r4, [r1, #-40]	; 0xffffffd8
     780:	e5434028 	strb	r4, [r3, #-40]	; 0xffffffd8
     784:	e5514027 	ldrb	r4, [r1, #-39]	; 0xffffffd9
     788:	e5434027 	strb	r4, [r3, #-39]	; 0xffffffd9
     78c:	e5514026 	ldrb	r4, [r1, #-38]	; 0xffffffda
     790:	e5434026 	strb	r4, [r3, #-38]	; 0xffffffda
     794:	e5514025 	ldrb	r4, [r1, #-37]	; 0xffffffdb
     798:	e5434025 	strb	r4, [r3, #-37]	; 0xffffffdb
     79c:	e5514024 	ldrb	r4, [r1, #-36]	; 0xffffffdc
     7a0:	e5434024 	strb	r4, [r3, #-36]	; 0xffffffdc
     7a4:	e5514023 	ldrb	r4, [r1, #-35]	; 0xffffffdd
     7a8:	e5434023 	strb	r4, [r3, #-35]	; 0xffffffdd
     7ac:	8affffb7 	bhi	690 <RDMHandler::GetManufacturerLabel(unsigned short)+0x38>
     7b0:	e3e0402f 	mvn	r4, #47	; 0x2f
     7b4:	e2853030 	add	r3, r5, #48	; 0x30
     7b8:	e2855018 	add	r5, r5, #24
     7bc:	e0822005 	add	r2, r2, r5
     7c0:	e08c3003 	add	r3, ip, r3
     7c4:	e044400c 	sub	r4, r4, ip
     7c8:	e4d31001 	ldrb	r1, [r3], #1
     7cc:	e084c003 	add	ip, r4, r3
     7d0:	e15e000c 	cmp	lr, ip
     7d4:	e4c21001 	strb	r1, [r2], #1
     7d8:	8afffffa 	bhi	7c8 <RDMHandler::GetManufacturerLabel(unsigned short)+0x170>
     7dc:	e5903004 	ldr	r3, [r0, #4]
     7e0:	e5d32016 	ldrb	r2, [r3, #22]
     7e4:	e3520000 	cmp	r2, #0
     7e8:	03a02018 	moveq	r2, #24
     7ec:	05c32001 	strbeq	r2, [r3, #1]
     7f0:	e3a02000 	mov	r2, #0
     7f4:	e8bd40f0 	pop	{r4, r5, r6, r7, lr}
     7f8:	e1a01002 	mov	r1, r2
     7fc:	eafffffe 	b	1a8 <RDMHandler::CreateRespondMessage(unsigned char, unsigned short)>
     800:	00000000 	andeq	r0, r0, r0

00000804 <RDMHandler::GetDeviceHours(unsigned short)>:
     804:	e92d4010 	push	{r4, lr}
     808:	e1a04000 	mov	r4, r0
     80c:	ebfffffe 	bl	0 <hardware_uptime_seconds>
     810:	e3a01000 	mov	r1, #0
     814:	e3a0c004 	mov	ip, #4
     818:	e5942008 	ldr	r2, [r4, #8]
     81c:	e59fe048 	ldr	lr, [pc, #72]	; 86c <RDMHandler::GetDeviceHours(unsigned short)+0x68>
     820:	e5c21018 	strb	r1, [r2, #24]
     824:	e083109e 	umull	r1, r3, lr, r0
     828:	e1a015a3 	lsr	r1, r3, #11
     82c:	e1a00da3 	lsr	r0, r3, #27
     830:	e1a039a3 	lsr	r3, r3, #19
     834:	e5c20019 	strb	r0, [r2, #25]
     838:	e5c2101b 	strb	r1, [r2, #27]
     83c:	e5c2c017 	strb	ip, [r2, #23]
     840:	e5c2301a 	strb	r3, [r2, #26]
     844:	e5943004 	ldr	r3, [r4, #4]
     848:	e1a00004 	mov	r0, r4
     84c:	e5d32016 	ldrb	r2, [r3, #22]
     850:	e3520000 	cmp	r2, #0
     854:	03a02018 	moveq	r2, #24
     858:	05c32001 	strbeq	r2, [r3, #1]
     85c:	e3a02000 	mov	r2, #0
     860:	e8bd4010 	pop	{r4, lr}
     864:	e1a01002 	mov	r1, r2
     868:	eafffffe 	b	1a8 <RDMHandler::CreateRespondMessage(unsigned char, unsigned short)>
     86c:	91a2b3c5 			; <UNDEFINED> instruction: 0x91a2b3c5

00000870 <RDMHandler::GetSoftwareVersionLabel(unsigned short)>:
     870:	e92d41f0 	push	{r4, r5, r6, r7, r8, lr}
     874:	e59f31b4 	ldr	r3, [pc, #436]	; a30 <RDMHandler::GetSoftwareVersionLabel(unsigned short)+0x1c0>
     878:	e5901008 	ldr	r1, [r0, #8]
     87c:	e5933000 	ldr	r3, [r3]
     880:	e5d3e09c 	ldrb	lr, [r3, #156]	; 0x9c
     884:	e5934098 	ldr	r4, [r3, #152]	; 0x98
     888:	e35e0000 	cmp	lr, #0
     88c:	e5c1e017 	strb	lr, [r1, #23]
     890:	0a00005b 	beq	a04 <RDMHandler::GetSoftwareVersionLabel(unsigned short)+0x194>
     894:	e35e0020 	cmp	lr, #32
     898:	e24e601f 	sub	r6, lr, #31
     89c:	9a000061 	bls	a28 <RDMHandler::GetSoftwareVersionLabel(unsigned short)+0x1b8>
     8a0:	e3e05001 	mvn	r5, #1
     8a4:	e3e0c020 	mvn	ip, #32
     8a8:	e2843022 	add	r3, r4, #34	; 0x22
     8ac:	e281203a 	add	r2, r1, #58	; 0x3a
     8b0:	e0455004 	sub	r5, r5, r4
     8b4:	e04cc004 	sub	ip, ip, r4
     8b8:	e5537022 	ldrb	r7, [r3, #-34]	; 0xffffffde
     8bc:	f5d3f000 	pld	[r3]
     8c0:	e5427022 	strb	r7, [r2, #-34]	; 0xffffffde
     8c4:	e5537021 	ldrb	r7, [r3, #-33]	; 0xffffffdf
     8c8:	f5d2f000 	pld	[r2]
     8cc:	e5427021 	strb	r7, [r2, #-33]	; 0xffffffdf
     8d0:	e5537020 	ldrb	r7, [r3, #-32]	; 0xffffffe0
     8d4:	e2822020 	add	r2, r2, #32
     8d8:	e5427040 	strb	r7, [r2, #-64]	; 0xffffffc0
     8dc:	e553701f 	ldrb	r7, [r3, #-31]	; 0xffffffe1
     8e0:	e542703f 	strb	r7, [r2, #-63]	; 0xffffffc1
     8e4:	e553701e 	ldrb	r7, [r3, #-30]	; 0xffffffe2
     8e8:	e542703e 	strb	r7, [r2, #-62]	; 0xffffffc2
     8ec:	e553701d 	ldrb	r7, [r3, #-29]	; 0xffffffe3
     8f0:	e542703d 	strb	r7, [r2, #-61]	; 0xffffffc3
     8f4:	e553701c 	ldrb	r7, [r3, #-28]	; 0xffffffe4
     8f8:	e542703c 	strb	r7, [r2, #-60]	; 0xffffffc4
     8fc:	e553701b 	ldrb	r7, [r3, #-27]	; 0xffffffe5
     900:	e542703b 	strb	r7, [r2, #-59]	; 0xffffffc5
     904:	e553701a 	ldrb	r7, [r3, #-26]	; 0xffffffe6
     908:	e542703a 	strb	r7, [r2, #-58]	; 0xffffffc6
     90c:	e5537019 	ldrb	r7, [r3, #-25]	; 0xffffffe7
     910:	e5427039 	strb	r7, [r2, #-57]	; 0xffffffc7
     914:	e5537018 	ldrb	r7, [r3, #-24]	; 0xffffffe8
     918:	e5427038 	strb	r7, [r2, #-56]	; 0xffffffc8
     91c:	e5537017 	ldrb	r7, [r3, #-23]	; 0xffffffe9
     920:	e5427037 	strb	r7, [r2, #-55]	; 0xffffffc9
     924:	e5537016 	ldrb	r7, [r3, #-22]	; 0xffffffea
     928:	e5427036 	strb	r7, [r2, #-54]	; 0xffffffca
     92c:	e5537015 	ldrb	r7, [r3, #-21]	; 0xffffffeb
     930:	e5427035 	strb	r7, [r2, #-53]	; 0xffffffcb
     934:	e5537014 	ldrb	r7, [r3, #-20]	; 0xffffffec
     938:	e5427034 	strb	r7, [r2, #-52]	; 0xffffffcc
     93c:	e5537013 	ldrb	r7, [r3, #-19]	; 0xffffffed
     940:	e5427033 	strb	r7, [r2, #-51]	; 0xffffffcd
     944:	e5537012 	ldrb	r7, [r3, #-18]	; 0xffffffee
     948:	e5427032 	strb	r7, [r2, #-50]	; 0xffffffce
     94c:	e5537011 	ldrb	r7, [r3, #-17]	; 0xffffffef
     950:	e5427031 	strb	r7, [r2, #-49]	; 0xffffffcf
     954:	e5537010 	ldrb	r7, [r3, #-16]
     958:	e5427030 	strb	r7, [r2, #-48]	; 0xffffffd0
     95c:	e553700f 	ldrb	r7, [r3, #-15]
     960:	e542702f 	strb	r7, [r2, #-47]	; 0xffffffd1
     964:	e553700e 	ldrb	r7, [r3, #-14]
     968:	e542702e 	strb	r7, [r2, #-46]	; 0xffffffd2
     96c:	e553700d 	ldrb	r7, [r3, #-13]
     970:	e542702d 	strb	r7, [r2, #-45]	; 0xffffffd3
     974:	e553700c 	ldrb	r7, [r3, #-12]
     978:	e542702c 	strb	r7, [r2, #-44]	; 0xffffffd4
     97c:	e553700b 	ldrb	r7, [r3, #-11]
     980:	e542702b 	strb	r7, [r2, #-43]	; 0xffffffd5
     984:	e553700a 	ldrb	r7, [r3, #-10]
     988:	e542702a 	strb	r7, [r2, #-42]	; 0xffffffd6
     98c:	e5537009 	ldrb	r7, [r3, #-9]
     990:	e5427029 	strb	r7, [r2, #-41]	; 0xffffffd7
     994:	e5537008 	ldrb	r7, [r3, #-8]
     998:	e5427028 	strb	r7, [r2, #-40]	; 0xffffffd8
     99c:	e5537007 	ldrb	r7, [r3, #-7]
     9a0:	e5427027 	strb	r7, [r2, #-39]	; 0xffffffd9
     9a4:	e5537006 	ldrb	r7, [r3, #-6]
     9a8:	e5427026 	strb	r7, [r2, #-38]	; 0xffffffda
     9ac:	e5537005 	ldrb	r7, [r3, #-5]
     9b0:	e5427025 	strb	r7, [r2, #-37]	; 0xffffffdb
     9b4:	e5537004 	ldrb	r7, [r3, #-4]
     9b8:	e5427024 	strb	r7, [r2, #-36]	; 0xffffffdc
     9bc:	e5537003 	ldrb	r7, [r3, #-3]
     9c0:	e5427023 	strb	r7, [r2, #-35]	; 0xffffffdd
     9c4:	e0857003 	add	r7, r5, r3
     9c8:	e2833020 	add	r3, r3, #32
     9cc:	e08c8003 	add	r8, ip, r3
     9d0:	e1560008 	cmp	r6, r8
     9d4:	8affffb7 	bhi	8b8 <RDMHandler::GetSoftwareVersionLabel(unsigned short)+0x48>
     9d8:	e2472001 	sub	r2, r7, #1
     9dc:	e2877018 	add	r7, r7, #24
     9e0:	e0811007 	add	r1, r1, r7
     9e4:	e0842002 	add	r2, r4, r2
     9e8:	e1a03002 	mov	r3, r2
     9ec:	e2833002 	add	r3, r3, #2
     9f0:	e5f2c001 	ldrb	ip, [r2, #1]!
     9f4:	e0433004 	sub	r3, r3, r4
     9f8:	e15e0003 	cmp	lr, r3
     9fc:	e4c1c001 	strb	ip, [r1], #1
     a00:	8afffff8 	bhi	9e8 <RDMHandler::GetSoftwareVersionLabel(unsigned short)+0x178>
     a04:	e5903004 	ldr	r3, [r0, #4]
     a08:	e5d32016 	ldrb	r2, [r3, #22]
     a0c:	e3520000 	cmp	r2, #0
     a10:	03a02018 	moveq	r2, #24
     a14:	05c32001 	strbeq	r2, [r3, #1]
     a18:	e3a02000 	mov	r2, #0
     a1c:	e8bd41f0 	pop	{r4, r5, r6, r7, r8, lr}
     a20:	e1a01002 	mov	r1, r2
     a24:	eafffffe 	b	1a8 <RDMHandler::CreateRespondMessage(unsigned char, unsigned short)>
     a28:	e3a07000 	mov	r7, #0
     a2c:	eaffffe9 	b	9d8 <RDMHandler::GetSoftwareVersionLabel(unsigned short)+0x168>
     a30:	00000000 	andeq	r0, r0, r0

00000a34 <RDMHandler::GetDeviceModelDescription(unsigned short)>:
     a34:	e92d41f0 	push	{r4, r5, r6, r7, r8, lr}
     a38:	e1a04000 	mov	r4, r0
     a3c:	e59f31c4 	ldr	r3, [pc, #452]	; c08 <RDMHandler::GetDeviceModelDescription(unsigned short)+0x1d4>
     a40:	e24dd008 	sub	sp, sp, #8
     a44:	e28d1007 	add	r1, sp, #7
     a48:	e5930000 	ldr	r0, [r3]
     a4c:	ebfffffe 	bl	0 <Hardware::GetBoardName(unsigned char&)>
     a50:	e5dde007 	ldrb	lr, [sp, #7]
     a54:	e5941008 	ldr	r1, [r4, #8]
     a58:	e35e0000 	cmp	lr, #0
     a5c:	e5c1e017 	strb	lr, [r1, #23]
     a60:	0a00005b 	beq	bd4 <RDMHandler::GetDeviceModelDescription(unsigned short)+0x1a0>
     a64:	e35e0020 	cmp	lr, #32
     a68:	e24e601f 	sub	r6, lr, #31
     a6c:	9a000063 	bls	c00 <RDMHandler::GetDeviceModelDescription(unsigned short)+0x1cc>
     a70:	e3e05001 	mvn	r5, #1
     a74:	e3e0c020 	mvn	ip, #32
     a78:	e2803022 	add	r3, r0, #34	; 0x22
     a7c:	e281203a 	add	r2, r1, #58	; 0x3a
     a80:	e0455000 	sub	r5, r5, r0
     a84:	e04cc000 	sub	ip, ip, r0
     a88:	e5537022 	ldrb	r7, [r3, #-34]	; 0xffffffde
     a8c:	f5d3f000 	pld	[r3]
     a90:	e5427022 	strb	r7, [r2, #-34]	; 0xffffffde
     a94:	e5537021 	ldrb	r7, [r3, #-33]	; 0xffffffdf
     a98:	f5d2f000 	pld	[r2]
     a9c:	e5427021 	strb	r7, [r2, #-33]	; 0xffffffdf
     aa0:	e5537020 	ldrb	r7, [r3, #-32]	; 0xffffffe0
     aa4:	e2822020 	add	r2, r2, #32
     aa8:	e5427040 	strb	r7, [r2, #-64]	; 0xffffffc0
     aac:	e553701f 	ldrb	r7, [r3, #-31]	; 0xffffffe1
     ab0:	e542703f 	strb	r7, [r2, #-63]	; 0xffffffc1
     ab4:	e553701e 	ldrb	r7, [r3, #-30]	; 0xffffffe2
     ab8:	e542703e 	strb	r7, [r2, #-62]	; 0xffffffc2
     abc:	e553701d 	ldrb	r7, [r3, #-29]	; 0xffffffe3
     ac0:	e542703d 	strb	r7, [r2, #-61]	; 0xffffffc3
     ac4:	e553701c 	ldrb	r7, [r3, #-28]	; 0xffffffe4
     ac8:	e542703c 	strb	r7, [r2, #-60]	; 0xffffffc4
     acc:	e553701b 	ldrb	r7, [r3, #-27]	; 0xffffffe5
     ad0:	e542703b 	strb	r7, [r2, #-59]	; 0xffffffc5
     ad4:	e553701a 	ldrb	r7, [r3, #-26]	; 0xffffffe6
     ad8:	e542703a 	strb	r7, [r2, #-58]	; 0xffffffc6
     adc:	e5537019 	ldrb	r7, [r3, #-25]	; 0xffffffe7
     ae0:	e5427039 	strb	r7, [r2, #-57]	; 0xffffffc7
     ae4:	e5537018 	ldrb	r7, [r3, #-24]	; 0xffffffe8
     ae8:	e5427038 	strb	r7, [r2, #-56]	; 0xffffffc8
     aec:	e5537017 	ldrb	r7, [r3, #-23]	; 0xffffffe9
     af0:	e5427037 	strb	r7, [r2, #-55]	; 0xffffffc9
     af4:	e5537016 	ldrb	r7, [r3, #-22]	; 0xffffffea
     af8:	e5427036 	strb	r7, [r2, #-54]	; 0xffffffca
     afc:	e5537015 	ldrb	r7, [r3, #-21]	; 0xffffffeb
     b00:	e5427035 	strb	r7, [r2, #-53]	; 0xffffffcb
     b04:	e5537014 	ldrb	r7, [r3, #-20]	; 0xffffffec
     b08:	e5427034 	strb	r7, [r2, #-52]	; 0xffffffcc
     b0c:	e5537013 	ldrb	r7, [r3, #-19]	; 0xffffffed
     b10:	e5427033 	strb	r7, [r2, #-51]	; 0xffffffcd
     b14:	e5537012 	ldrb	r7, [r3, #-18]	; 0xffffffee
     b18:	e5427032 	strb	r7, [r2, #-50]	; 0xffffffce
     b1c:	e5537011 	ldrb	r7, [r3, #-17]	; 0xffffffef
     b20:	e5427031 	strb	r7, [r2, #-49]	; 0xffffffcf
     b24:	e5537010 	ldrb	r7, [r3, #-16]
     b28:	e5427030 	strb	r7, [r2, #-48]	; 0xffffffd0
     b2c:	e553700f 	ldrb	r7, [r3, #-15]
     b30:	e542702f 	strb	r7, [r2, #-47]	; 0xffffffd1
     b34:	e553700e 	ldrb	r7, [r3, #-14]
     b38:	e542702e 	strb	r7, [r2, #-46]	; 0xffffffd2
     b3c:	e553700d 	ldrb	r7, [r3, #-13]
     b40:	e542702d 	strb	r7, [r2, #-45]	; 0xffffffd3
     b44:	e553700c 	ldrb	r7, [r3, #-12]
     b48:	e542702c 	strb	r7, [r2, #-44]	; 0xffffffd4
     b4c:	e553700b 	ldrb	r7, [r3, #-11]
     b50:	e542702b 	strb	r7, [r2, #-43]	; 0xffffffd5
     b54:	e553700a 	ldrb	r7, [r3, #-10]
     b58:	e542702a 	strb	r7, [r2, #-42]	; 0xffffffd6
     b5c:	e5537009 	ldrb	r7, [r3, #-9]
     b60:	e5427029 	strb	r7, [r2, #-41]	; 0xffffffd7
     b64:	e5537008 	ldrb	r7, [r3, #-8]
     b68:	e5427028 	strb	r7, [r2, #-40]	; 0xffffffd8
     b6c:	e5537007 	ldrb	r7, [r3, #-7]
     b70:	e5427027 	strb	r7, [r2, #-39]	; 0xffffffd9
     b74:	e5537006 	ldrb	r7, [r3, #-6]
     b78:	e5427026 	strb	r7, [r2, #-38]	; 0xffffffda
     b7c:	e5537005 	ldrb	r7, [r3, #-5]
     b80:	e5427025 	strb	r7, [r2, #-37]	; 0xffffffdb
     b84:	e5537004 	ldrb	r7, [r3, #-4]
     b88:	e5427024 	strb	r7, [r2, #-36]	; 0xffffffdc
     b8c:	e5537003 	ldrb	r7, [r3, #-3]
     b90:	e5427023 	strb	r7, [r2, #-35]	; 0xffffffdd
     b94:	e0857003 	add	r7, r5, r3
     b98:	e2833020 	add	r3, r3, #32
     b9c:	e08c8003 	add	r8, ip, r3
     ba0:	e1560008 	cmp	r6, r8
     ba4:	8affffb7 	bhi	a88 <RDMHandler::GetDeviceModelDescription(unsigned short)+0x54>
     ba8:	e2472001 	sub	r2, r7, #1
     bac:	e2877018 	add	r7, r7, #24
     bb0:	e0811007 	add	r1, r1, r7
     bb4:	e0802002 	add	r2, r0, r2
     bb8:	e1a03002 	mov	r3, r2
     bbc:	e2833002 	add	r3, r3, #2
     bc0:	e5f2c001 	ldrb	ip, [r2, #1]!
     bc4:	e0433000 	sub	r3, r3, r0
     bc8:	e15e0003 	cmp	lr, r3
     bcc:	e4c1c001 	strb	ip, [r1], #1
     bd0:	8afffff8 	bhi	bb8 <RDMHandler::GetDeviceModelDescription(unsigned short)+0x184>
     bd4:	e5943004 	ldr	r3, [r4, #4]
     bd8:	e1a00004 	mov	r0, r4
     bdc:	e5d32016 	ldrb	r2, [r3, #22]
     be0:	e3520000 	cmp	r2, #0
     be4:	03a02018 	moveq	r2, #24
     be8:	05c32001 	strbeq	r2, [r3, #1]
     bec:	e3a02000 	mov	r2, #0
     bf0:	e1a01002 	mov	r1, r2
     bf4:	ebfffffe 	bl	1a8 <RDMHandler::CreateRespondMessage(unsigned char, unsigned short)>
     bf8:	e28dd008 	add	sp, sp, #8
     bfc:	e8bd81f0 	pop	{r4, r5, r6, r7, r8, pc}
     c00:	e3a07000 	mov	r7, #0
     c04:	eaffffe7 	b	ba8 <RDMHandler::GetDeviceModelDescription(unsigned short)+0x174>
     c08:	00000000 	andeq	r0, r0, r0

00000c0c <RDMHandler::GetDmxStartAddress(unsigned short)>:
     c0c:	e59f3070 	ldr	r3, [pc, #112]	; c84 <RDMHandler::GetDmxStartAddress(unsigned short)+0x78>
     c10:	e3510000 	cmp	r1, #0
     c14:	e92d4010 	push	{r4, lr}
     c18:	e5932000 	ldr	r2, [r3]
     c1c:	e1a04000 	mov	r4, r0
     c20:	1a000013 	bne	c74 <RDMHandler::GetDmxStartAddress(unsigned short)+0x68>
     c24:	e5d200ab 	ldrb	r0, [r2, #171]	; 0xab
     c28:	e5d230ac 	ldrb	r3, [r2, #172]	; 0xac
     c2c:	e0833400 	add	r3, r3, r0, lsl #8
     c30:	e6ff3073 	uxth	r3, r3
     c34:	e3a01002 	mov	r1, #2
     c38:	e5942008 	ldr	r2, [r4, #8]
     c3c:	e1a00423 	lsr	r0, r3, #8
     c40:	e5c20018 	strb	r0, [r2, #24]
     c44:	e5c21017 	strb	r1, [r2, #23]
     c48:	e5c23019 	strb	r3, [r2, #25]
     c4c:	e5943004 	ldr	r3, [r4, #4]
     c50:	e1a00004 	mov	r0, r4
     c54:	e5d32016 	ldrb	r2, [r3, #22]
     c58:	e3520000 	cmp	r2, #0
     c5c:	03a02018 	moveq	r2, #24
     c60:	05c32001 	strbeq	r2, [r3, #1]
     c64:	e3a02000 	mov	r2, #0
     c68:	e8bd4010 	pop	{r4, lr}
     c6c:	e1a01002 	mov	r1, r2
     c70:	eafffffe 	b	1a8 <RDMHandler::CreateRespondMessage(unsigned char, unsigned short)>
     c74:	e282008c 	add	r0, r2, #140	; 0x8c
     c78:	ebfffffe 	bl	0 <RDMSubDevices::GetDmxStartAddress(unsigned short)>
     c7c:	e1a03000 	mov	r3, r0
     c80:	eaffffeb 	b	c34 <RDMHandler::GetDmxStartAddress(unsigned short)+0x28>
     c84:	00000000 	andeq	r0, r0, r0

00000c88 <RDMHandler::GetBootSoftwareVersionLabel(unsigned short)>:
     c88:	e92d4010 	push	{r4, lr}
     c8c:	e59f3080 	ldr	r3, [pc, #128]	; d14 <RDMHandler::GetBootSoftwareVersionLabel(unsigned short)+0x8c>
     c90:	e24dd008 	sub	sp, sp, #8
     c94:	e1a04000 	mov	r4, r0
     c98:	e28d1007 	add	r1, sp, #7
     c9c:	e5930000 	ldr	r0, [r3]
     ca0:	ebfffffe 	bl	0 <Hardware::GetSysName(unsigned char&)>
     ca4:	e5dd3007 	ldrb	r3, [sp, #7]
     ca8:	e5941008 	ldr	r1, [r4, #8]
     cac:	e3530020 	cmp	r3, #32
     cb0:	31a0e003 	movcc	lr, r3
     cb4:	23a0e020 	movcs	lr, #32
     cb8:	e3530000 	cmp	r3, #0
     cbc:	e5c1e017 	strb	lr, [r1, #23]
     cc0:	0a000008 	beq	ce8 <RDMHandler::GetBootSoftwareVersionLabel(unsigned short)+0x60>
     cc4:	e2402001 	sub	r2, r0, #1
     cc8:	e2811018 	add	r1, r1, #24
     ccc:	e1a03002 	mov	r3, r2
     cd0:	e2833002 	add	r3, r3, #2
     cd4:	e5f2c001 	ldrb	ip, [r2, #1]!
     cd8:	e0433000 	sub	r3, r3, r0
     cdc:	e15e0003 	cmp	lr, r3
     ce0:	e4c1c001 	strb	ip, [r1], #1
     ce4:	8afffff8 	bhi	ccc <RDMHandler::GetBootSoftwareVersionLabel(unsigned short)+0x44>
     ce8:	e5943004 	ldr	r3, [r4, #4]
     cec:	e1a00004 	mov	r0, r4
     cf0:	e5d32016 	ldrb	r2, [r3, #22]
     cf4:	e3520000 	cmp	r2, #0
     cf8:	03a02018 	moveq	r2, #24
     cfc:	05c32001 	strbeq	r2, [r3, #1]
     d00:	e3a02000 	mov	r2, #0
     d04:	e1a01002 	mov	r1, r2
     d08:	ebfffffe 	bl	1a8 <RDMHandler::CreateRespondMessage(unsigned char, unsigned short)>
     d0c:	e28dd008 	add	sp, sp, #8
     d10:	e8bd8010 	pop	{r4, pc}
     d14:	00000000 	andeq	r0, r0, r0

00000d18 <RDMHandler::GetPersonality(unsigned short)>:
     d18:	e92d4070 	push	{r4, r5, r6, lr}
     d1c:	e59f6074 	ldr	r6, [pc, #116]	; d98 <RDMHandler::GetPersonality(unsigned short)+0x80>
     d20:	e2515000 	subs	r5, r1, #0
     d24:	e1a04000 	mov	r4, r0
     d28:	e5963000 	ldr	r3, [r6]
     d2c:	1a000010 	bne	d74 <RDMHandler::GetPersonality(unsigned short)+0x5c>
     d30:	e5d350a9 	ldrb	r5, [r3, #169]	; 0xa9
     d34:	e5d300aa 	ldrb	r0, [r3, #170]	; 0xaa
     d38:	e3a02002 	mov	r2, #2
     d3c:	e5943008 	ldr	r3, [r4, #8]
     d40:	e5c30019 	strb	r0, [r3, #25]
     d44:	e5c32017 	strb	r2, [r3, #23]
     d48:	e5c35018 	strb	r5, [r3, #24]
     d4c:	e5943004 	ldr	r3, [r4, #4]
     d50:	e1a00004 	mov	r0, r4
     d54:	e5d32016 	ldrb	r2, [r3, #22]
     d58:	e3520000 	cmp	r2, #0
     d5c:	03a02018 	moveq	r2, #24
     d60:	05c32001 	strbeq	r2, [r3, #1]
     d64:	e3a02000 	mov	r2, #0
     d68:	e8bd4070 	pop	{r4, r5, r6, lr}
     d6c:	e1a01002 	mov	r1, r2
     d70:	eafffffe 	b	1a8 <RDMHandler::CreateRespondMessage(unsigned char, unsigned short)>
     d74:	e283008c 	add	r0, r3, #140	; 0x8c
     d78:	ebfffffe 	bl	0 <RDMSubDevices::GetPersonalityCurrent(unsigned short)>
     d7c:	e1a03000 	mov	r3, r0
     d80:	e5960000 	ldr	r0, [r6]
     d84:	e1a01005 	mov	r1, r5
     d88:	e280008c 	add	r0, r0, #140	; 0x8c
     d8c:	e1a05003 	mov	r5, r3
     d90:	ebfffffe 	bl	0 <RDMSubDevices::GetPersonalityCount(unsigned short)>
     d94:	eaffffe7 	b	d38 <RDMHandler::GetPersonality(unsigned short)+0x20>
     d98:	00000000 	andeq	r0, r0, r0

00000d9c <RDMHandler::GetDeviceLabel(unsigned short)>:
     d9c:	e92d41f0 	push	{r4, r5, r6, r7, r8, lr}
     da0:	e59f31ec 	ldr	r3, [pc, #492]	; f94 <RDMHandler::GetDeviceLabel(unsigned short)+0x1f8>
     da4:	e3510000 	cmp	r1, #0
     da8:	e1a04000 	mov	r4, r0
     dac:	e5933000 	ldr	r3, [r3]
     db0:	e24dd008 	sub	sp, sp, #8
     db4:	1a00006e 	bne	f74 <RDMHandler::GetDeviceLabel(unsigned short)+0x1d8>
     db8:	e5d3e02f 	ldrb	lr, [r3, #47]	; 0x2f
     dbc:	e283000f 	add	r0, r3, #15
     dc0:	e58d0000 	str	r0, [sp]
     dc4:	e5cde004 	strb	lr, [sp, #4]
     dc8:	e5941008 	ldr	r1, [r4, #8]
     dcc:	e35e0000 	cmp	lr, #0
     dd0:	e5c1e017 	strb	lr, [r1, #23]
     dd4:	0a00005b 	beq	f48 <RDMHandler::GetDeviceLabel(unsigned short)+0x1ac>
     dd8:	e35e0020 	cmp	lr, #32
     ddc:	e24e601f 	sub	r6, lr, #31
     de0:	9a000069 	bls	f8c <RDMHandler::GetDeviceLabel(unsigned short)+0x1f0>
     de4:	e3e05001 	mvn	r5, #1
     de8:	e3e0c020 	mvn	ip, #32
     dec:	e2803022 	add	r3, r0, #34	; 0x22
     df0:	e281203a 	add	r2, r1, #58	; 0x3a
     df4:	e0455000 	sub	r5, r5, r0
     df8:	e04cc000 	sub	ip, ip, r0
     dfc:	e5537022 	ldrb	r7, [r3, #-34]	; 0xffffffde
     e00:	f5d3f000 	pld	[r3]
     e04:	e5427022 	strb	r7, [r2, #-34]	; 0xffffffde
     e08:	e5537021 	ldrb	r7, [r3, #-33]	; 0xffffffdf
     e0c:	f5d2f000 	pld	[r2]
     e10:	e5427021 	strb	r7, [r2, #-33]	; 0xffffffdf
     e14:	e5537020 	ldrb	r7, [r3, #-32]	; 0xffffffe0
     e18:	e2822020 	add	r2, r2, #32
     e1c:	e5427040 	strb	r7, [r2, #-64]	; 0xffffffc0
     e20:	e553701f 	ldrb	r7, [r3, #-31]	; 0xffffffe1
     e24:	e542703f 	strb	r7, [r2, #-63]	; 0xffffffc1
     e28:	e553701e 	ldrb	r7, [r3, #-30]	; 0xffffffe2
     e2c:	e542703e 	strb	r7, [r2, #-62]	; 0xffffffc2
     e30:	e553701d 	ldrb	r7, [r3, #-29]	; 0xffffffe3
     e34:	e542703d 	strb	r7, [r2, #-61]	; 0xffffffc3
     e38:	e553701c 	ldrb	r7, [r3, #-28]	; 0xffffffe4
     e3c:	e542703c 	strb	r7, [r2, #-60]	; 0xffffffc4
     e40:	e553701b 	ldrb	r7, [r3, #-27]	; 0xffffffe5
     e44:	e542703b 	strb	r7, [r2, #-59]	; 0xffffffc5
     e48:	e553701a 	ldrb	r7, [r3, #-26]	; 0xffffffe6
     e4c:	e542703a 	strb	r7, [r2, #-58]	; 0xffffffc6
     e50:	e5537019 	ldrb	r7, [r3, #-25]	; 0xffffffe7
     e54:	e5427039 	strb	r7, [r2, #-57]	; 0xffffffc7
     e58:	e5537018 	ldrb	r7, [r3, #-24]	; 0xffffffe8
     e5c:	e5427038 	strb	r7, [r2, #-56]	; 0xffffffc8
     e60:	e5537017 	ldrb	r7, [r3, #-23]	; 0xffffffe9
     e64:	e5427037 	strb	r7, [r2, #-55]	; 0xffffffc9
     e68:	e5537016 	ldrb	r7, [r3, #-22]	; 0xffffffea
     e6c:	e5427036 	strb	r7, [r2, #-54]	; 0xffffffca
     e70:	e5537015 	ldrb	r7, [r3, #-21]	; 0xffffffeb
     e74:	e5427035 	strb	r7, [r2, #-53]	; 0xffffffcb
     e78:	e5537014 	ldrb	r7, [r3, #-20]	; 0xffffffec
     e7c:	e5427034 	strb	r7, [r2, #-52]	; 0xffffffcc
     e80:	e5537013 	ldrb	r7, [r3, #-19]	; 0xffffffed
     e84:	e5427033 	strb	r7, [r2, #-51]	; 0xffffffcd
     e88:	e5537012 	ldrb	r7, [r3, #-18]	; 0xffffffee
     e8c:	e5427032 	strb	r7, [r2, #-50]	; 0xffffffce
     e90:	e5537011 	ldrb	r7, [r3, #-17]	; 0xffffffef
     e94:	e5427031 	strb	r7, [r2, #-49]	; 0xffffffcf
     e98:	e5537010 	ldrb	r7, [r3, #-16]
     e9c:	e5427030 	strb	r7, [r2, #-48]	; 0xffffffd0
     ea0:	e553700f 	ldrb	r7, [r3, #-15]
     ea4:	e542702f 	strb	r7, [r2, #-47]	; 0xffffffd1
     ea8:	e553700e 	ldrb	r7, [r3, #-14]
     eac:	e542702e 	strb	r7, [r2, #-46]	; 0xffffffd2
     eb0:	e553700d 	ldrb	r7, [r3, #-13]
     eb4:	e542702d 	strb	r7, [r2, #-45]	; 0xffffffd3
     eb8:	e553700c 	ldrb	r7, [r3, #-12]
     ebc:	e542702c 	strb	r7, [r2, #-44]	; 0xffffffd4
     ec0:	e553700b 	ldrb	r7, [r3, #-11]
     ec4:	e542702b 	strb	r7, [r2, #-43]	; 0xffffffd5
     ec8:	e553700a 	ldrb	r7, [r3, #-10]
     ecc:	e542702a 	strb	r7, [r2, #-42]	; 0xffffffd6
     ed0:	e5537009 	ldrb	r7, [r3, #-9]
     ed4:	e5427029 	strb	r7, [r2, #-41]	; 0xffffffd7
     ed8:	e5537008 	ldrb	r7, [r3, #-8]
     edc:	e5427028 	strb	r7, [r2, #-40]	; 0xffffffd8
     ee0:	e5537007 	ldrb	r7, [r3, #-7]
     ee4:	e5427027 	strb	r7, [r2, #-39]	; 0xffffffd9
     ee8:	e5537006 	ldrb	r7, [r3, #-6]
     eec:	e5427026 	strb	r7, [r2, #-38]	; 0xffffffda
     ef0:	e5537005 	ldrb	r7, [r3, #-5]
     ef4:	e5427025 	strb	r7, [r2, #-37]	; 0xffffffdb
     ef8:	e5537004 	ldrb	r7, [r3, #-4]
     efc:	e5427024 	strb	r7, [r2, #-36]	; 0xffffffdc
     f00:	e5537003 	ldrb	r7, [r3, #-3]
     f04:	e5427023 	strb	r7, [r2, #-35]	; 0xffffffdd
     f08:	e0857003 	add	r7, r5, r3
     f0c:	e2833020 	add	r3, r3, #32
     f10:	e08c8003 	add	r8, ip, r3
     f14:	e1560008 	cmp	r6, r8
     f18:	8affffb7 	bhi	dfc <RDMHandler::GetDeviceLabel(unsigned short)+0x60>
     f1c:	e2472001 	sub	r2, r7, #1
     f20:	e2877018 	add	r7, r7, #24
     f24:	e0811007 	add	r1, r1, r7
     f28:	e0802002 	add	r2, r0, r2
     f2c:	e1a03002 	mov	r3, r2
     f30:	e2833002 	add	r3, r3, #2
     f34:	e5f2c001 	ldrb	ip, [r2, #1]!
     f38:	e0433000 	sub	r3, r3, r0
     f3c:	e15e0003 	cmp	lr, r3
     f40:	e4c1c001 	strb	ip, [r1], #1
     f44:	8afffff8 	bhi	f2c <RDMHandler::GetDeviceLabel(unsigned short)+0x190>
     f48:	e5943004 	ldr	r3, [r4, #4]
     f4c:	e1a00004 	mov	r0, r4
     f50:	e5d32016 	ldrb	r2, [r3, #22]
     f54:	e3520000 	cmp	r2, #0
     f58:	03a02018 	moveq	r2, #24
     f5c:	05c32001 	strbeq	r2, [r3, #1]
     f60:	e3a02000 	mov	r2, #0
     f64:	e1a01002 	mov	r1, r2
     f68:	ebfffffe 	bl	1a8 <RDMHandler::CreateRespondMessage(unsigned char, unsigned short)>
     f6c:	e28dd008 	add	sp, sp, #8
     f70:	e8bd81f0 	pop	{r4, r5, r6, r7, r8, pc}
     f74:	e283008c 	add	r0, r3, #140	; 0x8c
     f78:	e1a0200d 	mov	r2, sp
     f7c:	ebfffffe 	bl	0 <RDMSubDevices::GetLabel(unsigned short, TRDMDeviceInfoData*)>
     f80:	e59d0000 	ldr	r0, [sp]
     f84:	e5dde004 	ldrb	lr, [sp, #4]
     f88:	eaffff8e 	b	dc8 <RDMHandler::GetDeviceLabel(unsigned short)+0x2c>
     f8c:	e3a07000 	mov	r7, #0
     f90:	eaffffe1 	b	f1c <RDMHandler::GetDeviceLabel(unsigned short)+0x180>
     f94:	00000000 	andeq	r0, r0, r0

00000f98 <RDMHandler::GetRealTimeClock(unsigned short)>:
     f98:	e92d4010 	push	{r4, lr}
     f9c:	e1a04000 	mov	r4, r0
     fa0:	e59f308c 	ldr	r3, [pc, #140]	; 1034 <RDMHandler::GetRealTimeClock(unsigned short)+0x9c>
     fa4:	e24dd028 	sub	sp, sp, #40	; 0x28
     fa8:	e5930000 	ldr	r0, [r3]
     fac:	e28d1004 	add	r1, sp, #4
     fb0:	ebfffffe 	bl	0 <Hardware::GetTime(tm*)>
     fb4:	e3a00007 	mov	r0, #7
     fb8:	e59d3018 	ldr	r3, [sp, #24]
     fbc:	e59d1014 	ldr	r1, [sp, #20]
     fc0:	e2833e76 	add	r3, r3, #1888	; 0x760
     fc4:	e283300c 	add	r3, r3, #12
     fc8:	e6ff2073 	uxth	r2, r3
     fcc:	e5943008 	ldr	r3, [r4, #8]
     fd0:	e1a0e422 	lsr	lr, r2, #8
     fd4:	e5c32019 	strb	r2, [r3, #25]
     fd8:	e59d200c 	ldr	r2, [sp, #12]
     fdc:	e2811001 	add	r1, r1, #1
     fe0:	e59dc010 	ldr	ip, [sp, #16]
     fe4:	e5c3101a 	strb	r1, [r3, #26]
     fe8:	e5c3201c 	strb	r2, [r3, #28]
     fec:	e59d1008 	ldr	r1, [sp, #8]
     ff0:	e59d2004 	ldr	r2, [sp, #4]
     ff4:	e5c3e018 	strb	lr, [r3, #24]
     ff8:	e5c3c01b 	strb	ip, [r3, #27]
     ffc:	e5c3101d 	strb	r1, [r3, #29]
    1000:	e5c3201e 	strb	r2, [r3, #30]
    1004:	e5c30017 	strb	r0, [r3, #23]
    1008:	e5943004 	ldr	r3, [r4, #4]
    100c:	e1a00004 	mov	r0, r4
    1010:	e5d32016 	ldrb	r2, [r3, #22]
    1014:	e3520000 	cmp	r2, #0
    1018:	03a02018 	moveq	r2, #24
    101c:	05c32001 	strbeq	r2, [r3, #1]
    1020:	e3a02000 	mov	r2, #0
    1024:	e1a01002 	mov	r1, r2
    1028:	ebfffffe 	bl	1a8 <RDMHandler::CreateRespondMessage(unsigned char, unsigned short)>
    102c:	e28dd028 	add	sp, sp, #40	; 0x28
    1030:	e8bd8010 	pop	{r4, pc}
    1034:	00000000 	andeq	r0, r0, r0

00001038 <RDMHandler::GetFactoryDefaults(unsigned short)>:
    1038:	e3a03001 	mov	r3, #1
    103c:	e59f20c0 	ldr	r2, [pc, #192]	; 1104 <RDMHandler::GetFactoryDefaults(unsigned short)+0xcc>
    1040:	e92d4070 	push	{r4, r5, r6, lr}
    1044:	e5906008 	ldr	r6, [r0, #8]
    1048:	e5925000 	ldr	r5, [r2]
    104c:	e5c63017 	strb	r3, [r6, #23]
    1050:	e5d530c5 	ldrb	r3, [r5, #197]	; 0xc5
    1054:	e1a04000 	mov	r4, r0
    1058:	e3530000 	cmp	r3, #0
    105c:	0a000010 	beq	10a4 <RDMHandler::GetFactoryDefaults(unsigned short)+0x6c>
    1060:	e5d5002f 	ldrb	r0, [r5, #47]	; 0x2f
    1064:	e1d5c7b8 	ldrh	ip, [r5, #120]	; 0x78
    1068:	e3500000 	cmp	r0, #0
    106c:	e5d53076 	ldrb	r3, [r5, #118]	; 0x76
    1070:	0a000006 	beq	1090 <RDMHandler::GetFactoryDefaults(unsigned short)+0x58>
    1074:	e285200e 	add	r2, r5, #14
    1078:	e0820000 	add	r0, r2, r0
    107c:	e5f21001 	ldrb	r1, [r2, #1]!
    1080:	e0833001 	add	r3, r3, r1
    1084:	e1520000 	cmp	r2, r0
    1088:	e6ff3073 	uxth	r3, r3
    108c:	1afffffa 	bne	107c <RDMHandler::GetFactoryDefaults(unsigned short)+0x44>
    1090:	e15c0003 	cmp	ip, r3
    1094:	0a00000d 	beq	10d0 <RDMHandler::GetFactoryDefaults(unsigned short)+0x98>
    1098:	e3a02000 	mov	r2, #0
    109c:	e1a03002 	mov	r3, r2
    10a0:	e5c520c5 	strb	r2, [r5, #197]	; 0xc5
    10a4:	e5c63018 	strb	r3, [r6, #24]
    10a8:	e5943004 	ldr	r3, [r4, #4]
    10ac:	e1a00004 	mov	r0, r4
    10b0:	e5d32016 	ldrb	r2, [r3, #22]
    10b4:	e3520000 	cmp	r2, #0
    10b8:	03a02018 	moveq	r2, #24
    10bc:	05c32001 	strbeq	r2, [r3, #1]
    10c0:	e3a02000 	mov	r2, #0
    10c4:	e8bd4070 	pop	{r4, r5, r6, lr}
    10c8:	e1a01002 	mov	r1, r2
    10cc:	eafffffe 	b	1a8 <RDMHandler::CreateRespondMessage(unsigned char, unsigned short)>
    10d0:	e5d520a9 	ldrb	r2, [r5, #169]	; 0xa9
    10d4:	e5d530ac 	ldrb	r3, [r5, #172]	; 0xac
    10d8:	e0833002 	add	r3, r3, r2
    10dc:	e1d52cb6 	ldrh	r2, [r5, #198]	; 0xc6
    10e0:	e1520003 	cmp	r2, r3
    10e4:	1affffeb 	bne	1098 <RDMHandler::GetFactoryDefaults(unsigned short)+0x60>
    10e8:	e285008c 	add	r0, r5, #140	; 0x8c
    10ec:	ebfffffe 	bl	0 <RDMSubDevices::GetFactoryDefaults()>
    10f0:	e3500000 	cmp	r0, #0
    10f4:	01a03000 	moveq	r3, r0
    10f8:	15d530c5 	ldrbne	r3, [r5, #197]	; 0xc5
    10fc:	05c500c5 	strbeq	r0, [r5, #197]	; 0xc5
    1100:	eaffffe7 	b	10a4 <RDMHandler::GetFactoryDefaults(unsigned short)+0x6c>
    1104:	00000000 	andeq	r0, r0, r0

00001108 <RDMHandler::GetDeviceInfo(unsigned short)>:
    1108:	e59f30b4 	ldr	r3, [pc, #180]	; 11c4 <RDMHandler::GetDeviceInfo(unsigned short)+0xbc>
    110c:	e92d4070 	push	{r4, r5, r6, lr}
    1110:	e5934000 	ldr	r4, [r3]
    1114:	e3510000 	cmp	r1, #0
    1118:	e1a05000 	mov	r5, r0
    111c:	0284309d 	addeq	r3, r4, #157	; 0x9d
    1120:	1a000011 	bne	116c <RDMHandler::GetDeviceInfo(unsigned short)+0x64>
    1124:	e3a01013 	mov	r1, #19
    1128:	e5952008 	ldr	r2, [r5, #8]
    112c:	e083c001 	add	ip, r3, r1
    1130:	e5e21017 	strb	r1, [r2, #23]!
    1134:	e4d31001 	ldrb	r1, [r3], #1
    1138:	e153000c 	cmp	r3, ip
    113c:	e5e21001 	strb	r1, [r2, #1]!
    1140:	1afffffb 	bne	1134 <RDMHandler::GetDeviceInfo(unsigned short)+0x2c>
    1144:	e5953004 	ldr	r3, [r5, #4]
    1148:	e1a00005 	mov	r0, r5
    114c:	e5d32016 	ldrb	r2, [r3, #22]
    1150:	e3520000 	cmp	r2, #0
    1154:	03a02018 	moveq	r2, #24
    1158:	05c32001 	strbeq	r2, [r3, #1]
    115c:	e3a02000 	mov	r2, #0
    1160:	e8bd4070 	pop	{r4, r5, r6, lr}
    1164:	e1a01002 	mov	r1, r2
    1168:	eafffffe 	b	1a8 <RDMHandler::CreateRespondMessage(unsigned char, unsigned short)>
    116c:	e284008c 	add	r0, r4, #140	; 0x8c
    1170:	ebfffffe 	bl	0 <RDMSubDevices::GetInfo(unsigned short)>
    1174:	e3500000 	cmp	r0, #0
    1178:	0a00000f 	beq	11bc <RDMHandler::GetDeviceInfo(unsigned short)+0xb4>
    117c:	e1d030b0 	ldrh	r3, [r0]
    1180:	e1a03423 	lsr	r3, r3, #8
    1184:	e5c430ba 	strb	r3, [r4, #186]	; 0xba
    1188:	e1d030b0 	ldrh	r3, [r0]
    118c:	e5c430bb 	strb	r3, [r4, #187]	; 0xbb
    1190:	e5d03004 	ldrb	r3, [r0, #4]
    1194:	e5c430bc 	strb	r3, [r4, #188]	; 0xbc
    1198:	e5d03005 	ldrb	r3, [r0, #5]
    119c:	e5c430bd 	strb	r3, [r4, #189]	; 0xbd
    11a0:	e1d030b2 	ldrh	r3, [r0, #2]
    11a4:	e1a03423 	lsr	r3, r3, #8
    11a8:	e5c430be 	strb	r3, [r4, #190]	; 0xbe
    11ac:	e1d030b2 	ldrh	r3, [r0, #2]
    11b0:	e5c430bf 	strb	r3, [r4, #191]	; 0xbf
    11b4:	e5d03027 	ldrb	r3, [r0, #39]	; 0x27
    11b8:	e5c430c2 	strb	r3, [r4, #194]	; 0xc2
    11bc:	e28430b0 	add	r3, r4, #176	; 0xb0
    11c0:	eaffffd7 	b	1124 <RDMHandler::GetDeviceInfo(unsigned short)+0x1c>
    11c4:	00000000 	andeq	r0, r0, r0

000011c8 <RDMHandler::GetSupportedParameters(unsigned short)>:
    11c8:	e3a0c000 	mov	ip, #0
    11cc:	e59f30ac 	ldr	r3, [pc, #172]	; 1280 <RDMHandler::GetSupportedParameters(unsigned short)+0xb8>
    11d0:	e151000c 	cmp	r1, ip
    11d4:	e28320c0 	add	r2, r3, #192	; 0xc0
    11d8:	01a03002 	moveq	r3, r2
    11dc:	e92d4010 	push	{r4, lr}
    11e0:	13a0e008 	movne	lr, #8
    11e4:	03a0e01c 	moveq	lr, #28
    11e8:	e1a02003 	mov	r2, r3
    11ec:	e08ee08e 	add	lr, lr, lr, lsl #1
    11f0:	e083e18e 	add	lr, r3, lr, lsl #3
    11f4:	e5d21015 	ldrb	r1, [r2, #21]
    11f8:	e2822018 	add	r2, r2, #24
    11fc:	e3510000 	cmp	r1, #0
    1200:	128cc001 	addne	ip, ip, #1
    1204:	16efc07c 	uxtbne	ip, ip
    1208:	e152000e 	cmp	r2, lr
    120c:	1afffff8 	bne	11f4 <RDMHandler::GetSupportedParameters(unsigned short)+0x2c>
    1210:	e3a01000 	mov	r1, #0
    1214:	e5904008 	ldr	r4, [r0, #8]
    1218:	e1a0c08c 	lsl	ip, ip, #1
    121c:	e5c4c017 	strb	ip, [r4, #23]
    1220:	e2833015 	add	r3, r3, #21
    1224:	e2822015 	add	r2, r2, #21
    1228:	e5d3e000 	ldrb	lr, [r3]
    122c:	e084c081 	add	ip, r4, r1, lsl #1
    1230:	e35e0000 	cmp	lr, #0
    1234:	0a000005 	beq	1250 <RDMHandler::GetSupportedParameters(unsigned short)+0x88>
    1238:	e153e1b5 	ldrh	lr, [r3, #-21]	; 0xffffffeb
    123c:	e2811001 	add	r1, r1, #1
    1240:	e1a0e42e 	lsr	lr, lr, #8
    1244:	e5cce018 	strb	lr, [ip, #24]
    1248:	e153e1b5 	ldrh	lr, [r3, #-21]	; 0xffffffeb
    124c:	e5cce019 	strb	lr, [ip, #25]
    1250:	e2833018 	add	r3, r3, #24
    1254:	e1520003 	cmp	r2, r3
    1258:	1afffff2 	bne	1228 <RDMHandler::GetSupportedParameters(unsigned short)+0x60>
    125c:	e5903004 	ldr	r3, [r0, #4]
    1260:	e5d32016 	ldrb	r2, [r3, #22]
    1264:	e3520000 	cmp	r2, #0
    1268:	03a02018 	moveq	r2, #24
    126c:	05c32001 	strbeq	r2, [r3, #1]
    1270:	e3a02000 	mov	r2, #0
    1274:	e8bd4010 	pop	{r4, lr}
    1278:	e1a01002 	mov	r1, r2
    127c:	eafffffe 	b	1a8 <RDMHandler::CreateRespondMessage(unsigned char, unsigned short)>
    1280:	00000000 	andeq	r0, r0, r0

00001284 <RDMHandler::GetBootSoftwareVersionId(unsigned short)>:
    1284:	e5903004 	ldr	r3, [r0, #4]
    1288:	e5d33016 	ldrb	r3, [r3, #22]
    128c:	e3530000 	cmp	r3, #0
    1290:	1a000016 	bne	12f0 <RDMHandler::GetBootSoftwareVersionId(unsigned short)+0x6c>
    1294:	e92d4010 	push	{r4, lr}
    1298:	e1a04000 	mov	r4, r0
    129c:	ebfffffe 	bl	0 <bcm2835_vc_get_get_firmware_revision>
    12a0:	e3a02004 	mov	r2, #4
    12a4:	e5943008 	ldr	r3, [r4, #8]
    12a8:	e1a01c20 	lsr	r1, r0, #24
    12ac:	e5c32017 	strb	r2, [r3, #23]
    12b0:	e1a02820 	lsr	r2, r0, #16
    12b4:	e5c32019 	strb	r2, [r3, #25]
    12b8:	e1a02420 	lsr	r2, r0, #8
    12bc:	e5c31018 	strb	r1, [r3, #24]
    12c0:	e5c3201a 	strb	r2, [r3, #26]
    12c4:	e5c3001b 	strb	r0, [r3, #27]
    12c8:	e5943004 	ldr	r3, [r4, #4]
    12cc:	e1a00004 	mov	r0, r4
    12d0:	e5d32016 	ldrb	r2, [r3, #22]
    12d4:	e3520000 	cmp	r2, #0
    12d8:	03a02018 	moveq	r2, #24
    12dc:	05c32001 	strbeq	r2, [r3, #1]
    12e0:	e3a02000 	mov	r2, #0
    12e4:	e8bd4010 	pop	{r4, lr}
    12e8:	e1a01002 	mov	r1, r2
    12ec:	eafffffe 	b	1a8 <RDMHandler::CreateRespondMessage(unsigned char, unsigned short)>
    12f0:	e3a02001 	mov	r2, #1
    12f4:	e3a01002 	mov	r1, #2
    12f8:	eafffffe 	b	1a8 <RDMHandler::CreateRespondMessage(unsigned char, unsigned short)>

000012fc <RDMHandler::SetDisplayInvert(bool, unsigned short)>:
    12fc:	e5903004 	ldr	r3, [r0, #4]
    1300:	e5d32016 	ldrb	r2, [r3, #22]
    1304:	e3520001 	cmp	r2, #1
    1308:	1a00001b 	bne	137c <RDMHandler::SetDisplayInvert(bool, unsigned short)+0x80>
    130c:	e92d4070 	push	{r4, r5, r6, lr}
    1310:	e5d35017 	ldrb	r5, [r3, #23]
    1314:	e1a04000 	mov	r4, r0
    1318:	e3550002 	cmp	r5, #2
    131c:	0a00001e 	beq	139c <RDMHandler::SetDisplayInvert(bool, unsigned short)+0xa0>
    1320:	e59f3084 	ldr	r3, [pc, #132]	; 13ac <RDMHandler::SetDisplayInvert(bool, unsigned short)+0xb0>
    1324:	e5933000 	ldr	r3, [r3]
    1328:	e5930018 	ldr	r0, [r3, #24]
    132c:	e3500000 	cmp	r0, #0
    1330:	0a000004 	beq	1348 <RDMHandler::SetDisplayInvert(bool, unsigned short)+0x4c>
    1334:	e5903000 	ldr	r3, [r0]
    1338:	e59f2070 	ldr	r2, [pc, #112]	; 13b0 <RDMHandler::SetDisplayInvert(bool, unsigned short)+0xb4>
    133c:	e5933030 	ldr	r3, [r3, #48]	; 0x30
    1340:	e1530002 	cmp	r3, r2
    1344:	1a00000f 	bne	1388 <RDMHandler::SetDisplayInvert(bool, unsigned short)+0x8c>
    1348:	e3a02000 	mov	r2, #0
    134c:	e5943008 	ldr	r3, [r4, #8]
    1350:	e1a00004 	mov	r0, r4
    1354:	e5c32017 	strb	r2, [r3, #23]
    1358:	e5943004 	ldr	r3, [r4, #4]
    135c:	e5d32016 	ldrb	r2, [r3, #22]
    1360:	e3520000 	cmp	r2, #0
    1364:	03a02018 	moveq	r2, #24
    1368:	05c32001 	strbeq	r2, [r3, #1]
    136c:	e3a02000 	mov	r2, #0
    1370:	e8bd4070 	pop	{r4, r5, r6, lr}
    1374:	e1a01002 	mov	r1, r2
    1378:	eafffffe 	b	1a8 <RDMHandler::CreateRespondMessage(unsigned char, unsigned short)>
    137c:	e3a02001 	mov	r2, #1
    1380:	e3a01002 	mov	r1, #2
    1384:	eafffffe 	b	1a8 <RDMHandler::CreateRespondMessage(unsigned char, unsigned short)>
    1388:	e2451001 	sub	r1, r5, #1
    138c:	e16f1f11 	clz	r1, r1
    1390:	e1a012a1 	lsr	r1, r1, #5
    1394:	e12fff33 	blx	r3
    1398:	eaffffea 	b	1348 <RDMHandler::SetDisplayInvert(bool, unsigned short)+0x4c>
    139c:	e3a02006 	mov	r2, #6
    13a0:	e1a01005 	mov	r1, r5
    13a4:	ebfffffe 	bl	1a8 <RDMHandler::CreateRespondMessage(unsigned char, unsigned short)>
    13a8:	eaffffdc 	b	1320 <RDMHandler::SetDisplayInvert(bool, unsigned short)+0x24>
	...

000013b4 <RDMHandler::GetSlotInfo(unsigned short)>:
    13b4:	e92d47f0 	push	{r4, r5, r6, r7, r8, r9, sl, lr}
    13b8:	e59fa0fc 	ldr	sl, [pc, #252]	; 14bc <RDMHandler::GetSlotInfo(unsigned short)+0x108>
    13bc:	e2517000 	subs	r7, r1, #0
    13c0:	e1a09000 	mov	r9, r0
    13c4:	e59a3000 	ldr	r3, [sl]
    13c8:	e5908008 	ldr	r8, [r0, #8]
    13cc:	e24dd008 	sub	sp, sp, #8
    13d0:	1a000036 	bne	14b0 <RDMHandler::GetSlotInfo(unsigned short)+0xfc>
    13d4:	e5d360a7 	ldrb	r6, [r3, #167]	; 0xa7
    13d8:	e5d300a8 	ldrb	r0, [r3, #168]	; 0xa8
    13dc:	e0800406 	add	r0, r0, r6, lsl #8
    13e0:	e6ff0070 	uxth	r0, r0
    13e4:	e350002e 	cmp	r0, #46	; 0x2e
    13e8:	23a0002e 	movcs	r0, #46	; 0x2e
    13ec:	e3a04000 	mov	r4, #0
    13f0:	e6ff6070 	uxth	r6, r0
    13f4:	e1a05004 	mov	r5, r4
    13f8:	ea00001a 	b	1468 <RDMHandler::GetSlotInfo(unsigned short)+0xb4>
    13fc:	e3570000 	cmp	r7, #0
    1400:	1a000017 	bne	1464 <RDMHandler::GetSlotInfo(unsigned short)+0xb0>
    1404:	e59a0000 	ldr	r0, [sl]
    1408:	e28d2004 	add	r2, sp, #4
    140c:	e5d030a9 	ldrb	r3, [r0, #169]	; 0xa9
    1410:	e5900094 	ldr	r0, [r0, #148]	; 0x94
    1414:	e2433107 	sub	r3, r3, #-1073741823	; 0xc0000001
    1418:	e7903103 	ldr	r3, [r0, r3, lsl #2]
    141c:	e5930004 	ldr	r0, [r3, #4]
    1420:	e5903000 	ldr	r3, [r0]
    1424:	e593302c 	ldr	r3, [r3, #44]	; 0x2c
    1428:	e12fff33 	blx	r3
    142c:	e2853004 	add	r3, r5, #4
    1430:	e3500000 	cmp	r0, #0
    1434:	e0882005 	add	r2, r8, r5
    1438:	e0883003 	add	r3, r8, r3
    143c:	0a000008 	beq	1464 <RDMHandler::GetSlotInfo(unsigned short)+0xb0>
    1440:	e1dd10b4 	ldrh	r1, [sp, #4]
    1444:	e5ddc006 	ldrb	ip, [sp, #6]
    1448:	e1a00421 	lsr	r0, r1, #8
    144c:	e5c24019 	strb	r4, [r2, #25]
    1450:	e5c27018 	strb	r7, [r2, #24]
    1454:	e5c2c01a 	strb	ip, [r2, #26]
    1458:	e5c2001b 	strb	r0, [r2, #27]
    145c:	e2855005 	add	r5, r5, #5
    1460:	e5c31018 	strb	r1, [r3, #24]
    1464:	e2844001 	add	r4, r4, #1
    1468:	e1560004 	cmp	r6, r4
    146c:	e6ff1074 	uxth	r1, r4
    1470:	1affffe1 	bne	13fc <RDMHandler::GetSlotInfo(unsigned short)+0x48>
    1474:	e6ef5075 	uxtb	r5, r5
    1478:	e2853018 	add	r3, r5, #24
    147c:	e5c85017 	strb	r5, [r8, #23]
    1480:	e5c83002 	strb	r3, [r8, #2]
    1484:	e5993004 	ldr	r3, [r9, #4]
    1488:	e1a00009 	mov	r0, r9
    148c:	e5d32016 	ldrb	r2, [r3, #22]
    1490:	e3520000 	cmp	r2, #0
    1494:	03a02018 	moveq	r2, #24
    1498:	05c32001 	strbeq	r2, [r3, #1]
    149c:	e3a02000 	mov	r2, #0
    14a0:	e1a01002 	mov	r1, r2
    14a4:	ebfffffe 	bl	1a8 <RDMHandler::CreateRespondMessage(unsigned char, unsigned short)>
    14a8:	e28dd008 	add	sp, sp, #8
    14ac:	e8bd87f0 	pop	{r4, r5, r6, r7, r8, r9, sl, pc}
    14b0:	e283008c 	add	r0, r3, #140	; 0x8c
    14b4:	ebfffffe 	bl	0 <RDMSubDevices::GetDmxFootPrint(unsigned short)>
    14b8:	eaffffc9 	b	13e4 <RDMHandler::GetSlotInfo(unsigned short)+0x30>
    14bc:	00000000 	andeq	r0, r0, r0

000014c0 <RDMHandler::SetDisplayLevel(bool, unsigned short)>:
    14c0:	e5903004 	ldr	r3, [r0, #4]
    14c4:	e5d31016 	ldrb	r1, [r3, #22]
    14c8:	e3510001 	cmp	r1, #1
    14cc:	1a000031 	bne	1598 <RDMHandler::SetDisplayLevel(bool, unsigned short)+0xd8>
    14d0:	e92d41f0 	push	{r4, r5, r6, r7, r8, lr}
    14d4:	e59f60f8 	ldr	r6, [pc, #248]	; 15d4 <RDMHandler::SetDisplayLevel(bool, unsigned short)+0x114>
    14d8:	e5d37017 	ldrb	r7, [r3, #23]
    14dc:	e5965000 	ldr	r5, [r6]
    14e0:	e3570000 	cmp	r7, #0
    14e4:	e1a04000 	mov	r4, r0
    14e8:	e5953018 	ldr	r3, [r5, #24]
    14ec:	0a00000f 	beq	1530 <RDMHandler::SetDisplayLevel(bool, unsigned short)+0x70>
    14f0:	e3530000 	cmp	r3, #0
    14f4:	0a00001a 	beq	1564 <RDMHandler::SetDisplayLevel(bool, unsigned short)+0xa4>
    14f8:	e3a01000 	mov	r1, #0
    14fc:	e5932000 	ldr	r2, [r3]
    1500:	e59f00d0 	ldr	r0, [pc, #208]	; 15d8 <RDMHandler::SetDisplayLevel(bool, unsigned short)+0x118>
    1504:	e5922028 	ldr	r2, [r2, #40]	; 0x28
    1508:	e5c51010 	strb	r1, [r5, #16]
    150c:	e1520000 	cmp	r2, r0
    1510:	1a00002c 	bne	15c8 <RDMHandler::SetDisplayLevel(bool, unsigned short)+0x108>
    1514:	ebfffffe 	bl	0 <millis>
    1518:	e5963000 	ldr	r3, [r6]
    151c:	e5933018 	ldr	r3, [r3, #24]
    1520:	e5850004 	str	r0, [r5, #4]
    1524:	e3530000 	cmp	r3, #0
    1528:	1a000008 	bne	1550 <RDMHandler::SetDisplayLevel(bool, unsigned short)+0x90>
    152c:	ea00000c 	b	1564 <RDMHandler::SetDisplayLevel(bool, unsigned short)+0xa4>
    1530:	e3530000 	cmp	r3, #0
    1534:	0a00000a 	beq	1564 <RDMHandler::SetDisplayLevel(bool, unsigned short)+0xa4>
    1538:	e5932000 	ldr	r2, [r3]
    153c:	e59f0094 	ldr	r0, [pc, #148]	; 15d8 <RDMHandler::SetDisplayLevel(bool, unsigned short)+0x118>
    1540:	e5922028 	ldr	r2, [r2, #40]	; 0x28
    1544:	e5c51010 	strb	r1, [r5, #16]
    1548:	e1520000 	cmp	r2, r0
    154c:	1a000018 	bne	15b4 <RDMHandler::SetDisplayLevel(bool, unsigned short)+0xf4>
    1550:	e5932000 	ldr	r2, [r3]
    1554:	e59f1080 	ldr	r1, [pc, #128]	; 15dc <RDMHandler::SetDisplayLevel(bool, unsigned short)+0x11c>
    1558:	e592202c 	ldr	r2, [r2, #44]	; 0x2c
    155c:	e1520001 	cmp	r2, r1
    1560:	1a00000f 	bne	15a4 <RDMHandler::SetDisplayLevel(bool, unsigned short)+0xe4>
    1564:	e3a02000 	mov	r2, #0
    1568:	e5943008 	ldr	r3, [r4, #8]
    156c:	e1a00004 	mov	r0, r4
    1570:	e5c32017 	strb	r2, [r3, #23]
    1574:	e5943004 	ldr	r3, [r4, #4]
    1578:	e5d32016 	ldrb	r2, [r3, #22]
    157c:	e3520000 	cmp	r2, #0
    1580:	03a02018 	moveq	r2, #24
    1584:	05c32001 	strbeq	r2, [r3, #1]
    1588:	e3a02000 	mov	r2, #0
    158c:	e8bd41f0 	pop	{r4, r5, r6, r7, r8, lr}
    1590:	e1a01002 	mov	r1, r2
    1594:	eafffffe 	b	1a8 <RDMHandler::CreateRespondMessage(unsigned char, unsigned short)>
    1598:	e3a02001 	mov	r2, #1
    159c:	e3a01002 	mov	r1, #2
    15a0:	eafffffe 	b	1a8 <RDMHandler::CreateRespondMessage(unsigned char, unsigned short)>
    15a4:	e1a01007 	mov	r1, r7
    15a8:	e1a00003 	mov	r0, r3
    15ac:	e12fff32 	blx	r2
    15b0:	eaffffeb 	b	1564 <RDMHandler::SetDisplayLevel(bool, unsigned short)+0xa4>
    15b4:	e1a00003 	mov	r0, r3
    15b8:	e12fff32 	blx	r2
    15bc:	e5963000 	ldr	r3, [r6]
    15c0:	e5933018 	ldr	r3, [r3, #24]
    15c4:	eaffffd6 	b	1524 <RDMHandler::SetDisplayLevel(bool, unsigned short)+0x64>
    15c8:	e1a00003 	mov	r0, r3
    15cc:	e12fff32 	blx	r2
    15d0:	eaffffcf 	b	1514 <RDMHandler::SetDisplayLevel(bool, unsigned short)+0x54>
	...

000015e0 <RDMHandler::GetPersonalityDescription(unsigned short)>:
    15e0:	e92d41f0 	push	{r4, r5, r6, r7, r8, lr}
    15e4:	e5902004 	ldr	r2, [r0, #4]
    15e8:	e59f815c 	ldr	r8, [pc, #348]	; 174c <RDMHandler::GetPersonalityDescription(unsigned short)+0x16c>
    15ec:	e5d27017 	ldrb	r7, [r2, #23]
    15f0:	e2516000 	subs	r6, r1, #0
    15f4:	e16f4f17 	clz	r4, r7
    15f8:	e1a05000 	mov	r5, r0
    15fc:	e5983000 	ldr	r3, [r8]
    1600:	e1a042a4 	lsr	r4, r4, #5
    1604:	1a000032 	bne	16d4 <RDMHandler::GetPersonalityDescription(unsigned short)+0xf4>
    1608:	e5d320aa 	ldrb	r2, [r3, #170]	; 0xaa
    160c:	e1520007 	cmp	r2, r7
    1610:	33844001 	orrcc	r4, r4, #1
    1614:	e3540000 	cmp	r4, #0
    1618:	1a000028 	bne	16c0 <RDMHandler::GetPersonalityDescription(unsigned short)+0xe0>
    161c:	e5932094 	ldr	r2, [r3, #148]	; 0x94
    1620:	e2471107 	sub	r1, r7, #-1073741823	; 0xc0000001
    1624:	e7922101 	ldr	r2, [r2, r1, lsl #2]
    1628:	e5906008 	ldr	r6, [r0, #8]
    162c:	e1d220b0 	ldrh	r2, [r2]
    1630:	e5c67018 	strb	r7, [r6, #24]
    1634:	e5c6201a 	strb	r2, [r6, #26]
    1638:	e1a02422 	lsr	r2, r2, #8
    163c:	e5c62019 	strb	r2, [r6, #25]
    1640:	e5933094 	ldr	r3, [r3, #148]	; 0x94
    1644:	e286401b 	add	r4, r6, #27
    1648:	e793c101 	ldr	ip, [r3, r1, lsl #2]
    164c:	e59c3028 	ldr	r3, [ip, #40]	; 0x28
    1650:	e3530000 	cmp	r3, #0
    1654:	0a00003a 	beq	1744 <RDMHandler::GetPersonalityDescription(unsigned short)+0x164>
    1658:	e3a03001 	mov	r3, #1
    165c:	e28c2007 	add	r2, ip, #7
    1660:	e28ce027 	add	lr, ip, #39	; 0x27
    1664:	ea000002 	b	1674 <RDMHandler::GetPersonalityDescription(unsigned short)+0x94>
    1668:	e152000e 	cmp	r2, lr
    166c:	e2833001 	add	r3, r3, #1
    1670:	0a000031 	beq	173c <RDMHandler::GetPersonalityDescription(unsigned short)+0x15c>
    1674:	e5f21001 	ldrb	r1, [r2, #1]!
    1678:	e6ef0073 	uxtb	r0, r3
    167c:	e4c41001 	strb	r1, [r4], #1
    1680:	e59c1028 	ldr	r1, [ip, #40]	; 0x28
    1684:	e1530001 	cmp	r3, r1
    1688:	3afffff6 	bcc	1668 <RDMHandler::GetPersonalityDescription(unsigned short)+0x88>
    168c:	e2800003 	add	r0, r0, #3
    1690:	e6ef0070 	uxtb	r0, r0
    1694:	e5c60017 	strb	r0, [r6, #23]
    1698:	e5953004 	ldr	r3, [r5, #4]
    169c:	e1a00005 	mov	r0, r5
    16a0:	e5d32016 	ldrb	r2, [r3, #22]
    16a4:	e3520000 	cmp	r2, #0
    16a8:	03a02018 	moveq	r2, #24
    16ac:	05c32001 	strbeq	r2, [r3, #1]
    16b0:	e3a02000 	mov	r2, #0
    16b4:	e8bd41f0 	pop	{r4, r5, r6, r7, r8, lr}
    16b8:	e1a01002 	mov	r1, r2
    16bc:	eafffffe 	b	1a8 <RDMHandler::CreateRespondMessage(unsigned char, unsigned short)>
    16c0:	e1a00005 	mov	r0, r5
    16c4:	e8bd41f0 	pop	{r4, r5, r6, r7, r8, lr}
    16c8:	e3a02006 	mov	r2, #6
    16cc:	e3a01002 	mov	r1, #2
    16d0:	eafffffe 	b	1a8 <RDMHandler::CreateRespondMessage(unsigned char, unsigned short)>
    16d4:	e283008c 	add	r0, r3, #140	; 0x8c
    16d8:	ebfffffe 	bl	0 <RDMSubDevices::GetPersonalityCount(unsigned short)>
    16dc:	e1570000 	cmp	r7, r0
    16e0:	83844001 	orrhi	r4, r4, #1
    16e4:	e3540000 	cmp	r4, #0
    16e8:	1afffff4 	bne	16c0 <RDMHandler::GetPersonalityDescription(unsigned short)+0xe0>
    16ec:	e5980000 	ldr	r0, [r8]
    16f0:	e1a01006 	mov	r1, r6
    16f4:	e1a02007 	mov	r2, r7
    16f8:	e280008c 	add	r0, r0, #140	; 0x8c
    16fc:	ebfffffe 	bl	0 <RDMSubDevices::GetPersonality(unsigned short, unsigned char)>
    1700:	e1a03000 	mov	r3, r0
    1704:	e1a01006 	mov	r1, r6
    1708:	e1d330b0 	ldrh	r3, [r3]
    170c:	e5956008 	ldr	r6, [r5, #8]
    1710:	e5980000 	ldr	r0, [r8]
    1714:	e5c6301a 	strb	r3, [r6, #26]
    1718:	e1a03423 	lsr	r3, r3, #8
    171c:	e1a02007 	mov	r2, r7
    1720:	e280008c 	add	r0, r0, #140	; 0x8c
    1724:	e5c67018 	strb	r7, [r6, #24]
    1728:	e5c63019 	strb	r3, [r6, #25]
    172c:	ebfffffe 	bl	0 <RDMSubDevices::GetPersonality(unsigned short, unsigned char)>
    1730:	e286401b 	add	r4, r6, #27
    1734:	e1a0c000 	mov	ip, r0
    1738:	eaffffc3 	b	164c <RDMHandler::GetPersonalityDescription(unsigned short)+0x6c>
    173c:	e3a00023 	mov	r0, #35	; 0x23
    1740:	eaffffd3 	b	1694 <RDMHandler::GetPersonalityDescription(unsigned short)+0xb4>
    1744:	e3a00003 	mov	r0, #3
    1748:	eaffffd1 	b	1694 <RDMHandler::GetPersonalityDescription(unsigned short)+0xb4>
    174c:	00000000 	andeq	r0, r0, r0

00001750 <RDMHandler::SetRealTimeClock(bool, unsigned short)>:
    1750:	e5903004 	ldr	r3, [r0, #4]
    1754:	e5d32016 	ldrb	r2, [r3, #22]
    1758:	e3520007 	cmp	r2, #7
    175c:	1a00002b 	bne	1810 <RDMHandler::SetRealTimeClock(bool, unsigned short)+0xc0>
    1760:	e92d4010 	push	{r4, lr}
    1764:	e1a04000 	mov	r4, r0
    1768:	e5d32018 	ldrb	r2, [r3, #24]
    176c:	e5d30017 	ldrb	r0, [r3, #23]
    1770:	e3510000 	cmp	r1, #0
    1774:	e0822400 	add	r2, r2, r0, lsl #8
    1778:	e5d31019 	ldrb	r1, [r3, #25]
    177c:	e2422e76 	sub	r2, r2, #1888	; 0x760
    1780:	e24dd028 	sub	sp, sp, #40	; 0x28
    1784:	e242200c 	sub	r2, r2, #12
    1788:	e2411001 	sub	r1, r1, #1
    178c:	e5d3001a 	ldrb	r0, [r3, #26]
    1790:	e58d2018 	str	r2, [sp, #24]
    1794:	e58d1014 	str	r1, [sp, #20]
    1798:	e5d3201c 	ldrb	r2, [r3, #28]
    179c:	e5d3101b 	ldrb	r1, [r3, #27]
    17a0:	e5d3301d 	ldrb	r3, [r3, #29]
    17a4:	e58d0010 	str	r0, [sp, #16]
    17a8:	e58d100c 	str	r1, [sp, #12]
    17ac:	e58d2008 	str	r2, [sp, #8]
    17b0:	e58d3004 	str	r3, [sp, #4]
    17b4:	0a000001 	beq	17c0 <RDMHandler::SetRealTimeClock(bool, unsigned short)+0x70>
    17b8:	e28dd028 	add	sp, sp, #40	; 0x28
    17bc:	e8bd8010 	pop	{r4, pc}
    17c0:	e59f3068 	ldr	r3, [pc, #104]	; 1830 <RDMHandler::SetRealTimeClock(bool, unsigned short)+0xe0>
    17c4:	e28d1004 	add	r1, sp, #4
    17c8:	e5930000 	ldr	r0, [r3]
    17cc:	ebfffffe 	bl	0 <Hardware::SetTime(tm const*)>
    17d0:	e3500000 	cmp	r0, #0
    17d4:	0a000010 	beq	181c <RDMHandler::SetRealTimeClock(bool, unsigned short)+0xcc>
    17d8:	e3a02000 	mov	r2, #0
    17dc:	e5943008 	ldr	r3, [r4, #8]
    17e0:	e1a00004 	mov	r0, r4
    17e4:	e5c32017 	strb	r2, [r3, #23]
    17e8:	e5943004 	ldr	r3, [r4, #4]
    17ec:	e5d32016 	ldrb	r2, [r3, #22]
    17f0:	e3520000 	cmp	r2, #0
    17f4:	03a02018 	moveq	r2, #24
    17f8:	05c32001 	strbeq	r2, [r3, #1]
    17fc:	e3a02000 	mov	r2, #0
    1800:	e1a01002 	mov	r1, r2
    1804:	ebfffffe 	bl	1a8 <RDMHandler::CreateRespondMessage(unsigned char, unsigned short)>
    1808:	e28dd028 	add	sp, sp, #40	; 0x28
    180c:	e8bd8010 	pop	{r4, pc}
    1810:	e3a02001 	mov	r2, #1
    1814:	e3a01002 	mov	r1, #2
    1818:	eafffffe 	b	1a8 <RDMHandler::CreateRespondMessage(unsigned char, unsigned short)>
    181c:	e3a02004 	mov	r2, #4
    1820:	e3a01002 	mov	r1, #2
    1824:	e1a00004 	mov	r0, r4
    1828:	ebfffffe 	bl	1a8 <RDMHandler::CreateRespondMessage(unsigned char, unsigned short)>
    182c:	eaffffe9 	b	17d8 <RDMHandler::SetRealTimeClock(bool, unsigned short)+0x88>
    1830:	00000000 	andeq	r0, r0, r0

00001834 <RDMHandler::SetRecordSensors(bool, unsigned short)>:
    1834:	e5903004 	ldr	r3, [r0, #4]
    1838:	e5d32016 	ldrb	r2, [r3, #22]
    183c:	e3520001 	cmp	r2, #1
    1840:	1a000020 	bne	18c8 <RDMHandler::SetRecordSensors(bool, unsigned short)+0x94>
    1844:	e92d4070 	push	{r4, r5, r6, lr}
    1848:	e59f2084 	ldr	r2, [pc, #132]	; 18d4 <RDMHandler::SetRecordSensors(bool, unsigned short)+0xa0>
    184c:	e1a05001 	mov	r5, r1
    1850:	e5d31017 	ldrb	r1, [r3, #23]
    1854:	e1a04000 	mov	r4, r0
    1858:	e5920000 	ldr	r0, [r2]
    185c:	e35100ff 	cmp	r1, #255	; 0xff
    1860:	e5d03004 	ldrb	r3, [r0, #4]
    1864:	0a000010 	beq	18ac <RDMHandler::SetRecordSensors(bool, unsigned short)+0x78>
    1868:	e1510003 	cmp	r1, r3
    186c:	2a000010 	bcs	18b4 <RDMHandler::SetRecordSensors(bool, unsigned short)+0x80>
    1870:	ebfffffe 	bl	0 <RDMSensors::SetRecord(unsigned char)>
    1874:	e3550000 	cmp	r5, #0
    1878:	18bd8070 	popne	{r4, r5, r6, pc}
    187c:	e5943008 	ldr	r3, [r4, #8]
    1880:	e1a00004 	mov	r0, r4
    1884:	e5c35017 	strb	r5, [r3, #23]
    1888:	e5943004 	ldr	r3, [r4, #4]
    188c:	e5d32016 	ldrb	r2, [r3, #22]
    1890:	e3520000 	cmp	r2, #0
    1894:	03a02018 	moveq	r2, #24
    1898:	05c32001 	strbeq	r2, [r3, #1]
    189c:	e3a02000 	mov	r2, #0
    18a0:	e8bd4070 	pop	{r4, r5, r6, lr}
    18a4:	e1a01002 	mov	r1, r2
    18a8:	eafffffe 	b	1a8 <RDMHandler::CreateRespondMessage(unsigned char, unsigned short)>
    18ac:	e3530000 	cmp	r3, #0
    18b0:	1affffee 	bne	1870 <RDMHandler::SetRecordSensors(bool, unsigned short)+0x3c>
    18b4:	e1a00004 	mov	r0, r4
    18b8:	e8bd4070 	pop	{r4, r5, r6, lr}
    18bc:	e3a02006 	mov	r2, #6
    18c0:	e3a01002 	mov	r1, #2
    18c4:	eafffffe 	b	1a8 <RDMHandler::CreateRespondMessage(unsigned char, unsigned short)>
    18c8:	e3a02001 	mov	r2, #1
    18cc:	e3a01002 	mov	r1, #2
    18d0:	eafffffe 	b	1a8 <RDMHandler::CreateRespondMessage(unsigned char, unsigned short)>
    18d4:	00000000 	andeq	r0, r0, r0

000018d8 <RDMHandler::SetDeviceLabel(bool, unsigned short)>:
    18d8:	e92d4070 	push	{r4, r5, r6, lr}
    18dc:	e590e004 	ldr	lr, [r0, #4]
    18e0:	e5de3016 	ldrb	r3, [lr, #22]
    18e4:	e3530020 	cmp	r3, #32
    18e8:	8a000030 	bhi	19b0 <RDMHandler::SetDeviceLabel(bool, unsigned short)+0xd8>
    18ec:	e1a05001 	mov	r5, r1
    18f0:	e3520000 	cmp	r2, #0
    18f4:	e1a01002 	mov	r1, r2
    18f8:	e59f20f4 	ldr	r2, [pc, #244]	; 19f4 <RDMHandler::SetDeviceLabel(bool, unsigned short)+0x11c>
    18fc:	e1a04000 	mov	r4, r0
    1900:	e28ec017 	add	ip, lr, #23
    1904:	e5920000 	ldr	r0, [r2]
    1908:	1a000017 	bne	196c <RDMHandler::SetDeviceLabel(bool, unsigned short)+0x94>
    190c:	e5d02004 	ldrb	r2, [r0, #4]
    1910:	e3520000 	cmp	r2, #0
    1914:	0a000029 	beq	19c0 <RDMHandler::SetDeviceLabel(bool, unsigned short)+0xe8>
    1918:	e3530000 	cmp	r3, #0
    191c:	12832017 	addne	r2, r3, #23
    1920:	e280100f 	add	r1, r0, #15
    1924:	108ee002 	addne	lr, lr, r2
    1928:	1280600e 	addne	r6, r0, #14
    192c:	0a000003 	beq	1940 <RDMHandler::SetDeviceLabel(bool, unsigned short)+0x68>
    1930:	e4dc2001 	ldrb	r2, [ip], #1
    1934:	e15c000e 	cmp	ip, lr
    1938:	e5e62001 	strb	r2, [r6, #1]!
    193c:	1afffffb 	bne	1930 <RDMHandler::SetDeviceLabel(bool, unsigned short)+0x58>
    1940:	e5c0302f 	strb	r3, [r0, #47]	; 0x2f
    1944:	e590007c 	ldr	r0, [r0, #124]	; 0x7c
    1948:	e3500000 	cmp	r0, #0
    194c:	0a000009 	beq	1978 <RDMHandler::SetDeviceLabel(bool, unsigned short)+0xa0>
    1950:	e1a02003 	mov	r2, r3
    1954:	e5903000 	ldr	r3, [r0]
    1958:	e5933008 	ldr	r3, [r3, #8]
    195c:	e12fff33 	blx	r3
    1960:	e3550000 	cmp	r5, #0
    1964:	18bd8070 	popne	{r4, r5, r6, pc}
    1968:	ea000004 	b	1980 <RDMHandler::SetDeviceLabel(bool, unsigned short)+0xa8>
    196c:	e1a0200c 	mov	r2, ip
    1970:	e280008c 	add	r0, r0, #140	; 0x8c
    1974:	ebfffffe 	bl	0 <RDMSubDevices::SetLabel(unsigned short, char const*, unsigned char)>
    1978:	e3550000 	cmp	r5, #0
    197c:	18bd8070 	popne	{r4, r5, r6, pc}
    1980:	e5943008 	ldr	r3, [r4, #8]
    1984:	e1a00004 	mov	r0, r4
    1988:	e5c35017 	strb	r5, [r3, #23]
    198c:	e5943004 	ldr	r3, [r4, #4]
    1990:	e5d32016 	ldrb	r2, [r3, #22]
    1994:	e3520000 	cmp	r2, #0
    1998:	03a02018 	moveq	r2, #24
    199c:	05c32001 	strbeq	r2, [r3, #1]
    19a0:	e3a02000 	mov	r2, #0
    19a4:	e8bd4070 	pop	{r4, r5, r6, lr}
    19a8:	e1a01002 	mov	r1, r2
    19ac:	eafffffe 	b	1a8 <RDMHandler::CreateRespondMessage(unsigned char, unsigned short)>
    19b0:	e3a02001 	mov	r2, #1
    19b4:	e8bd4070 	pop	{r4, r5, r6, lr}
    19b8:	e3a01002 	mov	r1, #2
    19bc:	eafffffe 	b	1a8 <RDMHandler::CreateRespondMessage(unsigned char, unsigned short)>
    19c0:	e3530000 	cmp	r3, #0
    19c4:	12832017 	addne	r2, r3, #23
    19c8:	108ee002 	addne	lr, lr, r2
    19cc:	12801055 	addne	r1, r0, #85	; 0x55
    19d0:	0a000003 	beq	19e4 <RDMHandler::SetDeviceLabel(bool, unsigned short)+0x10c>
    19d4:	e4dc2001 	ldrb	r2, [ip], #1
    19d8:	e15c000e 	cmp	ip, lr
    19dc:	e5e12001 	strb	r2, [r1, #1]!
    19e0:	1afffffb 	bne	19d4 <RDMHandler::SetDeviceLabel(bool, unsigned short)+0xfc>
    19e4:	e3550000 	cmp	r5, #0
    19e8:	e5c03076 	strb	r3, [r0, #118]	; 0x76
    19ec:	18bd8070 	popne	{r4, r5, r6, pc}
    19f0:	eaffffe2 	b	1980 <RDMHandler::SetDeviceLabel(bool, unsigned short)+0xa8>
    19f4:	00000000 	andeq	r0, r0, r0

000019f8 <RDMHandler::SetPersonality(bool, unsigned short)>:
    19f8:	e5903004 	ldr	r3, [r0, #4]
    19fc:	e5d3c016 	ldrb	ip, [r3, #22]
    1a00:	e35c0001 	cmp	ip, #1
    1a04:	1a00004d 	bne	1b40 <RDMHandler::SetPersonality(bool, unsigned short)+0x148>
    1a08:	e92d47f0 	push	{r4, r5, r6, r7, r8, r9, sl, lr}
    1a0c:	e5d38017 	ldrb	r8, [r3, #23]
    1a10:	e59f914c 	ldr	r9, [pc, #332]	; 1b64 <RDMHandler::SetPersonality(bool, unsigned short)+0x16c>
    1a14:	e16f5f18 	clz	r5, r8
    1a18:	e3520000 	cmp	r2, #0
    1a1c:	e1a04000 	mov	r4, r0
    1a20:	e1a06002 	mov	r6, r2
    1a24:	e5997000 	ldr	r7, [r9]
    1a28:	e1a052a5 	lsr	r5, r5, #5
    1a2c:	1a000037 	bne	1b10 <RDMHandler::SetPersonality(bool, unsigned short)+0x118>
    1a30:	e5d730aa 	ldrb	r3, [r7, #170]	; 0xaa
    1a34:	e1530008 	cmp	r3, r8
    1a38:	33855001 	orrcc	r5, r5, #1
    1a3c:	e3550000 	cmp	r5, #0
    1a40:	1a000039 	bne	1b2c <RDMHandler::SetPersonality(bool, unsigned short)+0x134>
    1a44:	e5973094 	ldr	r3, [r7, #148]	; 0x94
    1a48:	e5c780a9 	strb	r8, [r7, #169]	; 0xa9
    1a4c:	e2482107 	sub	r2, r8, #-1073741823	; 0xc0000001
    1a50:	e7933102 	ldr	r3, [r3, r2, lsl #2]
    1a54:	e5935004 	ldr	r5, [r3, #4]
    1a58:	e3550000 	cmp	r5, #0
    1a5c:	0a00001e 	beq	1adc <RDMHandler::SetPersonality(bool, unsigned short)+0xe4>
    1a60:	e5953000 	ldr	r3, [r5]
    1a64:	e1a00005 	mov	r0, r5
    1a68:	e5933028 	ldr	r3, [r3, #40]	; 0x28
    1a6c:	e12fff33 	blx	r3
    1a70:	e1a03000 	mov	r3, r0
    1a74:	e1a03423 	lsr	r3, r3, #8
    1a78:	e5c730a7 	strb	r3, [r7, #167]	; 0xa7
    1a7c:	e5953000 	ldr	r3, [r5]
    1a80:	e1a00005 	mov	r0, r5
    1a84:	e5933028 	ldr	r3, [r3, #40]	; 0x28
    1a88:	e12fff33 	blx	r3
    1a8c:	e1a03000 	mov	r3, r0
    1a90:	e5c730a8 	strb	r3, [r7, #168]	; 0xa8
    1a94:	e5953000 	ldr	r3, [r5]
    1a98:	e1a00005 	mov	r0, r5
    1a9c:	e5933024 	ldr	r3, [r3, #36]	; 0x24
    1aa0:	e12fff33 	blx	r3
    1aa4:	e1a03000 	mov	r3, r0
    1aa8:	e1a03423 	lsr	r3, r3, #8
    1aac:	e5c730ab 	strb	r3, [r7, #171]	; 0xab
    1ab0:	e5953000 	ldr	r3, [r5]
    1ab4:	e1a00005 	mov	r0, r5
    1ab8:	e5933024 	ldr	r3, [r3, #36]	; 0x24
    1abc:	e12fff33 	blx	r3
    1ac0:	e1a02000 	mov	r2, r0
    1ac4:	e5973000 	ldr	r3, [r7]
    1ac8:	e5c720ac 	strb	r2, [r7, #172]	; 0xac
    1acc:	e1a01005 	mov	r1, r5
    1ad0:	e1a00007 	mov	r0, r7
    1ad4:	e5933008 	ldr	r3, [r3, #8]
    1ad8:	e12fff33 	blx	r3
    1adc:	e3a02000 	mov	r2, #0
    1ae0:	e5943008 	ldr	r3, [r4, #8]
    1ae4:	e1a00004 	mov	r0, r4
    1ae8:	e5c32017 	strb	r2, [r3, #23]
    1aec:	e5943004 	ldr	r3, [r4, #4]
    1af0:	e5d32016 	ldrb	r2, [r3, #22]
    1af4:	e3520000 	cmp	r2, #0
    1af8:	03a02018 	moveq	r2, #24
    1afc:	05c32001 	strbeq	r2, [r3, #1]
    1b00:	e3a02000 	mov	r2, #0
    1b04:	e8bd47f0 	pop	{r4, r5, r6, r7, r8, r9, sl, lr}
    1b08:	e1a01002 	mov	r1, r2
    1b0c:	eafffffe 	b	1a8 <RDMHandler::CreateRespondMessage(unsigned char, unsigned short)>
    1b10:	e1a01002 	mov	r1, r2
    1b14:	e287008c 	add	r0, r7, #140	; 0x8c
    1b18:	ebfffffe 	bl	0 <RDMSubDevices::GetPersonalityCount(unsigned short)>
    1b1c:	e1580000 	cmp	r8, r0
    1b20:	83855001 	orrhi	r5, r5, #1
    1b24:	e3550000 	cmp	r5, #0
    1b28:	0a000007 	beq	1b4c <RDMHandler::SetPersonality(bool, unsigned short)+0x154>
    1b2c:	e1a00004 	mov	r0, r4
    1b30:	e8bd47f0 	pop	{r4, r5, r6, r7, r8, r9, sl, lr}
    1b34:	e3a02006 	mov	r2, #6
    1b38:	e3a01002 	mov	r1, #2
    1b3c:	eafffffe 	b	1a8 <RDMHandler::CreateRespondMessage(unsigned char, unsigned short)>
    1b40:	e3a02001 	mov	r2, #1
    1b44:	e3a01002 	mov	r1, #2
    1b48:	eafffffe 	b	1a8 <RDMHandler::CreateRespondMessage(unsigned char, unsigned short)>
    1b4c:	e5990000 	ldr	r0, [r9]
    1b50:	e1a02008 	mov	r2, r8
    1b54:	e1a01006 	mov	r1, r6
    1b58:	e280008c 	add	r0, r0, #140	; 0x8c
    1b5c:	ebfffffe 	bl	0 <RDMSubDevices::SetPersonalityCurrent(unsigned short, unsigned char)>
    1b60:	eaffffdd 	b	1adc <RDMHandler::SetPersonality(bool, unsigned short)+0xe4>
    1b64:	00000000 	andeq	r0, r0, r0

00001b68 <RDMHandler::SetIdentifyDevice(bool, unsigned short)>:
    1b68:	e5903004 	ldr	r3, [r0, #4]
    1b6c:	e5d32016 	ldrb	r2, [r3, #22]
    1b70:	e3520001 	cmp	r2, #1
    1b74:	1a000022 	bne	1c04 <RDMHandler::SetIdentifyDevice(bool, unsigned short)+0x9c>
    1b78:	e5d33017 	ldrb	r3, [r3, #23]
    1b7c:	e3530001 	cmp	r3, #1
    1b80:	8a00002d 	bhi	1c3c <RDMHandler::SetIdentifyDevice(bool, unsigned short)+0xd4>
    1b84:	e92d4070 	push	{r4, r5, r6, lr}
    1b88:	e1a05001 	mov	r5, r1
    1b8c:	e59f10c0 	ldr	r1, [pc, #192]	; 1c54 <RDMHandler::SetIdentifyDevice(bool, unsigned short)+0xec>
    1b90:	e3530000 	cmp	r3, #0
    1b94:	e5916000 	ldr	r6, [r1]
    1b98:	e59f10b8 	ldr	r1, [pc, #184]	; 1c58 <RDMHandler::SetIdentifyDevice(bool, unsigned short)+0xf0>
    1b9c:	e1a04000 	mov	r4, r0
    1ba0:	e5910000 	ldr	r0, [r1]
    1ba4:	1a000019 	bne	1c10 <RDMHandler::SetIdentifyDevice(bool, unsigned short)+0xa8>
    1ba8:	e59f20ac 	ldr	r2, [pc, #172]	; 1c5c <RDMHandler::SetIdentifyDevice(bool, unsigned short)+0xf4>
    1bac:	e3a01002 	mov	r1, #2
    1bb0:	e5c23000 	strb	r3, [r2]
    1bb4:	e1a02003 	mov	r2, r3
    1bb8:	ebfffffe 	bl	0 <Hardware::SetModeWithLock(hardware::ledblink::Mode, bool)>
    1bbc:	e59f309c 	ldr	r3, [pc, #156]	; 1c60 <RDMHandler::SetIdentifyDevice(bool, unsigned short)+0xf8>
    1bc0:	e5d31000 	ldrb	r1, [r3]
    1bc4:	e3510000 	cmp	r1, #0
    1bc8:	1a00001e 	bne	1c48 <RDMHandler::SetIdentifyDevice(bool, unsigned short)+0xe0>
    1bcc:	e3550000 	cmp	r5, #0
    1bd0:	18bd8070 	popne	{r4, r5, r6, pc}
    1bd4:	e5943008 	ldr	r3, [r4, #8]
    1bd8:	e1a00004 	mov	r0, r4
    1bdc:	e5c35017 	strb	r5, [r3, #23]
    1be0:	e5943004 	ldr	r3, [r4, #4]
    1be4:	e5d32016 	ldrb	r2, [r3, #22]
    1be8:	e3520000 	cmp	r2, #0
    1bec:	03a02018 	moveq	r2, #24
    1bf0:	05c32001 	strbeq	r2, [r3, #1]
    1bf4:	e3a02000 	mov	r2, #0
    1bf8:	e8bd4070 	pop	{r4, r5, r6, lr}
    1bfc:	e1a01002 	mov	r1, r2
    1c00:	eafffffe 	b	1a8 <RDMHandler::CreateRespondMessage(unsigned char, unsigned short)>
    1c04:	e3a02001 	mov	r2, #1
    1c08:	e3a01002 	mov	r1, #2
    1c0c:	eafffffe 	b	1a8 <RDMHandler::CreateRespondMessage(unsigned char, unsigned short)>
    1c10:	e59f3044 	ldr	r3, [pc, #68]	; 1c5c <RDMHandler::SetIdentifyDevice(bool, unsigned short)+0xf4>
    1c14:	e3a01004 	mov	r1, #4
    1c18:	e5c32000 	strb	r2, [r3]
    1c1c:	ebfffffe 	bl	0 <Hardware::SetModeWithLock(hardware::ledblink::Mode, bool)>
    1c20:	e59f3038 	ldr	r3, [pc, #56]	; 1c60 <RDMHandler::SetIdentifyDevice(bool, unsigned short)+0xf8>
    1c24:	e5d31000 	ldrb	r1, [r3]
    1c28:	e3510000 	cmp	r1, #0
    1c2c:	0affffe6 	beq	1bcc <RDMHandler::SetIdentifyDevice(bool, unsigned short)+0x64>
    1c30:	e1a00006 	mov	r0, r6
    1c34:	ebfffffe 	bl	0 <RDMIdentify::On(rdm::identify::Mode)>
    1c38:	eaffffe3 	b	1bcc <RDMHandler::SetIdentifyDevice(bool, unsigned short)+0x64>
    1c3c:	e3a02006 	mov	r2, #6
    1c40:	e3a01002 	mov	r1, #2
    1c44:	eafffffe 	b	1a8 <RDMHandler::CreateRespondMessage(unsigned char, unsigned short)>
    1c48:	e1a00006 	mov	r0, r6
    1c4c:	ebfffffe 	bl	0 <RDMIdentify::Off(rdm::identify::Mode)>
    1c50:	eaffffdd 	b	1bcc <RDMHandler::SetIdentifyDevice(bool, unsigned short)+0x64>
	...

00001c64 <RDMHandler::GetSlotDescription(unsigned short)>:
    1c64:	e92d4070 	push	{r4, r5, r6, lr}
    1c68:	e3510000 	cmp	r1, #0
    1c6c:	e1a04000 	mov	r4, r0
    1c70:	e24dd008 	sub	sp, sp, #8
    1c74:	1a000012 	bne	1cc4 <RDMHandler::GetSlotDescription(unsigned short)+0x60>
    1c78:	e59f3118 	ldr	r3, [pc, #280]	; 1d98 <RDMHandler::GetSlotDescription(unsigned short)+0x134>
    1c7c:	e5906004 	ldr	r6, [r0, #4]
    1c80:	e5932000 	ldr	r2, [r3]
    1c84:	e5d61017 	ldrb	r1, [r6, #23]
    1c88:	e5d230a9 	ldrb	r3, [r2, #169]	; 0xa9
    1c8c:	e5922094 	ldr	r2, [r2, #148]	; 0x94
    1c90:	e2433107 	sub	r3, r3, #-1073741823	; 0xc0000001
    1c94:	e7923103 	ldr	r3, [r2, r3, lsl #2]
    1c98:	e5d65018 	ldrb	r5, [r6, #24]
    1c9c:	e5930004 	ldr	r0, [r3, #4]
    1ca0:	e0855401 	add	r5, r5, r1, lsl #8
    1ca4:	e5903000 	ldr	r3, [r0]
    1ca8:	e6ff5075 	uxth	r5, r5
    1cac:	e1a01005 	mov	r1, r5
    1cb0:	e1a0200d 	mov	r2, sp
    1cb4:	e593302c 	ldr	r3, [r3, #44]	; 0x2c
    1cb8:	e12fff33 	blx	r3
    1cbc:	e3500000 	cmp	r0, #0
    1cc0:	1a000005 	bne	1cdc <RDMHandler::GetSlotDescription(unsigned short)+0x78>
    1cc4:	e3a02006 	mov	r2, #6
    1cc8:	e3a01002 	mov	r1, #2
    1ccc:	e1a00004 	mov	r0, r4
    1cd0:	ebfffffe 	bl	1a8 <RDMHandler::CreateRespondMessage(unsigned char, unsigned short)>
    1cd4:	e28dd008 	add	sp, sp, #8
    1cd8:	e8bd8070 	pop	{r4, r5, r6, pc}
    1cdc:	e1a00005 	mov	r0, r5
    1ce0:	e1dd10b0 	ldrh	r1, [sp]
    1ce4:	e28d2004 	add	r2, sp, #4
    1ce8:	ebfffffe 	bl	0 <RDMSlotInfo::GetCategoryText(unsigned short, unsigned short, unsigned int&)>
    1cec:	e3500000 	cmp	r0, #0
    1cf0:	0afffff3 	beq	1cc4 <RDMHandler::GetSlotDescription(unsigned short)+0x60>
    1cf4:	e59de004 	ldr	lr, [sp, #4]
    1cf8:	e5941008 	ldr	r1, [r4, #8]
    1cfc:	e35e0020 	cmp	lr, #32
    1d00:	8a00001b 	bhi	1d74 <RDMHandler::GetSlotDescription(unsigned short)+0x110>
    1d04:	e28e3002 	add	r3, lr, #2
    1d08:	e5c13017 	strb	r3, [r1, #23]
    1d0c:	e5d63017 	ldrb	r3, [r6, #23]
    1d10:	e35e0000 	cmp	lr, #0
    1d14:	e5c13018 	strb	r3, [r1, #24]
    1d18:	e5d63018 	ldrb	r3, [r6, #24]
    1d1c:	e5c13019 	strb	r3, [r1, #25]
    1d20:	0a000008 	beq	1d48 <RDMHandler::GetSlotDescription(unsigned short)+0xe4>
    1d24:	e2402001 	sub	r2, r0, #1
    1d28:	e2811019 	add	r1, r1, #25
    1d2c:	e1a03002 	mov	r3, r2
    1d30:	e2833002 	add	r3, r3, #2
    1d34:	e5f2c001 	ldrb	ip, [r2, #1]!
    1d38:	e0433000 	sub	r3, r3, r0
    1d3c:	e153000e 	cmp	r3, lr
    1d40:	e5e1c001 	strb	ip, [r1, #1]!
    1d44:	3afffff8 	bcc	1d2c <RDMHandler::GetSlotDescription(unsigned short)+0xc8>
    1d48:	e5943004 	ldr	r3, [r4, #4]
    1d4c:	e1a00004 	mov	r0, r4
    1d50:	e5d32016 	ldrb	r2, [r3, #22]
    1d54:	e3520000 	cmp	r2, #0
    1d58:	03a02018 	moveq	r2, #24
    1d5c:	05c32001 	strbeq	r2, [r3, #1]
    1d60:	e3a02000 	mov	r2, #0
    1d64:	e1a01002 	mov	r1, r2
    1d68:	ebfffffe 	bl	1a8 <RDMHandler::CreateRespondMessage(unsigned char, unsigned short)>
    1d6c:	e28dd008 	add	sp, sp, #8
    1d70:	e8bd8070 	pop	{r4, r5, r6, pc}
    1d74:	e3a03022 	mov	r3, #34	; 0x22
    1d78:	e3a0e020 	mov	lr, #32
    1d7c:	e5c13017 	strb	r3, [r1, #23]
    1d80:	e5d63017 	ldrb	r3, [r6, #23]
    1d84:	e58de004 	str	lr, [sp, #4]
    1d88:	e5c13018 	strb	r3, [r1, #24]
    1d8c:	e5d63018 	ldrb	r3, [r6, #24]
    1d90:	e5c13019 	strb	r3, [r1, #25]
    1d94:	eaffffe2 	b	1d24 <RDMHandler::GetSlotDescription(unsigned short)+0xc0>
    1d98:	00000000 	andeq	r0, r0, r0

00001d9c <RDMHandler::GetSensorDefinition(unsigned short)>:
    1d9c:	e92d4070 	push	{r4, r5, r6, lr}
    1da0:	e5903004 	ldr	r3, [r0, #4]
    1da4:	e1a04000 	mov	r4, r0
    1da8:	e5d36017 	ldrb	r6, [r3, #23]
    1dac:	e35600ff 	cmp	r6, #255	; 0xff
    1db0:	0a000004 	beq	1dc8 <RDMHandler::GetSensorDefinition(unsigned short)+0x2c>
    1db4:	e59f310c 	ldr	r3, [pc, #268]	; 1ec8 <RDMHandler::GetSensorDefinition(unsigned short)+0x12c>
    1db8:	e5930000 	ldr	r0, [r3]
    1dbc:	e5d03004 	ldrb	r3, [r0, #4]
    1dc0:	e1530006 	cmp	r3, r6
    1dc4:	8a000004 	bhi	1ddc <RDMHandler::GetSensorDefinition(unsigned short)+0x40>
    1dc8:	e1a00004 	mov	r0, r4
    1dcc:	e8bd4070 	pop	{r4, r5, r6, lr}
    1dd0:	e3a02006 	mov	r2, #6
    1dd4:	e3a01002 	mov	r1, #2
    1dd8:	eafffffe 	b	1a8 <RDMHandler::CreateRespondMessage(unsigned char, unsigned short)>
    1ddc:	e1a01006 	mov	r1, r6
    1de0:	e5945008 	ldr	r5, [r4, #8]
    1de4:	ebfffffe 	bl	0 <RDMSensors::GetDefintion(unsigned char)>
    1de8:	e5d03000 	ldrb	r3, [r0]
    1dec:	e1a0c000 	mov	ip, r0
    1df0:	e1530006 	cmp	r3, r6
    1df4:	1afffff3 	bne	1dc8 <RDMHandler::GetSensorDefinition(unsigned short)+0x2c>
    1df8:	e5c53018 	strb	r3, [r5, #24]
    1dfc:	e5d03001 	ldrb	r3, [r0, #1]
    1e00:	e5c53019 	strb	r3, [r5, #25]
    1e04:	e5d03002 	ldrb	r3, [r0, #2]
    1e08:	e5c5301a 	strb	r3, [r5, #26]
    1e0c:	e5d03003 	ldrb	r3, [r0, #3]
    1e10:	e5c5301b 	strb	r3, [r5, #27]
    1e14:	e1d030d5 	ldrsb	r3, [r0, #5]
    1e18:	e5c5301c 	strb	r3, [r5, #28]
    1e1c:	e1d030b4 	ldrh	r3, [r0, #4]
    1e20:	e5c5301d 	strb	r3, [r5, #29]
    1e24:	e1d030d7 	ldrsb	r3, [r0, #7]
    1e28:	e5c5301e 	strb	r3, [r5, #30]
    1e2c:	e1d030b6 	ldrh	r3, [r0, #6]
    1e30:	e5c5301f 	strb	r3, [r5, #31]
    1e34:	e1d030d9 	ldrsb	r3, [r0, #9]
    1e38:	e5c53020 	strb	r3, [r5, #32]
    1e3c:	e1d030b8 	ldrh	r3, [r0, #8]
    1e40:	e5c53021 	strb	r3, [r5, #33]	; 0x21
    1e44:	e1d030db 	ldrsb	r3, [r0, #11]
    1e48:	e5c53022 	strb	r3, [r5, #34]	; 0x22
    1e4c:	e1d030ba 	ldrh	r3, [r0, #10]
    1e50:	e5c53023 	strb	r3, [r5, #35]	; 0x23
    1e54:	e5d0302d 	ldrb	r3, [r0, #45]	; 0x2d
    1e58:	e5c53024 	strb	r3, [r5, #36]	; 0x24
    1e5c:	e5d0302c 	ldrb	r3, [r0, #44]	; 0x2c
    1e60:	e3530000 	cmp	r3, #0
    1e64:	0a000015 	beq	1ec0 <RDMHandler::GetSensorDefinition(unsigned short)+0x124>
    1e68:	e3a0200d 	mov	r2, #13
    1e6c:	e280000b 	add	r0, r0, #11
    1e70:	e2851024 	add	r1, r5, #36	; 0x24
    1e74:	e5f0e001 	ldrb	lr, [r0, #1]!
    1e78:	e242300c 	sub	r3, r2, #12
    1e7c:	e5e1e001 	strb	lr, [r1, #1]!
    1e80:	e5dce02c 	ldrb	lr, [ip, #44]	; 0x2c
    1e84:	e2822001 	add	r2, r2, #1
    1e88:	e15e0003 	cmp	lr, r3
    1e8c:	cafffff8 	bgt	1e74 <RDMHandler::GetSensorDefinition(unsigned short)+0xd8>
    1e90:	e6ef2072 	uxtb	r2, r2
    1e94:	e5c52017 	strb	r2, [r5, #23]
    1e98:	e5943004 	ldr	r3, [r4, #4]
    1e9c:	e1a00004 	mov	r0, r4
    1ea0:	e5d32016 	ldrb	r2, [r3, #22]
    1ea4:	e3520000 	cmp	r2, #0
    1ea8:	03a02018 	moveq	r2, #24
    1eac:	05c32001 	strbeq	r2, [r3, #1]
    1eb0:	e3a02000 	mov	r2, #0
    1eb4:	e8bd4070 	pop	{r4, r5, r6, lr}
    1eb8:	e1a01002 	mov	r1, r2
    1ebc:	eafffffe 	b	1a8 <RDMHandler::CreateRespondMessage(unsigned char, unsigned short)>
    1ec0:	e3a0200d 	mov	r2, #13
    1ec4:	eafffff2 	b	1e94 <RDMHandler::GetSensorDefinition(unsigned short)+0xf8>
    1ec8:	00000000 	andeq	r0, r0, r0

00001ecc <RDMHandler::SetPowerState(bool, unsigned short)>:
    1ecc:	e5902004 	ldr	r2, [r0, #4]
    1ed0:	e5d21016 	ldrb	r1, [r2, #22]
    1ed4:	e3510001 	cmp	r1, #1
    1ed8:	1a000009 	bne	1f04 <RDMHandler::SetPowerState(bool, unsigned short)+0x38>
    1edc:	e5d21017 	ldrb	r1, [r2, #23]
    1ee0:	e2412003 	sub	r2, r1, #3
    1ee4:	e6ef2072 	uxtb	r2, r2
    1ee8:	e35200fb 	cmp	r2, #251	; 0xfb
    1eec:	9a000012 	bls	1f3c <RDMHandler::SetPowerState(bool, unsigned short)+0x70>
    1ef0:	e35100ff 	cmp	r1, #255	; 0xff
    1ef4:	0a000005 	beq	1f10 <RDMHandler::SetPowerState(bool, unsigned short)+0x44>
    1ef8:	e3a02004 	mov	r2, #4
    1efc:	e3a01002 	mov	r1, #2
    1f00:	eafffffe 	b	1a8 <RDMHandler::CreateRespondMessage(unsigned char, unsigned short)>
    1f04:	e3a02001 	mov	r2, #1
    1f08:	e3a01002 	mov	r1, #2
    1f0c:	eafffffe 	b	1a8 <RDMHandler::CreateRespondMessage(unsigned char, unsigned short)>
    1f10:	e3a01000 	mov	r1, #0
    1f14:	e5902008 	ldr	r2, [r0, #8]
    1f18:	e5c21017 	strb	r1, [r2, #23]
    1f1c:	e5902004 	ldr	r2, [r0, #4]
    1f20:	e5d21016 	ldrb	r1, [r2, #22]
    1f24:	e3510000 	cmp	r1, #0
    1f28:	03a01018 	moveq	r1, #24
    1f2c:	05c21001 	strbeq	r1, [r2, #1]
    1f30:	e3a02000 	mov	r2, #0
    1f34:	e1a01002 	mov	r1, r2
    1f38:	eafffffe 	b	1a8 <RDMHandler::CreateRespondMessage(unsigned char, unsigned short)>
    1f3c:	e3a02006 	mov	r2, #6
    1f40:	e3a01002 	mov	r1, #2
    1f44:	eafffffe 	b	1a8 <RDMHandler::CreateRespondMessage(unsigned char, unsigned short)>

00001f48 <RDMHandler::SetDmxStartAddress(bool, unsigned short)>:
    1f48:	e1a03002 	mov	r3, r2
    1f4c:	e5902004 	ldr	r2, [r0, #4]
    1f50:	e5d2c016 	ldrb	ip, [r2, #22]
    1f54:	e35c0002 	cmp	ip, #2
    1f58:	1a000032 	bne	2028 <RDMHandler::SetDmxStartAddress(bool, unsigned short)+0xe0>
    1f5c:	e92d41f0 	push	{r4, r5, r6, r7, r8, lr}
    1f60:	e1a06001 	mov	r6, r1
    1f64:	e5d25018 	ldrb	r5, [r2, #24]
    1f68:	e5d21017 	ldrb	r1, [r2, #23]
    1f6c:	e0855401 	add	r5, r5, r1, lsl #8
    1f70:	e6ff5075 	uxth	r5, r5
    1f74:	e2452001 	sub	r2, r5, #1
    1f78:	e3520c02 	cmp	r2, #512	; 0x200
    1f7c:	2a000025 	bcs	2018 <RDMHandler::SetDmxStartAddress(bool, unsigned short)+0xd0>
    1f80:	e59f20c0 	ldr	r2, [pc, #192]	; 2048 <RDMHandler::SetDmxStartAddress(bool, unsigned short)+0x100>
    1f84:	e3530000 	cmp	r3, #0
    1f88:	e1a04000 	mov	r4, r0
    1f8c:	e5927000 	ldr	r7, [r2]
    1f90:	1a000027 	bne	2034 <RDMHandler::SetDmxStartAddress(bool, unsigned short)+0xec>
    1f94:	e5d730a9 	ldrb	r3, [r7, #169]	; 0xa9
    1f98:	e5972094 	ldr	r2, [r7, #148]	; 0x94
    1f9c:	e2433107 	sub	r3, r3, #-1073741823	; 0xc0000001
    1fa0:	e7923103 	ldr	r3, [r2, r3, lsl #2]
    1fa4:	e5930004 	ldr	r0, [r3, #4]
    1fa8:	e3500000 	cmp	r0, #0
    1fac:	0a00000b 	beq	1fe0 <RDMHandler::SetDmxStartAddress(bool, unsigned short)+0x98>
    1fb0:	e5903000 	ldr	r3, [r0]
    1fb4:	e1a01005 	mov	r1, r5
    1fb8:	e5933020 	ldr	r3, [r3, #32]
    1fbc:	e12fff33 	blx	r3
    1fc0:	e3500000 	cmp	r0, #0
    1fc4:	11a03425 	lsrne	r3, r5, #8
    1fc8:	15c730ab 	strbne	r3, [r7, #171]	; 0xab
    1fcc:	e5973000 	ldr	r3, [r7]
    1fd0:	15c750ac 	strbne	r5, [r7, #172]	; 0xac
    1fd4:	e1a00007 	mov	r0, r7
    1fd8:	e593300c 	ldr	r3, [r3, #12]
    1fdc:	e12fff33 	blx	r3
    1fe0:	e3560000 	cmp	r6, #0
    1fe4:	18bd81f0 	popne	{r4, r5, r6, r7, r8, pc}
    1fe8:	e5943008 	ldr	r3, [r4, #8]
    1fec:	e1a00004 	mov	r0, r4
    1ff0:	e5c36017 	strb	r6, [r3, #23]
    1ff4:	e5943004 	ldr	r3, [r4, #4]
    1ff8:	e5d32016 	ldrb	r2, [r3, #22]
    1ffc:	e3520000 	cmp	r2, #0
    2000:	03a02018 	moveq	r2, #24
    2004:	05c32001 	strbeq	r2, [r3, #1]
    2008:	e3a02000 	mov	r2, #0
    200c:	e8bd41f0 	pop	{r4, r5, r6, r7, r8, lr}
    2010:	e1a01002 	mov	r1, r2
    2014:	eafffffe 	b	1a8 <RDMHandler::CreateRespondMessage(unsigned char, unsigned short)>
    2018:	e3a02006 	mov	r2, #6
    201c:	e8bd41f0 	pop	{r4, r5, r6, r7, r8, lr}
    2020:	e1a0100c 	mov	r1, ip
    2024:	eafffffe 	b	1a8 <RDMHandler::CreateRespondMessage(unsigned char, unsigned short)>
    2028:	e3a02001 	mov	r2, #1
    202c:	e3a01002 	mov	r1, #2
    2030:	eafffffe 	b	1a8 <RDMHandler::CreateRespondMessage(unsigned char, unsigned short)>
    2034:	e1a02005 	mov	r2, r5
    2038:	e1a01003 	mov	r1, r3
    203c:	e287008c 	add	r0, r7, #140	; 0x8c
    2040:	ebfffffe 	bl	0 <RDMSubDevices::SetDmxStartAddress(unsigned short, unsigned short)>
    2044:	eaffffe5 	b	1fe0 <RDMHandler::SetDmxStartAddress(bool, unsigned short)+0x98>
    2048:	00000000 	andeq	r0, r0, r0

0000204c <RDMHandler::SetLanguage(bool, unsigned short)>:
    204c:	e5902004 	ldr	r2, [r0, #4]
    2050:	e5d2c016 	ldrb	ip, [r2, #22]
    2054:	e35c0002 	cmp	ip, #2
    2058:	1a00001e 	bne	20d8 <RDMHandler::SetLanguage(bool, unsigned short)+0x8c>
    205c:	e52de004 	push	{lr}		; (str lr, [sp, #-4]!)
    2060:	e1a03000 	mov	r3, r0
    2064:	e59f0078 	ldr	r0, [pc, #120]	; 20e4 <RDMHandler::SetLanguage(bool, unsigned short)+0x98>
    2068:	e5d2e017 	ldrb	lr, [r2, #23]
    206c:	e5900000 	ldr	r0, [r0]
    2070:	e5d0c0c3 	ldrb	ip, [r0, #195]	; 0xc3
    2074:	e15e000c 	cmp	lr, ip
    2078:	1a000011 	bne	20c4 <RDMHandler::SetLanguage(bool, unsigned short)+0x78>
    207c:	e5d2c018 	ldrb	ip, [r2, #24]
    2080:	e5d020c4 	ldrb	r2, [r0, #196]	; 0xc4
    2084:	e15c0002 	cmp	ip, r2
    2088:	1a00000d 	bne	20c4 <RDMHandler::SetLanguage(bool, unsigned short)+0x78>
    208c:	e3510000 	cmp	r1, #0
    2090:	149df004 	popne	{pc}		; (ldrne pc, [sp], #4)
    2094:	e5932008 	ldr	r2, [r3, #8]
    2098:	e1a00003 	mov	r0, r3
    209c:	e5c21017 	strb	r1, [r2, #23]
    20a0:	e5932004 	ldr	r2, [r3, #4]
    20a4:	e5d21016 	ldrb	r1, [r2, #22]
    20a8:	e3510000 	cmp	r1, #0
    20ac:	03a01018 	moveq	r1, #24
    20b0:	05c21001 	strbeq	r1, [r2, #1]
    20b4:	e3a02000 	mov	r2, #0
    20b8:	e49de004 	pop	{lr}		; (ldr lr, [sp], #4)
    20bc:	e1a01002 	mov	r1, r2
    20c0:	eafffffe 	b	1a8 <RDMHandler::CreateRespondMessage(unsigned char, unsigned short)>
    20c4:	e3a02006 	mov	r2, #6
    20c8:	e3a01002 	mov	r1, #2
    20cc:	e1a00003 	mov	r0, r3
    20d0:	e49de004 	pop	{lr}		; (ldr lr, [sp], #4)
    20d4:	eafffffe 	b	1a8 <RDMHandler::CreateRespondMessage(unsigned char, unsigned short)>
    20d8:	e3a02001 	mov	r2, #1
    20dc:	e3a01002 	mov	r1, #2
    20e0:	eafffffe 	b	1a8 <RDMHandler::CreateRespondMessage(unsigned char, unsigned short)>
    20e4:	00000000 	andeq	r0, r0, r0

000020e8 <RDMHandler::GetSensorValue(unsigned short)>:
    20e8:	e5903004 	ldr	r3, [r0, #4]
    20ec:	e5d32016 	ldrb	r2, [r3, #22]
    20f0:	e3520001 	cmp	r2, #1
    20f4:	1a000034 	bne	21cc <RDMHandler::GetSensorValue(unsigned short)+0xe4>
    20f8:	e92d4070 	push	{r4, r5, r6, lr}
    20fc:	e5d35017 	ldrb	r5, [r3, #23]
    2100:	e1a04000 	mov	r4, r0
    2104:	e35500ff 	cmp	r5, #255	; 0xff
    2108:	0a000004 	beq	2120 <RDMHandler::GetSensorValue(unsigned short)+0x38>
    210c:	e59f30c4 	ldr	r3, [pc, #196]	; 21d8 <RDMHandler::GetSensorValue(unsigned short)+0xf0>
    2110:	e5930000 	ldr	r0, [r3]
    2114:	e5d03004 	ldrb	r3, [r0, #4]
    2118:	e1530005 	cmp	r3, r5
    211c:	8a000004 	bhi	2134 <RDMHandler::GetSensorValue(unsigned short)+0x4c>
    2120:	e1a00004 	mov	r0, r4
    2124:	e8bd4070 	pop	{r4, r5, r6, lr}
    2128:	e3a02006 	mov	r2, #6
    212c:	e3a01002 	mov	r1, #2
    2130:	eafffffe 	b	1a8 <RDMHandler::CreateRespondMessage(unsigned char, unsigned short)>
    2134:	e1a01005 	mov	r1, r5
    2138:	e5946008 	ldr	r6, [r4, #8]
    213c:	ebfffffe 	bl	0 <RDMSensors::GetValues(unsigned char)>
    2140:	e5d03008 	ldrb	r3, [r0, #8]
    2144:	e1530005 	cmp	r3, r5
    2148:	1afffff4 	bne	2120 <RDMHandler::GetSensorValue(unsigned short)+0x38>
    214c:	e3a02009 	mov	r2, #9
    2150:	e3a03021 	mov	r3, #33	; 0x21
    2154:	e5c62017 	strb	r2, [r6, #23]
    2158:	e5c63002 	strb	r3, [r6, #2]
    215c:	e5d03008 	ldrb	r3, [r0, #8]
    2160:	e5c63018 	strb	r3, [r6, #24]
    2164:	e1d030d1 	ldrsb	r3, [r0, #1]
    2168:	e5c63019 	strb	r3, [r6, #25]
    216c:	e1d030b0 	ldrh	r3, [r0]
    2170:	e5c6301a 	strb	r3, [r6, #26]
    2174:	e1d030d3 	ldrsb	r3, [r0, #3]
    2178:	e5c6301b 	strb	r3, [r6, #27]
    217c:	e1d030b2 	ldrh	r3, [r0, #2]
    2180:	e5c6301c 	strb	r3, [r6, #28]
    2184:	e1d030d5 	ldrsb	r3, [r0, #5]
    2188:	e5c6301d 	strb	r3, [r6, #29]
    218c:	e1d030b4 	ldrh	r3, [r0, #4]
    2190:	e5c6301e 	strb	r3, [r6, #30]
    2194:	e1d030d7 	ldrsb	r3, [r0, #7]
    2198:	e5c6301f 	strb	r3, [r6, #31]
    219c:	e1d030b6 	ldrh	r3, [r0, #6]
    21a0:	e1a00004 	mov	r0, r4
    21a4:	e5c63020 	strb	r3, [r6, #32]
    21a8:	e5943004 	ldr	r3, [r4, #4]
    21ac:	e5d32016 	ldrb	r2, [r3, #22]
    21b0:	e3520000 	cmp	r2, #0
    21b4:	03a02018 	moveq	r2, #24
    21b8:	05c32001 	strbeq	r2, [r3, #1]
    21bc:	e3a02000 	mov	r2, #0
    21c0:	e8bd4070 	pop	{r4, r5, r6, lr}
    21c4:	e1a01002 	mov	r1, r2
    21c8:	eafffffe 	b	1a8 <RDMHandler::CreateRespondMessage(unsigned char, unsigned short)>
    21cc:	e3a02001 	mov	r2, #1
    21d0:	e3a01002 	mov	r1, #2
    21d4:	eafffffe 	b	1a8 <RDMHandler::CreateRespondMessage(unsigned char, unsigned short)>
    21d8:	00000000 	andeq	r0, r0, r0

000021dc <RDMHandler::SetFactoryDefaults(bool, unsigned short)>:
    21dc:	e5903004 	ldr	r3, [r0, #4]
    21e0:	e5d33016 	ldrb	r3, [r3, #22]
    21e4:	e3530000 	cmp	r3, #0
    21e8:	1a000087 	bne	240c <RDMHandler::SetFactoryDefaults(bool, unsigned short)+0x230>
    21ec:	e92d41f0 	push	{r4, r5, r6, r7, r8, lr}
    21f0:	e59f3228 	ldr	r3, [pc, #552]	; 2420 <RDMHandler::SetFactoryDefaults(bool, unsigned short)+0x244>
    21f4:	e1a05001 	mov	r5, r1
    21f8:	e5934000 	ldr	r4, [r3]
    21fc:	e1a06000 	mov	r6, r0
    2200:	e5d43076 	ldrb	r3, [r4, #118]	; 0x76
    2204:	e5d41004 	ldrb	r1, [r4, #4]
    2208:	e3530020 	cmp	r3, #32
    220c:	31a02003 	movcc	r2, r3
    2210:	23a02020 	movcs	r2, #32
    2214:	e3510000 	cmp	r1, #0
    2218:	e1a0c002 	mov	ip, r2
    221c:	1a000066 	bne	23bc <RDMHandler::SetFactoryDefaults(bool, unsigned short)+0x1e0>
    2220:	e5d4c02f 	ldrb	ip, [r4, #47]	; 0x2f
    2224:	e5c42076 	strb	r2, [r4, #118]	; 0x76
    2228:	e35c0000 	cmp	ip, #0
    222c:	e6ff2072 	uxth	r2, r2
    2230:	0a000006 	beq	2250 <RDMHandler::SetFactoryDefaults(bool, unsigned short)+0x74>
    2234:	e284300e 	add	r3, r4, #14
    2238:	e083000c 	add	r0, r3, ip
    223c:	e5f31001 	ldrb	r1, [r3, #1]!
    2240:	e0822001 	add	r2, r2, r1
    2244:	e1500003 	cmp	r0, r3
    2248:	e6ff2072 	uxth	r2, r2
    224c:	1afffffa 	bne	223c <RDMHandler::SetFactoryDefaults(bool, unsigned short)+0x60>
    2250:	e3a01001 	mov	r1, #1
    2254:	e5943094 	ldr	r3, [r4, #148]	; 0x94
    2258:	e5c410a9 	strb	r1, [r4, #169]	; 0xa9
    225c:	e5933000 	ldr	r3, [r3]
    2260:	e1c427b8 	strh	r2, [r4, #120]	; 0x78
    2264:	e5937004 	ldr	r7, [r3, #4]
    2268:	e3570000 	cmp	r7, #0
    226c:	0a000035 	beq	2348 <RDMHandler::SetFactoryDefaults(bool, unsigned short)+0x16c>
    2270:	e5973000 	ldr	r3, [r7]
    2274:	e1a00007 	mov	r0, r7
    2278:	e5933028 	ldr	r3, [r3, #40]	; 0x28
    227c:	e12fff33 	blx	r3
    2280:	e1a03000 	mov	r3, r0
    2284:	e1a03423 	lsr	r3, r3, #8
    2288:	e5c430a7 	strb	r3, [r4, #167]	; 0xa7
    228c:	e5973000 	ldr	r3, [r7]
    2290:	e1a00007 	mov	r0, r7
    2294:	e5933028 	ldr	r3, [r3, #40]	; 0x28
    2298:	e12fff33 	blx	r3
    229c:	e1a03000 	mov	r3, r0
    22a0:	e5c430a8 	strb	r3, [r4, #168]	; 0xa8
    22a4:	e5973000 	ldr	r3, [r7]
    22a8:	e1a00007 	mov	r0, r7
    22ac:	e5933024 	ldr	r3, [r3, #36]	; 0x24
    22b0:	e12fff33 	blx	r3
    22b4:	e1a03000 	mov	r3, r0
    22b8:	e1a03423 	lsr	r3, r3, #8
    22bc:	e5c430ab 	strb	r3, [r4, #171]	; 0xab
    22c0:	e5973000 	ldr	r3, [r7]
    22c4:	e1a00007 	mov	r0, r7
    22c8:	e5933024 	ldr	r3, [r3, #36]	; 0x24
    22cc:	e12fff33 	blx	r3
    22d0:	e1a02000 	mov	r2, r0
    22d4:	e5943000 	ldr	r3, [r4]
    22d8:	e5c420ac 	strb	r2, [r4, #172]	; 0xac
    22dc:	e1a01007 	mov	r1, r7
    22e0:	e5933008 	ldr	r3, [r3, #8]
    22e4:	e1a00004 	mov	r0, r4
    22e8:	e12fff33 	blx	r3
    22ec:	e1d47cb8 	ldrh	r7, [r4, #200]	; 0xc8
    22f0:	e2473001 	sub	r3, r7, #1
    22f4:	e3530c02 	cmp	r3, #512	; 0x200
    22f8:	2a000012 	bcs	2348 <RDMHandler::SetFactoryDefaults(bool, unsigned short)+0x16c>
    22fc:	e5d430a9 	ldrb	r3, [r4, #169]	; 0xa9
    2300:	e5942094 	ldr	r2, [r4, #148]	; 0x94
    2304:	e2433107 	sub	r3, r3, #-1073741823	; 0xc0000001
    2308:	e7923103 	ldr	r3, [r2, r3, lsl #2]
    230c:	e5930004 	ldr	r0, [r3, #4]
    2310:	e3500000 	cmp	r0, #0
    2314:	0a00000b 	beq	2348 <RDMHandler::SetFactoryDefaults(bool, unsigned short)+0x16c>
    2318:	e5903000 	ldr	r3, [r0]
    231c:	e1a01007 	mov	r1, r7
    2320:	e5933020 	ldr	r3, [r3, #32]
    2324:	e12fff33 	blx	r3
    2328:	e3500000 	cmp	r0, #0
    232c:	11a03427 	lsrne	r3, r7, #8
    2330:	15c430ab 	strbne	r3, [r4, #171]	; 0xab
    2334:	e5943000 	ldr	r3, [r4]
    2338:	15c470ac 	strbne	r7, [r4, #172]	; 0xac
    233c:	e1a00004 	mov	r0, r4
    2340:	e593300c 	ldr	r3, [r3, #12]
    2344:	e12fff33 	blx	r3
    2348:	e284309d 	add	r3, r4, #157	; 0x9d
    234c:	e28410b0 	add	r1, r4, #176	; 0xb0
    2350:	e4d32001 	ldrb	r2, [r3], #1
    2354:	e1530001 	cmp	r3, r1
    2358:	e5c32012 	strb	r2, [r3, #18]
    235c:	1afffffb 	bne	2350 <RDMHandler::SetFactoryDefaults(bool, unsigned short)+0x174>
    2360:	e284008c 	add	r0, r4, #140	; 0x8c
    2364:	ebfffffe 	bl	0 <RDMSubDevices::SetFactoryDefaults()>
    2368:	e5d420a9 	ldrb	r2, [r4, #169]	; 0xa9
    236c:	e5d430ac 	ldrb	r3, [r4, #172]	; 0xac
    2370:	e0833002 	add	r3, r3, r2
    2374:	e3a02001 	mov	r2, #1
    2378:	e1c43cb6 	strh	r3, [r4, #198]	; 0xc6
    237c:	e5c420c5 	strb	r2, [r4, #197]	; 0xc5
    2380:	ebfffffe 	bl	0 <rdm::device::responder::factorydefaults()>
    2384:	e3550000 	cmp	r5, #0
    2388:	18bd81f0 	popne	{r4, r5, r6, r7, r8, pc}
    238c:	e5963008 	ldr	r3, [r6, #8]
    2390:	e1a00006 	mov	r0, r6
    2394:	e5c35017 	strb	r5, [r3, #23]
    2398:	e5963004 	ldr	r3, [r6, #4]
    239c:	e5d32016 	ldrb	r2, [r3, #22]
    23a0:	e3520000 	cmp	r2, #0
    23a4:	03a02018 	moveq	r2, #24
    23a8:	05c32001 	strbeq	r2, [r3, #1]
    23ac:	e3a02000 	mov	r2, #0
    23b0:	e8bd41f0 	pop	{r4, r5, r6, r7, r8, lr}
    23b4:	e1a01002 	mov	r1, r2
    23b8:	eafffffe 	b	1a8 <RDMHandler::CreateRespondMessage(unsigned char, unsigned short)>
    23bc:	e3530000 	cmp	r3, #0
    23c0:	1282e056 	addne	lr, r2, #86	; 0x56
    23c4:	e284100f 	add	r1, r4, #15
    23c8:	16e4e07e 	uxtabne	lr, r4, lr
    23cc:	12843056 	addne	r3, r4, #86	; 0x56
    23d0:	0a000003 	beq	23e4 <RDMHandler::SetFactoryDefaults(bool, unsigned short)+0x208>
    23d4:	e4d30001 	ldrb	r0, [r3], #1
    23d8:	e153000e 	cmp	r3, lr
    23dc:	e5430048 	strb	r0, [r3, #-72]	; 0xffffffb8
    23e0:	1afffffb 	bne	23d4 <RDMHandler::SetFactoryDefaults(bool, unsigned short)+0x1f8>
    23e4:	e594007c 	ldr	r0, [r4, #124]	; 0x7c
    23e8:	e5c4202f 	strb	r2, [r4, #47]	; 0x2f
    23ec:	e3500000 	cmp	r0, #0
    23f0:	0a000008 	beq	2418 <RDMHandler::SetFactoryDefaults(bool, unsigned short)+0x23c>
    23f4:	e5903000 	ldr	r3, [r0]
    23f8:	e5933008 	ldr	r3, [r3, #8]
    23fc:	e12fff33 	blx	r3
    2400:	e5d42076 	ldrb	r2, [r4, #118]	; 0x76
    2404:	e5d4c02f 	ldrb	ip, [r4, #47]	; 0x2f
    2408:	eaffff86 	b	2228 <RDMHandler::SetFactoryDefaults(bool, unsigned short)+0x4c>
    240c:	e3a02001 	mov	r2, #1
    2410:	e3a01002 	mov	r1, #2
    2414:	eafffffe 	b	1a8 <RDMHandler::CreateRespondMessage(unsigned char, unsigned short)>
    2418:	e5d42076 	ldrb	r2, [r4, #118]	; 0x76
    241c:	eaffff81 	b	2228 <RDMHandler::SetFactoryDefaults(bool, unsigned short)+0x4c>
    2420:	00000000 	andeq	r0, r0, r0

00002424 <RDMHandler::SetSensorValue(bool, unsigned short)>:
    2424:	e5903004 	ldr	r3, [r0, #4]
    2428:	e5d32016 	ldrb	r2, [r3, #22]
    242c:	e3520001 	cmp	r2, #1
    2430:	1a000034 	bne	2508 <RDMHandler::SetSensorValue(bool, unsigned short)+0xe4>
    2434:	e92d41f0 	push	{r4, r5, r6, r7, r8, lr}
    2438:	e5d36017 	ldrb	r6, [r3, #23]
    243c:	e59f7140 	ldr	r7, [pc, #320]	; 2584 <RDMHandler::SetSensorValue(bool, unsigned short)+0x160>
    2440:	e35600ff 	cmp	r6, #255	; 0xff
    2444:	e1a04000 	mov	r4, r0
    2448:	e1a05001 	mov	r5, r1
    244c:	e5973000 	ldr	r3, [r7]
    2450:	0a000033 	beq	2524 <RDMHandler::SetSensorValue(bool, unsigned short)+0x100>
    2454:	e5d32004 	ldrb	r2, [r3, #4]
    2458:	e1520006 	cmp	r2, r6
    245c:	9a00002c 	bls	2514 <RDMHandler::SetSensorValue(bool, unsigned short)+0xf0>
    2460:	e1a00003 	mov	r0, r3
    2464:	e1a01006 	mov	r1, r6
    2468:	ebfffffe 	bl	0 <RDMSensors::SetValues(unsigned char)>
    246c:	e3550000 	cmp	r5, #0
    2470:	18bd81f0 	popne	{r4, r5, r6, r7, r8, pc}
    2474:	e1a01006 	mov	r1, r6
    2478:	e5970000 	ldr	r0, [r7]
    247c:	e5945008 	ldr	r5, [r4, #8]
    2480:	ebfffffe 	bl	0 <RDMSensors::GetValues(unsigned char)>
    2484:	e3a02009 	mov	r2, #9
    2488:	e3a03021 	mov	r3, #33	; 0x21
    248c:	e5c52017 	strb	r2, [r5, #23]
    2490:	e5c53002 	strb	r3, [r5, #2]
    2494:	e5d03008 	ldrb	r3, [r0, #8]
    2498:	e5c53018 	strb	r3, [r5, #24]
    249c:	e1d030d1 	ldrsb	r3, [r0, #1]
    24a0:	e5c53019 	strb	r3, [r5, #25]
    24a4:	e1d030b0 	ldrh	r3, [r0]
    24a8:	e5c5301a 	strb	r3, [r5, #26]
    24ac:	e1d030d3 	ldrsb	r3, [r0, #3]
    24b0:	e5c5301b 	strb	r3, [r5, #27]
    24b4:	e1d030b2 	ldrh	r3, [r0, #2]
    24b8:	e5c5301c 	strb	r3, [r5, #28]
    24bc:	e1d030d5 	ldrsb	r3, [r0, #5]
    24c0:	e5c5301d 	strb	r3, [r5, #29]
    24c4:	e1d030b4 	ldrh	r3, [r0, #4]
    24c8:	e5c5301e 	strb	r3, [r5, #30]
    24cc:	e1d030d7 	ldrsb	r3, [r0, #7]
    24d0:	e5c5301f 	strb	r3, [r5, #31]
    24d4:	e1d030b6 	ldrh	r3, [r0, #6]
    24d8:	e5c53020 	strb	r3, [r5, #32]
    24dc:	e5943004 	ldr	r3, [r4, #4]
    24e0:	e5d32016 	ldrb	r2, [r3, #22]
    24e4:	e3520000 	cmp	r2, #0
    24e8:	1a000001 	bne	24f4 <RDMHandler::SetSensorValue(bool, unsigned short)+0xd0>
    24ec:	e3a02018 	mov	r2, #24
    24f0:	e5c32001 	strb	r2, [r3, #1]
    24f4:	e3a02000 	mov	r2, #0
    24f8:	e1a00004 	mov	r0, r4
    24fc:	e8bd41f0 	pop	{r4, r5, r6, r7, r8, lr}
    2500:	e1a01002 	mov	r1, r2
    2504:	eafffffe 	b	1a8 <RDMHandler::CreateRespondMessage(unsigned char, unsigned short)>
    2508:	e3a02001 	mov	r2, #1
    250c:	e3a01002 	mov	r1, #2
    2510:	eafffffe 	b	1a8 <RDMHandler::CreateRespondMessage(unsigned char, unsigned short)>
    2514:	e3a02006 	mov	r2, #6
    2518:	e8bd41f0 	pop	{r4, r5, r6, r7, r8, lr}
    251c:	e3a01002 	mov	r1, #2
    2520:	eafffffe 	b	1a8 <RDMHandler::CreateRespondMessage(unsigned char, unsigned short)>
    2524:	e1a01006 	mov	r1, r6
    2528:	e1a00003 	mov	r0, r3
    252c:	ebfffffe 	bl	0 <RDMSensors::SetValues(unsigned char)>
    2530:	e3550000 	cmp	r5, #0
    2534:	18bd81f0 	popne	{r4, r5, r6, r7, r8, pc}
    2538:	e3a02021 	mov	r2, #33	; 0x21
    253c:	e3a01009 	mov	r1, #9
    2540:	e5943008 	ldr	r3, [r4, #8]
    2544:	e5c32002 	strb	r2, [r3, #2]
    2548:	e5c35018 	strb	r5, [r3, #24]
    254c:	e5c35019 	strb	r5, [r3, #25]
    2550:	e5c3501a 	strb	r5, [r3, #26]
    2554:	e5c3501b 	strb	r5, [r3, #27]
    2558:	e5c3501c 	strb	r5, [r3, #28]
    255c:	e5c3501d 	strb	r5, [r3, #29]
    2560:	e5c3501e 	strb	r5, [r3, #30]
    2564:	e5c3501f 	strb	r5, [r3, #31]
    2568:	e5c35020 	strb	r5, [r3, #32]
    256c:	e5c31017 	strb	r1, [r3, #23]
    2570:	e5943004 	ldr	r3, [r4, #4]
    2574:	e5d32016 	ldrb	r2, [r3, #22]
    2578:	e3520000 	cmp	r2, #0
    257c:	0affffda 	beq	24ec <RDMHandler::SetSensorValue(bool, unsigned short)+0xc8>
    2580:	eaffffdb 	b	24f4 <RDMHandler::SetSensorValue(bool, unsigned short)+0xd0>
    2584:	00000000 	andeq	r0, r0, r0

00002588 <RDMHandler::RespondMessageAck()>:
    2588:	e5903004 	ldr	r3, [r0, #4]
    258c:	e5d32016 	ldrb	r2, [r3, #22]
    2590:	e3520000 	cmp	r2, #0
    2594:	03a02018 	moveq	r2, #24
    2598:	05c32001 	strbeq	r2, [r3, #1]
    259c:	e3a02000 	mov	r2, #0
    25a0:	e1a01002 	mov	r1, r2
    25a4:	eafffffe 	b	1a8 <RDMHandler::CreateRespondMessage(unsigned char, unsigned short)>

000025a8 <RDMHandler::RespondMessageNack(unsigned short)>:
    25a8:	e1a02001 	mov	r2, r1
    25ac:	e3a01002 	mov	r1, #2
    25b0:	eafffffe 	b	1a8 <RDMHandler::CreateRespondMessage(unsigned char, unsigned short)>

000025b4 <RDMHandler::Handlers(bool, unsigned char, unsigned short, unsigned char, unsigned short)>:
    25b4:	e92d43f0 	push	{r4, r5, r6, r7, r8, r9, lr}
    25b8:	e202c0ef 	and	ip, r2, #239	; 0xef
    25bc:	e35c0020 	cmp	ip, #32
    25c0:	e5dd901c 	ldrb	r9, [sp, #28]
    25c4:	e1dd82b0 	ldrh	r8, [sp, #32]
    25c8:	1a000031 	bne	2694 <RDMHandler::Handlers(bool, unsigned char, unsigned short, unsigned char, unsigned short)+0xe0>
    25cc:	e59fc174 	ldr	ip, [pc, #372]	; 2748 <RDMHandler::Handlers(bool, unsigned char, unsigned short, unsigned char, unsigned short)+0x194>
    25d0:	e59cc000 	ldr	ip, [ip]
    25d4:	e1dce0b4 	ldrh	lr, [ip, #4]
    25d8:	e59fc16c 	ldr	ip, [pc, #364]	; 274c <RDMHandler::Handlers(bool, unsigned char, unsigned short, unsigned char, unsigned short)+0x198>
    25dc:	e158000c 	cmp	r8, ip
    25e0:	115e0008 	cmpne	lr, r8
    25e4:	3a000033 	bcc	26b8 <RDMHandler::Handlers(bool, unsigned char, unsigned short, unsigned char, unsigned short)+0x104>
    25e8:	e3a07000 	mov	r7, #0
    25ec:	e59fc15c 	ldr	ip, [pc, #348]	; 2750 <RDMHandler::Handlers(bool, unsigned char, unsigned short, unsigned char, unsigned short)+0x19c>
    25f0:	e1a06007 	mov	r6, r7
    25f4:	e3a0e060 	mov	lr, #96	; 0x60
    25f8:	e1a05007 	mov	r5, r7
    25fc:	e28c4fa2 	add	r4, ip, #648	; 0x288
    2600:	ea000000 	b	2608 <RDMHandler::Handlers(bool, unsigned char, unsigned short, unsigned char, unsigned short)+0x54>
    2604:	e1fce1b8 	ldrh	lr, [ip, #24]!
    2608:	e15e0003 	cmp	lr, r3
    260c:	01a0500c 	moveq	r5, ip
    2610:	05dc7016 	ldrbeq	r7, [ip, #22]
    2614:	05dc6017 	ldrbeq	r6, [ip, #23]
    2618:	e154000c 	cmp	r4, ip
    261c:	1afffff8 	bne	2604 <RDMHandler::Handlers(bool, unsigned char, unsigned short, unsigned char, unsigned short)+0x50>
    2620:	e3550000 	cmp	r5, #0
    2624:	0a000013 	beq	2678 <RDMHandler::Handlers(bool, unsigned char, unsigned short, unsigned char, unsigned short)+0xc4>
    2628:	e5d03000 	ldrb	r3, [r0]
    262c:	e3530000 	cmp	r3, #0
    2630:	1a00000e 	bne	2670 <RDMHandler::Handlers(bool, unsigned char, unsigned short, unsigned char, unsigned short)+0xbc>
    2634:	e3560000 	cmp	r6, #0
    2638:	0a00000e 	beq	2678 <RDMHandler::Handlers(bool, unsigned char, unsigned short, unsigned char, unsigned short)+0xc4>
    263c:	e3520020 	cmp	r2, #32
    2640:	0a000020 	beq	26c8 <RDMHandler::Handlers(bool, unsigned char, unsigned short, unsigned char, unsigned short)+0x114>
    2644:	e595300c 	ldr	r3, [r5, #12]
    2648:	e5952010 	ldr	r2, [r5, #16]
    264c:	e3530000 	cmp	r3, #0
    2650:	e202c001 	and	ip, r2, #1
    2654:	0a00000b 	beq	2688 <RDMHandler::Handlers(bool, unsigned char, unsigned short, unsigned char, unsigned short)+0xd4>
    2658:	e35c0000 	cmp	ip, #0
    265c:	e08000c2 	add	r0, r0, r2, asr #1
    2660:	1a00000f 	bne	26a4 <RDMHandler::Handlers(bool, unsigned char, unsigned short, unsigned char, unsigned short)+0xf0>
    2664:	e1a02008 	mov	r2, r8
    2668:	e8bd43f0 	pop	{r4, r5, r6, r7, r8, r9, lr}
    266c:	e12fff13 	bx	r3
    2670:	e3570000 	cmp	r7, #0
    2674:	1afffff0 	bne	263c <RDMHandler::Handlers(bool, unsigned char, unsigned short, unsigned char, unsigned short)+0x88>
    2678:	e8bd43f0 	pop	{r4, r5, r6, r7, r8, r9, lr}
    267c:	e3a02000 	mov	r2, #0
    2680:	e3a01002 	mov	r1, #2
    2684:	eafffffe 	b	1a8 <RDMHandler::CreateRespondMessage(unsigned char, unsigned short)>
    2688:	e35c0000 	cmp	ip, #0
    268c:	108000c2 	addne	r0, r0, r2, asr #1
    2690:	1a000003 	bne	26a4 <RDMHandler::Handlers(bool, unsigned char, unsigned short, unsigned char, unsigned short)+0xf0>
    2694:	e8bd43f0 	pop	{r4, r5, r6, r7, r8, r9, lr}
    2698:	e3a02005 	mov	r2, #5
    269c:	e3a01002 	mov	r1, #2
    26a0:	eafffffe 	b	1a8 <RDMHandler::CreateRespondMessage(unsigned char, unsigned short)>
    26a4:	e5902000 	ldr	r2, [r0]
    26a8:	e7923003 	ldr	r3, [r2, r3]
    26ac:	e1a02008 	mov	r2, r8
    26b0:	e8bd43f0 	pop	{r4, r5, r6, r7, r8, r9, lr}
    26b4:	e12fff13 	bx	r3
    26b8:	e3a02009 	mov	r2, #9
    26bc:	e8bd43f0 	pop	{r4, r5, r6, r7, r8, r9, lr}
    26c0:	e3a01002 	mov	r1, #2
    26c4:	eafffffe 	b	1a8 <RDMHandler::CreateRespondMessage(unsigned char, unsigned short)>
    26c8:	e3510000 	cmp	r1, #0
    26cc:	18bd83f0 	popne	{r4, r5, r6, r7, r8, r9, pc}
    26d0:	e59f3074 	ldr	r3, [pc, #116]	; 274c <RDMHandler::Handlers(bool, unsigned char, unsigned short, unsigned char, unsigned short)+0x198>
    26d4:	e1580003 	cmp	r8, r3
    26d8:	0afffff6 	beq	26b8 <RDMHandler::Handlers(bool, unsigned char, unsigned short, unsigned char, unsigned short)+0x104>
    26dc:	e5952004 	ldr	r2, [r5, #4]
    26e0:	e3520000 	cmp	r2, #0
    26e4:	0a00000d 	beq	2720 <RDMHandler::Handlers(bool, unsigned char, unsigned short, unsigned char, unsigned short)+0x16c>
    26e8:	e5d53014 	ldrb	r3, [r5, #20]
    26ec:	e1530009 	cmp	r3, r9
    26f0:	1a000006 	bne	2710 <RDMHandler::Handlers(bool, unsigned char, unsigned short, unsigned char, unsigned short)+0x15c>
    26f4:	e5953008 	ldr	r3, [r5, #8]
    26f8:	e3130001 	tst	r3, #1
    26fc:	e08000c3 	add	r0, r0, r3, asr #1
    2700:	1a00000d 	bne	273c <RDMHandler::Handlers(bool, unsigned char, unsigned short, unsigned char, unsigned short)+0x188>
    2704:	e1a01008 	mov	r1, r8
    2708:	e8bd43f0 	pop	{r4, r5, r6, r7, r8, r9, lr}
    270c:	e12fff12 	bx	r2
    2710:	e3a02001 	mov	r2, #1
    2714:	e8bd43f0 	pop	{r4, r5, r6, r7, r8, r9, lr}
    2718:	e3a01002 	mov	r1, #2
    271c:	eafffffe 	b	1a8 <RDMHandler::CreateRespondMessage(unsigned char, unsigned short)>
    2720:	e5953008 	ldr	r3, [r5, #8]
    2724:	e3130001 	tst	r3, #1
    2728:	0affffd9 	beq	2694 <RDMHandler::Handlers(bool, unsigned char, unsigned short, unsigned char, unsigned short)+0xe0>
    272c:	e5d51014 	ldrb	r1, [r5, #20]
    2730:	e1510009 	cmp	r1, r9
    2734:	008000c3 	addeq	r0, r0, r3, asr #1
    2738:	1afffff4 	bne	2710 <RDMHandler::Handlers(bool, unsigned char, unsigned short, unsigned char, unsigned short)+0x15c>
    273c:	e5903000 	ldr	r3, [r0]
    2740:	e7932002 	ldr	r2, [r3, r2]
    2744:	eaffffee 	b	2704 <RDMHandler::Handlers(bool, unsigned char, unsigned short, unsigned char, unsigned short)+0x150>
    2748:	00000000 	andeq	r0, r0, r0
    274c:	0000ffff 	strdeq	pc, [r0], -pc	; <UNPREDICTABLE>
    2750:	000000c0 	andeq	r0, r0, r0, asr #1

00002754 <RDMHandler::HandleData(unsigned char const*, unsigned char*)>:
    2754:	e92d4ff0 	push	{r4, r5, r6, r7, r8, r9, sl, fp, lr}
    2758:	e3e0e000 	mvn	lr, #0
    275c:	e1a05001 	mov	r5, r1
    2760:	e59f3318 	ldr	r3, [pc, #792]	; 2a80 <RDMHandler::HandleData(unsigned char const*, unsigned char*)+0x32c>
    2764:	e5c2e000 	strb	lr, [r2]
    2768:	e5938000 	ldr	r8, [r3]
    276c:	e59f6310 	ldr	r6, [pc, #784]	; 2a84 <RDMHandler::HandleData(unsigned char const*, unsigned char*)+0x330>
    2770:	e2813002 	add	r3, r1, #2
    2774:	e5801004 	str	r1, [r0, #4]
    2778:	e3a0c0ff 	mov	ip, #255	; 0xff
    277c:	e1a07006 	mov	r7, r6
    2780:	e1a01003 	mov	r1, r3
    2784:	e24dd014 	sub	sp, sp, #20
    2788:	e5802008 	str	r2, [r0, #8]
    278c:	e288b005 	add	fp, r8, #5
    2790:	e285e008 	add	lr, r5, #8
    2794:	ea000002 	b	27a4 <RDMHandler::HandleData(unsigned char const*, unsigned char*)+0x50>
    2798:	e15e0001 	cmp	lr, r1
    279c:	0a00004e 	beq	28dc <RDMHandler::HandleData(unsigned char const*, unsigned char*)+0x188>
    27a0:	e4d7c001 	ldrb	ip, [r7], #1
    27a4:	e4d14001 	ldrb	r4, [r1], #1
    27a8:	e154000c 	cmp	r4, ip
    27ac:	0afffff9 	beq	2798 <RDMHandler::HandleData(unsigned char const*, unsigned char*)+0x44>
    27b0:	e3a01001 	mov	r1, #1
    27b4:	e3a0a000 	mov	sl, #0
    27b8:	e58d100c 	str	r1, [sp, #12]
    27bc:	e5d5c002 	ldrb	ip, [r5, #2]
    27c0:	e5d89005 	ldrb	r9, [r8, #5]
    27c4:	e15c0009 	cmp	ip, r9
    27c8:	1a00000c 	bne	2800 <RDMHandler::HandleData(unsigned char const*, unsigned char*)+0xac>
    27cc:	e5d54003 	ldrb	r4, [r5, #3]
    27d0:	e5d81006 	ldrb	r1, [r8, #6]
    27d4:	e1540001 	cmp	r4, r1
    27d8:	1a000008 	bne	2800 <RDMHandler::HandleData(unsigned char const*, unsigned char*)+0xac>
    27dc:	e3a010ff 	mov	r1, #255	; 0xff
    27e0:	e2854004 	add	r4, r5, #4
    27e4:	ea000002 	b	27f4 <RDMHandler::HandleData(unsigned char const*, unsigned char*)+0xa0>
    27e8:	e15e0004 	cmp	lr, r4
    27ec:	0a00004a 	beq	291c <RDMHandler::HandleData(unsigned char const*, unsigned char*)+0x1c8>
    27f0:	e4d61001 	ldrb	r1, [r6], #1
    27f4:	e4d47001 	ldrb	r7, [r4], #1
    27f8:	e1510007 	cmp	r1, r7
    27fc:	0afffff9 	beq	27e8 <RDMHandler::HandleData(unsigned char const*, unsigned char*)+0x94>
    2800:	e1a0e00b 	mov	lr, fp
    2804:	e1a01009 	mov	r1, r9
    2808:	e2834005 	add	r4, r3, #5
    280c:	ea000001 	b	2818 <RDMHandler::HandleData(unsigned char const*, unsigned char*)+0xc4>
    2810:	e5f3c001 	ldrb	ip, [r3, #1]!
    2814:	e5fe1001 	ldrb	r1, [lr, #1]!
    2818:	e15c0001 	cmp	ip, r1
    281c:	1a00002a 	bne	28cc <RDMHandler::HandleData(unsigned char const*, unsigned char*)+0x178>
    2820:	e1540003 	cmp	r4, r3
    2824:	1afffff9 	bne	2810 <RDMHandler::HandleData(unsigned char const*, unsigned char*)+0xbc>
    2828:	e3a01000 	mov	r1, #0
    282c:	e3a0e001 	mov	lr, #1
    2830:	e5d5c013 	ldrb	ip, [r5, #19]
    2834:	e5d54014 	ldrb	r4, [r5, #20]
    2838:	e5d53015 	ldrb	r3, [r5, #21]
    283c:	e35c0010 	cmp	ip, #16
    2840:	e0833404 	add	r3, r3, r4, lsl #8
    2844:	e6ff3073 	uxth	r3, r3
    2848:	1a000027 	bne	28ec <RDMHandler::HandleData(unsigned char const*, unsigned char*)+0x198>
    284c:	e3530001 	cmp	r3, #1
    2850:	0a000033 	beq	2924 <RDMHandler::HandleData(unsigned char const*, unsigned char*)+0x1d0>
    2854:	e3530003 	cmp	r3, #3
    2858:	0a000074 	beq	2a30 <RDMHandler::HandleData(unsigned char const*, unsigned char*)+0x2dc>
    285c:	e3530002 	cmp	r3, #2
    2860:	1a00001b 	bne	28d4 <RDMHandler::HandleData(unsigned char const*, unsigned char*)+0x180>
    2864:	e5d51016 	ldrb	r1, [r5, #22]
    2868:	e3510000 	cmp	r1, #0
    286c:	1a000018 	bne	28d4 <RDMHandler::HandleData(unsigned char const*, unsigned char*)+0x180>
    2870:	e3a0c001 	mov	ip, #1
    2874:	e35e0000 	cmp	lr, #0
    2878:	e5c0c001 	strb	ip, [r0, #1]
    287c:	0a000014 	beq	28d4 <RDMHandler::HandleData(unsigned char const*, unsigned char*)+0x180>
    2880:	e59fc200 	ldr	ip, [pc, #512]	; 2a88 <RDMHandler::HandleData(unsigned char const*, unsigned char*)+0x334>
    2884:	e5c23017 	strb	r3, [r2, #23]
    2888:	e59cc000 	ldr	ip, [ip]
    288c:	e5c21019 	strb	r1, [r2, #25]
    2890:	e5c21018 	strb	r1, [r2, #24]
    2894:	e1dcc0b4 	ldrh	ip, [ip, #4]
    2898:	e35c0000 	cmp	ip, #0
    289c:	01a03001 	moveq	r3, r1
    28a0:	e5c23019 	strb	r3, [r2, #25]
    28a4:	e5903004 	ldr	r3, [r0, #4]
    28a8:	e5d32016 	ldrb	r2, [r3, #22]
    28ac:	e3520000 	cmp	r2, #0
    28b0:	03a02018 	moveq	r2, #24
    28b4:	05c32001 	strbeq	r2, [r3, #1]
    28b8:	e3a02000 	mov	r2, #0
    28bc:	e1a01002 	mov	r1, r2
    28c0:	e28dd014 	add	sp, sp, #20
    28c4:	e8bd4ff0 	pop	{r4, r5, r6, r7, r8, r9, sl, fp, lr}
    28c8:	eafffffe 	b	1a8 <RDMHandler::CreateRespondMessage(unsigned char, unsigned short)>
    28cc:	e35a0000 	cmp	sl, #0
    28d0:	1a000067 	bne	2a74 <RDMHandler::HandleData(unsigned char const*, unsigned char*)+0x320>
    28d4:	e28dd014 	add	sp, sp, #20
    28d8:	e8bd8ff0 	pop	{r4, r5, r6, r7, r8, r9, sl, fp, pc}
    28dc:	e3a01000 	mov	r1, #0
    28e0:	e3a0a001 	mov	sl, #1
    28e4:	e58d100c 	str	r1, [sp, #12]
    28e8:	eaffffb3 	b	27bc <RDMHandler::HandleData(unsigned char const*, unsigned char*)+0x68>
    28ec:	e5d5e011 	ldrb	lr, [r5, #17]
    28f0:	e1a0200c 	mov	r2, ip
    28f4:	e5d5c012 	ldrb	ip, [r5, #18]
    28f8:	e18a1001 	orr	r1, sl, r1
    28fc:	e08cc40e 	add	ip, ip, lr, lsl #8
    2900:	e5d5e016 	ldrb	lr, [r5, #22]
    2904:	e6ffc07c 	uxth	ip, ip
    2908:	e58de000 	str	lr, [sp]
    290c:	e58dc004 	str	ip, [sp, #4]
    2910:	ebfffffe 	bl	25b4 <RDMHandler::Handlers(bool, unsigned char, unsigned short, unsigned char, unsigned short)>
    2914:	e28dd014 	add	sp, sp, #20
    2918:	e8bd8ff0 	pop	{r4, r5, r6, r7, r8, r9, sl, fp, pc}
    291c:	e3a01001 	mov	r1, #1
    2920:	eaffffc1 	b	282c <RDMHandler::HandleData(unsigned char const*, unsigned char*)+0xd8>
    2924:	e5d03001 	ldrb	r3, [r0, #1]
    2928:	e3530000 	cmp	r3, #0
    292c:	1affffe8 	bne	28d4 <RDMHandler::HandleData(unsigned char const*, unsigned char*)+0x180>
    2930:	e2884006 	add	r4, r8, #6
    2934:	e1a0e004 	mov	lr, r4
    2938:	e1a0c009 	mov	ip, r9
    293c:	e2853017 	add	r3, r5, #23
    2940:	e285101d 	add	r1, r5, #29
    2944:	ea000002 	b	2954 <RDMHandler::HandleData(unsigned char const*, unsigned char*)+0x200>
    2948:	e1530001 	cmp	r3, r1
    294c:	0a000006 	beq	296c <RDMHandler::HandleData(unsigned char const*, unsigned char*)+0x218>
    2950:	e4dec001 	ldrb	ip, [lr], #1
    2954:	e4d30001 	ldrb	r0, [r3], #1
    2958:	e15c0000 	cmp	ip, r0
    295c:	0afffff9 	beq	2948 <RDMHandler::HandleData(unsigned char const*, unsigned char*)+0x1f4>
    2960:	e040000c 	sub	r0, r0, ip
    2964:	e3500000 	cmp	r0, #0
    2968:	caffffd9 	bgt	28d4 <RDMHandler::HandleData(unsigned char const*, unsigned char*)+0x180>
    296c:	e1a03001 	mov	r3, r1
    2970:	e2855023 	add	r5, r5, #35	; 0x23
    2974:	ea000002 	b	2984 <RDMHandler::HandleData(unsigned char const*, unsigned char*)+0x230>
    2978:	e1530005 	cmp	r3, r5
    297c:	0a000006 	beq	299c <RDMHandler::HandleData(unsigned char const*, unsigned char*)+0x248>
    2980:	e4d49001 	ldrb	r9, [r4], #1
    2984:	e4d31001 	ldrb	r1, [r3], #1
    2988:	e1590001 	cmp	r9, r1
    298c:	0afffff9 	beq	2978 <RDMHandler::HandleData(unsigned char const*, unsigned char*)+0x224>
    2990:	e0491001 	sub	r1, r9, r1
    2994:	e3510000 	cmp	r1, #0
    2998:	caffffcd 	bgt	28d4 <RDMHandler::HandleData(unsigned char const*, unsigned char*)+0x180>
    299c:	e3e00001 	mvn	r0, #1
    29a0:	e3e0c055 	mvn	ip, #85	; 0x55
    29a4:	e1a01002 	mov	r1, r2
    29a8:	e59f30dc 	ldr	r3, [pc, #220]	; 2a8c <RDMHandler::HandleData(unsigned char const*, unsigned char*)+0x338>
    29ac:	e288800b 	add	r8, r8, #11
    29b0:	e5c20000 	strb	r0, [r2]
    29b4:	e5c20001 	strb	r0, [r2, #1]
    29b8:	e5c20002 	strb	r0, [r2, #2]
    29bc:	e5c20003 	strb	r0, [r2, #3]
    29c0:	e5c20004 	strb	r0, [r2, #4]
    29c4:	e5c20005 	strb	r0, [r2, #5]
    29c8:	e5c20006 	strb	r0, [r2, #6]
    29cc:	e5c2c007 	strb	ip, [r2, #7]
    29d0:	e5db0000 	ldrb	r0, [fp]
    29d4:	e2811002 	add	r1, r1, #2
    29d8:	e180000c 	orr	r0, r0, ip
    29dc:	e5c10006 	strb	r0, [r1, #6]
    29e0:	e4db0001 	ldrb	r0, [fp], #1
    29e4:	e3800055 	orr	r0, r0, #85	; 0x55
    29e8:	e5c10007 	strb	r0, [r1, #7]
    29ec:	e55b0001 	ldrb	r0, [fp, #-1]
    29f0:	e158000b 	cmp	r8, fp
    29f4:	e0833000 	add	r3, r3, r0
    29f8:	e6ff3073 	uxth	r3, r3
    29fc:	e3e00055 	mvn	r0, #85	; 0x55
    2a00:	1afffff2 	bne	29d0 <RDMHandler::HandleData(unsigned char const*, unsigned char*)+0x27c>
    2a04:	e180c423 	orr	ip, r0, r3, lsr #8
    2a08:	e1a01423 	lsr	r1, r3, #8
    2a0c:	e6ef3073 	uxtb	r3, r3
    2a10:	e1830000 	orr	r0, r3, r0
    2a14:	e3811055 	orr	r1, r1, #85	; 0x55
    2a18:	e3833055 	orr	r3, r3, #85	; 0x55
    2a1c:	e5c2c014 	strb	ip, [r2, #20]
    2a20:	e5c21015 	strb	r1, [r2, #21]
    2a24:	e5c20016 	strb	r0, [r2, #22]
    2a28:	e5c23017 	strb	r3, [r2, #23]
    2a2c:	eaffffa8 	b	28d4 <RDMHandler::HandleData(unsigned char const*, unsigned char*)+0x180>
    2a30:	e5d53016 	ldrb	r3, [r5, #22]
    2a34:	e3530000 	cmp	r3, #0
    2a38:	1affffa5 	bne	28d4 <RDMHandler::HandleData(unsigned char const*, unsigned char*)+0x180>
    2a3c:	e59d100c 	ldr	r1, [sp, #12]
    2a40:	e5c03001 	strb	r3, [r0, #1]
    2a44:	e111000e 	tst	r1, lr
    2a48:	0affffa1 	beq	28d4 <RDMHandler::HandleData(unsigned char const*, unsigned char*)+0x180>
    2a4c:	e3a01002 	mov	r1, #2
    2a50:	e59fc030 	ldr	ip, [pc, #48]	; 2a88 <RDMHandler::HandleData(unsigned char const*, unsigned char*)+0x334>
    2a54:	e5c23019 	strb	r3, [r2, #25]
    2a58:	e59cc000 	ldr	ip, [ip]
    2a5c:	e5c23018 	strb	r3, [r2, #24]
    2a60:	e5c21017 	strb	r1, [r2, #23]
    2a64:	e1dcc0b4 	ldrh	ip, [ip, #4]
    2a68:	e35c0000 	cmp	ip, #0
    2a6c:	11a03001 	movne	r3, r1
    2a70:	eaffff8a 	b	28a0 <RDMHandler::HandleData(unsigned char const*, unsigned char*)+0x14c>
    2a74:	e3a01000 	mov	r1, #0
    2a78:	e1a0e001 	mov	lr, r1
    2a7c:	eaffff6b 	b	2830 <RDMHandler::HandleData(unsigned char const*, unsigned char*)+0xdc>
    2a80:	00000000 	andeq	r0, r0, r0
    2a84:	00000361 	andeq	r0, r0, r1, ror #6
    2a88:	00000000 	andeq	r0, r0, r0
    2a8c:	000005fa 	strdeq	r0, [r0], -sl

Disassembly of section .text._ZN10DisplaySet8SetSleepEb:

00000000 <DisplaySet::SetSleep(bool)>:
   0:	e12fff1e 	bx	lr

Disassembly of section .text._ZN10DisplaySet11SetContrastEh:

00000000 <DisplaySet::SetContrast(unsigned char)>:
   0:	e12fff1e 	bx	lr

Disassembly of section .text._ZN10DisplaySet17SetFlipVerticallyEb:

00000000 <DisplaySet::SetFlipVertically(bool)>:
   0:	e12fff1e 	bx	lr

Disassembly of section .rodata:

00000000 <RDMHandler::PID_DEFINITIONS_SUB_DEVICES>:
   0:	00000060 	andeq	r0, r0, r0, rrx
	...
  14:	00010100 	andeq	r0, r1, r0, lsl #2
  18:	000000c0 	andeq	r0, r0, r0, asr #1
	...
  2c:	00010100 	andeq	r0, r1, r0, lsl #2
  30:	00001000 	andeq	r1, r0, r0
	...
  44:	00010100 	andeq	r0, r1, r0, lsl #2
  48:	00000050 	andeq	r0, r0, r0, asr r0
	...
  5c:	00010100 	andeq	r0, r1, r0, lsl #2
  60:	00000070 	andeq	r0, r0, r0, ror r0
	...
  74:	00010100 	andeq	r0, r1, r0, lsl #2
  78:	000000e0 	andeq	r0, r0, r0, ror #1
	...
  8c:	00010100 	andeq	r0, r1, r0, lsl #2
  90:	000000e1 	andeq	r0, r0, r1, ror #1
	...
  a4:	00010101 	andeq	r0, r1, r1, lsl #2
  a8:	000000f0 	strdeq	r0, [r0], -r0	; <UNPREDICTABLE>
	...
  bc:	00010100 	andeq	r0, r1, r0, lsl #2

000000c0 <RDMHandler::PID_DEFINITIONS>:
  c0:	00000060 	andeq	r0, r0, r0, rrx
	...
  d4:	01010000 	mrseq	r0, (UNDEF: 1)
  d8:	00000080 	andeq	r0, r0, r0, lsl #1
	...
  ec:	01010100 	mrseq	r0, (UNDEF: 17)
  f0:	00000081 	andeq	r0, r0, r1, lsl #1
	...
 104:	01010100 	mrseq	r0, (UNDEF: 17)
 108:	00000082 	andeq	r0, r0, r2, lsl #1
	...
 11c:	01010100 	mrseq	r0, (UNDEF: 17)
 120:	00000090 	muleq	r0, r0, r0
	...
 134:	01010100 	mrseq	r0, (UNDEF: 17)
 138:	00001000 	andeq	r1, r0, r0
	...
 14c:	01010000 	mrseq	r0, (UNDEF: 1)
 150:	00001001 	andeq	r1, r0, r1
	...
 164:	01010100 	mrseq	r0, (UNDEF: 17)
 168:	00000050 	andeq	r0, r0, r0, asr r0
	...
 17c:	00010000 	andeq	r0, r1, r0
 180:	00000070 	andeq	r0, r0, r0, ror r0
	...
 194:	00010100 	andeq	r0, r1, r0, lsl #2
 198:	000000a0 	andeq	r0, r0, r0, lsr #1
	...
 1ac:	00010100 	andeq	r0, r1, r0, lsl #2
 1b0:	000000b0 	strheq	r0, [r0], -r0	; <UNPREDICTABLE>
	...
 1c4:	00010100 	andeq	r0, r1, r0, lsl #2
 1c8:	000000c0 	andeq	r0, r0, r0, asr #1
	...
 1dc:	00010000 	andeq	r0, r1, r0
 1e0:	000000c1 	andeq	r0, r0, r1, asr #1
	...
 1f4:	00010100 	andeq	r0, r1, r0, lsl #2
 1f8:	000000c2 	andeq	r0, r0, r2, asr #1
	...
 20c:	00010100 	andeq	r0, r1, r0, lsl #2
 210:	000000e0 	andeq	r0, r0, r0, ror #1
	...
 224:	00010100 	andeq	r0, r1, r0, lsl #2
 228:	000000e1 	andeq	r0, r0, r1, ror #1
	...
 23c:	00010101 	andeq	r0, r1, r1, lsl #2
 240:	000000f0 	strdeq	r0, [r0], -r0	; <UNPREDICTABLE>
	...
 254:	00010000 	andeq	r0, r1, r0
 258:	00000120 	andeq	r0, r0, r0, lsr #2
	...
 26c:	00010100 	andeq	r0, r1, r0, lsl #2
 270:	00000121 	andeq	r0, r0, r1, lsr #2
	...
 284:	00010102 	andeq	r0, r1, r2, lsl #2
 288:	00000200 	andeq	r0, r0, r0, lsl #4
	...
 29c:	00010101 	andeq	r0, r1, r1, lsl #2
 2a0:	00000201 	andeq	r0, r0, r1, lsl #4
	...
 2b4:	00010101 	andeq	r0, r1, r1, lsl #2
 2b8:	00000202 	andeq	r0, r0, r2, lsl #4
	...
 2cc:	00010100 	andeq	r0, r1, r0, lsl #2
 2d0:	00000400 	andeq	r0, r0, r0, lsl #8
	...
 2e4:	00010100 	andeq	r0, r1, r0, lsl #2
 2e8:	00000500 	andeq	r0, r0, r0, lsl #10
	...
 2fc:	00010100 	andeq	r0, r1, r0, lsl #2
 300:	00000501 	andeq	r0, r0, r1, lsl #10
	...
 314:	00010100 	andeq	r0, r1, r0, lsl #2
 318:	00000603 	andeq	r0, r0, r3, lsl #12
	...
 32c:	00010100 	andeq	r0, r1, r0, lsl #2
 330:	00001010 	andeq	r1, r0, r0, lsl r0
	...
 344:	00010100 	andeq	r0, r1, r0, lsl #2
 348:	00001040 	andeq	r1, r0, r0, asr #32
	...
 35c:	00010100 	andeq	r0, r1, r0, lsl #2

00000360 <UID_ALL>:
 360:	ffffffff 			; <UNDEFINED> instruction: 0xffffffff
 364:	Address 0x0000000000000364 is out of bounds.


Disassembly of section .comment:

00000000 <.comment>:
   0:	43434700 	movtmi	r4, #14080	; 0x3700
   4:	4728203a 			; <UNDEFINED> instruction: 0x4728203a
   8:	2029554e 	eorcs	r5, r9, lr, asr #10
   c:	322e3031 	eorcc	r3, lr, #49	; 0x31
  10:	Address 0x0000000000000010 is out of bounds.


Disassembly of section .ARM.attributes:

00000000 <.ARM.attributes>:
   0:	00003241 	andeq	r3, r0, r1, asr #4
   4:	61656100 	cmnvs	r5, r0, lsl #2
   8:	01006962 	tsteq	r0, r2, ror #18
   c:	00000028 	andeq	r0, r0, r8, lsr #32
  10:	4b5a3605 	blmi	168d82c <RDMHandler::HandleData(unsigned char const*, unsigned char*)+0x168b0d8>
  14:	08070600 	stmdaeq	r7, {r9, sl}
  18:	0a010901 	beq	42424 <RDMHandler::HandleData(unsigned char const*, unsigned char*)+0x3fcd0>
  1c:	14041202 	strne	r1, [r4], #-514	; 0xfffffdfe
  20:	17011501 	strne	r1, [r1, -r1, lsl #10]
  24:	19011803 	stmdbne	r1, {r0, r1, fp, ip}
  28:	1c011a01 			; <UNDEFINED> instruction: 0x1c011a01
  2c:	22021e01 	andcs	r1, r2, #1, 28
  30:	Address 0x0000000000000030 is out of bounds.


rdmhandlere1371.o:     file format elf32-littlearm


Disassembly of section .text:

00000000 <RDMHandler::GetIdentifyMode(unsigned short)>:
   0:	e3a01001 	mov	r1, #1
   4:	e59f3010 	ldr	r3, [pc, #16]	; 1c <RDMHandler::GetIdentifyMode(unsigned short)+0x1c>
   8:	e5d32000 	ldrb	r2, [r3]
   c:	e5903008 	ldr	r3, [r0, #8]
  10:	e5c31017 	strb	r1, [r3, #23]
  14:	e5c32018 	strb	r2, [r3, #24]
  18:	eafffffe 	b	0 <RDMHandler::RespondMessageAck()>
  1c:	00000000 	andeq	r0, r0, r0

00000020 <RDMHandler::SetIdentifyMode(bool, unsigned short)>:
  20:	e5903004 	ldr	r3, [r0, #4]
  24:	e5d32016 	ldrb	r2, [r3, #22]
  28:	e3520001 	cmp	r2, #1
  2c:	1a00001c 	bne	a4 <RDMHandler::SetIdentifyMode(bool, unsigned short)+0x84>
  30:	e5d32017 	ldrb	r2, [r3, #23]
  34:	e2423001 	sub	r3, r2, #1
  38:	e6ef3073 	uxtb	r3, r3
  3c:	e35300fd 	cmp	r3, #253	; 0xfd
  40:	9a000015 	bls	9c <RDMHandler::SetIdentifyMode(bool, unsigned short)+0x7c>
  44:	e59f306c 	ldr	r3, [pc, #108]	; b8 <RDMHandler::SetIdentifyMode(bool, unsigned short)+0x98>
  48:	e92d4070 	push	{r4, r5, r6, lr}
  4c:	e5c32000 	strb	r2, [r3]
  50:	e59f3064 	ldr	r3, [pc, #100]	; bc <RDMHandler::SetIdentifyMode(bool, unsigned short)+0x9c>
  54:	e1a05001 	mov	r5, r1
  58:	e5d33000 	ldrb	r3, [r3]
  5c:	e59f105c 	ldr	r1, [pc, #92]	; c0 <RDMHandler::SetIdentifyMode(bool, unsigned short)+0xa0>
  60:	e3530000 	cmp	r3, #0
  64:	e1a04000 	mov	r4, r0
  68:	e5910000 	ldr	r0, [r1]
  6c:	0a000001 	beq	78 <RDMHandler::SetIdentifyMode(bool, unsigned short)+0x58>
  70:	e3520000 	cmp	r2, #0
  74:	1a00000c 	bne	ac <RDMHandler::SetIdentifyMode(bool, unsigned short)+0x8c>
  78:	e1a01002 	mov	r1, r2
  7c:	ebfffffe 	bl	0 <RDMIdentify::Off(rdm::identify::Mode)>
  80:	e3550000 	cmp	r5, #0
  84:	18bd8070 	popne	{r4, r5, r6, pc}
  88:	e5943008 	ldr	r3, [r4, #8]
  8c:	e1a00004 	mov	r0, r4
  90:	e5c35017 	strb	r5, [r3, #23]
  94:	e8bd4070 	pop	{r4, r5, r6, lr}
  98:	eafffffe 	b	0 <RDMHandler::RespondMessageAck()>
  9c:	e3a01006 	mov	r1, #6
  a0:	eafffffe 	b	0 <RDMHandler::RespondMessageNack(unsigned short)>
  a4:	e3a01001 	mov	r1, #1
  a8:	eafffffe 	b	0 <RDMHandler::RespondMessageNack(unsigned short)>
  ac:	e3a010ff 	mov	r1, #255	; 0xff
  b0:	ebfffffe 	bl	0 <RDMIdentify::On(rdm::identify::Mode)>
  b4:	eafffff1 	b	80 <RDMHandler::SetIdentifyMode(bool, unsigned short)+0x60>
	...

Disassembly of section .comment:

00000000 <.comment>:
   0:	43434700 	movtmi	r4, #14080	; 0x3700
   4:	4728203a 			; <UNDEFINED> instruction: 0x4728203a
   8:	2029554e 	eorcs	r5, r9, lr, asr #10
   c:	322e3031 	eorcc	r3, lr, #49	; 0x31
  10:	Address 0x0000000000000010 is out of bounds.


Disassembly of section .ARM.attributes:

00000000 <.ARM.attributes>:
   0:	00003241 	andeq	r3, r0, r1, asr #4
   4:	61656100 	cmnvs	r5, r0, lsl #2
   8:	01006962 	tsteq	r0, r2, ror #18
   c:	00000028 	andeq	r0, r0, r8, lsr #32
  10:	4b5a3605 	blmi	168d82c <RDMHandler::SetIdentifyMode(bool, unsigned short)+0x168d80c>
  14:	08070600 	stmdaeq	r7, {r9, sl}
  18:	0a010901 	beq	42424 <RDMHandler::SetIdentifyMode(bool, unsigned short)+0x42404>
  1c:	14041202 	strne	r1, [r4], #-514	; 0xfffffdfe
  20:	17011501 	strne	r1, [r1, -r1, lsl #10]
  24:	19011803 	stmdbne	r1, {r0, r1, fp, ip}
  28:	1c011a01 			; <UNDEFINED> instruction: 0x1c011a01
  2c:	22021e01 	andcs	r1, r2, #1, 28
  30:	Address 0x0000000000000030 is out of bounds.


rdmidentify.o:     file format elf32-littlearm


Disassembly of section .text:

00000000 <RDMIdentify::RDMIdentify()>:
   0:	e59f3004 	ldr	r3, [pc, #4]	; c <RDMIdentify::RDMIdentify()+0xc>
   4:	e5830000 	str	r0, [r3]
   8:	e12fff1e 	bx	lr
   c:	00000000 	andeq	r0, r0, r0

00000010 <RDMIdentify::On(rdm::identify::Mode)>:
  10:	e12fff1e 	bx	lr

00000014 <RDMIdentify::Off(rdm::identify::Mode)>:
  14:	e12fff1e 	bx	lr

Disassembly of section .bss:

00000000 <RDMIdentify::s_pThis>:
   0:	00000000 	andeq	r0, r0, r0

00000004 <RDMIdentify::m_nMode>:
	...

00000005 <RDMIdentify::m_bIsEnabled>:
	...

Disassembly of section .comment:

00000000 <.comment>:
   0:	43434700 	movtmi	r4, #14080	; 0x3700
   4:	4728203a 			; <UNDEFINED> instruction: 0x4728203a
   8:	2029554e 	eorcs	r5, r9, lr, asr #10
   c:	322e3031 	eorcc	r3, lr, #49	; 0x31
  10:	Address 0x0000000000000010 is out of bounds.


Disassembly of section .ARM.attributes:

00000000 <.ARM.attributes>:
   0:	00003241 	andeq	r3, r0, r1, asr #4
   4:	61656100 	cmnvs	r5, r0, lsl #2
   8:	01006962 	tsteq	r0, r2, ror #18
   c:	00000028 	andeq	r0, r0, r8, lsr #32
  10:	4b5a3605 	blmi	168d82c <RDMIdentify::Off(rdm::identify::Mode)+0x168d818>
  14:	08070600 	stmdaeq	r7, {r9, sl}
  18:	0a010901 	beq	42424 <RDMIdentify::Off(rdm::identify::Mode)+0x42410>
  1c:	14041202 	strne	r1, [r4], #-514	; 0xfffffdfe
  20:	17011501 	strne	r1, [r1, -r1, lsl #10]
  24:	19011803 	stmdbne	r1, {r0, r1, fp, ip}
  28:	1c011a01 			; <UNDEFINED> instruction: 0x1c011a01
  2c:	22021e01 	andcs	r1, r2, #1, 28
  30:	Address 0x0000000000000030 is out of bounds.


rdmmessage.o:     file format elf32-littlearm


Disassembly of section .text:

00000000 <RDMMessage::RDMMessage()>:
   0:	e92d4010 	push	{r4, lr}
   4:	e3a0e001 	mov	lr, #1
   8:	e3e04033 	mvn	r4, #51	; 0x33
   c:	e3a03018 	mov	r3, #24
  10:	e59f206c 	ldr	r2, [pc, #108]	; 84 <RDMMessage::RDMMessage()+0x84>
  14:	e5c0e001 	strb	lr, [r0, #1]
  18:	e280e009 	add	lr, r0, #9
  1c:	e5c04000 	strb	r4, [r0]
  20:	e5c03002 	strb	r3, [r0, #2]
  24:	e1a0c002 	mov	ip, r2
  28:	e3a010ff 	mov	r1, #255	; 0xff
  2c:	e1a0300e 	mov	r3, lr
  30:	e280400f 	add	r4, r0, #15
  34:	ea000000 	b	3c <RDMMessage::RDMMessage()+0x3c>
  38:	e4dc1001 	ldrb	r1, [ip], #1
  3c:	e4c31001 	strb	r1, [r3], #1
  40:	e1530004 	cmp	r3, r4
  44:	1afffffb 	bne	38 <RDMMessage::RDMMessage()+0x38>
  48:	e3a010ff 	mov	r1, #255	; 0xff
  4c:	e2803003 	add	r3, r0, #3
  50:	ea000000 	b	58 <RDMMessage::RDMMessage()+0x58>
  54:	e4d21001 	ldrb	r1, [r2], #1
  58:	e4c31001 	strb	r1, [r3], #1
  5c:	e153000e 	cmp	r3, lr
  60:	1afffffb 	bne	54 <RDMMessage::RDMMessage()+0x54>
  64:	e3a03000 	mov	r3, #0
  68:	e3a02001 	mov	r2, #1
  6c:	e5c03011 	strb	r3, [r0, #17]
  70:	e5c02010 	strb	r2, [r0, #16]
  74:	e5c03012 	strb	r3, [r0, #18]
  78:	e5c03013 	strb	r3, [r0, #19]
  7c:	e5c03017 	strb	r3, [r0, #23]
  80:	e8bd8010 	pop	{r4, pc}
  84:	00000001 	andeq	r0, r0, r1

00000088 <RDMMessage::SetSrcUid(unsigned char const*)>:
  88:	e2800009 	add	r0, r0, #9
  8c:	e2812006 	add	r2, r1, #6
  90:	e4d13001 	ldrb	r3, [r1], #1
  94:	e1510002 	cmp	r1, r2
  98:	e4c03001 	strb	r3, [r0], #1
  9c:	1afffffb 	bne	90 <RDMMessage::SetSrcUid(unsigned char const*)+0x8>
  a0:	e12fff1e 	bx	lr

000000a4 <RDMMessage::SetDstUid(unsigned char const*)>:
  a4:	e2800003 	add	r0, r0, #3
  a8:	e2812006 	add	r2, r1, #6
  ac:	e4d13001 	ldrb	r3, [r1], #1
  b0:	e1510002 	cmp	r1, r2
  b4:	e4c03001 	strb	r3, [r0], #1
  b8:	1afffffb 	bne	ac <RDMMessage::SetDstUid(unsigned char const*)+0x8>
  bc:	e12fff1e 	bx	lr

000000c0 <RDMMessage::SetSubDevice(unsigned short)>:
  c0:	e1a03421 	lsr	r3, r1, #8
  c4:	e5c03012 	strb	r3, [r0, #18]
  c8:	e5c01013 	strb	r1, [r0, #19]
  cc:	e12fff1e 	bx	lr

000000d0 <RDMMessage::SetCc(unsigned char)>:
  d0:	e5c01014 	strb	r1, [r0, #20]
  d4:	e12fff1e 	bx	lr

000000d8 <RDMMessage::SetPid(unsigned short)>:
  d8:	e1a03421 	lsr	r3, r1, #8
  dc:	e5c03015 	strb	r3, [r0, #21]
  e0:	e5c01016 	strb	r1, [r0, #22]
  e4:	e12fff1e 	bx	lr

000000e8 <RDMMessage::SetPd(unsigned char const*, unsigned char)>:
  e8:	e3510000 	cmp	r1, #0
  ec:	13520000 	cmpne	r2, #0
  f0:	e5d03002 	ldrb	r3, [r0, #2]
  f4:	e5d0c017 	ldrb	ip, [r0, #23]
  f8:	e5c02017 	strb	r2, [r0, #23]
  fc:	e043300c 	sub	r3, r3, ip
 100:	e6ef3073 	uxtb	r3, r3
 104:	e5c03002 	strb	r3, [r0, #2]
 108:	0a00000a 	beq	138 <RDMMessage::SetPd(unsigned char const*, unsigned char)+0x50>
 10c:	e52de004 	push	{lr}		; (str lr, [sp, #-4]!)
 110:	e2803017 	add	r3, r0, #23
 114:	e081e002 	add	lr, r1, r2
 118:	e4d1c001 	ldrb	ip, [r1], #1
 11c:	e151000e 	cmp	r1, lr
 120:	e5e3c001 	strb	ip, [r3, #1]!
 124:	1afffffb 	bne	118 <RDMMessage::SetPd(unsigned char const*, unsigned char)+0x30>
 128:	e5d03002 	ldrb	r3, [r0, #2]
 12c:	e0822003 	add	r2, r2, r3
 130:	e5c02002 	strb	r2, [r0, #2]
 134:	e49df004 	pop	{pc}		; (ldr pc, [sp], #4)
 138:	e0822003 	add	r2, r2, r3
 13c:	e5c02002 	strb	r2, [r0, #2]
 140:	e12fff1e 	bx	lr

00000144 <RDMMessage::Send(unsigned int, unsigned int)>:
 144:	e1a03001 	mov	r3, r1
 148:	e1a01000 	mov	r1, r0
 14c:	e1a00003 	mov	r0, r3
 150:	eafffffe 	b	0 <Rdm::Send(unsigned int, TRdmMessage*, unsigned int)>

Disassembly of section .rodata:

00000000 <UID_ALL>:
   0:	ffffffff 			; <UNDEFINED> instruction: 0xffffffff
   4:	Address 0x0000000000000004 is out of bounds.


Disassembly of section .comment:

00000000 <.comment>:
   0:	43434700 	movtmi	r4, #14080	; 0x3700
   4:	4728203a 			; <UNDEFINED> instruction: 0x4728203a
   8:	2029554e 	eorcs	r5, r9, lr, asr #10
   c:	322e3031 	eorcc	r3, lr, #49	; 0x31
  10:	Address 0x0000000000000010 is out of bounds.


Disassembly of section .ARM.attributes:

00000000 <.ARM.attributes>:
   0:	00003241 	andeq	r3, r0, r1, asr #4
   4:	61656100 	cmnvs	r5, r0, lsl #2
   8:	01006962 	tsteq	r0, r2, ror #18
   c:	00000028 	andeq	r0, r0, r8, lsr #32
  10:	4b5a3605 	blmi	168d82c <RDMMessage::Send(unsigned int, unsigned int)+0x168d6e8>
  14:	08070600 	stmdaeq	r7, {r9, sl}
  18:	0a010901 	beq	42424 <RDMMessage::Send(unsigned int, unsigned int)+0x422e0>
  1c:	14041202 	strne	r1, [r4], #-514	; 0xfffffdfe
  20:	17011501 	strne	r1, [r1, -r1, lsl #10]
  24:	19011803 	stmdbne	r1, {r0, r1, fp, ip}
  28:	1c011a01 			; <UNDEFINED> instruction: 0x1c011a01
  2c:	22021e01 	andcs	r1, r2, #1, 28
  30:	Address 0x0000000000000030 is out of bounds.


rdmmessageprint.o:     file format elf32-littlearm


Disassembly of section .text:

00000000 <RDMMessage::Print(unsigned char const*)>:
   0:	e92d4070 	push	{r4, r5, r6, lr}
   4:	e2504000 	subs	r4, r0, #0
   8:	e24dd010 	sub	sp, sp, #16
   c:	0a000016 	beq	6c <RDMMessage::Print(unsigned char const*)+0x6c>
  10:	e5d41000 	ldrb	r1, [r4]
  14:	e35100cc 	cmp	r1, #204	; 0xcc
  18:	0a000015 	beq	74 <RDMMessage::Print(unsigned char const*)+0x74>
  1c:	e35100fe 	cmp	r1, #254	; 0xfe
  20:	1a00000b 	bne	54 <RDMMessage::Print(unsigned char const*)+0x54>
  24:	e59f61c4 	ldr	r6, [pc, #452]	; 1f0 <RDMMessage::Print(unsigned char const*)+0x1f0>
  28:	e2845017 	add	r5, r4, #23
  2c:	ea000000 	b	34 <RDMMessage::Print(unsigned char const*)+0x34>
  30:	e5f41001 	ldrb	r1, [r4, #1]!
  34:	e1a00006 	mov	r0, r6
  38:	ebfffffe 	bl	0 <printf>
  3c:	e1550004 	cmp	r5, r4
  40:	1afffffa 	bne	30 <RDMMessage::Print(unsigned char const*)+0x30>
  44:	e59f01a8 	ldr	r0, [pc, #424]	; 1f4 <RDMMessage::Print(unsigned char const*)+0x1f4>
  48:	e28dd010 	add	sp, sp, #16
  4c:	e8bd4070 	pop	{r4, r5, r6, lr}
  50:	eafffffe 	b	0 <printf>
  54:	e5d40003 	ldrb	r0, [r4, #3]
  58:	e5d43002 	ldrb	r3, [r4, #2]
  5c:	e5d42001 	ldrb	r2, [r4, #1]
  60:	e58d0000 	str	r0, [sp]
  64:	e59f018c 	ldr	r0, [pc, #396]	; 1f8 <RDMMessage::Print(unsigned char const*)+0x1f8>
  68:	ebfffffe 	bl	0 <printf>
  6c:	e28dd010 	add	sp, sp, #16
  70:	e8bd8070 	pop	{r4, r5, r6, pc}
  74:	e5d4100e 	ldrb	r1, [r4, #14]
  78:	e5d4200d 	ldrb	r2, [r4, #13]
  7c:	e5d4000c 	ldrb	r0, [r4, #12]
  80:	e5d4300b 	ldrb	r3, [r4, #11]
  84:	e58d1008 	str	r1, [sp, #8]
  88:	e58d2004 	str	r2, [sp, #4]
  8c:	e5d4200a 	ldrb	r2, [r4, #10]
  90:	e5d41009 	ldrb	r1, [r4, #9]
  94:	e58d0000 	str	r0, [sp]
  98:	e59f015c 	ldr	r0, [pc, #348]	; 1fc <RDMMessage::Print(unsigned char const*)+0x1fc>
  9c:	ebfffffe 	bl	0 <printf>
  a0:	e5d41008 	ldrb	r1, [r4, #8]
  a4:	e5d42007 	ldrb	r2, [r4, #7]
  a8:	e5d40006 	ldrb	r0, [r4, #6]
  ac:	e5d43005 	ldrb	r3, [r4, #5]
  b0:	e58d1008 	str	r1, [sp, #8]
  b4:	e58d2004 	str	r2, [sp, #4]
  b8:	e5d41003 	ldrb	r1, [r4, #3]
  bc:	e5d42004 	ldrb	r2, [r4, #4]
  c0:	e58d0000 	str	r0, [sp]
  c4:	e59f0134 	ldr	r0, [pc, #308]	; 200 <RDMMessage::Print(unsigned char const*)+0x200>
  c8:	ebfffffe 	bl	0 <printf>
  cc:	e5d41014 	ldrb	r1, [r4, #20]
  d0:	e2413010 	sub	r3, r1, #16
  d4:	e3530021 	cmp	r3, #33	; 0x21
  d8:	979ff103 	ldrls	pc, [pc, r3, lsl #2]
  dc:	ea000021 	b	168 <RDMMessage::Print(unsigned char const*)+0x168>
  e0:	000001e4 	andeq	r0, r0, r4, ror #3
  e4:	000001d8 	ldrdeq	r0, [r0], -r8
  e8:	00000168 	andeq	r0, r0, r8, ror #2
  ec:	00000168 	andeq	r0, r0, r8, ror #2
  f0:	00000168 	andeq	r0, r0, r8, ror #2
  f4:	00000168 	andeq	r0, r0, r8, ror #2
  f8:	00000168 	andeq	r0, r0, r8, ror #2
  fc:	00000168 	andeq	r0, r0, r8, ror #2
 100:	00000168 	andeq	r0, r0, r8, ror #2
 104:	00000168 	andeq	r0, r0, r8, ror #2
 108:	00000168 	andeq	r0, r0, r8, ror #2
 10c:	00000168 	andeq	r0, r0, r8, ror #2
 110:	00000168 	andeq	r0, r0, r8, ror #2
 114:	00000168 	andeq	r0, r0, r8, ror #2
 118:	00000168 	andeq	r0, r0, r8, ror #2
 11c:	00000168 	andeq	r0, r0, r8, ror #2
 120:	000001cc 	andeq	r0, r0, ip, asr #3
 124:	000001c0 	andeq	r0, r0, r0, asr #3
 128:	00000168 	andeq	r0, r0, r8, ror #2
 12c:	00000168 	andeq	r0, r0, r8, ror #2
 130:	00000168 	andeq	r0, r0, r8, ror #2
 134:	00000168 	andeq	r0, r0, r8, ror #2
 138:	00000168 	andeq	r0, r0, r8, ror #2
 13c:	00000168 	andeq	r0, r0, r8, ror #2
 140:	00000168 	andeq	r0, r0, r8, ror #2
 144:	00000168 	andeq	r0, r0, r8, ror #2
 148:	00000168 	andeq	r0, r0, r8, ror #2
 14c:	00000168 	andeq	r0, r0, r8, ror #2
 150:	00000168 	andeq	r0, r0, r8, ror #2
 154:	00000168 	andeq	r0, r0, r8, ror #2
 158:	00000168 	andeq	r0, r0, r8, ror #2
 15c:	00000168 	andeq	r0, r0, r8, ror #2
 160:	000001b4 			; <UNDEFINED> instruction: 0x000001b4
 164:	000001a8 	andeq	r0, r0, r8, lsr #3
 168:	e59f0094 	ldr	r0, [pc, #148]	; 204 <RDMMessage::Print(unsigned char const*)+0x204>
 16c:	ebfffffe 	bl	0 <printf>
 170:	e5d42012 	ldrb	r2, [r4, #18]
 174:	e5d41013 	ldrb	r1, [r4, #19]
 178:	e5d43017 	ldrb	r3, [r4, #23]
 17c:	e5d40016 	ldrb	r0, [r4, #22]
 180:	e0811402 	add	r1, r1, r2, lsl #8
 184:	e58d3004 	str	r3, [sp, #4]
 188:	e5d43015 	ldrb	r3, [r4, #21]
 18c:	e5d4200f 	ldrb	r2, [r4, #15]
 190:	e6ff1071 	uxth	r1, r1
 194:	e58d0000 	str	r0, [sp]
 198:	e59f0068 	ldr	r0, [pc, #104]	; 208 <RDMMessage::Print(unsigned char const*)+0x208>
 19c:	ebfffffe 	bl	0 <printf>
 1a0:	e28dd010 	add	sp, sp, #16
 1a4:	e8bd8070 	pop	{r4, r5, r6, pc}
 1a8:	e59f005c 	ldr	r0, [pc, #92]	; 20c <RDMMessage::Print(unsigned char const*)+0x20c>
 1ac:	ebfffffe 	bl	0 <printf>
 1b0:	eaffffee 	b	170 <RDMMessage::Print(unsigned char const*)+0x170>
 1b4:	e59f0054 	ldr	r0, [pc, #84]	; 210 <RDMMessage::Print(unsigned char const*)+0x210>
 1b8:	ebfffffe 	bl	0 <printf>
 1bc:	eaffffeb 	b	170 <RDMMessage::Print(unsigned char const*)+0x170>
 1c0:	e59f004c 	ldr	r0, [pc, #76]	; 214 <RDMMessage::Print(unsigned char const*)+0x214>
 1c4:	ebfffffe 	bl	0 <printf>
 1c8:	eaffffe8 	b	170 <RDMMessage::Print(unsigned char const*)+0x170>
 1cc:	e59f0044 	ldr	r0, [pc, #68]	; 218 <RDMMessage::Print(unsigned char const*)+0x218>
 1d0:	ebfffffe 	bl	0 <printf>
 1d4:	eaffffe5 	b	170 <RDMMessage::Print(unsigned char const*)+0x170>
 1d8:	e59f003c 	ldr	r0, [pc, #60]	; 21c <RDMMessage::Print(unsigned char const*)+0x21c>
 1dc:	ebfffffe 	bl	0 <printf>
 1e0:	eaffffe2 	b	170 <RDMMessage::Print(unsigned char const*)+0x170>
 1e4:	e59f0034 	ldr	r0, [pc, #52]	; 220 <RDMMessage::Print(unsigned char const*)+0x220>
 1e8:	ebfffffe 	bl	0 <printf>
 1ec:	eaffffdf 	b	170 <RDMMessage::Print(unsigned char const*)+0x170>
 1f0:	000000f0 	strdeq	r0, [r0], -r0	; <UNPREDICTABLE>
 1f4:	000000f8 	strdeq	r0, [r0], -r8
 1f8:	000000fc 	strdeq	r0, [r0], -ip
 1fc:	00000000 	andeq	r0, r0, r0
 200:	00000020 	andeq	r0, r0, r0, lsr #32
 204:	000000b4 	strheq	r0, [r0], -r4
 208:	000000c0 	andeq	r0, r0, r0, asr #1
 20c:	0000009c 	muleq	r0, ip, r0
 210:	00000090 	muleq	r0, r0, r0
 214:	00000078 	andeq	r0, r0, r8, ror r0
 218:	0000006c 	andeq	r0, r0, ip, rrx
 21c:	00000050 	andeq	r0, r0, r0, asr r0
 220:	0000003c 	andeq	r0, r0, ip, lsr r0

00000224 <RDMMessage::PrintNoSc(unsigned char const*)>:
 224:	e3e03033 	mvn	r3, #51	; 0x33
 228:	e52de004 	push	{lr}		; (str lr, [sp, #-4]!)
 22c:	e5d01002 	ldrb	r1, [r0, #2]
 230:	e24ddf43 	sub	sp, sp, #268	; 0x10c
 234:	e3510001 	cmp	r1, #1
 238:	e28dc004 	add	ip, sp, #4
 23c:	12411001 	subne	r1, r1, #1
 240:	e5cd3004 	strb	r3, [sp, #4]
 244:	10801001 	addne	r1, r0, r1
 248:	128c3001 	addne	r3, ip, #1
 24c:	0a000003 	beq	260 <RDMMessage::PrintNoSc(unsigned char const*)+0x3c>
 250:	e4d02001 	ldrb	r2, [r0], #1
 254:	e1500001 	cmp	r0, r1
 258:	e4c32001 	strb	r2, [r3], #1
 25c:	1afffffb 	bne	250 <RDMMessage::PrintNoSc(unsigned char const*)+0x2c>
 260:	e1a0000c 	mov	r0, ip
 264:	ebfffffe 	bl	0 <RDMMessage::Print(unsigned char const*)>
 268:	e28ddf43 	add	sp, sp, #268	; 0x10c
 26c:	e49df004 	pop	{pc}		; (ldr pc, [sp], #4)

Disassembly of section .rodata.str1.4:

00000000 <.rodata.str1.4>:
   0:	78322e25 	ldmdavc	r2!, {r0, r2, r5, r9, sl, fp, sp}
   4:	78322e25 	ldmdavc	r2!, {r0, r2, r5, r9, sl, fp, sp}
   8:	322e253a 	eorcc	r2, lr, #243269632	; 0xe800000
   c:	322e2578 	eorcc	r2, lr, #120, 10	; 0x1e000000
  10:	322e2578 	eorcc	r2, lr, #120, 10	; 0x1e000000
  14:	322e2578 	eorcc	r2, lr, #120, 10	; 0x1e000000
  18:	3e2d2078 	mcrcc	0, 1, r2, cr13, cr8, {3}
  1c:	00000020 	andeq	r0, r0, r0, lsr #32
  20:	78322e25 	ldmdavc	r2!, {r0, r2, r5, r9, sl, fp, sp}
  24:	78322e25 	ldmdavc	r2!, {r0, r2, r5, r9, sl, fp, sp}
  28:	322e253a 	eorcc	r2, lr, #243269632	; 0xe800000
  2c:	322e2578 	eorcc	r2, lr, #120, 10	; 0x1e000000
  30:	322e2578 	eorcc	r2, lr, #120, 10	; 0x1e000000
  34:	322e2578 	eorcc	r2, lr, #120, 10	; 0x1e000000
  38:	00002078 	andeq	r2, r0, r8, ror r0
  3c:	43534944 	cmpmi	r3, #68, 18	; 0x110000
  40:	5245564f 	subpl	r5, r5, #82837504	; 0x4f00000
  44:	4f435f59 	svcmi	0x00435f59
  48:	4e414d4d 	cdpmi	13, 4, cr4, cr1, cr13, {2}
  4c:	00000044 	andeq	r0, r0, r4, asr #32
  50:	43534944 	cmpmi	r3, #68, 18	; 0x110000
  54:	5245564f 	subpl	r5, r5, #82837504	; 0x4f00000
  58:	4f435f59 	svcmi	0x00435f59
  5c:	4e414d4d 	cdpmi	13, 4, cr4, cr1, cr13, {2}
  60:	45525f44 	ldrbmi	r5, [r2, #-3908]	; 0xfffff0bc
  64:	4e4f5053 	mcrmi	0, 2, r5, cr15, cr3, {2}
  68:	00004553 	andeq	r4, r0, r3, asr r5
  6c:	5f544547 	svcpl	0x00544547
  70:	4d4d4f43 	stclmi	15, cr4, [sp, #-268]	; 0xfffffef4
  74:	00444e41 	subeq	r4, r4, r1, asr #28
  78:	5f544547 	svcpl	0x00544547
  7c:	4d4d4f43 	stclmi	15, cr4, [sp, #-268]	; 0xfffffef4
  80:	5f444e41 	svcpl	0x00444e41
  84:	50534552 	subspl	r4, r3, r2, asr r5
  88:	45534e4f 	ldrbmi	r4, [r3, #-3663]	; 0xfffff1b1
  8c:	00000000 	andeq	r0, r0, r0
  90:	5f544553 	svcpl	0x00544553
  94:	4d4d4f43 	stclmi	15, cr4, [sp, #-268]	; 0xfffffef4
  98:	00444e41 	subeq	r4, r4, r1, asr #28
  9c:	5f544553 	svcpl	0x00544553
  a0:	4d4d4f43 	stclmi	15, cr4, [sp, #-268]	; 0xfffffef4
  a4:	5f444e41 	svcpl	0x00444e41
  a8:	50534552 	subspl	r4, r3, r2, asr r5
  ac:	45534e4f 	ldrbmi	r4, [r3, #-3663]	; 0xfffff1b1
  b0:	00000000 	andeq	r0, r0, r0
  b4:	7b204343 	blvc	810dc8 <RDMMessage::PrintNoSc(unsigned char const*)+0x810ba4>
  b8:	78322e25 	ldmdavc	r2!, {r0, r2, r5, r9, sl, fp, sp}
  bc:	0000007d 	andeq	r0, r0, sp, ror r0
  c0:	7573202c 	ldrbvc	r2, [r3, #-44]!	; 0xffffffd4
  c4:	65642d62 	strbvs	r2, [r4, #-3426]!	; 0xfffff29e
  c8:	25203a76 	strcs	r3, [r0, #-2678]!	; 0xfffff58a
  cc:	74202c64 	strtvc	r2, [r0], #-3172	; 0xfffff39c
  d0:	25203a6e 	strcs	r3, [r0, #-2670]!	; 0xfffff592
  d4:	50202c64 	eorpl	r2, r0, r4, ror #24
  d8:	30204449 	eorcc	r4, r0, r9, asr #8
  dc:	322e2578 	eorcc	r2, lr, #120, 10	; 0x1e000000
  e0:	322e2578 	eorcc	r2, lr, #120, 10	; 0x1e000000
  e4:	70202c78 	eorvc	r2, r0, r8, ror ip
  e8:	203a6c64 	eorscs	r6, sl, r4, ror #24
  ec:	000a6425 	andeq	r6, sl, r5, lsr #8
  f0:	78322e25 	ldmdavc	r2!, {r0, r2, r5, r9, sl, fp, sp}
  f4:	00000020 	andeq	r0, r0, r0, lsr #32
  f8:	0000000a 	andeq	r0, r0, sl
  fc:	72726f43 	rsbsvc	r6, r2, #268	; 0x10c
 100:	65747075 	ldrbvs	r7, [r4, #-117]!	; 0xffffff8b
 104:	52203f64 	eorpl	r3, r0, #100, 30	; 0x190
 108:	64204d44 	strtvs	r4, [r0], #-3396	; 0xfffff2bc
 10c:	20617461 	rsbcs	r7, r1, r1, ror #8
 110:	332d305b 			; <UNDEFINED> instruction: 0x332d305b
 114:	25203a5d 	strcs	r3, [r0, #-2653]!	; 0xfffff5a3
 118:	3a78322e 	bcc	1e0c9d8 <RDMMessage::PrintNoSc(unsigned char const*)+0x1e0c7b4>
 11c:	78322e25 	ldmdavc	r2!, {r0, r2, r5, r9, sl, fp, sp}
 120:	322e253a 	eorcc	r2, lr, #243269632	; 0xe800000
 124:	2e253a78 			; <UNDEFINED> instruction: 0x2e253a78
 128:	000a7832 	andeq	r7, sl, r2, lsr r8

Disassembly of section .comment:

00000000 <.comment>:
   0:	43434700 	movtmi	r4, #14080	; 0x3700
   4:	4728203a 			; <UNDEFINED> instruction: 0x4728203a
   8:	2029554e 	eorcs	r5, r9, lr, asr #10
   c:	322e3031 	eorcc	r3, lr, #49	; 0x31
  10:	Address 0x0000000000000010 is out of bounds.


Disassembly of section .ARM.attributes:

00000000 <.ARM.attributes>:
   0:	00003241 	andeq	r3, r0, r1, asr #4
   4:	61656100 	cmnvs	r5, r0, lsl #2
   8:	01006962 	tsteq	r0, r2, ror #18
   c:	00000028 	andeq	r0, r0, r8, lsr #32
  10:	4b5a3605 	blmi	168d82c <RDMMessage::PrintNoSc(unsigned char const*)+0x168d608>
  14:	08070600 	stmdaeq	r7, {r9, sl}
  18:	0a010901 	beq	42424 <RDMMessage::PrintNoSc(unsigned char const*)+0x42200>
  1c:	14041202 	strne	r1, [r4], #-514	; 0xfffffdfe
  20:	17011501 	strne	r1, [r1, -r1, lsl #10]
  24:	19011803 	stmdbne	r1, {r0, r1, fp, ip}
  28:	1c011a01 			; <UNDEFINED> instruction: 0x1c011a01
  2c:	22021e01 	andcs	r1, r2, #1, 28
  30:	Address 0x0000000000000030 is out of bounds.


rdmqueuedmessage.o:     file format elf32-littlearm


Disassembly of section .text:

00000000 <RDMQueuedMessage::RDMQueuedMessage()>:
   0:	e92d4010 	push	{r4, lr}
   4:	e3a03c01 	mov	r3, #256	; 0x100
   8:	e1a04000 	mov	r4, r0
   c:	e59f0014 	ldr	r0, [pc, #20]	; 28 <RDMQueuedMessage::RDMQueuedMessage()+0x28>
  10:	e1c430b0 	strh	r3, [r4]
  14:	ebfffffe 	bl	0 <operator new[](unsigned int)>
  18:	e1a03000 	mov	r3, r0
  1c:	e1a00004 	mov	r0, r4
  20:	e5843004 	str	r3, [r4, #4]
  24:	e8bd8010 	pop	{r4, pc}
  28:	0000ea15 	andeq	lr, r0, r5, lsl sl

0000002c <RDMQueuedMessage::~RDMQueuedMessage()>:
  2c:	e92d4010 	push	{r4, lr}
  30:	e1a04000 	mov	r4, r0
  34:	e5900004 	ldr	r0, [r0, #4]
  38:	e3500000 	cmp	r0, #0
  3c:	0a000000 	beq	44 <RDMQueuedMessage::~RDMQueuedMessage()+0x18>
  40:	ebfffffe 	bl	0 <operator delete[](void*)>
  44:	e1a00004 	mov	r0, r4
  48:	e8bd8010 	pop	{r4, pc}

0000004c <RDMQueuedMessage::Copy(TRdmMessage*, unsigned int)>:
  4c:	e52de004 	push	{lr}		; (str lr, [sp, #-4]!)
  50:	e082c082 	add	ip, r2, r2, lsl #1
  54:	e5903004 	ldr	r3, [r0, #4]
  58:	e062c20c 	rsb	ip, r2, ip, lsl #4
  5c:	e08cc10c 	add	ip, ip, ip, lsl #2
  60:	e7d3300c 	ldrb	r3, [r3, ip]
  64:	e5c13014 	strb	r3, [r1, #20]
  68:	e5903004 	ldr	r3, [r0, #4]
  6c:	e083300c 	add	r3, r3, ip
  70:	e5d33001 	ldrb	r3, [r3, #1]
  74:	e5c13015 	strb	r3, [r1, #21]
  78:	e5903004 	ldr	r3, [r0, #4]
  7c:	e083300c 	add	r3, r3, ip
  80:	e5d33002 	ldrb	r3, [r3, #2]
  84:	e5c13016 	strb	r3, [r1, #22]
  88:	e5903004 	ldr	r3, [r0, #4]
  8c:	e083300c 	add	r3, r3, ip
  90:	e5d3e003 	ldrb	lr, [r3, #3]
  94:	e35e0000 	cmp	lr, #0
  98:	e5c1e017 	strb	lr, [r1, #23]
  9c:	049df004 	popeq	{pc}		; (ldreq pc, [sp], #4)
  a0:	e3a02000 	mov	r2, #0
  a4:	e2811017 	add	r1, r1, #23
  a8:	e5903004 	ldr	r3, [r0, #4]
  ac:	e083300c 	add	r3, r3, ip
  b0:	e0833002 	add	r3, r3, r2
  b4:	e5d33004 	ldrb	r3, [r3, #4]
  b8:	e2822001 	add	r2, r2, #1
  bc:	e152000e 	cmp	r2, lr
  c0:	e5e13001 	strb	r3, [r1, #1]!
  c4:	1afffff7 	bne	a8 <RDMQueuedMessage::Copy(TRdmMessage*, unsigned int)+0x5c>
  c8:	e49df004 	pop	{pc}		; (ldr pc, [sp], #4)

000000cc <RDMQueuedMessage::GetMessageCount() const>:
  cc:	e5d00000 	ldrb	r0, [r0]
  d0:	e12fff1e 	bx	lr

000000d4 <RDMQueuedMessage::Handler(unsigned char*)>:
  d4:	e5d02001 	ldrb	r2, [r0, #1]
  d8:	e1a03001 	mov	r3, r1
  dc:	e3520000 	cmp	r2, #0
  e0:	e52de004 	push	{lr}		; (str lr, [sp, #-4]!)
  e4:	1a000005 	bne	100 <RDMQueuedMessage::Handler(unsigned char*)+0x2c>
  e8:	e5d1e018 	ldrb	lr, [r1, #24]
  ec:	e5d02000 	ldrb	r2, [r0]
  f0:	e35e0001 	cmp	lr, #1
  f4:	0a000009 	beq	120 <RDMQueuedMessage::Handler(unsigned char*)+0x4c>
  f8:	e3520000 	cmp	r2, #0
  fc:	1a000004 	bne	114 <RDMQueuedMessage::Handler(unsigned char*)+0x40>
 100:	e3a01030 	mov	r1, #48	; 0x30
 104:	e3a02000 	mov	r2, #0
 108:	e5c31010 	strb	r1, [r3, #16]
 10c:	e5c32017 	strb	r2, [r3, #23]
 110:	e49df004 	pop	{pc}		; (ldr pc, [sp], #4)
 114:	e2422001 	sub	r2, r2, #1
 118:	e6ef2072 	uxtb	r2, r2
 11c:	e5c02000 	strb	r2, [r0]
 120:	e49de004 	pop	{lr}		; (ldr lr, [sp], #4)
 124:	eafffffe 	b	4c <RDMQueuedMessage::Copy(TRdmMessage*, unsigned int)>

00000128 <RDMQueuedMessage::Add(TRdmQueuedMessage const*)>:
 128:	e3a0c000 	mov	ip, #0
 12c:	e5d03000 	ldrb	r3, [r0]
 130:	e5c0c001 	strb	ip, [r0, #1]
 134:	e35300ff 	cmp	r3, #255	; 0xff
 138:	0a000034 	beq	210 <RDMQueuedMessage::Add(TRdmQueuedMessage const*)+0xe8>
 13c:	e92d4010 	push	{r4, lr}
 140:	e1a0e000 	mov	lr, r0
 144:	e0832083 	add	r2, r3, r3, lsl #1
 148:	e5d10000 	ldrb	r0, [r1]
 14c:	e0633202 	rsb	r3, r3, r2, lsl #4
 150:	e59e2004 	ldr	r2, [lr, #4]
 154:	e0833103 	add	r3, r3, r3, lsl #2
 158:	e7c20003 	strb	r0, [r2, r3]
 15c:	e5de3000 	ldrb	r3, [lr]
 160:	e5d10001 	ldrb	r0, [r1, #1]
 164:	e0832083 	add	r2, r3, r3, lsl #1
 168:	e0633202 	rsb	r3, r3, r2, lsl #4
 16c:	e59e2004 	ldr	r2, [lr, #4]
 170:	e0833103 	add	r3, r3, r3, lsl #2
 174:	e0823003 	add	r3, r2, r3
 178:	e5c30001 	strb	r0, [r3, #1]
 17c:	e5de3000 	ldrb	r3, [lr]
 180:	e5d10002 	ldrb	r0, [r1, #2]
 184:	e0832083 	add	r2, r3, r3, lsl #1
 188:	e0633202 	rsb	r3, r3, r2, lsl #4
 18c:	e59e2004 	ldr	r2, [lr, #4]
 190:	e0833103 	add	r3, r3, r3, lsl #2
 194:	e0823003 	add	r3, r2, r3
 198:	e5c30002 	strb	r0, [r3, #2]
 19c:	e5de3000 	ldrb	r3, [lr]
 1a0:	e5d10003 	ldrb	r0, [r1, #3]
 1a4:	e0832083 	add	r2, r3, r3, lsl #1
 1a8:	e0633202 	rsb	r3, r3, r2, lsl #4
 1ac:	e59e2004 	ldr	r2, [lr, #4]
 1b0:	e0833103 	add	r3, r3, r3, lsl #2
 1b4:	e150000c 	cmp	r0, ip
 1b8:	e0823003 	add	r3, r2, r3
 1bc:	e5c30003 	strb	r0, [r3, #3]
 1c0:	12810003 	addne	r0, r1, #3
 1c4:	0a00000c 	beq	1fc <RDMQueuedMessage::Add(TRdmQueuedMessage const*)+0xd4>
 1c8:	e5de3000 	ldrb	r3, [lr]
 1cc:	e59e2004 	ldr	r2, [lr, #4]
 1d0:	e0834083 	add	r4, r3, r3, lsl #1
 1d4:	e0633204 	rsb	r3, r3, r4, lsl #4
 1d8:	e0833103 	add	r3, r3, r3, lsl #2
 1dc:	e5f04001 	ldrb	r4, [r0, #1]!
 1e0:	e0823003 	add	r3, r2, r3
 1e4:	e083300c 	add	r3, r3, ip
 1e8:	e5c34004 	strb	r4, [r3, #4]
 1ec:	e5d13003 	ldrb	r3, [r1, #3]
 1f0:	e28cc001 	add	ip, ip, #1
 1f4:	e153000c 	cmp	r3, ip
 1f8:	8afffff2 	bhi	1c8 <RDMQueuedMessage::Add(TRdmQueuedMessage const*)+0xa0>
 1fc:	e3a00001 	mov	r0, #1
 200:	e5de3000 	ldrb	r3, [lr]
 204:	e0833000 	add	r3, r3, r0
 208:	e5ce3000 	strb	r3, [lr]
 20c:	e8bd8010 	pop	{r4, pc}
 210:	e1a0000c 	mov	r0, ip
 214:	e12fff1e 	bx	lr

Disassembly of section .comment:

00000000 <.comment>:
   0:	43434700 	movtmi	r4, #14080	; 0x3700
   4:	4728203a 			; <UNDEFINED> instruction: 0x4728203a
   8:	2029554e 	eorcs	r5, r9, lr, asr #10
   c:	322e3031 	eorcc	r3, lr, #49	; 0x31
  10:	Address 0x0000000000000010 is out of bounds.


Disassembly of section .ARM.attributes:

00000000 <.ARM.attributes>:
   0:	00003241 	andeq	r3, r0, r1, asr #4
   4:	61656100 	cmnvs	r5, r0, lsl #2
   8:	01006962 	tsteq	r0, r2, ror #18
   c:	00000028 	andeq	r0, r0, r8, lsr #32
  10:	4b5a3605 	blmi	168d82c <RDMQueuedMessage::Add(TRdmQueuedMessage const*)+0x168d704>
  14:	08070600 	stmdaeq	r7, {r9, sl}
  18:	0a010901 	beq	42424 <RDMQueuedMessage::Add(TRdmQueuedMessage const*)+0x422fc>
  1c:	14041202 	strne	r1, [r4], #-514	; 0xfffffdfe
  20:	17011501 	strne	r1, [r1, -r1, lsl #10]
  24:	19011803 	stmdbne	r1, {r0, r1, fp, ip}
  28:	1c011a01 			; <UNDEFINED> instruction: 0x1c011a01
  2c:	22021e01 	andcs	r1, r2, #1, 28
  30:	Address 0x0000000000000030 is out of bounds.


rdmslotinfo.o:     file format elf32-littlearm


Disassembly of section .text:

00000000 <RDMSlotInfo::GetTypeText(unsigned char, unsigned int&)>:
   0:	e3a02000 	mov	r2, #0
   4:	e59fc084 	ldr	ip, [pc, #132]	; 90 <RDMSlotInfo::GetTypeText(unsigned char, unsigned int&)+0x90>
   8:	e1a03002 	mov	r3, r2
   c:	ea000000 	b	14 <RDMSlotInfo::GetTypeText(unsigned char, unsigned int&)+0x14>
  10:	e7dc2183 	ldrb	r2, [ip, r3, lsl #3]
  14:	e1500002 	cmp	r0, r2
  18:	0a00000e 	beq	58 <RDMSlotInfo::GetTypeText(unsigned char, unsigned int&)+0x58>
  1c:	e2833001 	add	r3, r3, #1
  20:	e3530009 	cmp	r3, #9
  24:	1afffff9 	bne	10 <RDMSlotInfo::GetTypeText(unsigned char, unsigned int&)+0x10>
  28:	e3a0206e 	mov	r2, #110	; 0x6e
  2c:	e59f3060 	ldr	r3, [pc, #96]	; 94 <RDMSlotInfo::GetTypeText(unsigned char, unsigned int&)+0x94>
  30:	ea000000 	b	38 <RDMSlotInfo::GetTypeText(unsigned char, unsigned int&)+0x38>
  34:	e5f32001 	ldrb	r2, [r3, #1]!
  38:	e3520000 	cmp	r2, #0
  3c:	1afffffc 	bne	34 <RDMSlotInfo::GetTypeText(unsigned char, unsigned int&)+0x34>
  40:	e59f2050 	ldr	r2, [pc, #80]	; 98 <RDMSlotInfo::GetTypeText(unsigned char, unsigned int&)+0x98>
  44:	e0433002 	sub	r3, r3, r2
  48:	e6ff3073 	uxth	r3, r3
  4c:	e1a00002 	mov	r0, r2
  50:	e5813000 	str	r3, [r1]
  54:	e12fff1e 	bx	lr
  58:	e59f2030 	ldr	r2, [pc, #48]	; 90 <RDMSlotInfo::GetTypeText(unsigned char, unsigned int&)+0x90>
  5c:	e0823183 	add	r3, r2, r3, lsl #3
  60:	e5930004 	ldr	r0, [r3, #4]
  64:	e5d03000 	ldrb	r3, [r0]
  68:	e3530000 	cmp	r3, #0
  6c:	0a000005 	beq	88 <RDMSlotInfo::GetTypeText(unsigned char, unsigned int&)+0x88>
  70:	e1a03000 	mov	r3, r0
  74:	e5f32001 	ldrb	r2, [r3, #1]!
  78:	e3520000 	cmp	r2, #0
  7c:	1afffffc 	bne	74 <RDMSlotInfo::GetTypeText(unsigned char, unsigned int&)+0x74>
  80:	e0433000 	sub	r3, r3, r0
  84:	e6ff3073 	uxth	r3, r3
  88:	e5813000 	str	r3, [r1]
  8c:	e12fff1e 	bx	lr
  90:	00000000 	andeq	r0, r0, r0
  94:	00000001 	andeq	r0, r0, r1
  98:	00000000 	andeq	r0, r0, r0

0000009c <RDMSlotInfo::GetCategoryTextUndefined(unsigned short, unsigned int&)>:
  9c:	e3a0206f 	mov	r2, #111	; 0x6f
  a0:	e59f3020 	ldr	r3, [pc, #32]	; c8 <RDMSlotInfo::GetCategoryTextUndefined(unsigned short, unsigned int&)+0x2c>
  a4:	ea000000 	b	ac <RDMSlotInfo::GetCategoryTextUndefined(unsigned short, unsigned int&)+0x10>
  a8:	e5f32001 	ldrb	r2, [r3, #1]!
  ac:	e3520000 	cmp	r2, #0
  b0:	1afffffc 	bne	a8 <RDMSlotInfo::GetCategoryTextUndefined(unsigned short, unsigned int&)+0xc>
  b4:	e59f0010 	ldr	r0, [pc, #16]	; cc <RDMSlotInfo::GetCategoryTextUndefined(unsigned short, unsigned int&)+0x30>
  b8:	e0433000 	sub	r3, r3, r0
  bc:	e6ff3073 	uxth	r3, r3
  c0:	e5813000 	str	r3, [r1]
  c4:	e12fff1e 	bx	lr
  c8:	00000001 	andeq	r0, r0, r1
  cc:	0000001c 	andeq	r0, r0, ip, lsl r0

000000d0 <RDMSlotInfo::GetCategoryText(unsigned short, unsigned short, unsigned int&)>:
  d0:	e59f30a4 	ldr	r3, [pc, #164]	; 17c <RDMSlotInfo::GetCategoryText(unsigned short, unsigned short, unsigned int&)+0xac>
  d4:	e92d4010 	push	{r4, lr}
  d8:	e1510003 	cmp	r1, r3
  dc:	0a000023 	beq	170 <RDMSlotInfo::GetCategoryText(unsigned short, unsigned short, unsigned int&)+0xa0>
  e0:	e3a0e028 	mov	lr, #40	; 0x28
  e4:	e3a00000 	mov	r0, #0
  e8:	e1a0300e 	mov	r3, lr
  ec:	e59fc08c 	ldr	ip, [pc, #140]	; 180 <RDMSlotInfo::GetCategoryText(unsigned short, unsigned short, unsigned int&)+0xb0>
  f0:	e59f408c 	ldr	r4, [pc, #140]	; 184 <RDMSlotInfo::GetCategoryText(unsigned short, unsigned short, unsigned int&)+0xb4>
  f4:	ea000000 	b	fc <RDMSlotInfo::GetCategoryText(unsigned short, unsigned short, unsigned int&)+0x2c>
  f8:	e1dcc4b8 	ldrh	ip, [ip, #72]	; 0x48
  fc:	e151000c 	cmp	r1, ip
 100:	e08030c3 	add	r3, r0, r3, asr #1
 104:	82830001 	addhi	r0, r3, #1
 108:	8a000001 	bhi	114 <RDMSlotInfo::GetCategoryText(unsigned short, unsigned short, unsigned int&)+0x44>
 10c:	2a000009 	bcs	138 <RDMSlotInfo::GetCategoryText(unsigned short, unsigned short, unsigned int&)+0x68>
 110:	e243e001 	sub	lr, r3, #1
 114:	e04e3000 	sub	r3, lr, r0
 118:	e080c0c3 	add	ip, r0, r3, asr #1
 11c:	e15e0000 	cmp	lr, r0
 120:	e084c18c 	add	ip, r4, ip, lsl #3
 124:	aafffff3 	bge	f8 <RDMSlotInfo::GetCategoryText(unsigned short, unsigned short, unsigned int&)+0x28>
 128:	e3a03000 	mov	r3, #0
 12c:	e1a00003 	mov	r0, r3
 130:	e5823000 	str	r3, [r2]
 134:	e8bd8010 	pop	{r4, pc}
 138:	e59f1044 	ldr	r1, [pc, #68]	; 184 <RDMSlotInfo::GetCategoryText(unsigned short, unsigned short, unsigned int&)+0xb4>
 13c:	e0813183 	add	r3, r1, r3, lsl #3
 140:	e593004c 	ldr	r0, [r3, #76]	; 0x4c
 144:	e5d03000 	ldrb	r3, [r0]
 148:	e3530000 	cmp	r3, #0
 14c:	0a000005 	beq	168 <RDMSlotInfo::GetCategoryText(unsigned short, unsigned short, unsigned int&)+0x98>
 150:	e1a03000 	mov	r3, r0
 154:	e5f31001 	ldrb	r1, [r3, #1]!
 158:	e3510000 	cmp	r1, #0
 15c:	1afffffc 	bne	154 <RDMSlotInfo::GetCategoryText(unsigned short, unsigned short, unsigned int&)+0x84>
 160:	e0433000 	sub	r3, r3, r0
 164:	e6ff3073 	uxth	r3, r3
 168:	e5823000 	str	r3, [r2]
 16c:	e8bd8010 	pop	{r4, pc}
 170:	e1a01002 	mov	r1, r2
 174:	ebfffffe 	bl	9c <RDMSlotInfo::GetCategoryTextUndefined(unsigned short, unsigned int&)>
 178:	e8bd8010 	pop	{r4, pc}
 17c:	0000ffff 	strdeq	pc, [r0], -pc	; <UNPREDICTABLE>
 180:	00000302 	andeq	r0, r0, r2, lsl #6
 184:	00000000 	andeq	r0, r0, r0

00000188 <RDMSlotInfo::bsearch(unsigned short)>:
 188:	e3a0c028 	mov	ip, #40	; 0x28
 18c:	e52de004 	push	{lr}		; (str lr, [sp, #-4]!)
 190:	e3a02000 	mov	r2, #0
 194:	e1a0300c 	mov	r3, ip
 198:	e59f1040 	ldr	r1, [pc, #64]	; 1e0 <RDMSlotInfo::bsearch(unsigned short)+0x58>
 19c:	e59fe040 	ldr	lr, [pc, #64]	; 1e4 <RDMSlotInfo::bsearch(unsigned short)+0x5c>
 1a0:	ea000003 	b	1b4 <RDMSlotInfo::bsearch(unsigned short)+0x2c>
 1a4:	e04c3002 	sub	r3, ip, r2
 1a8:	e08210c3 	add	r1, r2, r3, asr #1
 1ac:	e08e1181 	add	r1, lr, r1, lsl #3
 1b0:	e1d114b8 	ldrh	r1, [r1, #72]	; 0x48
 1b4:	e1500001 	cmp	r0, r1
 1b8:	e08230c3 	add	r3, r2, r3, asr #1
 1bc:	82832001 	addhi	r2, r3, #1
 1c0:	8a000001 	bhi	1cc <RDMSlotInfo::bsearch(unsigned short)+0x44>
 1c4:	2a000003 	bcs	1d8 <RDMSlotInfo::bsearch(unsigned short)+0x50>
 1c8:	e243c001 	sub	ip, r3, #1
 1cc:	e152000c 	cmp	r2, ip
 1d0:	dafffff3 	ble	1a4 <RDMSlotInfo::bsearch(unsigned short)+0x1c>
 1d4:	e3e03000 	mvn	r3, #0
 1d8:	e1a00003 	mov	r0, r3
 1dc:	e49df004 	pop	{pc}		; (ldr pc, [sp], #4)
 1e0:	00000302 	andeq	r0, r0, r2, lsl #6
 1e4:	00000000 	andeq	r0, r0, r0

Disassembly of section .rodata.str1.4:

00000000 <.LC0>:
   0:	65646e55 	strbvs	r6, [r4, #-3669]!	; 0xfffff1ab
   4:	656e6966 	strbvs	r6, [lr, #-2406]!	; 0xfffff69a
   8:	65732064 	ldrbvs	r2, [r3, #-100]!	; 0xffffff9c
   c:	646e6f63 	strbtvs	r6, [lr], #-3939	; 0xfffff09d
  10:	20797261 	rsbscs	r7, r9, r1, ror #4
  14:	65707974 	ldrbvs	r7, [r0, #-2420]!	; 0xfffff68c
  18:	00000000 	andeq	r0, r0, r0

0000001c <.LC1>:
  1c:	64206f4e 	strtvs	r6, [r0], #-3918	; 0xfffff0b2
  20:	6e696665 	cdpvs	6, 6, cr6, cr9, cr5, {3}
  24:	6f697469 	svcvs	0x00697469
  28:	0000006e 	andeq	r0, r0, lr, rrx
  2c:	65746e49 	ldrbvs	r6, [r4, #-3657]!	; 0xfffff1b7
  30:	7469736e 	strbtvc	r7, [r9], #-878	; 0xfffffc92
  34:	00000079 	andeq	r0, r0, r9, ror r0
  38:	65746e49 	ldrbvs	r6, [r4, #-3657]!	; 0xfffff1b7
  3c:	7469736e 	strbtvc	r7, [r9], #-878	; 0xfffffc92
  40:	614d2079 	hvcvs	53769	; 0xd209
  44:	72657473 	rsbvc	r7, r5, #1929379840	; 0x73000000
  48:	00000000 	andeq	r0, r0, r0
  4c:	006e6150 	rsbeq	r6, lr, r0, asr r1
  50:	746c6954 	strbtvc	r6, [ip], #-2388	; 0xfffff6ac
  54:	00000000 	andeq	r0, r0, r0
  58:	6f6c6f43 	svcvs	0x006c6f43
  5c:	68572072 	ldmdavs	r7, {r1, r4, r5, r6, sp}^
  60:	006c6565 	rsbeq	r6, ip, r5, ror #10
  64:	74627553 	strbtvc	r7, [r2], #-1363	; 0xfffffaad
  68:	74636172 	strbtvc	r6, [r3], #-370	; 0xfffffe8e
  6c:	20657669 	rsbcs	r7, r5, r9, ror #12
  70:	6f6c6f43 	svcvs	0x006c6f43
  74:	694d2072 	stmdbvs	sp, {r1, r4, r5, r6, sp}^
  78:	20726578 	rsbscs	r6, r2, r8, ror r5
  7c:	209380e2 	addscs	r8, r3, r2, ror #1
  80:	6e617943 	vnmulvs.f16	s15, s2, s6	; <UNPREDICTABLE>
  84:	756c422f 	strbvc	r4, [ip, #-559]!	; 0xfffffdd1
  88:	00000065 	andeq	r0, r0, r5, rrx
  8c:	74627553 	strbtvc	r7, [r2], #-1363	; 0xfffffaad
  90:	74636172 	strbtvc	r6, [r3], #-370	; 0xfffffe8e
  94:	20657669 	rsbcs	r7, r5, r9, ror #12
  98:	6f6c6f43 	svcvs	0x006c6f43
  9c:	694d2072 	stmdbvs	sp, {r1, r4, r5, r6, sp}^
  a0:	20726578 	rsbscs	r6, r2, r8, ror r5
  a4:	209380e2 	addscs	r8, r3, r2, ror #1
  a8:	6c6c6559 	cfstr64vs	mvdx6, [ip], #-356	; 0xfffffe9c
  ac:	412f776f 			; <UNDEFINED> instruction: 0x412f776f
  b0:	7265626d 	rsbvc	r6, r5, #-805306362	; 0xd0000006
  b4:	00000000 	andeq	r0, r0, r0
  b8:	74627553 	strbtvc	r7, [r2], #-1363	; 0xfffffaad
  bc:	74636172 	strbtvc	r6, [r3], #-370	; 0xfffffe8e
  c0:	20657669 	rsbcs	r7, r5, r9, ror #12
  c4:	6f6c6f43 	svcvs	0x006c6f43
  c8:	694d2072 	stmdbvs	sp, {r1, r4, r5, r6, sp}^
  cc:	20726578 	rsbscs	r6, r2, r8, ror r5
  d0:	614d202d 	cmpvs	sp, sp, lsr #32
  d4:	746e6567 	strbtvc	r6, [lr], #-1383	; 0xfffffa99
  d8:	00000061 	andeq	r0, r0, r1, rrx
  dc:	69646441 	stmdbvs	r4!, {r0, r6, sl, sp, lr}^
  e0:	65766974 	ldrbvs	r6, [r6, #-2420]!	; 0xfffff68c
  e4:	6c6f4320 	stclvs	3, cr4, [pc], #-128	; 6c <.LC1+0x50>
  e8:	4d20726f 	sfmmi	f7, 4, [r0, #-444]!	; 0xfffffe44
  ec:	72657869 	rsbvc	r7, r5, #6881280	; 0x690000
  f0:	52202d20 	eorpl	r2, r0, #32, 26	; 0x800
  f4:	00006465 	andeq	r6, r0, r5, ror #8
  f8:	69646441 	stmdbvs	r4!, {r0, r6, sl, sp, lr}^
  fc:	65766974 	ldrbvs	r6, [r6, #-2420]!	; 0xfffff68c
 100:	6c6f4320 	stclvs	3, cr4, [pc], #-128	; 88 <.LC1+0x6c>
 104:	4d20726f 	sfmmi	f7, 4, [r0, #-444]!	; 0xfffffe44
 108:	72657869 	rsbvc	r7, r5, #6881280	; 0x690000
 10c:	47202d20 	strmi	r2, [r0, -r0, lsr #26]!
 110:	6e656572 	mcrvs	5, 3, r6, cr5, cr2, {3}
 114:	00000000 	andeq	r0, r0, r0
 118:	69646441 	stmdbvs	r4!, {r0, r6, sl, sp, lr}^
 11c:	65766974 	ldrbvs	r6, [r6, #-2420]!	; 0xfffff68c
 120:	6c6f4320 	stclvs	3, cr4, [pc], #-128	; a8 <.LC1+0x8c>
 124:	4d20726f 	sfmmi	f7, 4, [r0, #-444]!	; 0xfffffe44
 128:	72657869 	rsbvc	r7, r5, #6881280	; 0x690000
 12c:	42202d20 	eormi	r2, r0, #32, 26	; 0x800
 130:	0065756c 	rsbeq	r7, r5, ip, ror #10
 134:	6f6c6f43 	svcvs	0x006c6f43
 138:	65542072 	ldrbvs	r2, [r4, #-114]	; 0xffffff8e
 13c:	7265706d 	rsbvc	r7, r5, #109	; 0x6d
 140:	72757461 	rsbsvc	r7, r5, #1627389952	; 0x61000000
 144:	6f432065 	svcvs	0x00432065
 148:	63657272 	cmnvs	r5, #536870919	; 0x20000007
 14c:	6e6f6974 			; <UNDEFINED> instruction: 0x6e6f6974
 150:	00000000 	andeq	r0, r0, r0
 154:	69646441 	stmdbvs	r4!, {r0, r6, sl, sp, lr}^
 158:	65766974 	ldrbvs	r6, [r6, #-2420]!	; 0xfffff68c
 15c:	6c6f4320 	stclvs	3, cr4, [pc], #-128	; e4 <.LC1+0xc8>
 160:	4d20726f 	sfmmi	f7, 4, [r0, #-444]!	; 0xfffffe44
 164:	72657869 	rsbvc	r7, r5, #6881280	; 0x690000
 168:	41202d20 			; <UNDEFINED> instruction: 0x41202d20
 16c:	7265626d 	rsbvc	r6, r5, #-805306362	; 0xd0000006
 170:	00000000 	andeq	r0, r0, r0
 174:	69646441 	stmdbvs	r4!, {r0, r6, sl, sp, lr}^
 178:	65766974 	ldrbvs	r6, [r6, #-2420]!	; 0xfffff68c
 17c:	6c6f4320 	stclvs	3, cr4, [pc], #-128	; 104 <.LC1+0xe8>
 180:	4d20726f 	sfmmi	f7, 4, [r0, #-444]!	; 0xfffffe44
 184:	72657869 	rsbvc	r7, r5, #6881280	; 0x690000
 188:	57202d20 	strpl	r2, [r0, -r0, lsr #26]!
 18c:	65746968 	ldrbvs	r6, [r4, #-2408]!	; 0xfffff698
 190:	00000000 	andeq	r0, r0, r0
 194:	69646441 	stmdbvs	r4!, {r0, r6, sl, sp, lr}^
 198:	65766974 	ldrbvs	r6, [r6, #-2420]!	; 0xfffff68c
 19c:	6c6f4320 	stclvs	3, cr4, [pc], #-128	; 124 <.LC1+0x108>
 1a0:	4d20726f 	sfmmi	f7, 4, [r0, #-444]!	; 0xfffffe44
 1a4:	72657869 	rsbvc	r7, r5, #6881280	; 0x690000
 1a8:	57202d20 	strpl	r2, [r0, -r0, lsr #26]!
 1ac:	206d7261 	rsbcs	r7, sp, r1, ror #4
 1b0:	74696857 	strbtvc	r6, [r9], #-2135	; 0xfffff7a9
 1b4:	00000065 	andeq	r0, r0, r5, rrx
 1b8:	69646441 	stmdbvs	r4!, {r0, r6, sl, sp, lr}^
 1bc:	65766974 	ldrbvs	r6, [r6, #-2420]!	; 0xfffff68c
 1c0:	6c6f4320 	stclvs	3, cr4, [pc], #-128	; 148 <.LC1+0x12c>
 1c4:	4d20726f 	sfmmi	f7, 4, [r0, #-444]!	; 0xfffffe44
 1c8:	72657869 	rsbvc	r7, r5, #6881280	; 0x690000
 1cc:	43202d20 			; <UNDEFINED> instruction: 0x43202d20
 1d0:	206c6f6f 	rsbcs	r6, ip, pc, ror #30
 1d4:	74696857 	strbtvc	r6, [r9], #-2135	; 0xfffff7a9
 1d8:	00000065 	andeq	r0, r0, r5, rrx
 1dc:	74627553 	strbtvc	r7, [r2], #-1363	; 0xfffffaad
 1e0:	74636172 	strbtvc	r6, [r3], #-370	; 0xfffffe8e
 1e4:	20657669 	rsbcs	r7, r5, r9, ror #12
 1e8:	6f6c6f43 	svcvs	0x006c6f43
 1ec:	694d2072 	stmdbvs	sp, {r1, r4, r5, r6, sp}^
 1f0:	20726578 	rsbscs	r6, r2, r8, ror r5
 1f4:	5655202d 	ldrbpl	r2, [r5], -sp, lsr #32
 1f8:	00000000 	andeq	r0, r0, r0
 1fc:	00657548 	rsbeq	r7, r5, r8, asr #10
 200:	75746153 	ldrbvc	r6, [r4, #-339]!	; 0xfffffead
 204:	69746172 	ldmdbvs	r4!, {r1, r4, r5, r6, r8, sp, lr}^
 208:	00006e6f 	andeq	r6, r0, pc, ror #28
 20c:	74617453 	strbtvc	r7, [r1], #-1107	; 0xfffffbad
 210:	67206369 	strvs	r6, [r0, -r9, ror #6]!
 214:	206f626f 	rsbcs	r6, pc, pc, ror #4
 218:	65656877 	strbvs	r6, [r5, #-2167]!	; 0xfffff789
 21c:	0000006c 	andeq	r0, r0, ip, rrx
 220:	61746f52 	cmnvs	r4, r2, asr pc
 224:	676e6974 			; <UNDEFINED> instruction: 0x676e6974
 228:	626f6720 	rsbvs	r6, pc, #32, 14	; 0x800000
 22c:	6877206f 	ldmdavs	r7!, {r0, r1, r2, r3, r5, r6, sp}^
 230:	006c6565 	rsbeq	r6, ip, r5, ror #10
 234:	73697250 	cmnvc	r9, #80, 4
 238:	6877206d 	ldmdavs	r7!, {r0, r2, r3, r5, r6, sp}^
 23c:	006c6565 	rsbeq	r6, ip, r5, ror #10
 240:	65666645 	strbvs	r6, [r6, #-1605]!	; 0xfffff9bb
 244:	20737463 	rsbscs	r7, r3, r3, ror #8
 248:	65656877 	strbvs	r6, [r5, #-2167]!	; 0xfffff789
 24c:	0000006c 	andeq	r0, r0, ip, rrx
 250:	6d616542 	cfstr64vs	mvdx6, [r1, #-264]!	; 0xfffffef8
 254:	7a697320 	bvc	1a5cedc <RDMSlotInfo::bsearch(unsigned short)+0x1a5cd54>
 258:	72692065 	rsbvc	r2, r9, #101	; 0x65
 25c:	00007369 	andeq	r7, r0, r9, ror #6
 260:	65676445 	strbvs	r6, [r7, #-1093]!	; 0xfffffbbb
 264:	6e654c2f 	cdpvs	12, 6, cr4, cr5, cr15, {1}
 268:	6f662073 	svcvs	0x00662073
 26c:	00737563 	rsbseq	r7, r3, r3, ror #10
 270:	736f7246 	cmnvc	pc, #1610612740	; 0x60000004
 274:	69442f74 	stmdbvs	r4, {r2, r4, r5, r6, r8, r9, sl, fp, sp}^
 278:	73756666 	cmnvc	r5, #106954752	; 0x6600000
 27c:	006e6f69 	rsbeq	r6, lr, r9, ror #30
 280:	6f727453 	svcvs	0x00727453
 284:	532f6562 			; <UNDEFINED> instruction: 0x532f6562
 288:	74747568 	ldrbtvc	r7, [r4], #-1384	; 0xfffffa98
 28c:	00007265 	andeq	r7, r0, r5, ror #4
 290:	6d6f6f5a 	stclvs	15, cr6, [pc, #-360]!	; 130 <.LC1+0x114>
 294:	6e656c20 	cdpvs	12, 6, cr6, cr5, cr0, {1}
 298:	00000073 	andeq	r0, r0, r3, ror r0
 29c:	6d617246 	sfmvs	f7, 2, [r1, #-280]!	; 0xfffffee8
 2a0:	20676e69 	rsbcs	r6, r7, r9, ror #28
 2a4:	74756873 	ldrbtvc	r6, [r5], #-2163	; 0xfffff78d
 2a8:	00726574 	rsbseq	r6, r2, r4, ror r5
 2ac:	6d617246 	sfmvs	f7, 2, [r1, #-280]!	; 0xfffffee8
 2b0:	20676e69 	rsbcs	r6, r7, r9, ror #28
 2b4:	74756873 	ldrbtvc	r6, [r5], #-2163	; 0xfffff78d
 2b8:	20726574 	rsbscs	r6, r2, r4, ror r5
 2bc:	61746f72 	cmnvs	r4, r2, ror pc
 2c0:	6e6f6974 			; <UNDEFINED> instruction: 0x6e6f6974
 2c4:	00000000 	andeq	r0, r0, r0
 2c8:	73756f44 	cmnvc	r5, #68, 30	; 0x110
 2cc:	00007265 	andeq	r7, r0, r5, ror #4
 2d0:	6e726142 	rpwvssm	f6, f2, f2
 2d4:	6f6f4420 	svcvs	0x006f4420
 2d8:	00000072 	andeq	r0, r0, r2, ror r0
 2dc:	706d614c 	rsbvc	r6, sp, ip, asr #2
 2e0:	6e6f6320 	cdpvs	3, 6, cr6, cr15, cr0, {1}
 2e4:	6c6f7274 	sfmvs	f7, 2, [pc], #-464	; 11c <.LC1+0x100>
 2e8:	6e756620 	cdpvs	6, 7, cr6, cr5, cr0, {1}
 2ec:	6f697463 	svcvs	0x00697463
 2f0:	0000736e 	andeq	r7, r0, lr, ror #6
 2f4:	74786946 	ldrbtvc	r6, [r8], #-2374	; 0xfffff6ba
 2f8:	20657275 	rsbcs	r7, r5, r5, ror r2
 2fc:	746e6f63 	strbtvc	r6, [lr], #-3939	; 0xfffff09d
 300:	206c6f72 	rsbcs	r6, ip, r2, ror pc
 304:	6e616863 	cdpvs	8, 6, cr6, cr1, cr3, {3}
 308:	006c656e 	rsbeq	r6, ip, lr, ror #10
 30c:	7263614d 	rsbvc	r6, r3, #1073741843	; 0x40000013
 310:	6f63206f 	svcvs	0x0063206f
 314:	6f72746e 	svcvs	0x0072746e
 318:	0000006c 	andeq	r0, r0, ip, rrx
 31c:	616c6552 	cmnvs	ip, r2, asr r5
 320:	726f2079 	rsbvc	r2, pc, #121	; 0x79
 324:	776f7020 	strbvc	r7, [pc, -r0, lsr #32]!
 328:	63207265 			; <UNDEFINED> instruction: 0x63207265
 32c:	72746e6f 	rsbsvc	r6, r4, #1776	; 0x6f0
 330:	00006c6f 	andeq	r6, r0, pc, ror #24
 334:	206e6146 	rsbcs	r6, lr, r6, asr #2
 338:	746e6f63 	strbtvc	r6, [lr], #-3939	; 0xfffff09d
 33c:	006c6f72 	rsbeq	r6, ip, r2, ror pc
 340:	74616548 	strbtvc	r6, [r1], #-1352	; 0xfffffab8
 344:	63207265 			; <UNDEFINED> instruction: 0x63207265
 348:	72746e6f 	rsbsvc	r6, r4, #1776	; 0x6f0
 34c:	00006c6f 	andeq	r6, r0, pc, ror #24
 350:	6e756f46 	cdpvs	15, 7, cr6, cr5, cr6, {2}
 354:	6e696174 	mcrvs	1, 3, r6, cr9, cr4, {3}
 358:	74617720 	strbtvc	r7, [r1], #-1824	; 0xfffff8e0
 35c:	70207265 	eorvc	r7, r0, r5, ror #4
 360:	20706d75 	rsbscs	r6, r0, r5, ror sp
 364:	746e6f63 	strbtvc	r6, [lr], #-3939	; 0xfffff09d
 368:	206c6f72 	rsbcs	r6, ip, r2, ror pc
 36c:	00000000 	andeq	r0, r0, r0
 370:	746f6c53 	strbtvc	r6, [pc], #-3155	; 378 <.LC1+0x35c>
 374:	72696420 	rsbvc	r6, r9, #32, 8	; 0x20000000
 378:	6c746365 	ldclvs	3, cr6, [r4], #-404	; 0xfffffe6c
 37c:	6f632079 	svcvs	0x00632079
 380:	6f72746e 	svcvs	0x0072746e
 384:	7020736c 	eorvc	r7, r0, ip, ror #6
 388:	6d617261 	sfmvs	f7, 2, [r1, #-388]!	; 0xfffffe7c
 38c:	72657465 	rsbvc	r7, r5, #1694498816	; 0x65000000
 390:	65722820 	ldrbvs	r2, [r2, #-2080]!	; 0xfffff7e0
 394:	73657270 	cmnvc	r5, #112, 4
 398:	73746e65 	cmnvc	r4, #1616	; 0x650
 39c:	616f4320 	cmnvs	pc, r0, lsr #6
 3a0:	20657372 	rsbcs	r7, r5, r2, ror r3
 3a4:	20726f66 	rsbscs	r6, r2, r6, ror #30
 3a8:	622d3631 	eorvs	r3, sp, #51380224	; 0x3100000
 3ac:	70207469 	eorvc	r7, r0, r9, ror #8
 3b0:	6d617261 	sfmvs	f7, 2, [r1, #-388]!	; 0xfffffe7c
 3b4:	72657465 	rsbvc	r7, r5, #1694498816	; 0x65000000
 3b8:	00002973 	andeq	r2, r0, r3, ror r9
 3bc:	656e6946 	strbvs	r6, [lr, #-2374]!	; 0xfffff6ba
 3c0:	6f66202c 	svcvs	0x0066202c
 3c4:	36312072 			; <UNDEFINED> instruction: 0x36312072
 3c8:	7469622d 	strbtvc	r6, [r9], #-557	; 0xfffffdd3
 3cc:	72617020 	rsbvc	r7, r1, #32
 3d0:	74656d61 	strbtvc	r6, [r5], #-3425	; 0xfffff29f
 3d4:	00737265 	rsbseq	r7, r3, r5, ror #4
 3d8:	746f6c53 	strbtvc	r6, [pc], #-3155	; 3e0 <.LC1+0x3c4>
 3dc:	74657320 	strbtvc	r7, [r5], #-800	; 0xfffffce0
 3e0:	69742073 	ldmdbvs	r4!, {r0, r1, r4, r5, r6, sp}^
 3e4:	676e696d 	strbvs	r6, [lr, -sp, ror #18]!
 3e8:	6c617620 	stclvs	6, cr7, [r1], #-128	; 0xffffff80
 3ec:	66206575 			; <UNDEFINED> instruction: 0x66206575
 3f0:	6120726f 			; <UNDEFINED> instruction: 0x6120726f
 3f4:	636f7373 	cmnvs	pc, #-872415231	; 0xcc000001
 3f8:	65746169 	ldrbvs	r6, [r4, #-361]!	; 0xfffffe97
 3fc:	61702064 	cmnvs	r0, r4, rrx
 400:	656d6172 	strbvs	r6, [sp, #-370]!	; 0xfffffe8e
 404:	00726574 	rsbseq	r6, r2, r4, ror r5
 408:	746f6c53 	strbtvc	r6, [pc], #-3155	; 410 <.LC1+0x3f4>
 40c:	74657320 	strbtvc	r7, [r5], #-800	; 0xfffffce0
 410:	70732073 	rsbsvc	r2, r3, r3, ror r0
 414:	2f646565 	svccs	0x00646565
 418:	6f6c6576 	svcvs	0x006c6576
 41c:	79746963 	ldmdbvc	r4!, {r0, r1, r5, r6, r8, fp, sp, lr}^
 420:	726f6620 	rsbvc	r6, pc, #32, 12	; 0x2000000
 424:	73736120 	cmnvc	r3, #32, 2
 428:	6169636f 	cmnvs	r9, pc, ror #6
 42c:	20646574 	rsbcs	r6, r4, r4, ror r5
 430:	61726170 	cmnvs	r2, r0, ror r1
 434:	6574656d 	ldrbvs	r6, [r4, #-1389]!	; 0xfffffa93
 438:	00000072 	andeq	r0, r0, r2, ror r0
 43c:	746f6c53 	strbtvc	r6, [pc], #-3155	; 444 <.LC1+0x428>
 440:	6f727020 	svcvs	0x00727020
 444:	65646976 	strbvs	r6, [r4, #-2422]!	; 0xfffff68a
 448:	6f632073 	svcvs	0x00632073
 44c:	6f72746e 	svcvs	0x0072746e
 450:	6f6d2f6c 	svcvs	0x006d2f6c
 454:	69206564 	stmdbvs	r0!, {r2, r5, r6, r8, sl, sp, lr}
 458:	206f666e 	rsbcs	r6, pc, lr, ror #12
 45c:	20726f66 	rsbscs	r6, r2, r6, ror #30
 460:	61726170 	cmnvs	r2, r0, ror r1
 464:	6574656d 	ldrbvs	r6, [r4, #-1389]!	; 0xfffffa93
 468:	00000072 	andeq	r0, r0, r2, ror r0
 46c:	746f6c53 	strbtvc	r6, [pc], #-3155	; 474 <.LC1+0x458>
 470:	74657320 	strbtvc	r7, [r5], #-800	; 0xfffffce0
 474:	6e692073 	mcrvs	0, 3, r2, cr9, cr3, {3}
 478:	20786564 	rsbscs	r6, r8, r4, ror #10
 47c:	69736f70 	ldmdbvs	r3!, {r4, r5, r6, r8, r9, sl, fp, sp, lr}^
 480:	6e6f6974 			; <UNDEFINED> instruction: 0x6e6f6974
 484:	726f6620 	rsbvc	r6, pc, #32, 12	; 0x2000000
 488:	73736120 	cmnvc	r3, #32, 2
 48c:	6169636f 	cmnvs	r9, pc, ror #6
 490:	20646574 	rsbcs	r6, r4, r4, ror r5
 494:	61726170 	cmnvs	r2, r0, ror r1
 498:	6574656d 	ldrbvs	r6, [r4, #-1389]!	; 0xfffffa93
 49c:	00000072 	andeq	r0, r0, r2, ror r0
 4a0:	746f6c53 	strbtvc	r6, [pc], #-3155	; 4a8 <.LC1+0x48c>
 4a4:	74657320 	strbtvc	r7, [r5], #-800	; 0xfffffce0
 4a8:	6f722073 	svcvs	0x00722073
 4ac:	69746174 	ldmdbvs	r4!, {r2, r4, r5, r6, r8, sp, lr}^
 4b0:	73206e6f 			; <UNDEFINED> instruction: 0x73206e6f
 4b4:	64656570 	strbtvs	r6, [r5], #-1392	; 0xfffffa90
 4b8:	726f6620 	rsbvc	r6, pc, #32, 12	; 0x2000000
 4bc:	73736120 	cmnvc	r3, #32, 2
 4c0:	6169636f 	cmnvs	r9, pc, ror #6
 4c4:	20646574 	rsbcs	r6, r4, r4, ror r5
 4c8:	61726170 	cmnvs	r2, r0, ror r1
 4cc:	6574656d 	ldrbvs	r6, [r4, #-1389]!	; 0xfffffa93
 4d0:	00000072 	andeq	r0, r0, r2, ror r0
 4d4:	626d6f43 	rsbvs	r6, sp, #268	; 0x10c
 4d8:	64656e69 	strbtvs	r6, [r5], #-3689	; 0xfffff197
 4dc:	646e6920 	strbtvs	r6, [lr], #-2336	; 0xfffff6e0
 4e0:	722f7865 	eorvc	r7, pc, #6619136	; 0x650000
 4e4:	7461746f 	strbtvc	r7, [r1], #-1135	; 0xfffffb91
 4e8:	206e6f69 	rsbcs	r6, lr, r9, ror #30
 4ec:	746e6f63 	strbtvc	r6, [lr], #-3939	; 0xfffff09d
 4f0:	006c6f72 	rsbeq	r6, ip, r2, ror pc

Disassembly of section .rodata:

00000000 <s_tTableC1>:
   0:	00000000 	andeq	r0, r0, r0
   4:	00000370 	andeq	r0, r0, r0, ror r3
   8:	00000001 	andeq	r0, r0, r1
   c:	000003bc 			; <UNDEFINED> instruction: 0x000003bc
  10:	00000002 	andeq	r0, r0, r2
  14:	000003d8 	ldrdeq	r0, [r0], -r8
  18:	00000003 	andeq	r0, r0, r3
  1c:	00000408 	andeq	r0, r0, r8, lsl #8
  20:	00000004 	andeq	r0, r0, r4
  24:	0000043c 	andeq	r0, r0, ip, lsr r4
  28:	00000005 	andeq	r0, r0, r5
  2c:	0000046c 	andeq	r0, r0, ip, ror #8
  30:	00000006 	andeq	r0, r0, r6
  34:	000004a0 	andeq	r0, r0, r0, lsr #9
  38:	00000007 	andeq	r0, r0, r7
  3c:	000004d4 	ldrdeq	r0, [r0], -r4
  40:	000000ff 	strdeq	r0, [r0], -pc	; <UNPREDICTABLE>
  44:	00000000 	andeq	r0, r0, r0

00000048 <s_tTableC2>:
  48:	00000001 	andeq	r0, r0, r1
  4c:	0000002c 	andeq	r0, r0, ip, lsr #32
  50:	00000002 	andeq	r0, r0, r2
  54:	00000038 	andeq	r0, r0, r8, lsr r0
  58:	00000101 	andeq	r0, r0, r1, lsl #2
  5c:	0000004c 	andeq	r0, r0, ip, asr #32
  60:	00000102 	andeq	r0, r0, r2, lsl #2
  64:	00000050 	andeq	r0, r0, r0, asr r0
  68:	00000201 	andeq	r0, r0, r1, lsl #4
  6c:	00000058 	andeq	r0, r0, r8, asr r0
  70:	00000202 	andeq	r0, r0, r2, lsl #4
  74:	00000064 	andeq	r0, r0, r4, rrx
  78:	00000203 	andeq	r0, r0, r3, lsl #4
  7c:	0000008c 	andeq	r0, r0, ip, lsl #1
  80:	00000204 	andeq	r0, r0, r4, lsl #4
  84:	000000b8 	strheq	r0, [r0], -r8
  88:	00000205 	andeq	r0, r0, r5, lsl #4
  8c:	000000dc 	ldrdeq	r0, [r0], -ip
  90:	00000206 	andeq	r0, r0, r6, lsl #4
  94:	000000f8 	strdeq	r0, [r0], -r8
  98:	00000207 	andeq	r0, r0, r7, lsl #4
  9c:	00000118 	andeq	r0, r0, r8, lsl r1
  a0:	00000208 	andeq	r0, r0, r8, lsl #4
  a4:	00000134 	andeq	r0, r0, r4, lsr r1
  a8:	00000211 	andeq	r0, r0, r1, lsl r2
  ac:	00000154 	andeq	r0, r0, r4, asr r1
  b0:	00000212 	andeq	r0, r0, r2, lsl r2
  b4:	00000174 	andeq	r0, r0, r4, ror r1
  b8:	00000213 	andeq	r0, r0, r3, lsl r2
  bc:	00000194 	muleq	r0, r4, r1
  c0:	00000214 	andeq	r0, r0, r4, lsl r2
  c4:	000001b8 			; <UNDEFINED> instruction: 0x000001b8
  c8:	00000215 	andeq	r0, r0, r5, lsl r2
  cc:	000001dc 	ldrdeq	r0, [r0], -ip
  d0:	00000216 	andeq	r0, r0, r6, lsl r2
  d4:	000001fc 	strdeq	r0, [r0], -ip
  d8:	00000217 	andeq	r0, r0, r7, lsl r2
  dc:	00000200 	andeq	r0, r0, r0, lsl #4
  e0:	00000301 	andeq	r0, r0, r1, lsl #6
  e4:	0000020c 	andeq	r0, r0, ip, lsl #4
  e8:	00000302 	andeq	r0, r0, r2, lsl #6
  ec:	00000220 	andeq	r0, r0, r0, lsr #4
  f0:	00000303 	andeq	r0, r0, r3, lsl #6
  f4:	00000234 	andeq	r0, r0, r4, lsr r2
  f8:	00000304 	andeq	r0, r0, r4, lsl #6
  fc:	00000240 	andeq	r0, r0, r0, asr #4
 100:	00000401 	andeq	r0, r0, r1, lsl #8
 104:	00000250 	andeq	r0, r0, r0, asr r2
 108:	00000402 	andeq	r0, r0, r2, lsl #8
 10c:	00000260 	andeq	r0, r0, r0, ror #4
 110:	00000403 	andeq	r0, r0, r3, lsl #8
 114:	00000270 	andeq	r0, r0, r0, ror r2
 118:	00000404 	andeq	r0, r0, r4, lsl #8
 11c:	00000280 	andeq	r0, r0, r0, lsl #5
 120:	00000405 	andeq	r0, r0, r5, lsl #8
 124:	00000290 	muleq	r0, r0, r2
 128:	00000406 	andeq	r0, r0, r6, lsl #8
 12c:	0000029c 	muleq	r0, ip, r2
 130:	00000407 	andeq	r0, r0, r7, lsl #8
 134:	000002ac 	andeq	r0, r0, ip, lsr #5
 138:	00000408 	andeq	r0, r0, r8, lsl #8
 13c:	000002c8 	andeq	r0, r0, r8, asr #5
 140:	00000409 	andeq	r0, r0, r9, lsl #8
 144:	000002d0 	ldrdeq	r0, [r0], -r0	; <UNPREDICTABLE>
 148:	00000501 	andeq	r0, r0, r1, lsl #10
 14c:	000002dc 	ldrdeq	r0, [r0], -ip
 150:	00000502 	andeq	r0, r0, r2, lsl #10
 154:	000002f4 	strdeq	r0, [r0], -r4
 158:	00000504 	andeq	r0, r0, r4, lsl #10
 15c:	0000030c 	andeq	r0, r0, ip, lsl #6
 160:	00000505 	andeq	r0, r0, r5, lsl #10
 164:	0000031c 	andeq	r0, r0, ip, lsl r3
 168:	00000506 	andeq	r0, r0, r6, lsl #10
 16c:	00000334 	andeq	r0, r0, r4, lsr r3
 170:	00000507 	andeq	r0, r0, r7, lsl #10
 174:	00000340 	andeq	r0, r0, r0, asr #6
 178:	00000508 	andeq	r0, r0, r8, lsl #10
 17c:	00000350 	andeq	r0, r0, r0, asr r3
 180:	0000ffff 	strdeq	pc, [r0], -pc	; <UNPREDICTABLE>
 184:	0000001c 	andeq	r0, r0, ip, lsl r0

Disassembly of section .comment:

00000000 <.comment>:
   0:	43434700 	movtmi	r4, #14080	; 0x3700
   4:	4728203a 			; <UNDEFINED> instruction: 0x4728203a
   8:	2029554e 	eorcs	r5, r9, lr, asr #10
   c:	322e3031 	eorcc	r3, lr, #49	; 0x31
  10:	Address 0x0000000000000010 is out of bounds.


Disassembly of section .ARM.attributes:

00000000 <.ARM.attributes>:
   0:	00003241 	andeq	r3, r0, r1, asr #4
   4:	61656100 	cmnvs	r5, r0, lsl #2
   8:	01006962 	tsteq	r0, r2, ror #18
   c:	00000028 	andeq	r0, r0, r8, lsr #32
  10:	4b5a3605 	blmi	168d82c <RDMSlotInfo::bsearch(unsigned short)+0x168d6a4>
  14:	08070600 	stmdaeq	r7, {r9, sl}
  18:	0a010901 	beq	42424 <RDMSlotInfo::bsearch(unsigned short)+0x4229c>
  1c:	14041202 	strne	r1, [r4], #-514	; 0xfffffdfe
  20:	17011501 	strne	r1, [r1, -r1, lsl #10]
  24:	19011803 	stmdbne	r1, {r0, r1, fp, ip}
  28:	1c011a01 			; <UNDEFINED> instruction: 0x1c011a01
  2c:	22021e01 	andcs	r1, r2, #1, 28
  30:	Address 0x0000000000000030 is out of bounds.

