In archive lib_h3/libnetwork.a:

arp.o:     file format elf32-littlearm


Disassembly of section .text.arp_announce:

00000000 <arp_announce>:
   0:	e3000000 	movw	r0, #0
   4:	e3400000 	movt	r0, #0
   8:	e590301c 	ldr	r3, [r0, #28]
   c:	e3530000 	cmp	r3, #0
  10:	012fff1e 	bxeq	lr
  14:	e3a0102a 	mov	r1, #42	; 0x2a
  18:	eafffffe 	b	0 <emac_eth_send>

Disassembly of section .text.arp_handle_request:

00000000 <arp_handle_request>:
   0:	e52de004 	push	{lr}		; (str lr, [sp, #-4]!)
   4:	e24dd00c 	sub	sp, sp, #12
   8:	e28d2004 	add	r2, sp, #4
   c:	e2803026 	add	r3, r0, #38	; 0x26
  10:	e280c02a 	add	ip, r0, #42	; 0x2a
  14:	e4d31001 	ldrb	r1, [r3], #1
  18:	e153000c 	cmp	r3, ip
  1c:	e4c21001 	strb	r1, [r2], #1
  20:	1afffffb 	bne	14 <arp_handle_request+0x14>
  24:	e59d2004 	ldr	r2, [sp, #4]
  28:	e3003000 	movw	r3, #0
  2c:	e3403000 	movt	r3, #0
  30:	e593301c 	ldr	r3, [r3, #28]
  34:	e1520003 	cmp	r2, r3
  38:	1a000017 	bne	9c <arp_handle_request+0x9c>
  3c:	e300e000 	movw	lr, #0
  40:	e2803006 	add	r3, r0, #6
  44:	e340e000 	movt	lr, #0
  48:	e280c00c 	add	ip, r0, #12
  4c:	e1a0200e 	mov	r2, lr
  50:	e4d31001 	ldrb	r1, [r3], #1
  54:	e15c0003 	cmp	ip, r3
  58:	e4c21001 	strb	r1, [r2], #1
  5c:	1afffffb 	bne	50 <arp_handle_request+0x50>
  60:	e59f203c 	ldr	r2, [pc, #60]	; a4 <arp_handle_request+0xa4>
  64:	e2803016 	add	r3, r0, #22
  68:	e280c01c 	add	ip, r0, #28
  6c:	e4d31001 	ldrb	r1, [r3], #1
  70:	e15c0003 	cmp	ip, r3
  74:	e5e21001 	strb	r1, [r2, #1]!
  78:	1afffffb 	bne	6c <arp_handle_request+0x6c>
  7c:	e590301c 	ldr	r3, [r0, #28]
  80:	e3000000 	movw	r0, #0
  84:	e3400000 	movt	r0, #0
  88:	e3a0102a 	mov	r1, #42	; 0x2a
  8c:	e58e3026 	str	r3, [lr, #38]	; 0x26
  90:	e28dd00c 	add	sp, sp, #12
  94:	e49de004 	pop	{lr}		; (ldr lr, [sp], #4)
  98:	eafffffe 	b	0 <emac_eth_send>
  9c:	e28dd00c 	add	sp, sp, #12
  a0:	e49df004 	pop	{pc}		; (ldr pc, [sp], #4)
  a4:	0000001f 	.word	0x0000001f

Disassembly of section .text.arp_handle_reply:

00000000 <arp_handle_reply>:
   0:	e590101c 	ldr	r1, [r0, #28]
   4:	e2800016 	add	r0, r0, #22
   8:	eafffffe 	b	0 <arp_cache_update>

Disassembly of section .text.unlikely.arp_init:

00000000 <arp_init>:
   0:	e92d41f0 	push	{r4, r5, r6, r7, r8, lr}
   4:	e1a05001 	mov	r5, r1
   8:	e1a04000 	mov	r4, r0
   c:	ebfffffe 	bl	0 <arp_cache_init>
  10:	e59f2174 	ldr	r2, [pc, #372]	; 18c <arp_init+0x18c>
  14:	e2841006 	add	r1, r4, #6
  18:	e5950000 	ldr	r0, [r5]
  1c:	e1a03004 	mov	r3, r4
  20:	e1530001 	cmp	r3, r1
  24:	14d3c001 	ldrbne	ip, [r3], #1
  28:	14c2c001 	strbne	ip, [r2], #1
  2c:	1afffffb 	bne	20 <arp_init+0x20>
  30:	e3003000 	movw	r3, #0
  34:	e3a0c006 	mov	ip, #6
  38:	e3403000 	movt	r3, #0
  3c:	e3e0e000 	mvn	lr, #0
  40:	e1a02003 	mov	r2, r3
  44:	e25cc001 	subs	ip, ip, #1
  48:	24c3e001 	strbcs	lr, [r3], #1
  4c:	2afffffc 	bcs	44 <arp_init+0x44>
  50:	e59f5138 	ldr	r5, [pc, #312]	; 190 <arp_init+0x190>
  54:	e3a03c01 	mov	r3, #256	; 0x100
  58:	e1c231b4 	strh	r3, [r2, #20]
  5c:	e300e608 	movw	lr, #1544	; 0x608
  60:	e340e100 	movt	lr, #256	; 0x100
  64:	e3a0c008 	mov	ip, #8
  68:	e340c406 	movt	ip, #1030	; 0x406
  6c:	e1a03004 	mov	r3, r4
  70:	e582e00c 	str	lr, [r2, #12]
  74:	e582c010 	str	ip, [r2, #16]
  78:	e1530001 	cmp	r3, r1
  7c:	14d36001 	ldrbne	r6, [r3], #1
  80:	14c56001 	strbne	r6, [r5], #1
  84:	1afffffb 	bne	78 <arp_init+0x78>
  88:	e59f5104 	ldr	r5, [pc, #260]	; 194 <arp_init+0x194>
  8c:	e3a03006 	mov	r3, #6
  90:	e582001c 	str	r0, [r2, #28]
  94:	e3a06000 	mov	r6, #0
  98:	e2533001 	subs	r3, r3, #1
  9c:	24c56001 	strbcs	r6, [r5], #1
  a0:	2afffffc 	bcs	98 <arp_init+0x98>
  a4:	e59f50ec 	ldr	r5, [pc, #236]	; 198 <arp_init+0x198>
  a8:	e1a03004 	mov	r3, r4
  ac:	e5820026 	str	r0, [r2, #38]	; 0x26
  b0:	e1530001 	cmp	r3, r1
  b4:	14d36001 	ldrbne	r6, [r3], #1
  b8:	14c56001 	strbne	r6, [r5], #1
  bc:	1afffffb 	bne	b0 <arp_init+0xb0>
  c0:	e3003000 	movw	r3, #0
  c4:	e3a06006 	mov	r6, #6
  c8:	e3403000 	movt	r3, #0
  cc:	e3e07000 	mvn	r7, #0
  d0:	e1a05003 	mov	r5, r3
  d4:	e2566001 	subs	r6, r6, #1
  d8:	24c37001 	strbcs	r7, [r3], #1
  dc:	2afffffc 	bcs	d4 <arp_init+0xd4>
  e0:	e59f60b4 	ldr	r6, [pc, #180]	; 19c <arp_init+0x19c>
  e4:	e3a03c01 	mov	r3, #256	; 0x100
  e8:	e1c531b4 	strh	r3, [r5, #20]
  ec:	e1a03004 	mov	r3, r4
  f0:	e585e00c 	str	lr, [r5, #12]
  f4:	e585c010 	str	ip, [r5, #16]
  f8:	e1530001 	cmp	r3, r1
  fc:	14d37001 	ldrbne	r7, [r3], #1
 100:	14c67001 	strbne	r7, [r6], #1
 104:	1afffffb 	bne	f8 <arp_init+0xf8>
 108:	e585001c 	str	r0, [r5, #28]
 10c:	e3a03006 	mov	r3, #6
 110:	e59f5088 	ldr	r5, [pc, #136]	; 1a0 <arp_init+0x1a0>
 114:	e3a06000 	mov	r6, #0
 118:	e2533001 	subs	r3, r3, #1
 11c:	24c56001 	strbcs	r6, [r5], #1
 120:	2afffffc 	bcs	118 <arp_init+0x118>
 124:	e59f5078 	ldr	r5, [pc, #120]	; 1a4 <arp_init+0x1a4>
 128:	e1a03004 	mov	r3, r4
 12c:	e1530001 	cmp	r3, r1
 130:	14d36001 	ldrbne	r6, [r3], #1
 134:	14c56001 	strbne	r6, [r5], #1
 138:	1afffffb 	bne	12c <arp_init+0x12c>
 13c:	e3003000 	movw	r3, #0
 140:	e3403000 	movt	r3, #0
 144:	e583c010 	str	ip, [r3, #16]
 148:	e3a0cc02 	mov	ip, #512	; 0x200
 14c:	e1c3c1b4 	strh	ip, [r3, #20]
 150:	e283c016 	add	ip, r3, #22
 154:	e583e00c 	str	lr, [r3, #12]
 158:	e1540001 	cmp	r4, r1
 15c:	14d4e001 	ldrbne	lr, [r4], #1
 160:	14cce001 	strbne	lr, [ip], #1
 164:	1afffffb 	bne	158 <arp_init+0x158>
 168:	e592201c 	ldr	r2, [r2, #28]
 16c:	e583001c 	str	r0, [r3, #28]
 170:	e3520000 	cmp	r2, #0
 174:	08bd81f0 	popeq	{r4, r5, r6, r7, r8, pc}
 178:	e3000000 	movw	r0, #0
 17c:	e3a0102a 	mov	r1, #42	; 0x2a
 180:	e8bd41f0 	pop	{r4, r5, r6, r7, r8, lr}
 184:	e3400000 	movt	r0, #0
 188:	eafffffe 	b	0 <emac_eth_send>
 18c:	00000006 	.word	0x00000006
 190:	00000016 	.word	0x00000016
 194:	00000020 	.word	0x00000020
 198:	00000006 	.word	0x00000006
 19c:	00000016 	.word	0x00000016
 1a0:	00000020 	.word	0x00000020
 1a4:	00000006 	.word	0x00000006

Disassembly of section .text.arp_send_request:

00000000 <arp_send_request>:
   0:	e3003000 	movw	r3, #0
   4:	e3a0102a 	mov	r1, #42	; 0x2a
   8:	e3403000 	movt	r3, #0
   c:	e5830026 	str	r0, [r3, #38]	; 0x26
  10:	e1a00003 	mov	r0, r3
  14:	eafffffe 	b	0 <emac_eth_send>

Disassembly of section .text.hot.arp_handle:

00000000 <arp_handle>:
   0:	e1d021b4 	ldrh	r2, [r0, #20]
   4:	e3520c01 	cmp	r2, #256	; 0x100
   8:	0a000004 	beq	20 <arp_handle+0x20>
   c:	e3520c02 	cmp	r2, #512	; 0x200
  10:	112fff1e 	bxne	lr
  14:	e590101c 	ldr	r1, [r0, #28]
  18:	e2800016 	add	r0, r0, #22
  1c:	eafffffe 	b	0 <arp_cache_update>
  20:	eafffffe 	b	0 <arp_handle>

arp_cache.o:     file format elf32-littlearm


Disassembly of section .text.unlikely.arp_cache_init:

00000000 <arp_cache_init>:
   0:	e59f3040 	ldr	r3, [pc, #64]	; 48 <arp_cache_init+0x48>
   4:	e3a00000 	mov	r0, #0
   8:	e3001000 	movw	r1, #0
   c:	e1a02000 	mov	r2, r0
  10:	e3401000 	movt	r1, #0
  14:	e1a0c000 	mov	ip, r0
  18:	e1c100b0 	strh	r0, [r1]
  1c:	e503c004 	str	ip, [r3, #-4]
  20:	e1a01003 	mov	r1, r3
  24:	e2830006 	add	r0, r3, #6
  28:	e1510000 	cmp	r1, r0
  2c:	14c1c001 	strbne	ip, [r1], #1
  30:	1afffffc 	bne	28 <arp_cache_init+0x28>
  34:	e2822003 	add	r2, r2, #3
  38:	e283300c 	add	r3, r3, #12
  3c:	e3520060 	cmp	r2, #96	; 0x60
  40:	1afffff5 	bne	1c <arp_cache_init+0x1c>
  44:	e12fff1e 	bx	lr
  48:	00000004 	.word	0x00000004

Disassembly of section .text.arp_cache_update:

00000000 <arp_cache_update>:
   0:	e92d4030 	push	{r4, r5, lr}
   4:	e3004000 	movw	r4, #0
   8:	e3404000 	movt	r4, #0
   c:	e1d450b0 	ldrh	r5, [r4]
  10:	e3550020 	cmp	r5, #32
  14:	08bd8030 	popeq	{r4, r5, pc}
  18:	e3550000 	cmp	r5, #0
  1c:	0300c000 	movweq	ip, #0
  20:	0340c000 	movteq	ip, #0
  24:	0a00000a 	beq	54 <arp_cache_update+0x54>
  28:	e3a0e003 	mov	lr, #3
  2c:	e300c000 	movw	ip, #0
  30:	e00e059e 	mul	lr, lr, r5
  34:	e340c000 	movt	ip, #0
  38:	e3a03000 	mov	r3, #0
  3c:	e79c2103 	ldr	r2, [ip, r3, lsl #2]
  40:	e2833003 	add	r3, r3, #3
  44:	e1520001 	cmp	r2, r1
  48:	08bd8030 	popeq	{r4, r5, pc}
  4c:	e153000e 	cmp	r3, lr
  50:	1afffff9 	bne	3c <arp_cache_update+0x3c>
  54:	e3a0300c 	mov	r3, #12
  58:	e280e006 	add	lr, r0, #6
  5c:	e023c593 	mla	r3, r3, r5, ip
  60:	e2833003 	add	r3, r3, #3
  64:	e4d02001 	ldrb	r2, [r0], #1
  68:	e150000e 	cmp	r0, lr
  6c:	e5e32001 	strb	r2, [r3, #1]!
  70:	1afffffb 	bne	64 <arp_cache_update+0x64>
  74:	e3a0300c 	mov	r3, #12
  78:	e0030593 	mul	r3, r3, r5
  7c:	e2855001 	add	r5, r5, #1
  80:	e1c450b0 	strh	r5, [r4]
  84:	e78c1003 	str	r1, [ip, r3]
  88:	e8bd8030 	pop	{r4, r5, pc}

Disassembly of section .text.arp_cache_lookup:

00000000 <arp_cache_lookup>:
   0:	e92d47f0 	push	{r4, r5, r6, r7, r8, r9, sl, lr}
   4:	e3007000 	movw	r7, #0
   8:	e3407000 	movt	r7, #0
   c:	e1a06000 	mov	r6, r0
  10:	e1a08001 	mov	r8, r1
  14:	e3a03000 	mov	r3, #0
  18:	e3a0000c 	mov	r0, #12
  1c:	ea000003 	b	30 <arp_cache_lookup+0x30>
  20:	e3510000 	cmp	r1, #0
  24:	0a000011 	beq	70 <arp_cache_lookup+0x70>
  28:	e3530020 	cmp	r3, #32
  2c:	0a00000f 	beq	70 <arp_cache_lookup+0x70>
  30:	e0020390 	mul	r2, r0, r3
  34:	e2833001 	add	r3, r3, #1
  38:	e7971002 	ldr	r1, [r7, r2]
  3c:	e1510006 	cmp	r1, r6
  40:	1afffff6 	bne	20 <arp_cache_lookup+0x20>
  44:	e2823004 	add	r3, r2, #4
  48:	e2488001 	sub	r8, r8, #1
  4c:	e0873003 	add	r3, r7, r3
  50:	e2831006 	add	r1, r3, #6
  54:	e4d32001 	ldrb	r2, [r3], #1
  58:	e1530001 	cmp	r3, r1
  5c:	e5e82001 	strb	r2, [r8, #1]!
  60:	1afffffb 	bne	54 <arp_cache_lookup+0x54>
  64:	e1a04006 	mov	r4, r6
  68:	e1a00004 	mov	r0, r4
  6c:	e8bd87f0 	pop	{r4, r5, r6, r7, r8, r9, sl, pc}
  70:	e3005000 	movw	r5, #0
  74:	e3a0a003 	mov	sl, #3
  78:	e3405000 	movt	r5, #0
  7c:	e1d590b0 	ldrh	r9, [r5]
  80:	e1a00006 	mov	r0, r6
  84:	e30f4fff 	movw	r4, #65535	; 0xffff
  88:	e3404001 	movt	r4, #1
  8c:	ebfffffe 	bl	0 <arp_send_request>
  90:	ea000002 	b	a0 <arp_cache_lookup+0xa0>
  94:	ebfffffe 	bl	0 <net_handle>
  98:	e2544001 	subs	r4, r4, #1
  9c:	0a00000c 	beq	d4 <arp_cache_lookup+0xd4>
  a0:	e1d530b0 	ldrh	r3, [r5]
  a4:	e1530009 	cmp	r3, r9
  a8:	0afffff9 	beq	94 <arp_cache_lookup+0x94>
  ac:	e3a0300c 	mov	r3, #12
  b0:	e2488001 	sub	r8, r8, #1
  b4:	e0237993 	mla	r3, r3, r9, r7
  b8:	e2832004 	add	r2, r3, #4
  bc:	e283300a 	add	r3, r3, #10
  c0:	e4d21001 	ldrb	r1, [r2], #1
  c4:	e1520003 	cmp	r2, r3
  c8:	e5e81001 	strb	r1, [r8, #1]!
  cc:	1afffffb 	bne	c0 <arp_cache_lookup+0xc0>
  d0:	eaffffe3 	b	64 <arp_cache_lookup+0x64>
  d4:	e1d530b0 	ldrh	r3, [r5]
  d8:	e1530009 	cmp	r3, r9
  dc:	1afffff2 	bne	ac <arp_cache_lookup+0xac>
  e0:	e24a3001 	sub	r3, sl, #1
  e4:	e213a0ff 	ands	sl, r3, #255	; 0xff
  e8:	1affffe4 	bne	80 <arp_cache_lookup+0x80>
  ec:	e1a00004 	mov	r0, r4
  f0:	e8bd87f0 	pop	{r4, r5, r6, r7, r8, r9, sl, pc}

Disassembly of section .text.arp_cache_dump:

00000000 <arp_cache_dump>:
   0:	e12fff1e 	bx	lr

dhcp.o:     file format elf32-littlearm


Disassembly of section .text._parse_response:

00000000 <_parse_response>:
   0:	e92d4ff0 	push	{r4, r5, r6, r7, r8, r9, sl, fp, lr}
   4:	e3a06b03 	mov	r6, #3072	; 0xc00
   8:	e34061c2 	movt	r6, #450	; 0x1c2
   c:	e24ddf97 	sub	sp, sp, #604	; 0x25c
  10:	e1a09001 	mov	r9, r1
  14:	e6ef5070 	uxtb	r5, r0
  18:	e5967084 	ldr	r7, [r6, #132]	; 0x84
  1c:	e28d402e 	add	r4, sp, #46	; 0x2e
  20:	e2818005 	add	r8, r1, #5
  24:	ea000003 	b	38 <_parse_response+0x38>
  28:	e5963084 	ldr	r3, [r6, #132]	; 0x84
  2c:	e0433007 	sub	r3, r3, r7
  30:	e3530f7d 	cmp	r3, #500	; 0x1f4
  34:	2a000093 	bcs	288 <_parse_response+0x288>
  38:	ebfffffe 	bl	0 <net_handle>
  3c:	e58d4000 	str	r4, [sp]
  40:	e28d3030 	add	r3, sp, #48	; 0x30
  44:	e3a02f89 	mov	r2, #548	; 0x224
  48:	e28d1034 	add	r1, sp, #52	; 0x34
  4c:	e1a00005 	mov	r0, r5
  50:	ebfffffe 	bl	0 <udp_recv>
  54:	e3500000 	cmp	r0, #0
  58:	0afffff2 	beq	28 <_parse_response+0x28>
  5c:	e1d430b0 	ldrh	r3, [r4]
  60:	e3530043 	cmp	r3, #67	; 0x43
  64:	1affffef 	bne	28 <_parse_response+0x28>
  68:	e28d204f 	add	r2, sp, #79	; 0x4f
  6c:	e2493001 	sub	r3, r9, #1
  70:	e5f31001 	ldrb	r1, [r3, #1]!
  74:	e5f2c001 	ldrb	ip, [r2, #1]!
  78:	e15c0001 	cmp	ip, r1
  7c:	1affffe9 	bne	28 <_parse_response+0x28>
  80:	e1530008 	cmp	r3, r8
  84:	1afffff9 	bne	70 <_parse_response+0x70>
  88:	e28d3034 	add	r3, sp, #52	; 0x34
  8c:	e300e000 	movw	lr, #0
  90:	e0831000 	add	r1, r3, r0
  94:	e3003000 	movw	r3, #0
  98:	e3403000 	movt	r3, #0
  9c:	e3a0c000 	mov	ip, #0
  a0:	e58d3024 	str	r3, [sp, #36]	; 0x24
  a4:	e1a0900c 	mov	r9, ip
  a8:	e5d32000 	ldrb	r2, [r3]
  ac:	e1a0400c 	mov	r4, ip
  b0:	e340e000 	movt	lr, #0
  b4:	e1a0000c 	mov	r0, ip
  b8:	e58d2010 	str	r2, [sp, #16]
  bc:	e5d32001 	ldrb	r2, [r3, #1]
  c0:	e5de8000 	ldrb	r8, [lr]
  c4:	e58d2014 	str	r2, [sp, #20]
  c8:	e5d32002 	ldrb	r2, [r3, #2]
  cc:	e5d33003 	ldrb	r3, [r3, #3]
  d0:	e58d2018 	str	r2, [sp, #24]
  d4:	e3002000 	movw	r2, #0
  d8:	e3402000 	movt	r2, #0
  dc:	e58d301c 	str	r3, [sp, #28]
  e0:	e5d23002 	ldrb	r3, [r2, #2]
  e4:	e5d2b000 	ldrb	fp, [r2]
  e8:	e58d3008 	str	r3, [sp, #8]
  ec:	e5d23003 	ldrb	r3, [r2, #3]
  f0:	e5d2a001 	ldrb	sl, [r2, #1]
  f4:	e58d300c 	str	r3, [sp, #12]
  f8:	e28d3f49 	add	r3, sp, #292	; 0x124
  fc:	e5de7001 	ldrb	r7, [lr, #1]
 100:	e5de6002 	ldrb	r6, [lr, #2]
 104:	e5de5003 	ldrb	r5, [lr, #3]
 108:	e58d2020 	str	r2, [sp, #32]
 10c:	e1530001 	cmp	r3, r1
 110:	2a000013 	bcs	164 <_parse_response+0x164>
 114:	e5d32000 	ldrb	r2, [r3]
 118:	e3520035 	cmp	r2, #53	; 0x35
 11c:	0a000044 	beq	234 <_parse_response+0x234>
 120:	8a00003d 	bhi	21c <_parse_response+0x21c>
 124:	e3520001 	cmp	r2, #1
 128:	0a00004f 	beq	26c <_parse_response+0x26c>
 12c:	e3520003 	cmp	r2, #3
 130:	1a000032 	bne	200 <_parse_response+0x200>
 134:	e5d32001 	ldrb	r2, [r3, #1]
 138:	e5d39004 	ldrb	r9, [r3, #4]
 13c:	e0832002 	add	r2, r3, r2
 140:	e5d3b002 	ldrb	fp, [r3, #2]
 144:	e5d3a003 	ldrb	sl, [r3, #3]
 148:	e5d33005 	ldrb	r3, [r3, #5]
 14c:	e58d9008 	str	r9, [sp, #8]
 150:	e3a09001 	mov	r9, #1
 154:	e58d300c 	str	r3, [sp, #12]
 158:	e2823002 	add	r3, r2, #2
 15c:	e1530001 	cmp	r3, r1
 160:	3affffeb 	bcc	114 <_parse_response+0x114>
 164:	e3540000 	cmp	r4, #0
 168:	15ce8000 	strbne	r8, [lr]
 16c:	15ce7001 	strbne	r7, [lr, #1]
 170:	15ce6002 	strbne	r6, [lr, #2]
 174:	15ce5003 	strbne	r5, [lr, #3]
 178:	e3590000 	cmp	r9, #0
 17c:	0a000006 	beq	19c <_parse_response+0x19c>
 180:	e59d3020 	ldr	r3, [sp, #32]
 184:	e59d2008 	ldr	r2, [sp, #8]
 188:	e5c3b000 	strb	fp, [r3]
 18c:	e5c32002 	strb	r2, [r3, #2]
 190:	e59d200c 	ldr	r2, [sp, #12]
 194:	e5c3a001 	strb	sl, [r3, #1]
 198:	e5c32003 	strb	r2, [r3, #3]
 19c:	e35c0000 	cmp	ip, #0
 1a0:	0a000008 	beq	1c8 <_parse_response+0x1c8>
 1a4:	e59d3024 	ldr	r3, [sp, #36]	; 0x24
 1a8:	e59d2010 	ldr	r2, [sp, #16]
 1ac:	e5c32000 	strb	r2, [r3]
 1b0:	e59d2014 	ldr	r2, [sp, #20]
 1b4:	e5c32001 	strb	r2, [r3, #1]
 1b8:	e59d2018 	ldr	r2, [sp, #24]
 1bc:	e5c32002 	strb	r2, [r3, #2]
 1c0:	e59d201c 	ldr	r2, [sp, #28]
 1c4:	e5c32003 	strb	r2, [r3, #3]
 1c8:	e3500002 	cmp	r0, #2
 1cc:	1a000009 	bne	1f8 <_parse_response+0x1f8>
 1d0:	e5dd2045 	ldrb	r2, [sp, #69]	; 0x45
 1d4:	e3003000 	movw	r3, #0
 1d8:	e3403000 	movt	r3, #0
 1dc:	e5ddc044 	ldrb	ip, [sp, #68]	; 0x44
 1e0:	e5dd1046 	ldrb	r1, [sp, #70]	; 0x46
 1e4:	e5c32001 	strb	r2, [r3, #1]
 1e8:	e5dd2047 	ldrb	r2, [sp, #71]	; 0x47
 1ec:	e5c3c000 	strb	ip, [r3]
 1f0:	e5c31002 	strb	r1, [r3, #2]
 1f4:	e5c32003 	strb	r2, [r3, #3]
 1f8:	e28ddf97 	add	sp, sp, #604	; 0x25c
 1fc:	e8bd8ff0 	pop	{r4, r5, r6, r7, r8, r9, sl, fp, pc}
 200:	e3520000 	cmp	r2, #0
 204:	02833001 	addeq	r3, r3, #1
 208:	0affffbf 	beq	10c <_parse_response+0x10c>
 20c:	e5d32001 	ldrb	r2, [r3, #1]
 210:	e2833002 	add	r3, r3, #2
 214:	e0833002 	add	r3, r3, r2
 218:	eaffffbb 	b	10c <_parse_response+0x10c>
 21c:	e3520036 	cmp	r2, #54	; 0x36
 220:	0a000006 	beq	240 <_parse_response+0x240>
 224:	e35200ff 	cmp	r2, #255	; 0xff
 228:	01a03001 	moveq	r3, r1
 22c:	0affffb6 	beq	10c <_parse_response+0x10c>
 230:	eafffff5 	b	20c <_parse_response+0x20c>
 234:	e5d30002 	ldrb	r0, [r3, #2]
 238:	e2833003 	add	r3, r3, #3
 23c:	eaffffb2 	b	10c <_parse_response+0x10c>
 240:	e5d32002 	ldrb	r2, [r3, #2]
 244:	e3a0c001 	mov	ip, #1
 248:	e2833006 	add	r3, r3, #6
 24c:	e58d2010 	str	r2, [sp, #16]
 250:	e5532003 	ldrb	r2, [r3, #-3]
 254:	e58d2014 	str	r2, [sp, #20]
 258:	e5532002 	ldrb	r2, [r3, #-2]
 25c:	e58d2018 	str	r2, [sp, #24]
 260:	e5532001 	ldrb	r2, [r3, #-1]
 264:	e58d201c 	str	r2, [sp, #28]
 268:	eaffffa7 	b	10c <_parse_response+0x10c>
 26c:	e5d38002 	ldrb	r8, [r3, #2]
 270:	e1a04002 	mov	r4, r2
 274:	e5d37003 	ldrb	r7, [r3, #3]
 278:	e2833006 	add	r3, r3, #6
 27c:	e5536002 	ldrb	r6, [r3, #-2]
 280:	e5535001 	ldrb	r5, [r3, #-1]
 284:	eaffffa0 	b	10c <_parse_response+0x10c>
 288:	e3500000 	cmp	r0, #0
 28c:	1affff7d 	bne	88 <_parse_response+0x88>
 290:	e3e00000 	mvn	r0, #0
 294:	eaffffd7 	b	1f8 <_parse_response+0x1f8>

Disassembly of section .text.dhcp_client:

00000000 <dhcp_client>:
   0:	e92d4ff0 	push	{r4, r5, r6, r7, r8, r9, sl, fp, lr}
   4:	e3004000 	movw	r4, #0
   8:	e59fc470 	ldr	ip, [pc, #1136]	; 480 <dhcp_client+0x480>
   c:	e24dd03c 	sub	sp, sp, #60	; 0x3c
  10:	e3404000 	movt	r4, #0
  14:	e1a09000 	mov	r9, r0
  18:	e58d102c 	str	r1, [sp, #44]	; 0x2c
  1c:	e24ce01c 	sub	lr, ip, #28
  20:	e58d2028 	str	r2, [sp, #40]	; 0x28
  24:	e2841022 	add	r1, r4, #34	; 0x22
  28:	e3a00000 	mov	r0, #0
  2c:	e5410022 	strb	r0, [r1, #-34]	; 0xffffffde
  30:	e2413002 	sub	r3, r1, #2
  34:	e5410021 	strb	r0, [r1, #-33]	; 0xffffffdf
  38:	e5410020 	strb	r0, [r1, #-32]	; 0xffffffe0
  3c:	e541001f 	strb	r0, [r1, #-31]	; 0xffffffe1
  40:	e541001e 	strb	r0, [r1, #-30]	; 0xffffffe2
  44:	e541001d 	strb	r0, [r1, #-29]	; 0xffffffe3
  48:	e541001c 	strb	r0, [r1, #-28]	; 0xffffffe4
  4c:	e541001b 	strb	r0, [r1, #-27]	; 0xffffffe5
  50:	e541001a 	strb	r0, [r1, #-26]	; 0xffffffe6
  54:	e5410019 	strb	r0, [r1, #-25]	; 0xffffffe7
  58:	e5410018 	strb	r0, [r1, #-24]	; 0xffffffe8
  5c:	e5410017 	strb	r0, [r1, #-23]	; 0xffffffe9
  60:	e5410016 	strb	r0, [r1, #-22]	; 0xffffffea
  64:	e5410015 	strb	r0, [r1, #-21]	; 0xffffffeb
  68:	e5410014 	strb	r0, [r1, #-20]	; 0xffffffec
  6c:	e5410013 	strb	r0, [r1, #-19]	; 0xffffffed
  70:	e5410012 	strb	r0, [r1, #-18]	; 0xffffffee
  74:	e5410011 	strb	r0, [r1, #-17]	; 0xffffffef
  78:	e5410010 	strb	r0, [r1, #-16]
  7c:	e541000f 	strb	r0, [r1, #-15]
  80:	e541000e 	strb	r0, [r1, #-14]
  84:	e541000d 	strb	r0, [r1, #-13]
  88:	e541000c 	strb	r0, [r1, #-12]
  8c:	e541000b 	strb	r0, [r1, #-11]
  90:	e541000a 	strb	r0, [r1, #-10]
  94:	e5410009 	strb	r0, [r1, #-9]
  98:	e5410008 	strb	r0, [r1, #-8]
  9c:	e5410007 	strb	r0, [r1, #-7]
  a0:	e5410006 	strb	r0, [r1, #-6]
  a4:	e5410005 	strb	r0, [r1, #-5]
  a8:	e5410004 	strb	r0, [r1, #-4]
  ac:	f5d1f000 	pld	[r1]
  b0:	e04e2001 	sub	r2, lr, r1
  b4:	e2811020 	add	r1, r1, #32
  b8:	e5410023 	strb	r0, [r1, #-35]	; 0xffffffdd
  bc:	e15c0001 	cmp	ip, r1
  c0:	1affffd9 	bne	2c <dhcp_client+0x2c>
  c4:	e0832002 	add	r2, r3, r2
  c8:	e3a01000 	mov	r1, #0
  cc:	e4c31001 	strb	r1, [r3], #1
  d0:	e1530002 	cmp	r3, r2
  d4:	1afffffc 	bne	cc <dhcp_client+0xcc>
  d8:	e59f23a4 	ldr	r2, [pc, #932]	; 484 <dhcp_client+0x484>
  dc:	e3003101 	movw	r3, #257	; 0x101
  e0:	e1c430b0 	strh	r3, [r4]
  e4:	e2890006 	add	r0, r9, #6
  e8:	e1a03009 	mov	r3, r9
  ec:	e3a01006 	mov	r1, #6
  f0:	e5c41002 	strb	r1, [r4, #2]
  f4:	e4d31001 	ldrb	r1, [r3], #1
  f8:	e1530000 	cmp	r3, r0
  fc:	e5e21001 	strb	r1, [r2, #1]!
 100:	1afffffb 	bne	f4 <dhcp_client+0xf4>
 104:	e3083263 	movw	r3, #33379	; 0x8263
 108:	e3a00044 	mov	r0, #68	; 0x44
 10c:	e3463353 	movt	r3, #25427	; 0x6353
 110:	e58430ec 	str	r3, [r4, #236]	; 0xec
 114:	e3003135 	movw	r3, #309	; 0x135
 118:	e1c43fb0 	strh	r3, [r4, #240]	; 0xf0
 11c:	ebfffffe 	bl	0 <udp_bind>
 120:	e2507000 	subs	r7, r0, #0
 124:	ba0000d3 	blt	478 <dhcp_client+0x478>
 128:	e300a637 	movw	sl, #1591	; 0x637
 12c:	e3003f06 	movw	r3, #3846	; 0xf06
 130:	e340a301 	movt	sl, #769	; 0x301
 134:	e3008000 	movw	r8, #0
 138:	e3433b3a 	movt	r3, #15162	; 0x3b3a
 13c:	e3a0b014 	mov	fp, #20
 140:	e3408000 	movt	r8, #0
 144:	e6ef6077 	uxtb	r6, r7
 148:	e58d3010 	str	r3, [sp, #16]
 14c:	e58db00c 	str	fp, [sp, #12]
 150:	e58da014 	str	sl, [sp, #20]
 154:	ea000003 	b	168 <dhcp_client+0x168>
 158:	e59d300c 	ldr	r3, [sp, #12]
 15c:	e2533001 	subs	r3, r3, #1
 160:	e58d300c 	str	r3, [sp, #12]
 164:	0a0000b1 	beq	430 <dhcp_client+0x430>
 168:	e59d1014 	ldr	r1, [sp, #20]
 16c:	e3033d01 	movw	r3, #15617	; 0x3d01
 170:	e1c43fb2 	strh	r3, [r4, #242]	; 0xf2
 174:	e3005107 	movw	r5, #263	; 0x107
 178:	e1c45fb4 	strh	r5, [r4, #244]	; 0xf4
 17c:	e3e03000 	mvn	r3, #0
 180:	e5d92000 	ldrb	r2, [r9]
 184:	e1a00006 	mov	r0, r6
 188:	e5c420f6 	strb	r2, [r4, #246]	; 0xf6
 18c:	e5d92001 	ldrb	r2, [r9, #1]
 190:	e5c420f7 	strb	r2, [r4, #247]	; 0xf7
 194:	e5d92002 	ldrb	r2, [r9, #2]
 198:	e5c420f8 	strb	r2, [r4, #248]	; 0xf8
 19c:	e5d92003 	ldrb	r2, [r9, #3]
 1a0:	e5c420f9 	strb	r2, [r4, #249]	; 0xf9
 1a4:	e5d92004 	ldrb	r2, [r9, #4]
 1a8:	e5c420fa 	strb	r2, [r4, #250]	; 0xfa
 1ac:	e5d92005 	ldrb	r2, [r9, #5]
 1b0:	e58410fc 	str	r1, [r4, #252]	; 0xfc
 1b4:	e59d1010 	ldr	r1, [sp, #16]
 1b8:	e5c420fb 	strb	r2, [r4, #251]	; 0xfb
 1bc:	e3a02043 	mov	r2, #67	; 0x43
 1c0:	e5841100 	str	r1, [r4, #256]	; 0x100
 1c4:	e1a01008 	mov	r1, r8
 1c8:	e58d2000 	str	r2, [sp]
 1cc:	e3002105 	movw	r2, #261	; 0x105
 1d0:	e5c43104 	strb	r3, [r4, #260]	; 0x104
 1d4:	ebfffffe 	bl	0 <udp_send>
 1d8:	e1a01009 	mov	r1, r9
 1dc:	e1a00007 	mov	r0, r7
 1e0:	ebfffffe 	bl	0 <dhcp_client>
 1e4:	e3500002 	cmp	r0, #2
 1e8:	1affffda 	bne	158 <dhcp_client+0x158>
 1ec:	e1c45fb4 	strh	r5, [r4, #244]	; 0xf4
 1f0:	e3033d03 	movw	r3, #15619	; 0x3d03
 1f4:	e1c43fb2 	strh	r3, [r4, #242]	; 0xf2
 1f8:	e5d93000 	ldrb	r3, [r9]
 1fc:	e59d0028 	ldr	r0, [sp, #40]	; 0x28
 200:	e5c430f6 	strb	r3, [r4, #246]	; 0xf6
 204:	e5d93001 	ldrb	r3, [r9, #1]
 208:	e5c430f7 	strb	r3, [r4, #247]	; 0xf7
 20c:	e5d93002 	ldrb	r3, [r9, #2]
 210:	e5c430f8 	strb	r3, [r4, #248]	; 0xf8
 214:	e5d93003 	ldrb	r3, [r9, #3]
 218:	e5c430f9 	strb	r3, [r4, #249]	; 0xf9
 21c:	e3003000 	movw	r3, #0
 220:	e5d92004 	ldrb	r2, [r9, #4]
 224:	e3403000 	movt	r3, #0
 228:	e5c420fa 	strb	r2, [r4, #250]	; 0xfa
 22c:	e5d92005 	ldrb	r2, [r9, #5]
 230:	e5c420fb 	strb	r2, [r4, #251]	; 0xfb
 234:	e3002432 	movw	r2, #1074	; 0x432
 238:	e1c42fbc 	strh	r2, [r4, #252]	; 0xfc
 23c:	e1d320b0 	ldrh	r2, [r3]
 240:	e1d330b2 	ldrh	r3, [r3, #2]
 244:	e1c42fbe 	strh	r2, [r4, #254]	; 0xfe
 248:	e59f2238 	ldr	r2, [pc, #568]	; 488 <dhcp_client+0x488>
 24c:	e1c230b0 	strh	r3, [r2]
 250:	e3003436 	movw	r3, #1078	; 0x436
 254:	e1c230b2 	strh	r3, [r2, #2]
 258:	e3003000 	movw	r3, #0
 25c:	e3403000 	movt	r3, #0
 260:	e5933000 	ldr	r3, [r3]
 264:	e5843104 	str	r3, [r4, #260]	; 0x104
 268:	e3a0300c 	mov	r3, #12
 26c:	e1c230b8 	strh	r3, [r2, #8]
 270:	e5d03000 	ldrb	r3, [r0]
 274:	e3530000 	cmp	r3, #0
 278:	0a000071 	beq	444 <dhcp_client+0x444>
 27c:	e59db00c 	ldr	fp, [sp, #12]
 280:	e2822009 	add	r2, r2, #9
 284:	e3a0101e 	mov	r1, #30
 288:	e5e23001 	strb	r3, [r2, #1]!
 28c:	e1a0a001 	mov	sl, r1
 290:	e5f03001 	ldrb	r3, [r0, #1]!
 294:	e2811001 	add	r1, r1, #1
 298:	e24ac01d 	sub	ip, sl, #29
 29c:	e3530000 	cmp	r3, #0
 2a0:	1afffff8 	bne	288 <dhcp_client+0x288>
 2a4:	e58db00c 	str	fp, [sp, #12]
 2a8:	e28ab006 	add	fp, sl, #6
 2ac:	e58db018 	str	fp, [sp, #24]
 2b0:	e28a20f6 	add	r2, sl, #246	; 0xf6
 2b4:	e28ab007 	add	fp, sl, #7
 2b8:	e6ef307c 	uxtb	r3, ip
 2bc:	e58db01c 	str	fp, [sp, #28]
 2c0:	e28a0002 	add	r0, sl, #2
 2c4:	e28a5003 	add	r5, sl, #3
 2c8:	e28ae004 	add	lr, sl, #4
 2cc:	e28ac005 	add	ip, sl, #5
 2d0:	e28ab008 	add	fp, sl, #8
 2d4:	e6ff2072 	uxth	r2, r2
 2d8:	e28aa009 	add	sl, sl, #9
 2dc:	e5c43109 	strb	r3, [r4, #265]	; 0x109
 2e0:	e084300c 	add	r3, r4, ip
 2e4:	e58d3020 	str	r3, [sp, #32]
 2e8:	e59dc018 	ldr	ip, [sp, #24]
 2ec:	e59d301c 	ldr	r3, [sp, #28]
 2f0:	e0841001 	add	r1, r4, r1
 2f4:	e084c00c 	add	ip, r4, ip
 2f8:	e0843003 	add	r3, r4, r3
 2fc:	e58dc018 	str	ip, [sp, #24]
 300:	e3a0c043 	mov	ip, #67	; 0x43
 304:	e58d301c 	str	r3, [sp, #28]
 308:	e0840000 	add	r0, r4, r0
 30c:	e084300b 	add	r3, r4, fp
 310:	e3a0b037 	mov	fp, #55	; 0x37
 314:	e0845005 	add	r5, r4, r5
 318:	e58dc000 	str	ip, [sp]
 31c:	e3a0c006 	mov	ip, #6
 320:	e5c1b0ec 	strb	fp, [r1, #236]	; 0xec
 324:	e3a01001 	mov	r1, #1
 328:	e084e00e 	add	lr, r4, lr
 32c:	e5c0c0ec 	strb	ip, [r0, #236]	; 0xec
 330:	e5c510ec 	strb	r1, [r5, #236]	; 0xec
 334:	e3a01003 	mov	r1, #3
 338:	e5ce10ec 	strb	r1, [lr, #236]	; 0xec
 33c:	e59d1020 	ldr	r1, [sp, #32]
 340:	e59d001c 	ldr	r0, [sp, #28]
 344:	e5c1c0ec 	strb	ip, [r1, #236]	; 0xec
 348:	e3a0100f 	mov	r1, #15
 34c:	e59dc018 	ldr	ip, [sp, #24]
 350:	e58d3024 	str	r3, [sp, #36]	; 0x24
 354:	e3e03000 	mvn	r3, #0
 358:	e5cc10ec 	strb	r1, [ip, #236]	; 0xec
 35c:	e3a0103a 	mov	r1, #58	; 0x3a
 360:	e5c010ec 	strb	r1, [r0, #236]	; 0xec
 364:	e3a0103b 	mov	r1, #59	; 0x3b
 368:	e59d0024 	ldr	r0, [sp, #36]	; 0x24
 36c:	e084a00a 	add	sl, r4, sl
 370:	e5c010ec 	strb	r1, [r0, #236]	; 0xec
 374:	e1a01008 	mov	r1, r8
 378:	e5ca30ec 	strb	r3, [sl, #236]	; 0xec
 37c:	e1a00006 	mov	r0, r6
 380:	ebfffffe 	bl	0 <udp_send>
 384:	e1a01009 	mov	r1, r9
 388:	e1a00007 	mov	r0, r7
 38c:	ebfffffe 	bl	0 <dhcp_client>
 390:	e3500005 	cmp	r0, #5
 394:	1affff6f 	bne	158 <dhcp_client+0x158>
 398:	e3a00044 	mov	r0, #68	; 0x44
 39c:	ebfffffe 	bl	0 <udp_unbind>
 3a0:	e3003000 	movw	r3, #0
 3a4:	e28d1034 	add	r1, sp, #52	; 0x34
 3a8:	e3403000 	movt	r3, #0
 3ac:	e1a02001 	mov	r2, r1
 3b0:	e283c004 	add	ip, r3, #4
 3b4:	e4d30001 	ldrb	r0, [r3], #1
 3b8:	e153000c 	cmp	r3, ip
 3bc:	e4c20001 	strb	r0, [r2], #1
 3c0:	1afffffb 	bne	3b4 <dhcp_client+0x3b4>
 3c4:	e59dc02c 	ldr	ip, [sp, #44]	; 0x2c
 3c8:	e3003000 	movw	r3, #0
 3cc:	e59d0034 	ldr	r0, [sp, #52]	; 0x34
 3d0:	e1a02001 	mov	r2, r1
 3d4:	e3403000 	movt	r3, #0
 3d8:	e58c0000 	str	r0, [ip]
 3dc:	e283c004 	add	ip, r3, #4
 3e0:	e4d30001 	ldrb	r0, [r3], #1
 3e4:	e153000c 	cmp	r3, ip
 3e8:	e4c20001 	strb	r0, [r2], #1
 3ec:	1afffffb 	bne	3e0 <dhcp_client+0x3e0>
 3f0:	e59d002c 	ldr	r0, [sp, #44]	; 0x2c
 3f4:	e3003000 	movw	r3, #0
 3f8:	e59d2034 	ldr	r2, [sp, #52]	; 0x34
 3fc:	e3403000 	movt	r3, #0
 400:	e5802008 	str	r2, [r0, #8]
 404:	e2830004 	add	r0, r3, #4
 408:	e4d32001 	ldrb	r2, [r3], #1
 40c:	e1530000 	cmp	r3, r0
 410:	e4c12001 	strb	r2, [r1], #1
 414:	1afffffb 	bne	408 <dhcp_client+0x408>
 418:	e59d3034 	ldr	r3, [sp, #52]	; 0x34
 41c:	e3a00000 	mov	r0, #0
 420:	e59d202c 	ldr	r2, [sp, #44]	; 0x2c
 424:	e5823004 	str	r3, [r2, #4]
 428:	e28dd03c 	add	sp, sp, #60	; 0x3c
 42c:	e8bd8ff0 	pop	{r4, r5, r6, r7, r8, r9, sl, fp, pc}
 430:	e3a00044 	mov	r0, #68	; 0x44
 434:	ebfffffe 	bl	0 <udp_unbind>
 438:	e3e00001 	mvn	r0, #1
 43c:	e28dd03c 	add	sp, sp, #60	; 0x3c
 440:	e8bd8ff0 	pop	{r4, r5, r6, r7, r8, r9, sl, fp, pc}
 444:	e3a01025 	mov	r1, #37	; 0x25
 448:	e3a00023 	mov	r0, #35	; 0x23
 44c:	e1a0b001 	mov	fp, r1
 450:	e3a01024 	mov	r1, #36	; 0x24
 454:	e1cd01f8 	strd	r0, [sp, #24]
 458:	e3002113 	movw	r2, #275	; 0x113
 45c:	e3a0a026 	mov	sl, #38	; 0x26
 460:	e3a0c022 	mov	ip, #34	; 0x22
 464:	e3a0e021 	mov	lr, #33	; 0x21
 468:	e3a05020 	mov	r5, #32
 46c:	e3a0001f 	mov	r0, #31
 470:	e3a0101e 	mov	r1, #30
 474:	eaffff98 	b	2dc <dhcp_client+0x2dc>
 478:	e3e00000 	mvn	r0, #0
 47c:	eaffffe9 	b	428 <dhcp_client+0x428>
 480:	00000242 	.word	0x00000242
 484:	0000001b 	.word	0x0000001b
 488:	00000100 	.word	0x00000100

Disassembly of section .text.dhcp_client_release:

00000000 <dhcp_client_release>:
   0:	e52de004 	push	{lr}		; (str lr, [sp, #-4]!)
   4:	e3a00044 	mov	r0, #68	; 0x44
   8:	e24dd00c 	sub	sp, sp, #12
   c:	ebfffffe 	bl	0 <udp_bind>
  10:	e3003000 	movw	r3, #0
  14:	e3001000 	movw	r1, #0
  18:	e3403000 	movt	r3, #0
  1c:	e6ef0070 	uxtb	r0, r0
  20:	e3401000 	movt	r1, #0
  24:	e5d3c000 	ldrb	ip, [r3]
  28:	e5d32001 	ldrb	r2, [r3, #1]
  2c:	e5c1c0f5 	strb	ip, [r1, #245]	; 0xf5
  30:	e303c607 	movw	ip, #13831	; 0x3607
  34:	e1c1cfb2 	strh	ip, [r1, #242]	; 0xf2
  38:	e3a0c004 	mov	ip, #4
  3c:	e5c120f6 	strb	r2, [r1, #246]	; 0xf6
  40:	e5d32003 	ldrb	r2, [r3, #3]
  44:	e5c1c0f4 	strb	ip, [r1, #244]	; 0xf4
  48:	e5d3c002 	ldrb	ip, [r3, #2]
  4c:	e3e03000 	mvn	r3, #0
  50:	e5c120f8 	strb	r2, [r1, #248]	; 0xf8
  54:	e3a02043 	mov	r2, #67	; 0x43
  58:	e5c1c0f7 	strb	ip, [r1, #247]	; 0xf7
  5c:	e5c130f9 	strb	r3, [r1, #249]	; 0xf9
  60:	e58d2000 	str	r2, [sp]
  64:	e3a020fa 	mov	r2, #250	; 0xfa
  68:	ebfffffe 	bl	0 <udp_send>
  6c:	e3a00044 	mov	r0, #68	; 0x44
  70:	e28dd00c 	add	sp, sp, #12
  74:	e49de004 	pop	{lr}		; (ldr lr, [sp], #4)
  78:	eafffffe 	b	0 <udp_unbind>

icmp.o:     file format elf32-littlearm


Disassembly of section .text.hot.icmp_handle:

00000000 <icmp_handle>:
   0:	e5d03022 	ldrb	r3, [r0, #34]	; 0x22
   4:	e3530008 	cmp	r3, #8
   8:	112fff1e 	bxne	lr
   c:	e92d4070 	push	{r4, r5, r6, lr}
  10:	e1a04000 	mov	r4, r0
  14:	e5d03023 	ldrb	r3, [r0, #35]	; 0x23
  18:	e24dd008 	sub	sp, sp, #8
  1c:	e3530000 	cmp	r3, #0
  20:	1a00003c 	bne	118 <icmp_handle+0x118>
  24:	e2802006 	add	r2, r0, #6
  28:	e280000c 	add	r0, r0, #12
  2c:	e1a03002 	mov	r3, r2
  30:	e4d31001 	ldrb	r1, [r3], #1
  34:	e1530000 	cmp	r3, r0
  38:	e5431007 	strb	r1, [r3, #-7]
  3c:	1afffffb 	bne	30 <icmp_handle+0x30>
  40:	e3001000 	movw	r1, #0
  44:	e1a03002 	mov	r3, r2
  48:	e3401000 	movt	r1, #0
  4c:	e4d12001 	ldrb	r2, [r1], #1
  50:	e4c32001 	strb	r2, [r3], #1
  54:	e1500003 	cmp	r0, r3
  58:	1afffffb 	bne	4c <icmp_handle+0x4c>
  5c:	e1d411b2 	ldrh	r1, [r4, #18]
  60:	e284201a 	add	r2, r4, #26
  64:	e1a03002 	mov	r3, r2
  68:	e1e01001 	mvn	r1, r1
  6c:	e1c411b2 	strh	r1, [r4, #18]
  70:	e284101e 	add	r1, r4, #30
  74:	e4d30001 	ldrb	r0, [r3], #1
  78:	e1530001 	cmp	r3, r1
  7c:	e5c30003 	strb	r0, [r3, #3]
  80:	1afffffb 	bne	74 <icmp_handle+0x74>
  84:	e3000000 	movw	r0, #0
  88:	e1a03002 	mov	r3, r2
  8c:	e3400000 	movt	r0, #0
  90:	e28d2004 	add	r2, sp, #4
  94:	e5900000 	ldr	r0, [r0]
  98:	e58d0004 	str	r0, [sp, #4]
  9c:	e4d20001 	ldrb	r0, [r2], #1
  a0:	e4c30001 	strb	r0, [r3], #1
  a4:	e1530001 	cmp	r3, r1
  a8:	1afffffb 	bne	9c <icmp_handle+0x9c>
  ac:	e3a05000 	mov	r5, #0
  b0:	e284600e 	add	r6, r4, #14
  b4:	e5c45018 	strb	r5, [r4, #24]
  b8:	e3a01014 	mov	r1, #20
  bc:	e5c45019 	strb	r5, [r4, #25]
  c0:	e1a00006 	mov	r0, r6
  c4:	ebfffffe 	bl	0 <net_chksum>
  c8:	e1d411b0 	ldrh	r1, [r4, #16]
  cc:	e1a03000 	mov	r3, r0
  d0:	e1c431b8 	strh	r3, [r4, #24]
  d4:	e1a00006 	mov	r0, r6
  d8:	e6bf1fb1 	rev16	r1, r1
  dc:	e5c45022 	strb	r5, [r4, #34]	; 0x22
  e0:	e6ff1071 	uxth	r1, r1
  e4:	e5c45024 	strb	r5, [r4, #36]	; 0x24
  e8:	e5c45025 	strb	r5, [r4, #37]	; 0x25
  ec:	ebfffffe 	bl	0 <net_chksum>
  f0:	e1d411b0 	ldrh	r1, [r4, #16]
  f4:	e1a03000 	mov	r3, r0
  f8:	e1c432b4 	strh	r3, [r4, #36]	; 0x24
  fc:	e1a00004 	mov	r0, r4
 100:	e6bf1fb1 	rev16	r1, r1
 104:	e6ff1071 	uxth	r1, r1
 108:	e281100e 	add	r1, r1, #14
 10c:	e28dd008 	add	sp, sp, #8
 110:	e8bd4070 	pop	{r4, r5, r6, lr}
 114:	eafffffe 	b	0 <emac_eth_send>
 118:	e28dd008 	add	sp, sp, #8
 11c:	e8bd8070 	pop	{r4, r5, r6, pc}

igmp.o:     file format elf32-littlearm


Disassembly of section .text._send_report:

00000000 <_send_report>:
   0:	e7e6c450 	ubfx	ip, r0, #8, #7
   4:	e3001000 	movw	r1, #0
   8:	e92d4030 	push	{r4, r5, lr}
   c:	e24dd00c 	sub	sp, sp, #12
  10:	e3401000 	movt	r1, #0
  14:	e3004000 	movw	r4, #0
  18:	e3404000 	movt	r4, #0
  1c:	e1a03001 	mov	r3, r1
  20:	e5c1c003 	strb	ip, [r1, #3]
  24:	e1a02004 	mov	r2, r4
  28:	e7e7c850 	ubfx	ip, r0, #16, #8
  2c:	e58d0004 	str	r0, [sp, #4]
  30:	e7e70c50 	ubfx	r0, r0, #24, #8
  34:	e5c10005 	strb	r0, [r1, #5]
  38:	e2810006 	add	r0, r1, #6
  3c:	e5c1c004 	strb	ip, [r1, #4]
  40:	e4d31001 	ldrb	r1, [r3], #1
  44:	e1530000 	cmp	r3, r0
  48:	e4c21001 	strb	r1, [r2], #1
  4c:	1afffffb 	bne	40 <_send_report+0x40>
  50:	e59f2098 	ldr	r2, [pc, #152]	; f0 <_send_report+0xf0>
  54:	e3005000 	movw	r5, #0
  58:	e3405000 	movt	r5, #0
  5c:	e1d530b0 	ldrh	r3, [r5]
  60:	e1c431b2 	strh	r3, [r4, #18]
  64:	e28d3004 	add	r3, sp, #4
  68:	e4d31001 	ldrb	r1, [r3], #1
  6c:	e28d0008 	add	r0, sp, #8
  70:	e1530000 	cmp	r3, r0
  74:	e4c21001 	strb	r1, [r2], #1
  78:	1afffffa 	bne	68 <_send_report+0x68>
  7c:	e59f0070 	ldr	r0, [pc, #112]	; f4 <_send_report+0xf4>
  80:	e3a03000 	mov	r3, #0
  84:	e1c431b8 	strh	r3, [r4, #24]
  88:	e3a01018 	mov	r1, #24
  8c:	ebfffffe 	bl	0 <net_chksum>
  90:	e59f2060 	ldr	r2, [pc, #96]	; f8 <_send_report+0xf8>
  94:	e28d3004 	add	r3, sp, #4
  98:	e1c401b8 	strh	r0, [r4, #24]
  9c:	e4d31001 	ldrb	r1, [r3], #1
  a0:	e28d0008 	add	r0, sp, #8
  a4:	e1530000 	cmp	r3, r0
  a8:	e4c21001 	strb	r1, [r2], #1
  ac:	1afffffa 	bne	9c <_send_report+0x9c>
  b0:	e59f003c 	ldr	r0, [pc, #60]	; f4 <_send_report+0xf4>
  b4:	e3a03000 	mov	r3, #0
  b8:	e1c432b8 	strh	r3, [r4, #40]	; 0x28
  bc:	e3a01020 	mov	r1, #32
  c0:	ebfffffe 	bl	0 <net_chksum>
  c4:	e1a03000 	mov	r3, r0
  c8:	e3000000 	movw	r0, #0
  cc:	e3400000 	movt	r0, #0
  d0:	e3a0102e 	mov	r1, #46	; 0x2e
  d4:	e1c432b8 	strh	r3, [r4, #40]	; 0x28
  d8:	ebfffffe 	bl	0 <emac_eth_send>
  dc:	e1d530b0 	ldrh	r3, [r5]
  e0:	e2833001 	add	r3, r3, #1
  e4:	e1c530b0 	strh	r3, [r5]
  e8:	e28dd00c 	add	sp, sp, #12
  ec:	e8bd8030 	pop	{r4, r5, pc}
  f0:	0000001e 	.word	0x0000001e
  f4:	0000000e 	.word	0x0000000e
  f8:	0000002a 	.word	0x0000002a

Disassembly of section .text.igmp_set_ip:

00000000 <igmp_set_ip>:
   0:	e5903000 	ldr	r3, [r0]
   4:	e24dd008 	sub	sp, sp, #8
   8:	e59f203c 	ldr	r2, [pc, #60]	; 4c <igmp_set_ip+0x4c>
   c:	e58d3004 	str	r3, [sp, #4]
  10:	e28d3004 	add	r3, sp, #4
  14:	e4d31001 	ldrb	r1, [r3], #1
  18:	e28d0008 	add	r0, sp, #8
  1c:	e1530000 	cmp	r3, r0
  20:	e4c21001 	strb	r1, [r2], #1
  24:	1afffffa 	bne	14 <igmp_set_ip+0x14>
  28:	e59f2020 	ldr	r2, [pc, #32]	; 50 <igmp_set_ip+0x50>
  2c:	e28d3004 	add	r3, sp, #4
  30:	e4d31001 	ldrb	r1, [r3], #1
  34:	e28d0008 	add	r0, sp, #8
  38:	e1530000 	cmp	r3, r0
  3c:	e4c21001 	strb	r1, [r2], #1
  40:	1afffffa 	bne	30 <igmp_set_ip+0x30>
  44:	e28dd008 	add	sp, sp, #8
  48:	e12fff1e 	bx	lr
  4c:	0000001a 	.word	0x0000001a
  50:	0000001a 	.word	0x0000001a

Disassembly of section .text.unlikely.igmp_init:

00000000 <igmp_init>:
   0:	e3003000 	movw	r3, #0
   4:	e3a02000 	mov	r2, #0
   8:	e92d4010 	push	{r4, lr}
   c:	e1a04000 	mov	r4, r0
  10:	e3403000 	movt	r3, #0
  14:	e1a00001 	mov	r0, r1
  18:	e1a01002 	mov	r1, r2
  1c:	e283c008 	add	ip, r3, #8
  20:	e153000c 	cmp	r3, ip
  24:	14c31001 	strbne	r1, [r3], #1
  28:	1afffffc 	bne	20 <igmp_init+0x20>
  2c:	e2822001 	add	r2, r2, #1
  30:	e3520024 	cmp	r2, #36	; 0x24
  34:	1afffff8 	bne	1c <igmp_init+0x1c>
  38:	e3002000 	movw	r2, #0
  3c:	e3003000 	movw	r3, #0
  40:	e3402000 	movt	r2, #0
  44:	e3a01000 	mov	r1, #0
  48:	e3403000 	movt	r3, #0
  4c:	e5821000 	str	r1, [r2]
  50:	e1c310b0 	strh	r1, [r3]
  54:	ebfffffe 	bl	0 <igmp_init>
  58:	e59f20d4 	ldr	r2, [pc, #212]	; 134 <igmp_init+0x134>
  5c:	e3003000 	movw	r3, #0
  60:	e3403000 	movt	r3, #0
  64:	e3a00001 	mov	r0, #1
  68:	e3a0105e 	mov	r1, #94	; 0x5e
  6c:	e284c006 	add	ip, r4, #6
  70:	e1c300b0 	strh	r0, [r3]
  74:	e5c31002 	strb	r1, [r3, #2]
  78:	e1a03004 	mov	r3, r4
  7c:	e153000c 	cmp	r3, ip
  80:	14d31001 	ldrbne	r1, [r3], #1
  84:	14c21001 	strbne	r1, [r2], #1
  88:	1afffffb 	bne	7c <igmp_init+0x7c>
  8c:	e3002000 	movw	r2, #0
  90:	e3a03008 	mov	r3, #8
  94:	e3402000 	movt	r2, #0
  98:	e3a00001 	mov	r0, #1
  9c:	e3403046 	movt	r3, #70	; 0x46
  a0:	e3a01040 	mov	r1, #64	; 0x40
  a4:	e582300c 	str	r3, [r2, #12]
  a8:	e3a03a02 	mov	r3, #8192	; 0x2000
  ac:	e1c231b0 	strh	r3, [r2, #16]
  b0:	e3a03000 	mov	r3, #0
  b4:	e1c232b4 	strh	r3, [r2, #36]	; 0x24
  b8:	e3a03016 	mov	r3, #22
  bc:	e1c232b6 	strh	r3, [r2, #38]	; 0x26
  c0:	e3003000 	movw	r3, #0
  c4:	e3403000 	movt	r3, #0
  c8:	e340005e 	movt	r0, #94	; 0x5e
  cc:	e3401201 	movt	r1, #513	; 0x201
  d0:	e5830000 	str	r0, [r3]
  d4:	e3000494 	movw	r0, #1172	; 0x494
  d8:	e5821014 	str	r1, [r2, #20]
  dc:	e1c202b2 	strh	r0, [r2, #34]	; 0x22
  e0:	e3a02c02 	mov	r2, #512	; 0x200
  e4:	e1c320b4 	strh	r2, [r3, #4]
  e8:	e2832006 	add	r2, r3, #6
  ec:	e154000c 	cmp	r4, ip
  f0:	14d40001 	ldrbne	r0, [r4], #1
  f4:	14c20001 	strbne	r0, [r2], #1
  f8:	1afffffb 	bne	ec <igmp_init+0xec>
  fc:	e5831014 	str	r1, [r3, #20]
 100:	e3a01008 	mov	r1, #8
 104:	e3401046 	movt	r1, #70	; 0x46
 108:	e3a02c02 	mov	r2, #512	; 0x200
 10c:	e3402494 	movt	r2, #1172	; 0x494
 110:	e3a0ca02 	mov	ip, #8192	; 0x2000
 114:	e583100c 	str	r1, [r3, #12]
 118:	e3a000e0 	mov	r0, #224	; 0xe0
 11c:	e1c3c1b0 	strh	ip, [r3, #16]
 120:	e3a01817 	mov	r1, #1507328	; 0x170000
 124:	e1c301be 	strh	r0, [r3, #30]
 128:	e5832020 	str	r2, [r3, #32]
 12c:	e5831024 	str	r1, [r3, #36]	; 0x24
 130:	e8bd8010 	pop	{r4, pc}
 134:	00000006 	.word	0x00000006

Disassembly of section .text.hot.igmp_handle:

00000000 <igmp_handle>:
   0:	e5d0300e 	ldrb	r3, [r0, #14]
   4:	e3530045 	cmp	r3, #69	; 0x45
   8:	112fff1e 	bxne	lr
   c:	e5d03022 	ldrb	r3, [r0, #34]	; 0x22
  10:	e3530011 	cmp	r3, #17
  14:	112fff1e 	bxne	lr
  18:	e92d41f0 	push	{r4, r5, r6, r7, r8, lr}
  1c:	e3a030e0 	mov	r3, #224	; 0xe0
  20:	e3403100 	movt	r3, #256	; 0x100
  24:	e24dd008 	sub	sp, sp, #8
  28:	e280501e 	add	r5, r0, #30
  2c:	e28dc001 	add	ip, sp, #1
  30:	e58d3000 	str	r3, [sp]
  34:	e2804022 	add	r4, r0, #34	; 0x22
  38:	e1a03005 	mov	r3, r5
  3c:	e3a020e0 	mov	r2, #224	; 0xe0
  40:	ea000002 	b	50 <igmp_handle+0x50>
  44:	e1530004 	cmp	r3, r4
  48:	0a000030 	beq	110 <igmp_handle+0x110>
  4c:	e4dc2001 	ldrb	r2, [ip], #1
  50:	e4d31001 	ldrb	r1, [r3], #1
  54:	e1510002 	cmp	r1, r2
  58:	0afffff9 	beq	44 <igmp_handle+0x44>
  5c:	e3a07000 	mov	r7, #0
  60:	e3003000 	movw	r3, #0
  64:	e3403000 	movt	r3, #0
  68:	e5936000 	ldr	r6, [r3]
  6c:	e3560000 	cmp	r6, #0
  70:	0a00001a 	beq	e0 <igmp_handle+0xe0>
  74:	e3002000 	movw	r2, #0
  78:	e3a08001 	mov	r8, #1
  7c:	e3402000 	movt	r2, #0
  80:	e0826186 	add	r6, r2, r6, lsl #3
  84:	ea000005 	b	a0 <igmp_handle+0xa0>
  88:	e1a030a3 	lsr	r3, r3, #1
  8c:	e2833001 	add	r3, r3, #1
  90:	e5c23004 	strb	r3, [r2, #4]
  94:	e2822008 	add	r2, r2, #8
  98:	e1520006 	cmp	r2, r6
  9c:	0a00000f 	beq	e0 <igmp_handle+0xe0>
  a0:	e5923000 	ldr	r3, [r2]
  a4:	e3570000 	cmp	r7, #0
  a8:	e58d3004 	str	r3, [sp, #4]
  ac:	0a00000d 	beq	e8 <igmp_handle+0xe8>
  b0:	e5d23005 	ldrb	r3, [r2, #5]
  b4:	e3530001 	cmp	r3, #1
  b8:	15c28005 	strbne	r8, [r2, #5]
  bc:	15d03023 	ldrbne	r3, [r0, #35]	; 0x23
  c0:	1afffff0 	bne	88 <igmp_handle+0x88>
  c4:	e5d03023 	ldrb	r3, [r0, #35]	; 0x23
  c8:	e5d21004 	ldrb	r1, [r2, #4]
  cc:	e1510003 	cmp	r1, r3
  d0:	8affffec 	bhi	88 <igmp_handle+0x88>
  d4:	e2822008 	add	r2, r2, #8
  d8:	e1520006 	cmp	r2, r6
  dc:	1affffef 	bne	a0 <igmp_handle+0xa0>
  e0:	e28dd008 	add	sp, sp, #8
  e4:	e8bd81f0 	pop	{r4, r5, r6, r7, r8, pc}
  e8:	e28d1004 	add	r1, sp, #4
  ec:	e1a03005 	mov	r3, r5
  f0:	ea000001 	b	fc <igmp_handle+0xfc>
  f4:	e1530004 	cmp	r3, r4
  f8:	0affffec 	beq	b0 <igmp_handle+0xb0>
  fc:	e4d3e001 	ldrb	lr, [r3], #1
 100:	e4d1c001 	ldrb	ip, [r1], #1
 104:	e15e000c 	cmp	lr, ip
 108:	0afffff9 	beq	f4 <igmp_handle+0xf4>
 10c:	eaffffe0 	b	94 <igmp_handle+0x94>
 110:	e3a07001 	mov	r7, #1
 114:	eaffffd1 	b	60 <igmp_handle+0x60>

Disassembly of section .text.igmp_timer:

00000000 <igmp_timer>:
   0:	e92d4070 	push	{r4, r5, r6, lr}
   4:	e3004000 	movw	r4, #0
   8:	e3404000 	movt	r4, #0
   c:	e3a06002 	mov	r6, #2
  10:	e2845e12 	add	r5, r4, #288	; 0x120
  14:	ea000002 	b	24 <igmp_timer+0x24>
  18:	e2844008 	add	r4, r4, #8
  1c:	e1540005 	cmp	r4, r5
  20:	08bd8070 	popeq	{r4, r5, r6, pc}
  24:	e5d43005 	ldrb	r3, [r4, #5]
  28:	e3530001 	cmp	r3, #1
  2c:	1afffff9 	bne	18 <igmp_timer+0x18>
  30:	e5d42004 	ldrb	r2, [r4, #4]
  34:	e3520000 	cmp	r2, #0
  38:	e2423001 	sub	r3, r2, #1
  3c:	e6ef3073 	uxtb	r3, r3
  40:	0afffff4 	beq	18 <igmp_timer+0x18>
  44:	e5c43004 	strb	r3, [r4, #4]
  48:	e3530000 	cmp	r3, #0
  4c:	1afffff1 	bne	18 <igmp_timer+0x18>
  50:	e5940000 	ldr	r0, [r4]
  54:	ebfffffe 	bl	0 <igmp_timer>
  58:	e5c46005 	strb	r6, [r4, #5]
  5c:	eaffffed 	b	18 <igmp_timer+0x18>

Disassembly of section .text.igmp_join:

00000000 <igmp_join>:
   0:	e20030e0 	and	r3, r0, #224	; 0xe0
   4:	e35300e0 	cmp	r3, #224	; 0xe0
   8:	1a00001c 	bne	80 <igmp_join+0x80>
   c:	e300c000 	movw	ip, #0
  10:	e340c000 	movt	ip, #0
  14:	e92d4010 	push	{r4, lr}
  18:	e59c4000 	ldr	r4, [ip]
  1c:	e3540024 	cmp	r4, #36	; 0x24
  20:	0a000018 	beq	88 <igmp_join+0x88>
  24:	e3540000 	cmp	r4, #0
  28:	e3001000 	movw	r1, #0
  2c:	d3401000 	movtle	r1, #0
  30:	e1a02000 	mov	r2, r0
  34:	da000007 	ble	58 <igmp_join+0x58>
  38:	e3401000 	movt	r1, #0
  3c:	e3a00000 	mov	r0, #0
  40:	e7913180 	ldr	r3, [r1, r0, lsl #3]
  44:	e1530002 	cmp	r3, r2
  48:	08bd8010 	popeq	{r4, pc}
  4c:	e2800001 	add	r0, r0, #1
  50:	e1540000 	cmp	r4, r0
  54:	1afffff9 	bne	40 <igmp_join+0x40>
  58:	e0813184 	add	r3, r1, r4, lsl #3
  5c:	e1a00002 	mov	r0, r2
  60:	e7812184 	str	r2, [r1, r4, lsl #3]
  64:	e3002102 	movw	r2, #258	; 0x102
  68:	e1c320b4 	strh	r2, [r3, #4]
  6c:	e2843001 	add	r3, r4, #1
  70:	e58c3000 	str	r3, [ip]
  74:	ebfffffe 	bl	0 <igmp_join>
  78:	e1a00004 	mov	r0, r4
  7c:	e8bd8010 	pop	{r4, pc}
  80:	e3e00000 	mvn	r0, #0
  84:	e12fff1e 	bx	lr
  88:	e3e00001 	mvn	r0, #1
  8c:	e8bd8010 	pop	{r4, pc}

Disassembly of section .text.igmp_leave:

00000000 <igmp_leave>:
   0:	e92d41f0 	push	{r4, r5, r6, r7, r8, lr}
   4:	e3005000 	movw	r5, #0
   8:	e3405000 	movt	r5, #0
   c:	e24dd008 	sub	sp, sp, #8
  10:	e3a04000 	mov	r4, #0
  14:	ea000002 	b	24 <igmp_leave+0x24>
  18:	e2844001 	add	r4, r4, #1
  1c:	e3540024 	cmp	r4, #36	; 0x24
  20:	0a000029 	beq	cc <igmp_leave+0xcc>
  24:	e7953184 	ldr	r3, [r5, r4, lsl #3]
  28:	e1530000 	cmp	r3, r0
  2c:	1afffff9 	bne	18 <igmp_leave+0x18>
  30:	e58d0004 	str	r0, [sp, #4]
  34:	e3008000 	movw	r8, #0
  38:	e3408000 	movt	r8, #0
  3c:	e3006000 	movw	r6, #0
  40:	e3406000 	movt	r6, #0
  44:	e3a01018 	mov	r1, #24
  48:	e1d830b0 	ldrh	r3, [r8]
  4c:	e59f0084 	ldr	r0, [pc, #132]	; d8 <igmp_leave+0xd8>
  50:	e1c631b2 	strh	r3, [r6, #18]
  54:	e3a03000 	mov	r3, #0
  58:	e1c631b8 	strh	r3, [r6, #24]
  5c:	ebfffffe 	bl	0 <net_chksum>
  60:	e1c601b8 	strh	r0, [r6, #24]
  64:	e286202a 	add	r2, r6, #42	; 0x2a
  68:	e28d3004 	add	r3, sp, #4
  6c:	e4d31001 	ldrb	r1, [r3], #1
  70:	e28d0008 	add	r0, sp, #8
  74:	e1530000 	cmp	r3, r0
  78:	e4c21001 	strb	r1, [r2], #1
  7c:	1afffffa 	bne	6c <igmp_leave+0x6c>
  80:	e59f0054 	ldr	r0, [pc, #84]	; dc <igmp_leave+0xdc>
  84:	e3a07000 	mov	r7, #0
  88:	e1c672b8 	strh	r7, [r6, #40]	; 0x28
  8c:	e3a01020 	mov	r1, #32
  90:	ebfffffe 	bl	0 <net_chksum>
  94:	e1c602b8 	strh	r0, [r6, #40]	; 0x28
  98:	e3000000 	movw	r0, #0
  9c:	e3400000 	movt	r0, #0
  a0:	e3a0102e 	mov	r1, #46	; 0x2e
  a4:	ebfffffe 	bl	0 <emac_eth_send>
  a8:	e1d830b0 	ldrh	r3, [r8]
  ac:	e1a00007 	mov	r0, r7
  b0:	e7857184 	str	r7, [r5, r4, lsl #3]
  b4:	e0854184 	add	r4, r5, r4, lsl #3
  b8:	e2833001 	add	r3, r3, #1
  bc:	e1c830b0 	strh	r3, [r8]
  c0:	e1c470b4 	strh	r7, [r4, #4]
  c4:	e28dd008 	add	sp, sp, #8
  c8:	e8bd81f0 	pop	{r4, r5, r6, r7, r8, pc}
  cc:	e3e00000 	mvn	r0, #0
  d0:	e28dd008 	add	sp, sp, #8
  d4:	e8bd81f0 	pop	{r4, r5, r6, r7, r8, pc}
  d8:	0000000e 	.word	0x0000000e
  dc:	0000000e 	.word	0x0000000e

Disassembly of section .text.unlikely.igmp_shutdown:

00000000 <igmp_shutdown>:
   0:	e92d4070 	push	{r4, r5, r6, lr}
   4:	e3004000 	movw	r4, #0
   8:	e3404000 	movt	r4, #0
   c:	e3a05000 	mov	r5, #0
  10:	e1a06005 	mov	r6, r5
  14:	e5940000 	ldr	r0, [r4]
  18:	e2855001 	add	r5, r5, #1
  1c:	e3500000 	cmp	r0, #0
  20:	0a000003 	beq	34 <igmp_shutdown+0x34>
  24:	ebfffffe 	bl	0 <igmp_shutdown>
  28:	e5846000 	str	r6, [r4]
  2c:	e5c46005 	strb	r6, [r4, #5]
  30:	e5c46004 	strb	r6, [r4, #4]
  34:	e3550024 	cmp	r5, #36	; 0x24
  38:	e2844008 	add	r4, r4, #8
  3c:	1afffff4 	bne	14 <igmp_shutdown+0x14>
  40:	e8bd8070 	pop	{r4, r5, r6, pc}

ip.o:     file format elf32-littlearm


Disassembly of section .text.ip_set_ip:

00000000 <ip_set_ip>:
   0:	e92d4010 	push	{r4, lr}
   4:	e1a04000 	mov	r4, r0
   8:	ebfffffe 	bl	0 <udp_set_ip>
   c:	e1a00004 	mov	r0, r4
  10:	e8bd4010 	pop	{r4, lr}
  14:	eafffffe 	b	0 <igmp_set_ip>

Disassembly of section .text.unlikely.ip_init:

00000000 <ip_init>:
   0:	e92d4070 	push	{r4, r5, r6, lr}
   4:	e1a04000 	mov	r4, r0
   8:	e1a05001 	mov	r5, r1
   c:	ebfffffe 	bl	0 <udp_init>
  10:	e1a01005 	mov	r1, r5
  14:	e1a00004 	mov	r0, r4
  18:	e8bd4070 	pop	{r4, r5, r6, lr}
  1c:	eafffffe 	b	0 <igmp_init>

Disassembly of section .text.unlikely.ip_shutdown:

00000000 <ip_shutdown>:
   0:	e92d4010 	push	{r4, lr}
   4:	ebfffffe 	bl	0 <igmp_shutdown>
   8:	e8bd4010 	pop	{r4, lr}
   c:	eafffffe 	b	0 <udp_shutdown>

Disassembly of section .text.hot.ip_handle:

00000000 <ip_handle>:
   0:	e5d0200e 	ldrb	r2, [r0, #14]
   4:	e5d03017 	ldrb	r3, [r0, #23]
   8:	e3520045 	cmp	r2, #69	; 0x45
   c:	1a000006 	bne	2c <ip_handle+0x2c>
  10:	e3530002 	cmp	r3, #2
  14:	0a000006 	beq	34 <ip_handle+0x34>
  18:	e3530011 	cmp	r3, #17
  1c:	0a000005 	beq	38 <ip_handle+0x38>
  20:	e3530001 	cmp	r3, #1
  24:	112fff1e 	bxne	lr
  28:	eafffffe 	b	0 <icmp_handle>
  2c:	e3530002 	cmp	r3, #2
  30:	112fff1e 	bxne	lr
  34:	eafffffe 	b	0 <igmp_handle>
  38:	eafffffe 	b	0 <udp_handle>

net.o:     file format elf32-littlearm


Disassembly of section .text.unlikely.net_init:

00000000 <net_init>:
   0:	e92d41f0 	push	{r4, r5, r6, r7, r8, lr}
   4:	e1a05003 	mov	r5, r3
   8:	e59d6018 	ldr	r6, [sp, #24]
   c:	e3003000 	movw	r3, #0
  10:	e3403000 	movt	r3, #0
  14:	e1a04001 	mov	r4, r1
  18:	e2401001 	sub	r1, r0, #1
  1c:	e2800005 	add	r0, r0, #5
  20:	e5f1c001 	ldrb	ip, [r1, #1]!
  24:	e1500001 	cmp	r0, r1
  28:	e4c3c001 	strb	ip, [r3], #1
  2c:	1afffffb 	bne	20 <net_init+0x20>
  30:	e3003000 	movw	r3, #0
  34:	e284000c 	add	r0, r4, #12
  38:	e3403000 	movt	r3, #0
  3c:	e1a01004 	mov	r1, r4
  40:	e4d1c001 	ldrb	ip, [r1], #1
  44:	e1510000 	cmp	r1, r0
  48:	e4c3c001 	strb	ip, [r3], #1
  4c:	1afffffb 	bne	40 <net_init+0x40>
  50:	e2420001 	sub	r0, r2, #1
  54:	e3002000 	movw	r2, #0
  58:	e3402000 	movt	r2, #0
  5c:	e3a01040 	mov	r1, #64	; 0x40
  60:	e1a0c002 	mov	ip, r2
  64:	e5f03001 	ldrb	r3, [r0, #1]!
  68:	e3530000 	cmp	r3, #0
  6c:	0a000011 	beq	b8 <net_init+0xb8>
  70:	e4c23001 	strb	r3, [r2], #1
  74:	e2511001 	subs	r1, r1, #1
  78:	1afffff9 	bne	64 <net_init+0x64>
  7c:	e3a07000 	mov	r7, #0
  80:	e3001000 	movw	r1, #0
  84:	e3401000 	movt	r1, #0
  88:	e3000000 	movw	r0, #0
  8c:	e3400000 	movt	r0, #0
  90:	e5cc703f 	strb	r7, [ip, #63]	; 0x3f
  94:	ebfffffe 	bl	0 <ip_init>
  98:	e3000000 	movw	r0, #0
  9c:	e3400000 	movt	r0, #0
  a0:	ebfffffe 	bl	0 <rfc3927_init>
  a4:	e5c67000 	strb	r7, [r6]
  a8:	e5d53000 	ldrb	r3, [r5]
  ac:	e1530007 	cmp	r3, r7
  b0:	0a000013 	beq	104 <net_init+0x104>
  b4:	ea000004 	b	cc <net_init+0xcc>
  b8:	e0821001 	add	r1, r2, r1
  bc:	e1510002 	cmp	r1, r2
  c0:	0affffed 	beq	7c <net_init+0x7c>
  c4:	e4c23001 	strb	r3, [r2], #1
  c8:	eafffffb 	b	bc <net_init+0xbc>
  cc:	e3002000 	movw	r2, #0
  d0:	e3001000 	movw	r1, #0
  d4:	e3402000 	movt	r2, #0
  d8:	e3000000 	movw	r0, #0
  dc:	e3401000 	movt	r1, #0
  e0:	e3400000 	movt	r0, #0
  e4:	ebfffffe 	bl	0 <dhcp_client>
  e8:	e3500000 	cmp	r0, #0
  ec:	aa000004 	bge	104 <net_init+0x104>
  f0:	e5c57000 	strb	r7, [r5]
  f4:	e3000000 	movw	r0, #0
  f8:	e3400000 	movt	r0, #0
  fc:	ebfffffe 	bl	0 <rfc3927>
 100:	e5c60000 	strb	r0, [r6]
 104:	e3001000 	movw	r1, #0
 108:	e3000000 	movw	r0, #0
 10c:	e3401000 	movt	r1, #0
 110:	e3400000 	movt	r0, #0
 114:	ebfffffe 	bl	0 <arp_init>
 118:	e3000000 	movw	r0, #0
 11c:	e3400000 	movt	r0, #0
 120:	ebfffffe 	bl	0 <ip_set_ip>
 124:	ebfffffe 	bl	0 <tcp_init>
 128:	e3003000 	movw	r3, #0
 12c:	e2442001 	sub	r2, r4, #1
 130:	e3403000 	movt	r3, #0
 134:	e284400b 	add	r4, r4, #11
 138:	e4d31001 	ldrb	r1, [r3], #1
 13c:	e5e21001 	strb	r1, [r2, #1]!
 140:	e1540002 	cmp	r4, r2
 144:	1afffffb 	bne	138 <net_init+0x138>
 148:	e5d52000 	ldrb	r2, [r5]
 14c:	e3003000 	movw	r3, #0
 150:	e3403000 	movt	r3, #0
 154:	e5c32000 	strb	r2, [r3]
 158:	e8bd81f0 	pop	{r4, r5, r6, r7, r8, pc}

Disassembly of section .text.unlikely.net_shutdown:

00000000 <net_shutdown>:
   0:	e92d4010 	push	{r4, lr}
   4:	ebfffffe 	bl	0 <ip_shutdown>
   8:	e3003000 	movw	r3, #0
   c:	e3403000 	movt	r3, #0
  10:	e5d33000 	ldrb	r3, [r3]
  14:	e3530000 	cmp	r3, #0
  18:	08bd8010 	popeq	{r4, pc}
  1c:	e8bd4010 	pop	{r4, lr}
  20:	eafffffe 	b	0 <dhcp_client_release>

Disassembly of section .text.net_set_hostname:

00000000 <net_set_hostname>:
   0:	e300c000 	movw	ip, #0
   4:	e2400001 	sub	r0, r0, #1
   8:	e340c000 	movt	ip, #0
   c:	e3a02040 	mov	r2, #64	; 0x40
  10:	e1a0300c 	mov	r3, ip
  14:	e5f01001 	ldrb	r1, [r0, #1]!
  18:	e3510000 	cmp	r1, #0
  1c:	0a000005 	beq	38 <net_set_hostname+0x38>
  20:	e4c31001 	strb	r1, [r3], #1
  24:	e2522001 	subs	r2, r2, #1
  28:	1afffff9 	bne	14 <net_set_hostname+0x14>
  2c:	e3a03000 	mov	r3, #0
  30:	e5cc303f 	strb	r3, [ip, #63]	; 0x3f
  34:	e12fff1e 	bx	lr
  38:	e0832002 	add	r2, r3, r2
  3c:	e4c31001 	strb	r1, [r3], #1
  40:	e1520003 	cmp	r2, r3
  44:	1afffffc 	bne	3c <net_set_hostname+0x3c>
  48:	eafffff7 	b	2c <net_set_hostname+0x2c>

Disassembly of section .text.net_set_ip:

00000000 <net_set_ip>:
   0:	e92d4010 	push	{r4, lr}
   4:	e3004000 	movw	r4, #0
   8:	e3404000 	movt	r4, #0
   c:	e1a03000 	mov	r3, r0
  10:	e3000000 	movw	r0, #0
  14:	e1a01004 	mov	r1, r4
  18:	e3400000 	movt	r0, #0
  1c:	e5843000 	str	r3, [r4]
  20:	ebfffffe 	bl	0 <arp_init>
  24:	e1a00004 	mov	r0, r4
  28:	e8bd4010 	pop	{r4, lr}
  2c:	eafffffe 	b	0 <ip_set_ip>

Disassembly of section .text.net_set_gw:

00000000 <net_set_gw>:
   0:	e3003000 	movw	r3, #0
   4:	e3403000 	movt	r3, #0
   8:	e5830008 	str	r0, [r3, #8]
   c:	e1a00003 	mov	r0, r3
  10:	eafffffe 	b	0 <ip_set_ip>

Disassembly of section .text.net_set_dhcp:

00000000 <net_set_dhcp>:
   0:	e92d4070 	push	{r4, r5, r6, lr}
   4:	e3a05000 	mov	r5, #0
   8:	e5c15000 	strb	r5, [r1]
   c:	e1a06001 	mov	r6, r1
  10:	e3002000 	movw	r2, #0
  14:	e3001000 	movw	r1, #0
  18:	e3402000 	movt	r2, #0
  1c:	e1a04000 	mov	r4, r0
  20:	e3401000 	movt	r1, #0
  24:	e3000000 	movw	r0, #0
  28:	e3400000 	movt	r0, #0
  2c:	ebfffffe 	bl	0 <dhcp_client>
  30:	e1500005 	cmp	r0, r5
  34:	a3a05001 	movge	r5, #1
  38:	ba000014 	blt	90 <net_set_dhcp+0x90>
  3c:	e3001000 	movw	r1, #0
  40:	e3000000 	movw	r0, #0
  44:	e3401000 	movt	r1, #0
  48:	e3400000 	movt	r0, #0
  4c:	ebfffffe 	bl	0 <arp_init>
  50:	e3000000 	movw	r0, #0
  54:	e3400000 	movt	r0, #0
  58:	ebfffffe 	bl	0 <ip_set_ip>
  5c:	e3002000 	movw	r2, #0
  60:	e2443001 	sub	r3, r4, #1
  64:	e3402000 	movt	r2, #0
  68:	e284000b 	add	r0, r4, #11
  6c:	e4d21001 	ldrb	r1, [r2], #1
  70:	e5e31001 	strb	r1, [r3, #1]!
  74:	e1530000 	cmp	r3, r0
  78:	1afffffb 	bne	6c <net_set_dhcp+0x6c>
  7c:	e3003000 	movw	r3, #0
  80:	e1a00005 	mov	r0, r5
  84:	e3403000 	movt	r3, #0
  88:	e5c35000 	strb	r5, [r3]
  8c:	e8bd8070 	pop	{r4, r5, r6, pc}
  90:	e3000000 	movw	r0, #0
  94:	e3400000 	movt	r0, #0
  98:	ebfffffe 	bl	0 <rfc3927>
  9c:	e5c60000 	strb	r0, [r6]
  a0:	eaffffe5 	b	3c <net_set_dhcp+0x3c>

Disassembly of section .text.net_dhcp_release:

00000000 <net_dhcp_release>:
   0:	e92d4010 	push	{r4, lr}
   4:	ebfffffe 	bl	0 <dhcp_client_release>
   8:	e3003000 	movw	r3, #0
   c:	e3a02000 	mov	r2, #0
  10:	e3403000 	movt	r3, #0
  14:	e5c32000 	strb	r2, [r3]
  18:	e8bd8010 	pop	{r4, pc}

Disassembly of section .text.net_set_zeroconf:

00000000 <net_set_zeroconf>:
   0:	e92d4070 	push	{r4, r5, r6, lr}
   4:	e1a04000 	mov	r4, r0
   8:	e3000000 	movw	r0, #0
   c:	e3400000 	movt	r0, #0
  10:	ebfffffe 	bl	0 <rfc3927>
  14:	e2505000 	subs	r5, r0, #0
  18:	1a000001 	bne	24 <net_set_zeroconf+0x24>
  1c:	e1a00005 	mov	r0, r5
  20:	e8bd8070 	pop	{r4, r5, r6, pc}
  24:	e3001000 	movw	r1, #0
  28:	e3000000 	movw	r0, #0
  2c:	e3401000 	movt	r1, #0
  30:	e3400000 	movt	r0, #0
  34:	ebfffffe 	bl	0 <arp_init>
  38:	e3000000 	movw	r0, #0
  3c:	e3400000 	movt	r0, #0
  40:	ebfffffe 	bl	0 <ip_set_ip>
  44:	e3002000 	movw	r2, #0
  48:	e2443001 	sub	r3, r4, #1
  4c:	e3402000 	movt	r2, #0
  50:	e284000b 	add	r0, r4, #11
  54:	e4d21001 	ldrb	r1, [r2], #1
  58:	e5e31001 	strb	r1, [r3, #1]!
  5c:	e1530000 	cmp	r3, r0
  60:	1afffffb 	bne	54 <net_set_zeroconf+0x54>
  64:	e3003000 	movw	r3, #0
  68:	e3a02000 	mov	r2, #0
  6c:	e3403000 	movt	r3, #0
  70:	e1a00005 	mov	r0, r5
  74:	e5c32000 	strb	r2, [r3]
  78:	e8bd8070 	pop	{r4, r5, r6, pc}

Disassembly of section .text.hot.net_handle:

00000000 <net_handle>:
   0:	e92d4010 	push	{r4, lr}
   4:	e3004000 	movw	r4, #0
   8:	e3404000 	movt	r4, #0
   c:	e1a00004 	mov	r0, r4
  10:	ebfffffe 	bl	0 <emac_eth_recv>
  14:	e3500000 	cmp	r0, #0
  18:	ca000001 	bgt	24 <net_handle+0x24>
  1c:	e8bd4010 	pop	{r4, lr}
  20:	eafffffe 	b	0 <net_timers_run>
  24:	e5940000 	ldr	r0, [r4]
  28:	e1d030bc 	ldrh	r3, [r0, #12]
  2c:	e3530008 	cmp	r3, #8
  30:	0a000005 	beq	4c <net_handle+0x4c>
  34:	e3002608 	movw	r2, #1544	; 0x608
  38:	e1530002 	cmp	r3, r2
  3c:	0a000004 	beq	54 <net_handle+0x54>
  40:	ebfffffe 	bl	0 <emac_free_pkt>
  44:	e8bd4010 	pop	{r4, lr}
  48:	eafffffe 	b	0 <net_timers_run>
  4c:	ebfffffe 	bl	0 <ip_handle>
  50:	eafffffa 	b	40 <net_handle+0x40>
  54:	ebfffffe 	bl	0 <arp_handle>
  58:	eafffff8 	b	40 <net_handle+0x40>

net_chksum.o:     file format elf32-littlearm


Disassembly of section .text.net_chksum:

00000000 <net_chksum>:
   0:	e3510001 	cmp	r1, #1
   4:	9a000047 	bls	128 <net_chksum+0x128>
   8:	e92d40f0 	push	{r4, r5, r6, r7, lr}
   c:	e241e002 	sub	lr, r1, #2
  10:	e35e001f 	cmp	lr, #31
  14:	9a000047 	bls	138 <net_chksum+0x138>
  18:	e0815000 	add	r5, r1, r0
  1c:	e281401e 	add	r4, r1, #30
  20:	e0804004 	add	r4, r0, r4
  24:	e280c020 	add	ip, r0, #32
  28:	e3a03000 	mov	r3, #0
  2c:	e15c61be 	ldrh	r6, [ip, #-30]	; 0xffffffe2
  30:	e15c22b0 	ldrh	r2, [ip, #-32]	; 0xffffffe0
  34:	f5dcf024 	pld	[ip, #36]	; 0x24
  38:	e0822006 	add	r2, r2, r6
  3c:	e15c61bc 	ldrh	r6, [ip, #-28]	; 0xffffffe4
  40:	e0822006 	add	r2, r2, r6
  44:	e15c61ba 	ldrh	r6, [ip, #-26]	; 0xffffffe6
  48:	e0822006 	add	r2, r2, r6
  4c:	e15c61b8 	ldrh	r6, [ip, #-24]	; 0xffffffe8
  50:	e0822006 	add	r2, r2, r6
  54:	e15c61b6 	ldrh	r6, [ip, #-22]	; 0xffffffea
  58:	e0822006 	add	r2, r2, r6
  5c:	e15c61b4 	ldrh	r6, [ip, #-20]	; 0xffffffec
  60:	e0822006 	add	r2, r2, r6
  64:	e15c61b2 	ldrh	r6, [ip, #-18]	; 0xffffffee
  68:	e0822006 	add	r2, r2, r6
  6c:	e15c61b0 	ldrh	r6, [ip, #-16]
  70:	e0822006 	add	r2, r2, r6
  74:	e15c60be 	ldrh	r6, [ip, #-14]
  78:	e0822006 	add	r2, r2, r6
  7c:	e15c60bc 	ldrh	r6, [ip, #-12]
  80:	e0822006 	add	r2, r2, r6
  84:	e15c60ba 	ldrh	r6, [ip, #-10]
  88:	e0822006 	add	r2, r2, r6
  8c:	e15c60b8 	ldrh	r6, [ip, #-8]
  90:	e0822006 	add	r2, r2, r6
  94:	e15c60b6 	ldrh	r6, [ip, #-6]
  98:	e0822006 	add	r2, r2, r6
  9c:	e15c60b4 	ldrh	r6, [ip, #-4]
  a0:	e0822006 	add	r2, r2, r6
  a4:	e15c60b2 	ldrh	r6, [ip, #-2]
  a8:	e0822006 	add	r2, r2, r6
  ac:	e0833002 	add	r3, r3, r2
  b0:	e1a0200c 	mov	r2, ip
  b4:	e045600c 	sub	r6, r5, ip
  b8:	e28cc020 	add	ip, ip, #32
  bc:	e044700c 	sub	r7, r4, ip
  c0:	e357001f 	cmp	r7, #31
  c4:	8affffd8 	bhi	2c <net_chksum+0x2c>
  c8:	e2464002 	sub	r4, r6, #2
  cc:	e3c44001 	bic	r4, r4, #1
  d0:	e2844002 	add	r4, r4, #2
  d4:	e0824004 	add	r4, r2, r4
  d8:	e0d2c0b2 	ldrh	ip, [r2], #2
  dc:	e1520004 	cmp	r2, r4
  e0:	e083300c 	add	r3, r3, ip
  e4:	1afffffb 	bne	d8 <net_chksum+0xd8>
  e8:	e3cee001 	bic	lr, lr, #1
  ec:	e3110001 	tst	r1, #1
  f0:	e28ee002 	add	lr, lr, #2
  f4:	e080000e 	add	r0, r0, lr
  f8:	15d02000 	ldrbne	r2, [r0]
  fc:	11a02402 	lslne	r2, r2, #8
 100:	16bf2fb2 	rev16ne	r2, r2
 104:	16f33072 	uxtahne	r3, r3, r2
 108:	e1b02823 	lsrs	r2, r3, #16
 10c:	0a00001a 	beq	17c <net_chksum+0x17c>
 110:	e6f23073 	uxtah	r3, r2, r3
 114:	e1b02823 	lsrs	r2, r3, #16
 118:	1afffffc 	bne	110 <net_chksum+0x110>
 11c:	e1e00003 	mvn	r0, r3
 120:	e6ff0070 	uxth	r0, r0
 124:	e8bd80f0 	pop	{r4, r5, r6, r7, pc}
 128:	e3510000 	cmp	r1, #0
 12c:	1a000005 	bne	148 <net_chksum+0x148>
 130:	e30f0fff 	movw	r0, #65535	; 0xffff
 134:	e12fff1e 	bx	lr
 138:	e1a02000 	mov	r2, r0
 13c:	e1a06001 	mov	r6, r1
 140:	e3a03000 	mov	r3, #0
 144:	eaffffdf 	b	c8 <net_chksum+0xc8>
 148:	e5d02000 	ldrb	r2, [r0]
 14c:	e3a03000 	mov	r3, #0
 150:	e1a02402 	lsl	r2, r2, #8
 154:	e6bf2fb2 	rev16	r2, r2
 158:	e6f33072 	uxtah	r3, r3, r2
 15c:	e1b02823 	lsrs	r2, r3, #16
 160:	0a000008 	beq	188 <net_chksum+0x188>
 164:	e6f23073 	uxtah	r3, r2, r3
 168:	e1b02823 	lsrs	r2, r3, #16
 16c:	1afffffc 	bne	164 <net_chksum+0x164>
 170:	e1e00003 	mvn	r0, r3
 174:	e6ff0070 	uxth	r0, r0
 178:	e12fff1e 	bx	lr
 17c:	e1e03003 	mvn	r3, r3
 180:	e6ff0073 	uxth	r0, r3
 184:	e8bd80f0 	pop	{r4, r5, r6, r7, pc}
 188:	e1e03003 	mvn	r3, r3
 18c:	e6ff0073 	uxth	r0, r3
 190:	e12fff1e 	bx	lr

net_timers.o:     file format elf32-littlearm


Disassembly of section .text.net_timers_run:

00000000 <net_timers_run>:
   0:	e3a02b03 	mov	r2, #3072	; 0xc00
   4:	e3003000 	movw	r3, #0
   8:	e34021c2 	movt	r2, #450	; 0x1c2
   c:	e3403000 	movt	r3, #0
  10:	e5922084 	ldr	r2, [r2, #132]	; 0x84
  14:	e5931000 	ldr	r1, [r3]
  18:	e1510002 	cmp	r1, r2
  1c:	812fff1e 	bxhi	lr
  20:	e2822064 	add	r2, r2, #100	; 0x64
  24:	e5832000 	str	r2, [r3]
  28:	eafffffe 	b	0 <igmp_timer>

rfc3927.o:     file format elf32-littlearm


Disassembly of section .text.unlikely.rfc3927_init:

00000000 <rfc3927_init>:
   0:	e3003000 	movw	r3, #0
   4:	e2802006 	add	r2, r0, #6
   8:	e3403000 	movt	r3, #0
   c:	e1500002 	cmp	r0, r2
  10:	012fff1e 	bxeq	lr
  14:	e4d01001 	ldrb	r1, [r0], #1
  18:	e4c31001 	strb	r1, [r3], #1
  1c:	eafffffa 	b	c <rfc3927_init+0xc>

Disassembly of section .text.rfc3927:

00000000 <rfc3927>:
   0:	e3003000 	movw	r3, #0
   4:	e3a02b03 	mov	r2, #3072	; 0xc00
   8:	e3403000 	movt	r3, #0
   c:	e92d47f0 	push	{r4, r5, r6, r7, r8, r9, sl, lr}
  10:	e30f5ea9 	movw	r5, #65193	; 0xfea9
  14:	e5d31004 	ldrb	r1, [r3, #4]
  18:	e300a000 	movw	sl, #0
  1c:	e5d34003 	ldrb	r4, [r3, #3]
  20:	e30f6ea9 	movw	r6, #65193	; 0xfea9
  24:	e34021c2 	movt	r2, #450	; 0x1c2
  28:	e1a08000 	mov	r8, r0
  2c:	e0844401 	add	r4, r4, r1, lsl #8
  30:	e3a090ff 	mov	r9, #255	; 0xff
  34:	e3405100 	movt	r5, #256	; 0x100
  38:	e5927084 	ldr	r7, [r2, #132]	; 0x84
  3c:	e1854804 	orr	r4, r5, r4, lsl #16
  40:	e340a000 	movt	sl, #0
  44:	e34f6ffe 	movt	r6, #65534	; 0xfffe
  48:	ea000008 	b	70 <rfc3927+0x70>
  4c:	e6bf4f33 	rev	r4, r3
  50:	e1540006 	cmp	r4, r6
  54:	01a04005 	moveq	r4, r5
  58:	e3590000 	cmp	r9, #0
  5c:	0a000014 	beq	b4 <rfc3927+0xb4>
  60:	e5923084 	ldr	r3, [r2, #132]	; 0x84
  64:	e0433007 	sub	r3, r3, r7
  68:	e3530f7d 	cmp	r3, #500	; 0x1f4
  6c:	2a000010 	bcs	b4 <rfc3927+0xb4>
  70:	e1a00004 	mov	r0, r4
  74:	e1a0100a 	mov	r1, sl
  78:	e2499001 	sub	r9, r9, #1
  7c:	ebfffffe 	bl	0 <arp_cache_lookup>
  80:	e6bf3f34 	rev	r3, r4
  84:	e3500000 	cmp	r0, #0
  88:	e3a02b03 	mov	r2, #3072	; 0xc00
  8c:	e2833001 	add	r3, r3, #1
  90:	e34021c2 	movt	r2, #450	; 0x1c2
  94:	e6ff9079 	uxth	r9, r9
  98:	1affffeb 	bne	4c <rfc3927+0x4c>
  9c:	e5884000 	str	r4, [r8]
  a0:	e30f3fff 	movw	r3, #65535	; 0xffff
  a4:	e5884008 	str	r4, [r8, #8]
  a8:	e3a00001 	mov	r0, #1
  ac:	e5883004 	str	r3, [r8, #4]
  b0:	e8bd87f0 	pop	{r4, r5, r6, r7, r8, r9, sl, pc}
  b4:	e3a03000 	mov	r3, #0
  b8:	e5883000 	str	r3, [r8]
  bc:	e1a00003 	mov	r0, r3
  c0:	e5883008 	str	r3, [r8, #8]
  c4:	e5883004 	str	r3, [r8, #4]
  c8:	e8bd87f0 	pop	{r4, r5, r6, r7, r8, r9, sl, pc}

tcp.o:     file format elf32-littlearm


Disassembly of section .text._bswap32:

00000000 <_bswap32>:
   0:	e92d4010 	push	{r4, lr}
   4:	e24dd008 	sub	sp, sp, #8
   8:	e28d1004 	add	r1, sp, #4
   c:	e280202a 	add	r2, r0, #42	; 0x2a
  10:	e1a03002 	mov	r3, r2
  14:	e280e02e 	add	lr, r0, #46	; 0x2e
  18:	e1a0c001 	mov	ip, r1
  1c:	e4d34001 	ldrb	r4, [r3], #1
  20:	e153000e 	cmp	r3, lr
  24:	e4cc4001 	strb	r4, [ip], #1
  28:	1afffffb 	bne	1c <_bswap32+0x1c>
  2c:	e59d3004 	ldr	r3, [sp, #4]
  30:	e28dc004 	add	ip, sp, #4
  34:	e6bf3f33 	rev	r3, r3
  38:	e58d3004 	str	r3, [sp, #4]
  3c:	e1a03002 	mov	r3, r2
  40:	e4dc4001 	ldrb	r4, [ip], #1
  44:	e4c34001 	strb	r4, [r3], #1
  48:	e153000e 	cmp	r3, lr
  4c:	1afffffb 	bne	40 <_bswap32+0x40>
  50:	e2800026 	add	r0, r0, #38	; 0x26
  54:	e1a03000 	mov	r3, r0
  58:	e4d3c001 	ldrb	ip, [r3], #1
  5c:	e1530002 	cmp	r3, r2
  60:	e4c1c001 	strb	ip, [r1], #1
  64:	1afffffb 	bne	58 <_bswap32+0x58>
  68:	e59d1004 	ldr	r1, [sp, #4]
  6c:	e28d3004 	add	r3, sp, #4
  70:	e6bf1f31 	rev	r1, r1
  74:	e58d1004 	str	r1, [sp, #4]
  78:	e4d31001 	ldrb	r1, [r3], #1
  7c:	e4c01001 	strb	r1, [r0], #1
  80:	e1500002 	cmp	r0, r2
  84:	1afffffb 	bne	78 <_bswap32+0x78>
  88:	e28dd008 	add	sp, sp, #8
  8c:	e8bd8010 	pop	{r4, pc}

Disassembly of section .text._tcp_send_package:

00000000 <_tcp_send_package>:
   0:	e92d4ff0 	push	{r4, r5, r6, r7, r8, r9, sl, fp, lr}
   4:	e3004000 	movw	r4, #0
   8:	e5d13008 	ldrb	r3, [r1, #8]
   c:	e2808008 	add	r8, r0, #8
  10:	e1d023b0 	ldrh	r2, [r0, #48]	; 0x30
  14:	e1a07000 	mov	r7, r0
  18:	e3404000 	movt	r4, #0
  1c:	e2033002 	and	r3, r3, #2
  20:	e3530000 	cmp	r3, #0
  24:	e24dd014 	sub	sp, sp, #20
  28:	03a06014 	moveq	r6, #20
  2c:	13a06018 	movne	r6, #24
  30:	e0866002 	add	r6, r6, r2
  34:	e1a09001 	mov	r9, r1
  38:	03a0a050 	moveq	sl, #80	; 0x50
  3c:	13a0a060 	movne	sl, #96	; 0x60
  40:	e6ff6076 	uxth	r6, r6
  44:	e1a03008 	mov	r3, r8
  48:	e1a02004 	mov	r2, r4
  4c:	e280000e 	add	r0, r0, #14
  50:	e4d31001 	ldrb	r1, [r3], #1
  54:	e1530000 	cmp	r3, r0
  58:	e4c21001 	strb	r1, [r2], #1
  5c:	1afffffb 	bne	50 <_tcp_send_package+0x50>
  60:	e59f21cc 	ldr	r2, [pc, #460]	; 234 <_tcp_send_package+0x234>
  64:	e3003000 	movw	r3, #0
  68:	e3403000 	movt	r3, #0
  6c:	e2875004 	add	r5, r7, #4
  70:	e1d310b0 	ldrh	r1, [r3]
  74:	e1c411b2 	strh	r1, [r4, #18]
  78:	e2811001 	add	r1, r1, #1
  7c:	e1c310b0 	strh	r1, [r3]
  80:	e2863014 	add	r3, r6, #20
  84:	e6bf3fb3 	rev16	r3, r3
  88:	e1c431b0 	strh	r3, [r4, #16]
  8c:	e1a03005 	mov	r3, r5
  90:	e4d31001 	ldrb	r1, [r3], #1
  94:	e1530008 	cmp	r3, r8
  98:	e4c21001 	strb	r1, [r2], #1
  9c:	1afffffb 	bne	90 <_tcp_send_package+0x90>
  a0:	e59f0190 	ldr	r0, [pc, #400]	; 238 <_tcp_send_package+0x238>
  a4:	e3a01014 	mov	r1, #20
  a8:	e3a0b000 	mov	fp, #0
  ac:	e1c4b1b8 	strh	fp, [r4, #24]
  b0:	ebfffffe 	bl	0 <net_chksum>
  b4:	e5992000 	ldr	r2, [r9]
  b8:	e1d730b2 	ldrh	r3, [r7, #2]
  bc:	e1c401b8 	strh	r0, [r4, #24]
  c0:	e1d700b0 	ldrh	r0, [r7]
  c4:	e5842026 	str	r2, [r4, #38]	; 0x26
  c8:	e5992004 	ldr	r2, [r9, #4]
  cc:	e1c402b2 	strh	r0, [r4, #34]	; 0x22
  d0:	e5c4a02e 	strb	sl, [r4, #46]	; 0x2e
  d4:	e1c432b4 	strh	r3, [r4, #36]	; 0x24
  d8:	e584202a 	str	r2, [r4, #42]	; 0x2a
  dc:	e5d92008 	ldrb	r2, [r9, #8]
  e0:	e5c4202f 	strb	r2, [r4, #47]	; 0x2f
  e4:	e3120002 	tst	r2, #2
  e8:	e1d721bc 	ldrh	r2, [r7, #28]
  ec:	159f1148 	ldrne	r1, [pc, #328]	; 23c <_tcp_send_package+0x23c>
  f0:	e1c423b4 	strh	r2, [r4, #52]	; 0x34
  f4:	e1d723b8 	ldrh	r2, [r7, #56]	; 0x38
  f8:	059f1140 	ldreq	r1, [pc, #320]	; 240 <_tcp_send_package+0x240>
  fc:	e1c423b0 	strh	r2, [r4, #48]	; 0x30
 100:	130b2405 	movwne	r2, #46085	; 0xb405
 104:	134f2fff 	movtne	r2, #65535	; 0xffff
 108:	11c423b8 	strhne	r2, [r4, #56]	; 0x38
 10c:	13002402 	movwne	r2, #1026	; 0x402
 110:	11c423b6 	strhne	r2, [r4, #54]	; 0x36
 114:	e597202c 	ldr	r2, [r7, #44]	; 0x2c
 118:	e1c4b3b2 	strh	fp, [r4, #50]	; 0x32
 11c:	e3520000 	cmp	r2, #0
 120:	0a00000d 	beq	15c <_tcp_send_package+0x15c>
 124:	e1d7c3b0 	ldrh	ip, [r7, #48]	; 0x30
 128:	e35c0000 	cmp	ip, #0
 12c:	0a00000a 	beq	15c <_tcp_send_package+0x15c>
 130:	e3a03000 	mov	r3, #0
 134:	ea000000 	b	13c <_tcp_send_package+0x13c>
 138:	e597202c 	ldr	r2, [r7, #44]	; 0x2c
 13c:	e7d22003 	ldrb	r2, [r2, r3]
 140:	e2833001 	add	r3, r3, #1
 144:	e4c12001 	strb	r2, [r1], #1
 148:	e1d723b0 	ldrh	r2, [r7, #48]	; 0x30
 14c:	e1520003 	cmp	r2, r3
 150:	8afffff8 	bhi	138 <_tcp_send_package+0x138>
 154:	e1d402b2 	ldrh	r0, [r4, #34]	; 0x22
 158:	e1d432b4 	ldrh	r3, [r4, #36]	; 0x24
 15c:	e6bf0fb0 	rev16	r0, r0
 160:	e1c402b2 	strh	r0, [r4, #34]	; 0x22
 164:	e3000000 	movw	r0, #0
 168:	e6bf3fb3 	rev16	r3, r3
 16c:	e3400000 	movt	r0, #0
 170:	e1c432b4 	strh	r3, [r4, #36]	; 0x24
 174:	ebfffffe 	bl	0 <_tcp_send_package>
 178:	e1d433b0 	ldrh	r3, [r4, #48]	; 0x30
 17c:	e28d2004 	add	r2, sp, #4
 180:	e6bf3fb3 	rev16	r3, r3
 184:	e1c433b0 	strh	r3, [r4, #48]	; 0x30
 188:	e1d433b4 	ldrh	r3, [r4, #52]	; 0x34
 18c:	e6bf3fb3 	rev16	r3, r3
 190:	e1c433b4 	strh	r3, [r4, #52]	; 0x34
 194:	e59f30a8 	ldr	r3, [pc, #168]	; 244 <_tcp_send_package+0x244>
 198:	e283000c 	add	r0, r3, #12
 19c:	e4d31001 	ldrb	r1, [r3], #1
 1a0:	e1530000 	cmp	r3, r0
 1a4:	e4c21001 	strb	r1, [r2], #1
 1a8:	1afffffb 	bne	19c <_tcp_send_package+0x19c>
 1ac:	e59f2090 	ldr	r2, [pc, #144]	; 244 <_tcp_send_package+0x244>
 1b0:	e3003000 	movw	r3, #0
 1b4:	e3403000 	movt	r3, #0
 1b8:	e2830004 	add	r0, r3, #4
 1bc:	e4d31001 	ldrb	r1, [r3], #1
 1c0:	e1530000 	cmp	r3, r0
 1c4:	e4c21001 	strb	r1, [r2], #1
 1c8:	1afffffb 	bne	1bc <_tcp_send_package+0x1bc>
 1cc:	e59f3074 	ldr	r3, [pc, #116]	; 248 <_tcp_send_package+0x248>
 1d0:	e4d52001 	ldrb	r2, [r5], #1
 1d4:	e1580005 	cmp	r8, r5
 1d8:	e4c32001 	strb	r2, [r3], #1
 1dc:	1afffffb 	bne	1d0 <_tcp_send_package+0x1d0>
 1e0:	e6bf3fb6 	rev16	r3, r6
 1e4:	e3a02c06 	mov	r2, #1536	; 0x600
 1e8:	e59f0054 	ldr	r0, [pc, #84]	; 244 <_tcp_send_package+0x244>
 1ec:	e286100c 	add	r1, r6, #12
 1f0:	e1c421be 	strh	r2, [r4, #30]
 1f4:	e1c432b0 	strh	r3, [r4, #32]
 1f8:	ebfffffe 	bl	0 <net_chksum>
 1fc:	e59f2048 	ldr	r2, [pc, #72]	; 24c <_tcp_send_package+0x24c>
 200:	e28d3004 	add	r3, sp, #4
 204:	e4d31001 	ldrb	r1, [r3], #1
 208:	e28dc010 	add	ip, sp, #16
 20c:	e153000c 	cmp	r3, ip
 210:	e5e21001 	strb	r1, [r2, #1]!
 214:	1afffffa 	bne	204 <_tcp_send_package+0x204>
 218:	e1c403b2 	strh	r0, [r4, #50]	; 0x32
 21c:	e3000000 	movw	r0, #0
 220:	e3400000 	movt	r0, #0
 224:	e2861022 	add	r1, r6, #34	; 0x22
 228:	e28dd014 	add	sp, sp, #20
 22c:	e8bd4ff0 	pop	{r4, r5, r6, r7, r8, r9, sl, fp, lr}
 230:	eafffffe 	b	0 <emac_eth_send>
 234:	0000001e 	.word	0x0000001e
 238:	0000000e 	.word	0x0000000e
 23c:	00000038 	.word	0x00000038
 240:	00000036 	.word	0x00000036
 244:	00000016 	.word	0x00000016
 248:	0000001a 	.word	0x0000001a
 24c:	00000015 	.word	0x00000015

Disassembly of section .text._send_reset:

00000000 <_send_reset>:
   0:	e92d4070 	push	{r4, r5, r6, lr}
   4:	e1a03000 	mov	r3, r0
   8:	e5d0602f 	ldrb	r6, [r0, #47]	; 0x2f
   c:	e24dd010 	sub	sp, sp, #16
  10:	e3160004 	tst	r6, #4
  14:	1a000016 	bne	74 <_send_reset+0x74>
  18:	e1a00001 	mov	r0, r1
  1c:	e2161010 	ands	r1, r6, #16
  20:	e3a02004 	mov	r2, #4
  24:	e5cd200c 	strb	r2, [sp, #12]
  28:	1a000013 	bne	7c <_send_reset+0x7c>
  2c:	e58d1004 	str	r1, [sp, #4]
  30:	e283e02a 	add	lr, r3, #42	; 0x2a
  34:	e1a0200d 	mov	r2, sp
  38:	e3a01014 	mov	r1, #20
  3c:	e5cd100c 	strb	r1, [sp, #12]
  40:	e7e040d6 	ubfx	r4, r6, #1, #1
  44:	e3160001 	tst	r6, #1
  48:	12844001 	addne	r4, r4, #1
  4c:	e2833026 	add	r3, r3, #38	; 0x26
  50:	e4d3c001 	ldrb	ip, [r3], #1
  54:	e153000e 	cmp	r3, lr
  58:	e4c2c001 	strb	ip, [r2], #1
  5c:	1afffffb 	bne	50 <_send_reset+0x50>
  60:	e59d3000 	ldr	r3, [sp]
  64:	e28d1004 	add	r1, sp, #4
  68:	e0844003 	add	r4, r4, r3
  6c:	e58d4008 	str	r4, [sp, #8]
  70:	ebfffffe 	bl	0 <_send_reset>
  74:	e28dd010 	add	sp, sp, #16
  78:	e8bd8070 	pop	{r4, r5, r6, pc}
  7c:	e283e02a 	add	lr, r3, #42	; 0x2a
  80:	e1a0200d 	mov	r2, sp
  84:	e1a0c00e 	mov	ip, lr
  88:	e1a04002 	mov	r4, r2
  8c:	e283102e 	add	r1, r3, #46	; 0x2e
  90:	e4dc5001 	ldrb	r5, [ip], #1
  94:	e15c0001 	cmp	ip, r1
  98:	e4c45001 	strb	r5, [r4], #1
  9c:	1afffffb 	bne	90 <_send_reset+0x90>
  a0:	e59d1000 	ldr	r1, [sp]
  a4:	e58d1004 	str	r1, [sp, #4]
  a8:	eaffffe4 	b	40 <_send_reset+0x40>

Disassembly of section .text.unlikely.tcp_init:

00000000 <tcp_init>:
   0:	e59f1074 	ldr	r1, [pc, #116]	; 7c <tcp_init+0x7c>
   4:	e3003000 	movw	r3, #0
   8:	e3403000 	movt	r3, #0
   c:	e24dd008 	sub	sp, sp, #8
  10:	e3a02006 	mov	r2, #6
  14:	e2522001 	subs	r2, r2, #1
  18:	24d30001 	ldrbcs	r0, [r3], #1
  1c:	24c10001 	strbcs	r0, [r1], #1
  20:	2afffffb 	bcs	14 <tcp_init+0x14>
  24:	e3002000 	movw	r2, #0
  28:	e3003000 	movw	r3, #0
  2c:	e3402000 	movt	r2, #0
  30:	e3a01008 	mov	r1, #8
  34:	e3403000 	movt	r3, #0
  38:	e5922000 	ldr	r2, [r2]
  3c:	e283001a 	add	r0, r3, #26
  40:	e1c310bc 	strh	r1, [r3, #12]
  44:	e28d1004 	add	r1, sp, #4
  48:	e58d2004 	str	r2, [sp, #4]
  4c:	e3a02004 	mov	r2, #4
  50:	e2522001 	subs	r2, r2, #1
  54:	24d1c001 	ldrbcs	ip, [r1], #1
  58:	24c0c001 	strbcs	ip, [r0], #1
  5c:	2afffffb 	bcs	50 <tcp_init+0x50>
  60:	e3a02040 	mov	r2, #64	; 0x40
  64:	e3a01045 	mov	r1, #69	; 0x45
  68:	e3402640 	movt	r2, #1600	; 0x640
  6c:	e1c310be 	strh	r1, [r3, #14]
  70:	e5832014 	str	r2, [r3, #20]
  74:	e28dd008 	add	sp, sp, #8
  78:	e12fff1e 	bx	lr
  7c:	00000006 	.word	0x00000006

Disassembly of section .text.hot.tcp_handle:

00000000 <tcp_handle>:
   0:	e92d4ff0 	push	{r4, r5, r6, r7, r8, r9, sl, fp, lr}
   4:	e1a04000 	mov	r4, r0
   8:	e1d022b2 	ldrh	r2, [r0, #34]	; 0x22
   c:	e24dd04c 	sub	sp, sp, #76	; 0x4c
  10:	e1d032b4 	ldrh	r3, [r0, #36]	; 0x24
  14:	e3005000 	movw	r5, #0
  18:	e6bf2fb2 	rev16	r2, r2
  1c:	e6bf3fb3 	rev16	r3, r3
  20:	e1c032b4 	strh	r3, [r0, #36]	; 0x24
  24:	e1c022b2 	strh	r2, [r0, #34]	; 0x22
  28:	e1d061b0 	ldrh	r6, [r0, #16]
  2c:	e3405000 	movt	r5, #0
  30:	e5d0702e 	ldrb	r7, [r0, #46]	; 0x2e
  34:	ebfffffe 	bl	0 <tcp_handle>
  38:	e1d433b4 	ldrh	r3, [r4, #52]	; 0x34
  3c:	e1d4a2b4 	ldrh	sl, [r4, #36]	; 0x24
  40:	e6bf3fb3 	rev16	r3, r3
  44:	e1d5c0b0 	ldrh	ip, [r5]
  48:	e1d483b0 	ldrh	r8, [r4, #48]	; 0x30
  4c:	e1c433b4 	strh	r3, [r4, #52]	; 0x34
  50:	e6ff307a 	uxth	r3, sl
  54:	e15c0003 	cmp	ip, r3
  58:	e6bf8fb8 	rev16	r8, r8
  5c:	e1c483b0 	strh	r8, [r4, #48]	; 0x30
  60:	1a0000a4 	bne	2f8 <tcp_handle+0x2f8>
  64:	e5d50040 	ldrb	r0, [r5, #64]	; 0x40
  68:	e6ff8078 	uxth	r8, r8
  6c:	e3500001 	cmp	r0, #1
  70:	0a000032 	beq	140 <tcp_handle+0x140>
  74:	e284101a 	add	r1, r4, #26
  78:	e1a0e00d 	mov	lr, sp
  7c:	e284201e 	add	r2, r4, #30
  80:	e1a0900e 	mov	r9, lr
  84:	e1a03001 	mov	r3, r1
  88:	e4d3b001 	ldrb	fp, [r3], #1
  8c:	e1530002 	cmp	r3, r2
  90:	e4c9b001 	strb	fp, [r9], #1
  94:	1afffffb 	bne	88 <tcp_handle+0x88>
  98:	e1d4b2b2 	ldrh	fp, [r4, #34]	; 0x22
  9c:	e1d590b2 	ldrh	r9, [r5, #2]
  a0:	e6ff307b 	uxth	r3, fp
  a4:	e1590003 	cmp	r9, r3
  a8:	0a000020 	beq	130 <tcp_handle+0x130>
  ac:	e1a0000e 	mov	r0, lr
  b0:	e1a03001 	mov	r3, r1
  b4:	e4d3c001 	ldrb	ip, [r3], #1
  b8:	e1530002 	cmp	r3, r2
  bc:	e4c0c001 	strb	ip, [r0], #1
  c0:	1afffffb 	bne	b4 <tcp_handle+0xb4>
  c4:	e28d9004 	add	r9, sp, #4
  c8:	e3a00000 	mov	r0, #0
  cc:	e1a03009 	mov	r3, r9
  d0:	e4c30001 	strb	r0, [r3], #1
  d4:	e28dc048 	add	ip, sp, #72	; 0x48
  d8:	e153000c 	cmp	r3, ip
  dc:	1afffffb 	bne	d0 <tcp_handle+0xd0>
  e0:	e1cda0b4 	strh	sl, [sp, #4]
  e4:	e1cdb0b6 	strh	fp, [sp, #6]
  e8:	e4d13001 	ldrb	r3, [r1], #1
  ec:	e1510002 	cmp	r1, r2
  f0:	e4ce3001 	strb	r3, [lr], #1
  f4:	1afffffb 	bne	e8 <tcp_handle+0xe8>
  f8:	e59d2000 	ldr	r2, [sp]
  fc:	e2843006 	add	r3, r4, #6
 100:	e284000c 	add	r0, r4, #12
 104:	e58d2008 	str	r2, [sp, #8]
 108:	e28d200b 	add	r2, sp, #11
 10c:	e4d31001 	ldrb	r1, [r3], #1
 110:	e1530000 	cmp	r3, r0
 114:	e5e21001 	strb	r1, [r2, #1]!
 118:	1afffffb 	bne	10c <tcp_handle+0x10c>
 11c:	e1a01009 	mov	r1, r9
 120:	e1a00004 	mov	r0, r4
 124:	ebfffffe 	bl	0 <tcp_handle>
 128:	e28dd04c 	add	sp, sp, #76	; 0x4c
 12c:	e8bd8ff0 	pop	{r4, r5, r6, r7, r8, r9, sl, fp, pc}
 130:	e5959004 	ldr	r9, [r5, #4]
 134:	e59d3000 	ldr	r3, [sp]
 138:	e1590003 	cmp	r9, r3
 13c:	1affffda 	bne	ac <tcp_handle+0xac>
 140:	e284102a 	add	r1, r4, #42	; 0x2a
 144:	e28d9004 	add	r9, sp, #4
 148:	e1a03001 	mov	r3, r1
 14c:	e1a02009 	mov	r2, r9
 150:	e284a02e 	add	sl, r4, #46	; 0x2e
 154:	e4d3e001 	ldrb	lr, [r3], #1
 158:	e15a0003 	cmp	sl, r3
 15c:	e4c2e001 	strb	lr, [r2], #1
 160:	1afffffb 	bne	154 <tcp_handle+0x154>
 164:	e59da004 	ldr	sl, [sp, #4]
 168:	e2843026 	add	r3, r4, #38	; 0x26
 16c:	e1a02009 	mov	r2, r9
 170:	e4d3e001 	ldrb	lr, [r3], #1
 174:	e1530001 	cmp	r3, r1
 178:	e4c2e001 	strb	lr, [r2], #1
 17c:	1afffffb 	bne	170 <tcp_handle+0x170>
 180:	e59db004 	ldr	fp, [sp, #4]
 184:	e3500001 	cmp	r0, #1
 188:	0a000029 	beq	234 <tcp_handle+0x234>
 18c:	e2403003 	sub	r3, r0, #3
 190:	e3530007 	cmp	r3, #7
 194:	8affffe3 	bhi	128 <tcp_handle+0x128>
 198:	e1a07227 	lsr	r7, r7, #4
 19c:	e3e03013 	mvn	r3, #19
 1a0:	e1d523b8 	ldrh	r2, [r5, #56]	; 0x38
 1a4:	e6bf6fb6 	rev16	r6, r6
 1a8:	e1a07107 	lsl	r7, r7, #2
 1ac:	e3520000 	cmp	r2, #0
 1b0:	e0433007 	sub	r3, r3, r7
 1b4:	e6f36076 	uxtah	r6, r3, r6
 1b8:	e6ff6076 	uxth	r6, r6
 1bc:	0a00006d 	beq	378 <tcp_handle+0x378>
 1c0:	e5953034 	ldr	r3, [r5, #52]	; 0x34
 1c4:	e3560000 	cmp	r6, #0
 1c8:	e043100b 	sub	r1, r3, fp
 1cc:	1a00007a 	bne	3bc <tcp_handle+0x3bc>
 1d0:	e3510000 	cmp	r1, #0
 1d4:	da0000a5 	ble	470 <tcp_handle+0x470>
 1d8:	e5d4302f 	ldrb	r3, [r4, #47]	; 0x2f
 1dc:	e3130004 	tst	r3, #4
 1e0:	0a00006a 	beq	390 <tcp_handle+0x390>
 1e4:	e3003000 	movw	r3, #0
 1e8:	e3a01000 	mov	r1, #0
 1ec:	e3403000 	movt	r3, #0
 1f0:	e2832044 	add	r2, r3, #68	; 0x44
 1f4:	e4c31001 	strb	r1, [r3], #1
 1f8:	e1530002 	cmp	r3, r2
 1fc:	1afffffc 	bne	1f4 <tcp_handle+0x1f4>
 200:	e3a03b03 	mov	r3, #3072	; 0xc00
 204:	e3001b68 	movw	r1, #2920	; 0xb68
 208:	e34031c2 	movt	r3, #450	; 0x1c2
 20c:	e3a02001 	mov	r2, #1
 210:	e5933084 	ldr	r3, [r3, #132]	; 0x84
 214:	e1c5c0b0 	strh	ip, [r5]
 218:	e1c513b8 	strh	r1, [r5, #56]	; 0x38
 21c:	e5c52040 	strb	r2, [r5, #64]	; 0x40
 220:	e5853028 	str	r3, [r5, #40]	; 0x28
 224:	e5853010 	str	r3, [r5, #16]
 228:	e5853014 	str	r3, [r5, #20]
 22c:	e5853024 	str	r3, [r5, #36]	; 0x24
 230:	eaffffbc 	b	128 <tcp_handle+0x128>
 234:	e5d4302f 	ldrb	r3, [r4, #47]	; 0x2f
 238:	e3130004 	tst	r3, #4
 23c:	1affffb9 	bne	128 <tcp_handle+0x128>
 240:	e3130010 	tst	r3, #16
 244:	1a0000f0 	bne	60c <tcp_handle+0x60c>
 248:	e3130002 	tst	r3, #2
 24c:	0affffb5 	beq	128 <tcp_handle+0x128>
 250:	e5d42023 	ldrb	r2, [r4, #35]	; 0x23
 254:	e284001e 	add	r0, r4, #30
 258:	e5d43022 	ldrb	r3, [r4, #34]	; 0x22
 25c:	e1833402 	orr	r3, r3, r2, lsl #8
 260:	e1a0200d 	mov	r2, sp
 264:	e1c530b2 	strh	r3, [r5, #2]
 268:	e284301a 	add	r3, r4, #26
 26c:	e4d31001 	ldrb	r1, [r3], #1
 270:	e1530000 	cmp	r3, r0
 274:	e4c21001 	strb	r1, [r2], #1
 278:	1afffffb 	bne	26c <tcp_handle+0x26c>
 27c:	e59d3000 	ldr	r3, [sp]
 280:	e59f25d8 	ldr	r2, [pc, #1496]	; 860 <tcp_handle+0x860>
 284:	e5853004 	str	r3, [r5, #4]
 288:	e2843006 	add	r3, r4, #6
 28c:	e284400c 	add	r4, r4, #12
 290:	e4d31001 	ldrb	r1, [r3], #1
 294:	e1540003 	cmp	r4, r3
 298:	e5e21001 	strb	r1, [r2, #1]!
 29c:	1afffffb 	bne	290 <tcp_handle+0x290>
 2a0:	e5953028 	ldr	r3, [r5, #40]	; 0x28
 2a4:	e3000000 	movw	r0, #0
 2a8:	e585b03c 	str	fp, [r5, #60]	; 0x3c
 2ac:	e1a01009 	mov	r1, r9
 2b0:	e585b020 	str	fp, [r5, #32]
 2b4:	e28bb001 	add	fp, fp, #1
 2b8:	e58d3004 	str	r3, [sp, #4]
 2bc:	e3a03012 	mov	r3, #18
 2c0:	e3400000 	movt	r0, #0
 2c4:	e5cd300c 	strb	r3, [sp, #12]
 2c8:	e5858018 	str	r8, [r5, #24]
 2cc:	e585b034 	str	fp, [r5, #52]	; 0x34
 2d0:	e585a024 	str	sl, [r5, #36]	; 0x24
 2d4:	e58db008 	str	fp, [sp, #8]
 2d8:	ebfffffe 	bl	0 <tcp_handle>
 2dc:	e5953028 	ldr	r3, [r5, #40]	; 0x28
 2e0:	e5853010 	str	r3, [r5, #16]
 2e4:	e2833001 	add	r3, r3, #1
 2e8:	e5853014 	str	r3, [r5, #20]
 2ec:	e3a03003 	mov	r3, #3
 2f0:	e5c53040 	strb	r3, [r5, #64]	; 0x40
 2f4:	eaffff8b 	b	128 <tcp_handle+0x128>
 2f8:	e28d9004 	add	r9, sp, #4
 2fc:	e3a02000 	mov	r2, #0
 300:	e1a03009 	mov	r3, r9
 304:	e4c32001 	strb	r2, [r3], #1
 308:	e28d1048 	add	r1, sp, #72	; 0x48
 30c:	e1530001 	cmp	r3, r1
 310:	1afffffb 	bne	304 <tcp_handle+0x304>
 314:	e5d43023 	ldrb	r3, [r4, #35]	; 0x23
 318:	e284001e 	add	r0, r4, #30
 31c:	e5d42022 	ldrb	r2, [r4, #34]	; 0x22
 320:	e1cda0b4 	strh	sl, [sp, #4]
 324:	e1822403 	orr	r2, r2, r3, lsl #8
 328:	e284301a 	add	r3, r4, #26
 32c:	e1cd20b6 	strh	r2, [sp, #6]
 330:	e1a0200d 	mov	r2, sp
 334:	e4d31001 	ldrb	r1, [r3], #1
 338:	e1500003 	cmp	r0, r3
 33c:	e4c21001 	strb	r1, [r2], #1
 340:	1afffffb 	bne	334 <tcp_handle+0x334>
 344:	e59d2000 	ldr	r2, [sp]
 348:	e2843006 	add	r3, r4, #6
 34c:	e284000c 	add	r0, r4, #12
 350:	e58d2008 	str	r2, [sp, #8]
 354:	e28d200b 	add	r2, sp, #11
 358:	e4d31001 	ldrb	r1, [r3], #1
 35c:	e1530000 	cmp	r3, r0
 360:	e5e21001 	strb	r1, [r2, #1]!
 364:	1afffffb 	bne	358 <tcp_handle+0x358>
 368:	e1a01009 	mov	r1, r9
 36c:	e1a00004 	mov	r0, r4
 370:	ebfffffe 	bl	0 <tcp_handle>
 374:	eaffff6b 	b	128 <tcp_handle+0x128>
 378:	e3560000 	cmp	r6, #0
 37c:	1affff95 	bne	1d8 <tcp_handle+0x1d8>
 380:	e5953034 	ldr	r3, [r5, #52]	; 0x34
 384:	e153000b 	cmp	r3, fp
 388:	1affff92 	bne	1d8 <tcp_handle+0x1d8>
 38c:	ea000015 	b	3e8 <tcp_handle+0x3e8>
 390:	e5953014 	ldr	r3, [r5, #20]
 394:	e3000000 	movw	r0, #0
 398:	e5952034 	ldr	r2, [r5, #52]	; 0x34
 39c:	e1a01009 	mov	r1, r9
 3a0:	e58d3004 	str	r3, [sp, #4]
 3a4:	e3a03010 	mov	r3, #16
 3a8:	e3400000 	movt	r0, #0
 3ac:	e58d2008 	str	r2, [sp, #8]
 3b0:	e5cd300c 	strb	r3, [sp, #12]
 3b4:	ebfffffe 	bl	0 <tcp_handle>
 3b8:	eaffff5a 	b	128 <tcp_handle+0x128>
 3bc:	e3510000 	cmp	r1, #0
 3c0:	da000025 	ble	45c <tcp_handle+0x45c>
 3c4:	e086100b 	add	r1, r6, fp
 3c8:	e283e001 	add	lr, r3, #1
 3cc:	e04ee001 	sub	lr, lr, r1
 3d0:	e35e0000 	cmp	lr, #0
 3d4:	caffff7f 	bgt	1d8 <tcp_handle+0x1d8>
 3d8:	e1e03003 	mvn	r3, r3
 3dc:	e0432002 	sub	r2, r3, r2
 3e0:	e1720001 	cmn	r2, r1
 3e4:	5affff7b 	bpl	1d8 <tcp_handle+0x1d8>
 3e8:	e5d4302f 	ldrb	r3, [r4, #47]	; 0x2f
 3ec:	e3130004 	tst	r3, #4
 3f0:	1a00008b 	bne	624 <tcp_handle+0x624>
 3f4:	e3130002 	tst	r3, #2
 3f8:	0a000008 	beq	420 <tcp_handle+0x420>
 3fc:	e3500003 	cmp	r0, #3
 400:	03a03001 	moveq	r3, #1
 404:	05c53040 	strbeq	r3, [r5, #64]	; 0x40
 408:	0affff46 	beq	128 <tcp_handle+0x128>
 40c:	e3001000 	movw	r1, #0
 410:	e1a00004 	mov	r0, r4
 414:	e3401000 	movt	r1, #0
 418:	ebfffffe 	bl	0 <tcp_handle>
 41c:	e5d4302f 	ldrb	r3, [r4, #47]	; 0x2f
 420:	e3130010 	tst	r3, #16
 424:	0affff3f 	beq	128 <tcp_handle+0x128>
 428:	e5d52040 	ldrb	r2, [r5, #64]	; 0x40
 42c:	e2421003 	sub	r1, r2, #3
 430:	e3510007 	cmp	r1, #7
 434:	979ff101 	ldrls	pc, [pc, r1, lsl #2]
 438:	ea000047 	b	55c <tcp_handle+0x55c>
 43c:	000005d4 	.word	0x000005d4
 440:	00000484 	.word	0x00000484
 444:	00000484 	.word	0x00000484
 448:	00000484 	.word	0x00000484
 44c:	00000484 	.word	0x00000484
 450:	00000484 	.word	0x00000484
 454:	0000058c 	.word	0x0000058c
 458:	00000528 	.word	0x00000528
 45c:	e04b1003 	sub	r1, fp, r3
 460:	e0411002 	sub	r1, r1, r2
 464:	e3510000 	cmp	r1, #0
 468:	aaffffd5 	bge	3c4 <tcp_handle+0x3c4>
 46c:	eaffffdd 	b	3e8 <tcp_handle+0x3e8>
 470:	e04b3003 	sub	r3, fp, r3
 474:	e0432002 	sub	r2, r3, r2
 478:	e3520000 	cmp	r2, #0
 47c:	aaffff55 	bge	1d8 <tcp_handle+0x1d8>
 480:	eaffffd8 	b	3e8 <tcp_handle+0x3e8>
 484:	e5951010 	ldr	r1, [r5, #16]
 488:	e051000a 	subs	r0, r1, sl
 48c:	4a0000c0 	bmi	794 <tcp_handle+0x794>
 490:	e04a1001 	sub	r1, sl, r1
 494:	e3510000 	cmp	r1, #0
 498:	c595c014 	ldrgt	ip, [r5, #20]
 49c:	da0000c4 	ble	7b4 <tcp_handle+0x7b4>
 4a0:	e04c100a 	sub	r1, ip, sl
 4a4:	e3510000 	cmp	r1, #0
 4a8:	ba0000e2 	blt	838 <tcp_handle+0x838>
 4ac:	e2422004 	sub	r2, r2, #4
 4b0:	e3520002 	cmp	r2, #2
 4b4:	83a02000 	movhi	r2, #0
 4b8:	93a02001 	movls	r2, #1
 4bc:	e3560000 	cmp	r6, #0
 4c0:	03a02000 	moveq	r2, #0
 4c4:	e3520000 	cmp	r2, #0
 4c8:	1a000078 	bne	6b0 <tcp_handle+0x6b0>
 4cc:	e3130001 	tst	r3, #1
 4d0:	0affff14 	beq	128 <tcp_handle+0x128>
 4d4:	e5953034 	ldr	r3, [r5, #52]	; 0x34
 4d8:	e3000000 	movw	r0, #0
 4dc:	e5952014 	ldr	r2, [r5, #20]
 4e0:	e1a01009 	mov	r1, r9
 4e4:	e3400000 	movt	r0, #0
 4e8:	e2833001 	add	r3, r3, #1
 4ec:	e58d2004 	str	r2, [sp, #4]
 4f0:	e3a02010 	mov	r2, #16
 4f4:	e5853034 	str	r3, [r5, #52]	; 0x34
 4f8:	e58d3008 	str	r3, [sp, #8]
 4fc:	e5cd200c 	strb	r2, [sp, #12]
 500:	ebfffffe 	bl	0 <tcp_handle>
 504:	e5d53040 	ldrb	r3, [r5, #64]	; 0x40
 508:	e3530005 	cmp	r3, #5
 50c:	0a00009a 	beq	77c <tcp_handle+0x77c>
 510:	8a000061 	bhi	69c <tcp_handle+0x69c>
 514:	e2433003 	sub	r3, r3, #3
 518:	e3530001 	cmp	r3, #1
 51c:	93a03007 	movls	r3, #7
 520:	95c53040 	strbls	r3, [r5, #64]	; 0x40
 524:	eafffeff 	b	128 <tcp_handle+0x128>
 528:	e5952014 	ldr	r2, [r5, #20]
 52c:	e152000a 	cmp	r2, sl
 530:	1affffe5 	bne	4cc <tcp_handle+0x4cc>
 534:	e5953034 	ldr	r3, [r5, #52]	; 0x34
 538:	e3000000 	movw	r0, #0
 53c:	e3400000 	movt	r0, #0
 540:	e1a01009 	mov	r1, r9
 544:	e58d3008 	str	r3, [sp, #8]
 548:	e3a03010 	mov	r3, #16
 54c:	e58da004 	str	sl, [sp, #4]
 550:	e5cd300c 	strb	r3, [sp, #12]
 554:	ebfffffe 	bl	0 <tcp_handle>
 558:	e5d52040 	ldrb	r2, [r5, #64]	; 0x40
 55c:	e2423004 	sub	r3, r2, #4
 560:	e3530002 	cmp	r3, #2
 564:	83a03000 	movhi	r3, #0
 568:	93a03001 	movls	r3, #1
 56c:	e3560000 	cmp	r6, #0
 570:	03a03000 	moveq	r3, #0
 574:	e3530000 	cmp	r3, #0
 578:	1a00004c 	bne	6b0 <tcp_handle+0x6b0>
 57c:	e3520002 	cmp	r2, #2
 580:	9afffee8 	bls	128 <tcp_handle+0x128>
 584:	e5d4302f 	ldrb	r3, [r4, #47]	; 0x2f
 588:	eaffffcf 	b	4cc <tcp_handle+0x4cc>
 58c:	e5952014 	ldr	r2, [r5, #20]
 590:	e152000a 	cmp	r2, sl
 594:	1affffcc 	bne	4cc <tcp_handle+0x4cc>
 598:	e1d500b0 	ldrh	r0, [r5]
 59c:	e3003000 	movw	r3, #0
 5a0:	e3403000 	movt	r3, #0
 5a4:	e3a01000 	mov	r1, #0
 5a8:	e2832044 	add	r2, r3, #68	; 0x44
 5ac:	e4c31001 	strb	r1, [r3], #1
 5b0:	e1530002 	cmp	r3, r2
 5b4:	1afffffc 	bne	5ac <tcp_handle+0x5ac>
 5b8:	e3a03b03 	mov	r3, #3072	; 0xc00
 5bc:	e3001b68 	movw	r1, #2920	; 0xb68
 5c0:	e34031c2 	movt	r3, #450	; 0x1c2
 5c4:	e3a02001 	mov	r2, #1
 5c8:	e5933084 	ldr	r3, [r3, #132]	; 0x84
 5cc:	e1c500b0 	strh	r0, [r5]
 5d0:	eaffff10 	b	218 <tcp_handle+0x218>
 5d4:	e5953010 	ldr	r3, [r5, #16]
 5d8:	e043300a 	sub	r3, r3, sl
 5dc:	e3530000 	cmp	r3, #0
 5e0:	ca000003 	bgt	5f4 <tcp_handle+0x5f4>
 5e4:	e5953014 	ldr	r3, [r5, #20]
 5e8:	e04a3003 	sub	r3, sl, r3
 5ec:	e3530000 	cmp	r3, #0
 5f0:	da000089 	ble	81c <tcp_handle+0x81c>
 5f4:	e3001000 	movw	r1, #0
 5f8:	e1a00004 	mov	r0, r4
 5fc:	e3401000 	movt	r1, #0
 600:	ebfffffe 	bl	0 <tcp_handle>
 604:	e5d52040 	ldrb	r2, [r5, #64]	; 0x40
 608:	eaffffd3 	b	55c <tcp_handle+0x55c>
 60c:	e3001000 	movw	r1, #0
 610:	e1a00004 	mov	r0, r4
 614:	e3401000 	movt	r1, #0
 618:	e28dd04c 	add	sp, sp, #76	; 0x4c
 61c:	e8bd4ff0 	pop	{r4, r5, r6, r7, r8, r9, sl, fp, lr}
 620:	eafffffe 	b	0 <tcp_handle>
 624:	e3500007 	cmp	r0, #7
 628:	8a000009 	bhi	654 <tcp_handle+0x654>
 62c:	e3500003 	cmp	r0, #3
 630:	e3003000 	movw	r3, #0
 634:	8a000011 	bhi	680 <tcp_handle+0x680>
 638:	e3403000 	movt	r3, #0
 63c:	e3a01000 	mov	r1, #0
 640:	e2832044 	add	r2, r3, #68	; 0x44
 644:	e4c31001 	strb	r1, [r3], #1
 648:	e1530002 	cmp	r3, r2
 64c:	1afffffc 	bne	644 <tcp_handle+0x644>
 650:	eafffeea 	b	200 <tcp_handle+0x200>
 654:	e2400008 	sub	r0, r0, #8
 658:	e3003000 	movw	r3, #0
 65c:	e3500002 	cmp	r0, #2
 660:	93403000 	movtls	r3, #0
 664:	93a01000 	movls	r1, #0
 668:	92832044 	addls	r2, r3, #68	; 0x44
 66c:	8afffff1 	bhi	638 <tcp_handle+0x638>
 670:	e4c31001 	strb	r1, [r3], #1
 674:	e1530002 	cmp	r3, r2
 678:	1afffffc 	bne	670 <tcp_handle+0x670>
 67c:	eafffedf 	b	200 <tcp_handle+0x200>
 680:	e3403000 	movt	r3, #0
 684:	e3a01000 	mov	r1, #0
 688:	e2832044 	add	r2, r3, #68	; 0x44
 68c:	e4c31001 	strb	r1, [r3], #1
 690:	e1530002 	cmp	r3, r2
 694:	1afffffc 	bne	68c <tcp_handle+0x68c>
 698:	eafffed8 	b	200 <tcp_handle+0x200>
 69c:	e3530006 	cmp	r3, #6
 6a0:	1afffea0 	bne	128 <tcp_handle+0x128>
 6a4:	e3a0300a 	mov	r3, #10
 6a8:	e5c53040 	strb	r3, [r5, #64]	; 0x40
 6ac:	eafffe9d 	b	128 <tcp_handle+0x128>
 6b0:	e595c034 	ldr	ip, [r5, #52]	; 0x34
 6b4:	e15c000b 	cmp	ip, fp
 6b8:	1a000025 	bne	754 <tcp_handle+0x754>
 6bc:	e3008000 	movw	r8, #0
 6c0:	e30025b6 	movw	r2, #1462	; 0x5b6
 6c4:	e3408000 	movt	r8, #0
 6c8:	e2843022 	add	r3, r4, #34	; 0x22
 6cc:	e0837007 	add	r7, r3, r7
 6d0:	e1d810b0 	ldrh	r1, [r8]
 6d4:	e0870006 	add	r0, r7, r6
 6d8:	e0228192 	mla	r2, r2, r1, r8
 6dc:	e2822003 	add	r2, r2, #3
 6e0:	e4d73001 	ldrb	r3, [r7], #1
 6e4:	e1500007 	cmp	r0, r7
 6e8:	e5e23001 	strb	r3, [r2, #1]!
 6ec:	1afffffb 	bne	6e0 <tcp_handle+0x6e0>
 6f0:	e1d533b8 	ldrh	r3, [r5, #56]	; 0x38
 6f4:	e3000000 	movw	r0, #0
 6f8:	e5952014 	ldr	r2, [r5, #20]
 6fc:	e08cc006 	add	ip, ip, r6
 700:	e2433e5b 	sub	r3, r3, #1456	; 0x5b0
 704:	e3400000 	movt	r0, #0
 708:	e2433004 	sub	r3, r3, #4
 70c:	e1c533b8 	strh	r3, [r5, #56]	; 0x38
 710:	e30035b6 	movw	r3, #1462	; 0x5b6
 714:	e0218193 	mla	r1, r3, r1, r8
 718:	e58d2004 	str	r2, [sp, #4]
 71c:	e30035b8 	movw	r3, #1464	; 0x5b8
 720:	e585c034 	str	ip, [r5, #52]	; 0x34
 724:	e18160b3 	strh	r6, [r1, r3]
 728:	e3a03010 	mov	r3, #16
 72c:	e5cd300c 	strb	r3, [sp, #12]
 730:	e1a01009 	mov	r1, r9
 734:	e58dc008 	str	ip, [sp, #8]
 738:	ebfffffe 	bl	0 <tcp_handle>
 73c:	e1d830b0 	ldrh	r3, [r8]
 740:	e5d52040 	ldrb	r2, [r5, #64]	; 0x40
 744:	e2833001 	add	r3, r3, #1
 748:	e2033001 	and	r3, r3, #1
 74c:	e1c830b0 	strh	r3, [r8]
 750:	eaffff89 	b	57c <tcp_handle+0x57c>
 754:	e5952014 	ldr	r2, [r5, #20]
 758:	e3000000 	movw	r0, #0
 75c:	e3400000 	movt	r0, #0
 760:	e3a03010 	mov	r3, #16
 764:	e58d2004 	str	r2, [sp, #4]
 768:	e1a01009 	mov	r1, r9
 76c:	e58dc008 	str	ip, [sp, #8]
 770:	e5cd300c 	strb	r3, [sp, #12]
 774:	ebfffffe 	bl	0 <tcp_handle>
 778:	eafffe6a 	b	128 <tcp_handle+0x128>
 77c:	e5953014 	ldr	r3, [r5, #20]
 780:	e153000a 	cmp	r3, sl
 784:	13a03008 	movne	r3, #8
 788:	15c53040 	strbne	r3, [r5, #64]	; 0x40
 78c:	1afffe65 	bne	128 <tcp_handle+0x128>
 790:	eaffffc3 	b	6a4 <tcp_handle+0x6a4>
 794:	e595c014 	ldr	ip, [r5, #20]
 798:	e04a000c 	sub	r0, sl, ip
 79c:	e3500000 	cmp	r0, #0
 7a0:	da000017 	ble	804 <tcp_handle+0x804>
 7a4:	e04a1001 	sub	r1, sl, r1
 7a8:	e3510000 	cmp	r1, #0
 7ac:	caffff3b 	bgt	4a0 <tcp_handle+0x4a0>
 7b0:	eaffff3d 	b	4ac <tcp_handle+0x4ac>
 7b4:	e3500000 	cmp	r0, #0
 7b8:	1affff3b 	bne	4ac <tcp_handle+0x4ac>
 7bc:	e5951014 	ldr	r1, [r5, #20]
 7c0:	e04a1001 	sub	r1, sl, r1
 7c4:	e3510000 	cmp	r1, #0
 7c8:	caffff37 	bgt	4ac <tcp_handle+0x4ac>
 7cc:	e5951020 	ldr	r1, [r5, #32]
 7d0:	e041000b 	sub	r0, r1, fp
 7d4:	e3500000 	cmp	r0, #0
 7d8:	ba000005 	blt	7f4 <tcp_handle+0x7f4>
 7dc:	e151000b 	cmp	r1, fp
 7e0:	1affff31 	bne	4ac <tcp_handle+0x4ac>
 7e4:	e5951024 	ldr	r1, [r5, #36]	; 0x24
 7e8:	e041100a 	sub	r1, r1, sl
 7ec:	e3510000 	cmp	r1, #0
 7f0:	caffff2d 	bgt	4ac <tcp_handle+0x4ac>
 7f4:	e5858018 	str	r8, [r5, #24]
 7f8:	e585b020 	str	fp, [r5, #32]
 7fc:	e585a024 	str	sl, [r5, #36]	; 0x24
 800:	eaffff29 	b	4ac <tcp_handle+0x4ac>
 804:	e5951020 	ldr	r1, [r5, #32]
 808:	e585a010 	str	sl, [r5, #16]
 80c:	e041000b 	sub	r0, r1, fp
 810:	e3500000 	cmp	r0, #0
 814:	aafffff0 	bge	7dc <tcp_handle+0x7dc>
 818:	eafffff5 	b	7f4 <tcp_handle+0x7f4>
 81c:	e5858018 	str	r8, [r5, #24]
 820:	e3a03004 	mov	r3, #4
 824:	e585b020 	str	fp, [r5, #32]
 828:	e585a024 	str	sl, [r5, #36]	; 0x24
 82c:	e585a010 	str	sl, [r5, #16]
 830:	e5c53040 	strb	r3, [r5, #64]	; 0x40
 834:	eafffe3b 	b	128 <tcp_handle+0x128>
 838:	e5952034 	ldr	r2, [r5, #52]	; 0x34
 83c:	e3000000 	movw	r0, #0
 840:	e3400000 	movt	r0, #0
 844:	e3a03010 	mov	r3, #16
 848:	e58dc004 	str	ip, [sp, #4]
 84c:	e1a01009 	mov	r1, r9
 850:	e58d2008 	str	r2, [sp, #8]
 854:	e5cd300c 	strb	r3, [sp, #12]
 858:	ebfffffe 	bl	0 <tcp_handle>
 85c:	eafffe31 	b	128 <tcp_handle+0x128>
 860:	00000007 	.word	0x00000007

Disassembly of section .text.tcp_begin:

00000000 <tcp_begin>:
   0:	e3002000 	movw	r2, #0
   4:	e3402000 	movt	r2, #0
   8:	e1d230b0 	ldrh	r3, [r2]
   c:	e1530000 	cmp	r3, r0
  10:	1a000016 	bne	70 <tcp_begin+0x70>
  14:	e5d21040 	ldrb	r1, [r2, #64]	; 0x40
  18:	e3510000 	cmp	r1, #0
  1c:	01a03002 	moveq	r3, r2
  20:	0282c044 	addeq	ip, r2, #68	; 0x44
  24:	1a000011 	bne	70 <tcp_begin+0x70>
  28:	e3a01000 	mov	r1, #0
  2c:	e4c31001 	strb	r1, [r3], #1
  30:	e153000c 	cmp	r3, ip
  34:	1afffffc 	bne	2c <tcp_begin+0x2c>
  38:	e3a03b03 	mov	r3, #3072	; 0xc00
  3c:	e300cb68 	movw	ip, #2920	; 0xb68
  40:	e34031c2 	movt	r3, #450	; 0x1c2
  44:	e3a01001 	mov	r1, #1
  48:	e5933084 	ldr	r3, [r3, #132]	; 0x84
  4c:	e1c200b0 	strh	r0, [r2]
  50:	e3a00000 	mov	r0, #0
  54:	e1c2c3b8 	strh	ip, [r2, #56]	; 0x38
  58:	e5823028 	str	r3, [r2, #40]	; 0x28
  5c:	e5823010 	str	r3, [r2, #16]
  60:	e5823014 	str	r3, [r2, #20]
  64:	e5823024 	str	r3, [r2, #36]	; 0x24
  68:	e5c21040 	strb	r1, [r2, #64]	; 0x40
  6c:	e12fff1e 	bx	lr
  70:	e3530000 	cmp	r3, #0
  74:	03003000 	movweq	r3, #0
  78:	03403000 	movteq	r3, #0
  7c:	0283c044 	addeq	ip, r3, #68	; 0x44
  80:	0affffe8 	beq	28 <tcp_begin+0x28>
  84:	e3000000 	movw	r0, #0
  88:	e92d4010 	push	{r4, lr}
  8c:	e3400000 	movt	r0, #0
  90:	ebfffffe 	bl	0 <console_error>
  94:	e3e00000 	mvn	r0, #0
  98:	e8bd8010 	pop	{r4, pc}

Disassembly of section .text.tcp_write:

00000000 <tcp_write>:
   0:	e92d4030 	push	{r4, r5, lr}
   4:	e30055b4 	movw	r5, #1460	; 0x5b4
   8:	e1520005 	cmp	r2, r5
   c:	e3004000 	movw	r4, #0
  10:	e3404000 	movt	r4, #0
  14:	31a05002 	movcc	r5, r2
  18:	e3a02044 	mov	r2, #68	; 0x44
  1c:	e24dd014 	sub	sp, sp, #20
  20:	e0244092 	mla	r4, r2, r0, r4
  24:	e1a03001 	mov	r3, r1
  28:	e3a02018 	mov	r2, #24
  2c:	e5cd200c 	strb	r2, [sp, #12]
  30:	e28d1004 	add	r1, sp, #4
  34:	e5942014 	ldr	r2, [r4, #20]
  38:	e1a00004 	mov	r0, r4
  3c:	e584302c 	str	r3, [r4, #44]	; 0x2c
  40:	e5943034 	ldr	r3, [r4, #52]	; 0x34
  44:	e1c453b0 	strh	r5, [r4, #48]	; 0x30
  48:	e1cd20f4 	strd	r2, [sp, #4]
  4c:	ebfffffe 	bl	0 <tcp_write>
  50:	e5942014 	ldr	r2, [r4, #20]
  54:	e3a03000 	mov	r3, #0
  58:	e584302c 	str	r3, [r4, #44]	; 0x2c
  5c:	e0825005 	add	r5, r2, r5
  60:	e1c433b0 	strh	r3, [r4, #48]	; 0x30
  64:	e5845014 	str	r5, [r4, #20]
  68:	e28dd014 	add	sp, sp, #20
  6c:	e8bd8030 	pop	{r4, r5, pc}

Disassembly of section .text.tcp_read:

00000000 <tcp_read>:
   0:	e92d4030 	push	{r4, r5, lr}
   4:	e3004000 	movw	r4, #0
   8:	e3404000 	movt	r4, #0
   c:	e3a03044 	mov	r3, #68	; 0x44
  10:	e0244093 	mla	r4, r3, r0, r4
  14:	e24dd014 	sub	sp, sp, #20
  18:	e5d43040 	ldrb	r3, [r4, #64]	; 0x40
  1c:	e3530007 	cmp	r3, #7
  20:	0a00001c 	beq	98 <tcp_read+0x98>
  24:	e3a03eb7 	mov	r3, #2928	; 0xb70
  28:	e3002000 	movw	r2, #0
  2c:	e0030093 	mul	r3, r3, r0
  30:	e3402000 	movt	r2, #0
  34:	e082e003 	add	lr, r2, r3
  38:	e192c0b3 	ldrh	ip, [r2, r3]
  3c:	e1de00b2 	ldrh	r0, [lr, #2]
  40:	e15c0000 	cmp	ip, r0
  44:	03a00000 	moveq	r0, #0
  48:	0a000010 	beq	90 <tcp_read+0x90>
  4c:	e300c5b6 	movw	ip, #1462	; 0x5b6
  50:	e00c009c 	mul	ip, ip, r0
  54:	e2800001 	add	r0, r0, #1
  58:	e08c5003 	add	r5, ip, r3
  5c:	e2833004 	add	r3, r3, #4
  60:	e083300c 	add	r3, r3, ip
  64:	e2000001 	and	r0, r0, #1
  68:	e0823003 	add	r3, r2, r3
  6c:	e5813000 	str	r3, [r1]
  70:	e1d433b8 	ldrh	r3, [r4, #56]	; 0x38
  74:	e082c005 	add	ip, r2, r5
  78:	e1ce00b2 	strh	r0, [lr, #2]
  7c:	e2833e5b 	add	r3, r3, #1456	; 0x5b0
  80:	e2833004 	add	r3, r3, #4
  84:	e1c433b8 	strh	r3, [r4, #56]	; 0x38
  88:	e30035b8 	movw	r3, #1464	; 0x5b8
  8c:	e19c00b3 	ldrh	r0, [ip, r3]
  90:	e28dd014 	add	sp, sp, #20
  94:	e8bd8030 	pop	{r4, r5, pc}
  98:	e5943014 	ldr	r3, [r4, #20]
  9c:	e1a00004 	mov	r0, r4
  a0:	e5942034 	ldr	r2, [r4, #52]	; 0x34
  a4:	e28d1004 	add	r1, sp, #4
  a8:	e58d3004 	str	r3, [sp, #4]
  ac:	e3a03011 	mov	r3, #17
  b0:	e58d2008 	str	r2, [sp, #8]
  b4:	e5cd300c 	strb	r3, [sp, #12]
  b8:	ebfffffe 	bl	0 <tcp_read>
  bc:	e5943014 	ldr	r3, [r4, #20]
  c0:	e3a02009 	mov	r2, #9
  c4:	e5c42040 	strb	r2, [r4, #64]	; 0x40
  c8:	e3a00000 	mov	r0, #0
  cc:	e2833001 	add	r3, r3, #1
  d0:	e5843014 	str	r3, [r4, #20]
  d4:	e28dd014 	add	sp, sp, #20
  d8:	e8bd8030 	pop	{r4, r5, pc}

udp.o:     file format elf32-littlearm


Disassembly of section .text.net_memcpy:

00000000 <net_memcpy>:
   0:	e1813000 	orr	r3, r1, r0
   4:	e3130003 	tst	r3, #3
   8:	0a000008 	beq	30 <net_memcpy+0x30>
   c:	e3520000 	cmp	r2, #0
  10:	012fff1e 	bxeq	lr
  14:	e081c002 	add	ip, r1, r2
  18:	e2403001 	sub	r3, r0, #1
  1c:	e4d12001 	ldrb	r2, [r1], #1
  20:	e151000c 	cmp	r1, ip
  24:	e5e32001 	strb	r2, [r3, #1]!
  28:	1afffffb 	bne	1c <net_memcpy+0x1c>
  2c:	e12fff1e 	bx	lr
  30:	e3520003 	cmp	r2, #3
  34:	9afffff4 	bls	c <net_memcpy+0xc>
  38:	e92d41f0 	push	{r4, r5, r6, r7, r8, lr}
  3c:	e2426004 	sub	r6, r2, #4
  40:	e356001f 	cmp	r6, #31
  44:	9a000033 	bls	118 <net_memcpy+0x118>
  48:	e0808002 	add	r8, r0, r2
  4c:	e282701c 	add	r7, r2, #28
  50:	e0807007 	add	r7, r0, r7
  54:	e2814020 	add	r4, r1, #32
  58:	e280e020 	add	lr, r0, #32
  5c:	e5143020 	ldr	r3, [r4, #-32]	; 0xffffffe0
  60:	f5d4f054 	pld	[r4, #84]	; 0x54
  64:	e50e3020 	str	r3, [lr, #-32]	; 0xffffffe0
  68:	e514301c 	ldr	r3, [r4, #-28]	; 0xffffffe4
  6c:	e048500e 	sub	r5, r8, lr
  70:	e50e301c 	str	r3, [lr, #-28]	; 0xffffffe4
  74:	e5143018 	ldr	r3, [r4, #-24]	; 0xffffffe8
  78:	e50e3018 	str	r3, [lr, #-24]	; 0xffffffe8
  7c:	e5143014 	ldr	r3, [r4, #-20]	; 0xffffffec
  80:	e50e3014 	str	r3, [lr, #-20]	; 0xffffffec
  84:	e5143010 	ldr	r3, [r4, #-16]
  88:	e50e3010 	str	r3, [lr, #-16]
  8c:	e514300c 	ldr	r3, [r4, #-12]
  90:	e50e300c 	str	r3, [lr, #-12]
  94:	e5143008 	ldr	r3, [r4, #-8]
  98:	e50e3008 	str	r3, [lr, #-8]
  9c:	e5143004 	ldr	r3, [r4, #-4]
  a0:	e50e3004 	str	r3, [lr, #-4]
  a4:	e1a0300e 	mov	r3, lr
  a8:	e28ee020 	add	lr, lr, #32
  ac:	e047c00e 	sub	ip, r7, lr
  b0:	e35c001f 	cmp	ip, #31
  b4:	e1a0c004 	mov	ip, r4
  b8:	e2844020 	add	r4, r4, #32
  bc:	8affffe6 	bhi	5c <net_memcpy+0x5c>
  c0:	e2454004 	sub	r4, r5, #4
  c4:	e3c44003 	bic	r4, r4, #3
  c8:	e0834004 	add	r4, r3, r4
  cc:	e2433004 	sub	r3, r3, #4
  d0:	e49ce004 	ldr	lr, [ip], #4
  d4:	e5a3e004 	str	lr, [r3, #4]!
  d8:	e1540003 	cmp	r4, r3
  dc:	1afffffb 	bne	d0 <net_memcpy+0xd0>
  e0:	e3c6c003 	bic	ip, r6, #3
  e4:	e2022003 	and	r2, r2, #3
  e8:	e3520000 	cmp	r2, #0
  ec:	e28cc004 	add	ip, ip, #4
  f0:	e080300c 	add	r3, r0, ip
  f4:	e081100c 	add	r1, r1, ip
  f8:	08bd81f0 	popeq	{r4, r5, r6, r7, r8, pc}
  fc:	e081c002 	add	ip, r1, r2
 100:	e2433001 	sub	r3, r3, #1
 104:	e4d12001 	ldrb	r2, [r1], #1
 108:	e151000c 	cmp	r1, ip
 10c:	e5e32001 	strb	r2, [r3, #1]!
 110:	1afffffb 	bne	104 <net_memcpy+0x104>
 114:	e8bd81f0 	pop	{r4, r5, r6, r7, r8, pc}
 118:	e1a0c001 	mov	ip, r1
 11c:	e1a03000 	mov	r3, r0
 120:	e1a05002 	mov	r5, r2
 124:	eaffffe5 	b	c0 <net_memcpy+0xc0>

Disassembly of section .text.udp_set_ip:

00000000 <udp_set_ip>:
   0:	e52de004 	push	{lr}		; (str lr, [sp, #-4]!)
   4:	e24dd00c 	sub	sp, sp, #12
   8:	e5901000 	ldr	r1, [r0]
   c:	e28d3004 	add	r3, sp, #4
  10:	e59f2054 	ldr	r2, [pc, #84]	; 6c <udp_set_ip+0x6c>
  14:	e58d1004 	str	r1, [sp, #4]
  18:	e4d31001 	ldrb	r1, [r3], #1
  1c:	e28dc008 	add	ip, sp, #8
  20:	e153000c 	cmp	r3, ip
  24:	e4c21001 	strb	r1, [r2], #1
  28:	1afffffa 	bne	18 <udp_set_ip+0x18>
  2c:	e590c004 	ldr	ip, [r0, #4]
  30:	e3003000 	movw	r3, #0
  34:	e5902000 	ldr	r2, [r0]
  38:	e3001000 	movw	r1, #0
  3c:	e3403000 	movt	r3, #0
  40:	e3401000 	movt	r1, #0
  44:	e002200c 	and	r2, r2, ip
  48:	e5832000 	str	r2, [r3]
  4c:	e3003000 	movw	r3, #0
  50:	e5900008 	ldr	r0, [r0, #8]
  54:	e3403000 	movt	r3, #0
  58:	e1e0e00c 	mvn	lr, ip
  5c:	e581e000 	str	lr, [r1]
  60:	e5830000 	str	r0, [r3]
  64:	e28dd00c 	add	sp, sp, #12
  68:	e49df004 	pop	{pc}		; (ldr pc, [sp], #4)
  6c:	0000001a 	.word	0x0000001a

Disassembly of section .text.unlikely.udp_init:

00000000 <udp_init>:
   0:	e92d4010 	push	{r4, lr}
   4:	e3002000 	movw	r2, #0
   8:	e3402000 	movt	r2, #0
   c:	e3004000 	movw	r4, #0
  10:	e3404000 	movt	r4, #0
  14:	e3a0e000 	mov	lr, #0
  18:	e1a03000 	mov	r3, r0
  1c:	e1a0c00e 	mov	ip, lr
  20:	e1a00001 	mov	r0, r1
  24:	e3001b94 	movw	r1, #2964	; 0xb94
  28:	e1c2c0b0 	strh	ip, [r2]
  2c:	e28ee001 	add	lr, lr, #1
  30:	e1c2c0b2 	strh	ip, [r2, #2]
  34:	e35e0010 	cmp	lr, #16
  38:	e0822001 	add	r2, r2, r1
  3c:	e484c004 	str	ip, [r4], #4
  40:	1afffff8 	bne	28 <udp_init+0x28>
  44:	e59f104c 	ldr	r1, [pc, #76]	; 98 <udp_init+0x98>
  48:	e3002000 	movw	r2, #0
  4c:	e3402000 	movt	r2, #0
  50:	e1c2c0b0 	strh	ip, [r2]
  54:	e2832006 	add	r2, r3, #6
  58:	e1530002 	cmp	r3, r2
  5c:	14d3c001 	ldrbne	ip, [r3], #1
  60:	14c1c001 	strbne	ip, [r1], #1
  64:	1afffffb 	bne	58 <udp_init+0x58>
  68:	e3004000 	movw	r4, #0
  6c:	e3a02008 	mov	r2, #8
  70:	e3404000 	movt	r4, #0
  74:	e3a03040 	mov	r3, #64	; 0x40
  78:	e3413140 	movt	r3, #4416	; 0x1140
  7c:	e3402045 	movt	r2, #69	; 0x45
  80:	e5843014 	str	r3, [r4, #20]
  84:	e584200c 	str	r2, [r4, #12]
  88:	ebfffffe 	bl	0 <udp_init>
  8c:	e3a03000 	mov	r3, #0
  90:	e1c432b8 	strh	r3, [r4, #40]	; 0x28
  94:	e8bd8010 	pop	{r4, pc}
  98:	00000006 	.word	0x00000006

Disassembly of section .text.unlikely.udp_shutdown:

00000000 <udp_shutdown>:
   0:	e12fff1e 	bx	lr

Disassembly of section .text.hot.udp_handle:

00000000 <udp_handle>:
   0:	e1d012b4 	ldrh	r1, [r0, #36]	; 0x24
   4:	e6bf1fb1 	rev16	r1, r1
   8:	e6ff1071 	uxth	r1, r1
   c:	e2412044 	sub	r2, r1, #68	; 0x44
  10:	e351007b 	cmp	r1, #123	; 0x7b
  14:	13510b01 	cmpne	r1, #1024	; 0x400
  18:	33a03001 	movcc	r3, #1
  1c:	23a03000 	movcs	r3, #0
  20:	e3520001 	cmp	r2, #1
  24:	93a03000 	movls	r3, #0
  28:	82033001 	andhi	r3, r3, #1
  2c:	e3530000 	cmp	r3, #0
  30:	112fff1e 	bxne	lr
  34:	e3002000 	movw	r2, #0
  38:	e3402000 	movt	r2, #0
  3c:	ea000002 	b	4c <udp_handle+0x4c>
  40:	e2833001 	add	r3, r3, #1
  44:	e3530010 	cmp	r3, #16
  48:	012fff1e 	bxeq	lr
  4c:	e492c004 	ldr	ip, [r2], #4
  50:	e15c0001 	cmp	ip, r1
  54:	1afffff9 	bne	40 <udp_handle+0x40>
  58:	e1d012b6 	ldrh	r1, [r0, #38]	; 0x26
  5c:	e3002b94 	movw	r2, #2964	; 0xb94
  60:	e92d4070 	push	{r4, r5, r6, lr}
  64:	e300e000 	movw	lr, #0
  68:	e6bf1fb1 	rev16	r1, r1
  6c:	e24dd008 	sub	sp, sp, #8
  70:	e340e000 	movt	lr, #0
  74:	e6ff1071 	uxth	r1, r1
  78:	e2415008 	sub	r5, r1, #8
  7c:	e0020392 	mul	r2, r2, r3
  80:	e6ff5075 	uxth	r5, r5
  84:	e19e40b2 	ldrh	r4, [lr, r2]
  88:	e3550d17 	cmp	r5, #1472	; 0x5c0
  8c:	23a05d17 	movcs	r5, #1472	; 0x5c0
  90:	e3510008 	cmp	r1, #8
  94:	e2822004 	add	r2, r2, #4
  98:	e30015c8 	movw	r1, #1480	; 0x5c8
  9c:	e0222491 	mla	r2, r1, r4, r2
  a0:	e280102a 	add	r1, r0, #42	; 0x2a
  a4:	0a000007 	beq	c8 <udp_handle+0xc8>
  a8:	e285602a 	add	r6, r5, #42	; 0x2a
  ac:	e2422001 	sub	r2, r2, #1
  b0:	e08e2002 	add	r2, lr, r2
  b4:	e6f06076 	uxtah	r6, r0, r6
  b8:	e4d1c001 	ldrb	ip, [r1], #1
  bc:	e1510006 	cmp	r1, r6
  c0:	e5e2c001 	strb	ip, [r2, #1]!
  c4:	1afffffb 	bne	b8 <udp_handle+0xb8>
  c8:	e280201a 	add	r2, r0, #26
  cc:	e28d1004 	add	r1, sp, #4
  d0:	e280601e 	add	r6, r0, #30
  d4:	e4d2c001 	ldrb	ip, [r2], #1
  d8:	e1520006 	cmp	r2, r6
  dc:	e4c1c001 	strb	ip, [r1], #1
  e0:	1afffffb 	bne	d4 <udp_handle+0xd4>
  e4:	e59d2004 	ldr	r2, [sp, #4]
  e8:	e3001b94 	movw	r1, #2964	; 0xb94
  ec:	e0030391 	mul	r3, r1, r3
  f0:	e30015c8 	movw	r1, #1480	; 0x5c8
  f4:	e0243491 	mla	r4, r1, r4, r3
  f8:	e08e4004 	add	r4, lr, r4
  fc:	e58425c4 	str	r2, [r4, #1476]	; 0x5c4
 100:	e1d022b2 	ldrh	r2, [r0, #34]	; 0x22
 104:	e6bf2fb2 	rev16	r2, r2
 108:	e18420b1 	strh	r2, [r4, r1]
 10c:	e30025ca 	movw	r2, #1482	; 0x5ca
 110:	e18450b2 	strh	r5, [r4, r2]
 114:	e19e20b3 	ldrh	r2, [lr, r3]
 118:	e2822001 	add	r2, r2, #1
 11c:	e2022001 	and	r2, r2, #1
 120:	e18e20b3 	strh	r2, [lr, r3]
 124:	e28dd008 	add	sp, sp, #8
 128:	e8bd8070 	pop	{r4, r5, r6, pc}

Disassembly of section .text.udp_bind:

00000000 <udp_bind>:
   0:	e300c000 	movw	ip, #0
   4:	e1a01000 	mov	r1, r0
   8:	e340c000 	movt	ip, #0
   c:	e3a00000 	mov	r0, #0
  10:	e1a0200c 	mov	r2, ip
  14:	e4923004 	ldr	r3, [r2], #4
  18:	e1530001 	cmp	r3, r1
  1c:	012fff1e 	bxeq	lr
  20:	e3530000 	cmp	r3, #0
  24:	0a000008 	beq	4c <udp_bind+0x4c>
  28:	e2800001 	add	r0, r0, #1
  2c:	e3500010 	cmp	r0, #16
  30:	1afffff7 	bne	14 <udp_bind+0x14>
  34:	e3000000 	movw	r0, #0
  38:	e92d4010 	push	{r4, lr}
  3c:	e3400000 	movt	r0, #0
  40:	ebfffffe 	bl	0 <console_error>
  44:	e3e00000 	mvn	r0, #0
  48:	e8bd8010 	pop	{r4, pc}
  4c:	e78c1100 	str	r1, [ip, r0, lsl #2]
  50:	e12fff1e 	bx	lr

Disassembly of section .text.udp_unbind:

00000000 <udp_unbind>:
   0:	e300c000 	movw	ip, #0
   4:	e3a03000 	mov	r3, #0
   8:	e340c000 	movt	ip, #0
   c:	e1a0200c 	mov	r2, ip
  10:	e92d4010 	push	{r4, lr}
  14:	e4921004 	ldr	r1, [r2], #4
  18:	e1510000 	cmp	r1, r0
  1c:	0a000007 	beq	40 <udp_unbind+0x40>
  20:	e2833001 	add	r3, r3, #1
  24:	e3530010 	cmp	r3, #16
  28:	1afffff9 	bne	14 <udp_unbind+0x14>
  2c:	e3000000 	movw	r0, #0
  30:	e3400000 	movt	r0, #0
  34:	ebfffffe 	bl	0 <console_error>
  38:	e3e00000 	mvn	r0, #0
  3c:	e8bd8010 	pop	{r4, pc}
  40:	e3001b94 	movw	r1, #2964	; 0xb94
  44:	e3002000 	movw	r2, #0
  48:	e0010391 	mul	r1, r1, r3
  4c:	e3402000 	movt	r2, #0
  50:	e3a0e000 	mov	lr, #0
  54:	e78ce103 	str	lr, [ip, r3, lsl #2]
  58:	e1a0000e 	mov	r0, lr
  5c:	e781e002 	str	lr, [r1, r2]
  60:	e8bd8010 	pop	{r4, pc}

Disassembly of section .text.udp_recv:

00000000 <udp_recv>:
   0:	e300cb94 	movw	ip, #2964	; 0xb94
   4:	e92d41f0 	push	{r4, r5, r6, r7, r8, lr}
   8:	e300e000 	movw	lr, #0
   c:	e00c009c 	mul	ip, ip, r0
  10:	e340e000 	movt	lr, #0
  14:	e1a05003 	mov	r5, r3
  18:	e08e600c 	add	r6, lr, ip
  1c:	e19e30bc 	ldrh	r3, [lr, ip]
  20:	e1d640b2 	ldrh	r4, [r6, #2]
  24:	e1530004 	cmp	r3, r4
  28:	03a04000 	moveq	r4, #0
  2c:	0a000016 	beq	8c <udp_recv+0x8c>
  30:	e30075c8 	movw	r7, #1480	; 0x5c8
  34:	e1a00001 	mov	r0, r1
  38:	e0010497 	mul	r1, r7, r4
  3c:	e30035ca 	movw	r3, #1482	; 0x5ca
  40:	e081800c 	add	r8, r1, ip
  44:	e28cc004 	add	ip, ip, #4
  48:	e08e8008 	add	r8, lr, r8
  4c:	e08c1001 	add	r1, ip, r1
  50:	e19840b3 	ldrh	r4, [r8, r3]
  54:	e08e1001 	add	r1, lr, r1
  58:	e1540002 	cmp	r4, r2
  5c:	21a04002 	movcs	r4, r2
  60:	e1a02004 	mov	r2, r4
  64:	ebfffffe 	bl	0 <udp_recv>
  68:	e59835c4 	ldr	r3, [r8, #1476]	; 0x5c4
  6c:	e59d2018 	ldr	r2, [sp, #24]
  70:	e5853000 	str	r3, [r5]
  74:	e19830b7 	ldrh	r3, [r8, r7]
  78:	e1c230b0 	strh	r3, [r2]
  7c:	e1d630b2 	ldrh	r3, [r6, #2]
  80:	e2833001 	add	r3, r3, #1
  84:	e2033001 	and	r3, r3, #1
  88:	e1c630b2 	strh	r3, [r6, #2]
  8c:	e1a00004 	mov	r0, r4
  90:	e8bd81f0 	pop	{r4, r5, r6, r7, r8, pc}

Disassembly of section .text.udp_recv2:

00000000 <udp_recv2>:
   0:	e92d4070 	push	{r4, r5, r6, lr}
   4:	e300eb94 	movw	lr, #2964	; 0xb94
   8:	e000009e 	mul	r0, lr, r0
   c:	e300c000 	movw	ip, #0
  10:	e340c000 	movt	ip, #0
  14:	e08c5000 	add	r5, ip, r0
  18:	e19c40b0 	ldrh	r4, [ip, r0]
  1c:	e1d5e0b2 	ldrh	lr, [r5, #2]
  20:	e154000e 	cmp	r4, lr
  24:	0a000012 	beq	74 <udp_recv2+0x74>
  28:	e30065c8 	movw	r6, #1480	; 0x5c8
  2c:	e2804004 	add	r4, r0, #4
  30:	e00e0e96 	mul	lr, r6, lr
  34:	e08e0000 	add	r0, lr, r0
  38:	e08c0000 	add	r0, ip, r0
  3c:	e084e00e 	add	lr, r4, lr
  40:	e08ec00c 	add	ip, lr, ip
  44:	e581c000 	str	ip, [r1]
  48:	e30015ca 	movw	r1, #1482	; 0x5ca
  4c:	e590c5c4 	ldr	ip, [r0, #1476]	; 0x5c4
  50:	e582c000 	str	ip, [r2]
  54:	e19020b6 	ldrh	r2, [r0, r6]
  58:	e1c320b0 	strh	r2, [r3]
  5c:	e1d530b2 	ldrh	r3, [r5, #2]
  60:	e19000b1 	ldrh	r0, [r0, r1]
  64:	e2833001 	add	r3, r3, #1
  68:	e2033001 	and	r3, r3, #1
  6c:	e1c530b2 	strh	r3, [r5, #2]
  70:	e8bd8070 	pop	{r4, r5, r6, pc}
  74:	e3a00000 	mov	r0, #0
  78:	e8bd8070 	pop	{r4, r5, r6, pc}

Disassembly of section .text.udp_send:

00000000 <udp_send>:
   0:	e92d4ff0 	push	{r4, r5, r6, r7, r8, r9, sl, fp, lr}
   4:	e300a000 	movw	sl, #0
   8:	e340a000 	movt	sl, #0
   c:	e1a06003 	mov	r6, r3
  10:	e24dd00c 	sub	sp, sp, #12
  14:	e79a3100 	ldr	r3, [sl, r0, lsl #2]
  18:	e1dd93b0 	ldrh	r9, [sp, #48]	; 0x30
  1c:	e3530000 	cmp	r3, #0
  20:	0a00007f 	beq	224 <udp_send+0x224>
  24:	e3760001 	cmn	r6, #1
  28:	e1a08000 	mov	r8, r0
  2c:	e1a04001 	mov	r4, r1
  30:	e1a07002 	mov	r7, r2
  34:	0a000056 	beq	194 <udp_send+0x194>
  38:	e3003000 	movw	r3, #0
  3c:	e3403000 	movt	r3, #0
  40:	e5933000 	ldr	r3, [r3]
  44:	e1d33006 	bics	r3, r3, r6
  48:	0a000040 	beq	150 <udp_send+0x150>
  4c:	e20630e0 	and	r3, r6, #224	; 0xe0
  50:	e35300e0 	cmp	r3, #224	; 0xe0
  54:	0a000058 	beq	1bc <udp_send+0x1bc>
  58:	e3003000 	movw	r3, #0
  5c:	e3403000 	movt	r3, #0
  60:	e5933000 	ldr	r3, [r3]
  64:	e1d33006 	bics	r3, r3, r6
  68:	1a000070 	bne	230 <udp_send+0x230>
  6c:	e3005000 	movw	r5, #0
  70:	e1a00006 	mov	r0, r6
  74:	e3405000 	movt	r5, #0
  78:	e1a01005 	mov	r1, r5
  7c:	ebfffffe 	bl	0 <arp_cache_lookup>
  80:	e1500006 	cmp	r0, r6
  84:	1a00007c 	bne	27c <udp_send+0x27c>
  88:	e58d0004 	str	r0, [sp, #4]
  8c:	e285201e 	add	r2, r5, #30
  90:	e28d3004 	add	r3, sp, #4
  94:	e4d31001 	ldrb	r1, [r3], #1
  98:	e28d0008 	add	r0, sp, #8
  9c:	e1530000 	cmp	r3, r0
  a0:	e4c21001 	strb	r1, [r2], #1
  a4:	1afffffa 	bne	94 <udp_send+0x94>
  a8:	e59f01f4 	ldr	r0, [pc, #500]	; 2a4 <udp_send+0x2a4>
  ac:	e3006000 	movw	r6, #0
  b0:	e3406000 	movt	r6, #0
  b4:	e287301c 	add	r3, r7, #28
  b8:	e6bf3fb3 	rev16	r3, r3
  bc:	e3a01014 	mov	r1, #20
  c0:	e1c531b0 	strh	r3, [r5, #16]
  c4:	e1d630b0 	ldrh	r3, [r6]
  c8:	e6bf9fb9 	rev16	r9, r9
  cc:	e1c531b2 	strh	r3, [r5, #18]
  d0:	e3a03000 	mov	r3, #0
  d4:	e1c531b8 	strh	r3, [r5, #24]
  d8:	ebfffffe 	bl	0 <net_chksum>
  dc:	e79a3108 	ldr	r3, [sl, r8, lsl #2]
  e0:	e3570d17 	cmp	r7, #1472	; 0x5c0
  e4:	e1c501b8 	strh	r0, [r5, #24]
  e8:	31a00007 	movcc	r0, r7
  ec:	e6bf3fb3 	rev16	r3, r3
  f0:	23a00d17 	movcs	r0, #1472	; 0x5c0
  f4:	e1c532b2 	strh	r3, [r5, #34]	; 0x22
  f8:	e3570000 	cmp	r7, #0
  fc:	e1c592b4 	strh	r9, [r5, #36]	; 0x24
 100:	e2873008 	add	r3, r7, #8
 104:	e6bf3fb3 	rev16	r3, r3
 108:	e1c532b6 	strh	r3, [r5, #38]	; 0x26
 10c:	0a000005 	beq	128 <udp_send+0x128>
 110:	e59f3190 	ldr	r3, [pc, #400]	; 2a8 <udp_send+0x2a8>
 114:	e0840000 	add	r0, r4, r0
 118:	e4d41001 	ldrb	r1, [r4], #1
 11c:	e1500004 	cmp	r0, r4
 120:	e5e31001 	strb	r1, [r3, #1]!
 124:	1afffffb 	bne	118 <udp_send+0x118>
 128:	e3000000 	movw	r0, #0
 12c:	e287102a 	add	r1, r7, #42	; 0x2a
 130:	e3400000 	movt	r0, #0
 134:	ebfffffe 	bl	0 <emac_eth_send>
 138:	e1d630b0 	ldrh	r3, [r6]
 13c:	e3a00000 	mov	r0, #0
 140:	e2833001 	add	r3, r3, #1
 144:	e1c630b0 	strh	r3, [r6]
 148:	e28dd00c 	add	sp, sp, #12
 14c:	e8bd8ff0 	pop	{r4, r5, r6, r7, r8, r9, sl, fp, pc}
 150:	e3005000 	movw	r5, #0
 154:	e3e01000 	mvn	r1, #0
 158:	e3405000 	movt	r5, #0
 15c:	e1a03005 	mov	r3, r5
 160:	e2852006 	add	r2, r5, #6
 164:	e4c31001 	strb	r1, [r3], #1
 168:	e1530002 	cmp	r3, r2
 16c:	1afffffc 	bne	164 <udp_send+0x164>
 170:	e59f2134 	ldr	r2, [pc, #308]	; 2ac <udp_send+0x2ac>
 174:	e28d3004 	add	r3, sp, #4
 178:	e58d6004 	str	r6, [sp, #4]
 17c:	e4d31001 	ldrb	r1, [r3], #1
 180:	e28d0008 	add	r0, sp, #8
 184:	e1530000 	cmp	r3, r0
 188:	e4c21001 	strb	r1, [r2], #1
 18c:	1afffffa 	bne	17c <udp_send+0x17c>
 190:	eaffffc4 	b	a8 <udp_send+0xa8>
 194:	e3005000 	movw	r5, #0
 198:	e3405000 	movt	r5, #0
 19c:	e1a03005 	mov	r3, r5
 1a0:	e2852006 	add	r2, r5, #6
 1a4:	e4c36001 	strb	r6, [r3], #1
 1a8:	e1530002 	cmp	r3, r2
 1ac:	1afffffc 	bne	1a4 <udp_send+0x1a4>
 1b0:	e1c561be 	strh	r6, [r5, #30]
 1b4:	e1c562b0 	strh	r6, [r5, #32]
 1b8:	eaffffba 	b	a8 <udp_send+0xa8>
 1bc:	e7e63456 	ubfx	r3, r6, #8, #7
 1c0:	e3001000 	movw	r1, #0
 1c4:	e3401000 	movt	r1, #0
 1c8:	e3005000 	movw	r5, #0
 1cc:	e7e72856 	ubfx	r2, r6, #16, #8
 1d0:	e7e70c56 	ubfx	r0, r6, #24, #8
 1d4:	e3405000 	movt	r5, #0
 1d8:	e5c13003 	strb	r3, [r1, #3]
 1dc:	e1a03001 	mov	r3, r1
 1e0:	e5c12004 	strb	r2, [r1, #4]
 1e4:	e1a02005 	mov	r2, r5
 1e8:	e5c10005 	strb	r0, [r1, #5]
 1ec:	e2810006 	add	r0, r1, #6
 1f0:	e4d31001 	ldrb	r1, [r3], #1
 1f4:	e1530000 	cmp	r3, r0
 1f8:	e4c21001 	strb	r1, [r2], #1
 1fc:	1afffffb 	bne	1f0 <udp_send+0x1f0>
 200:	e59f20a4 	ldr	r2, [pc, #164]	; 2ac <udp_send+0x2ac>
 204:	e28d3004 	add	r3, sp, #4
 208:	e58d6004 	str	r6, [sp, #4]
 20c:	e4d31001 	ldrb	r1, [r3], #1
 210:	e4c21001 	strb	r1, [r2], #1
 214:	e28d1008 	add	r1, sp, #8
 218:	e1530001 	cmp	r3, r1
 21c:	1afffffa 	bne	20c <udp_send+0x20c>
 220:	eaffffa0 	b	a8 <udp_send+0xa8>
 224:	e3e00000 	mvn	r0, #0
 228:	e28dd00c 	add	sp, sp, #12
 22c:	e8bd8ff0 	pop	{r4, r5, r6, r7, r8, r9, sl, fp, pc}
 230:	e300b000 	movw	fp, #0
 234:	e3005000 	movw	r5, #0
 238:	e340b000 	movt	fp, #0
 23c:	e3405000 	movt	r5, #0
 240:	e59b0000 	ldr	r0, [fp]
 244:	e1a01005 	mov	r1, r5
 248:	ebfffffe 	bl	0 <arp_cache_lookup>
 24c:	e59b3000 	ldr	r3, [fp]
 250:	e1500003 	cmp	r0, r3
 254:	1a00000d 	bne	290 <udp_send+0x290>
 258:	e58d6004 	str	r6, [sp, #4]
 25c:	e285201e 	add	r2, r5, #30
 260:	e28d3004 	add	r3, sp, #4
 264:	e4d31001 	ldrb	r1, [r3], #1
 268:	e4c21001 	strb	r1, [r2], #1
 26c:	e28d1008 	add	r1, sp, #8
 270:	e1530001 	cmp	r3, r1
 274:	1afffffa 	bne	264 <udp_send+0x264>
 278:	eaffff8a 	b	a8 <udp_send+0xa8>
 27c:	e3000000 	movw	r0, #0
 280:	e3400000 	movt	r0, #0
 284:	ebfffffe 	bl	0 <console_error>
 288:	e3e00001 	mvn	r0, #1
 28c:	eaffffad 	b	148 <udp_send+0x148>
 290:	e3000000 	movw	r0, #0
 294:	e3400000 	movt	r0, #0
 298:	ebfffffe 	bl	0 <console_error>
 29c:	e3e00002 	mvn	r0, #2
 2a0:	eaffffa8 	b	148 <udp_send+0x148>
 2a4:	0000000e 	.word	0x0000000e
 2a8:	00000029 	.word	0x00000029
 2ac:	0000001e 	.word	0x0000001e

networkconst.o:     file format elf32-littlearm


mdns.o:     file format elf32-littlearm


Disassembly of section .text._ZN4MDNSC2Ev:

00000000 <MDNS::MDNS()>:
   0:	e92d4010 	push	{r4, lr}
   4:	e1a04000 	mov	r4, r0
   8:	e24dd008 	sub	sp, sp, #8
   c:	e3000000 	movw	r0, #0
  10:	e3400000 	movt	r0, #0
  14:	e28d1004 	add	r1, sp, #4
  18:	ebfffffe 	bl	0 <inet_aton>
  1c:	e59d2004 	ldr	r2, [sp, #4]
  20:	e3003000 	movw	r3, #0
  24:	e3403000 	movt	r3, #0
  28:	e1a00004 	mov	r0, r4
  2c:	e5832000 	str	r2, [r3]
  30:	e28dd008 	add	sp, sp, #8
  34:	e8bd8010 	pop	{r4, pc}

Disassembly of section .text._ZN4MDNS7SetNameEPKc:

00000000 <MDNS::SetName(char const*)>:
   0:	e92d4070 	push	{r4, r5, r6, lr}
   4:	e3005000 	movw	r5, #0
   8:	e3405000 	movt	r5, #0
   c:	e1a04001 	mov	r4, r1
  10:	e5950000 	ldr	r0, [r5]
  14:	e3500000 	cmp	r0, #0
  18:	0a000000 	beq	20 <MDNS::SetName(char const*)+0x20>
  1c:	ebfffffe 	bl	0 <operator delete[](void*)>
  20:	e5d43000 	ldrb	r3, [r4]
  24:	e3530000 	cmp	r3, #0
  28:	0a00001a 	beq	98 <MDNS::SetName(char const*)+0x98>
  2c:	e1a00004 	mov	r0, r4
  30:	e5f03001 	ldrb	r3, [r0, #1]!
  34:	e3530000 	cmp	r3, #0
  38:	1afffffc 	bne	30 <MDNS::SetName(char const*)+0x30>
  3c:	e0400004 	sub	r0, r0, r4
  40:	e2800007 	add	r0, r0, #7
  44:	ebfffffe 	bl	0 <operator new[](unsigned int)>
  48:	e5850000 	str	r0, [r5]
  4c:	e2402001 	sub	r2, r0, #1
  50:	e4d43001 	ldrb	r3, [r4], #1
  54:	e5e23001 	strb	r3, [r2, #1]!
  58:	e3530000 	cmp	r3, #0
  5c:	1afffffb 	bne	50 <MDNS::SetName(char const*)+0x50>
  60:	e5d03000 	ldrb	r3, [r0]
  64:	e3530000 	cmp	r3, #0
  68:	0a000002 	beq	78 <MDNS::SetName(char const*)+0x78>
  6c:	e5f03001 	ldrb	r3, [r0, #1]!
  70:	e3530000 	cmp	r3, #0
  74:	1afffffc 	bne	6c <MDNS::SetName(char const*)+0x6c>
  78:	e3002000 	movw	r2, #0
  7c:	e3a0302e 	mov	r3, #46	; 0x2e
  80:	e3402000 	movt	r2, #0
  84:	e4c03001 	strb	r3, [r0], #1
  88:	e3530000 	cmp	r3, #0
  8c:	08bd8070 	popeq	{r4, r5, r6, pc}
  90:	e5f23001 	ldrb	r3, [r2, #1]!
  94:	eafffffa 	b	84 <MDNS::SetName(char const*)+0x84>
  98:	e3a00007 	mov	r0, #7
  9c:	eaffffe8 	b	44 <MDNS::SetName(char const*)+0x44>

Disassembly of section .text._ZN4MDNS21DecodeDNSNameNotationEPKcPc:

00000000 <MDNS::DecodeDNSNameNotation(char const*, char*)>:
   0:	e92d47f0 	push	{r4, r5, r6, r7, r8, r9, sl, lr}
   4:	e5d1c000 	ldrb	ip, [r1]
   8:	e35c0000 	cmp	ip, #0
   c:	0a00003f 	beq	110 <MDNS::DecodeDNSNameNotation(char const*, char*)+0x110>
  10:	e3a09000 	mov	r9, #0
  14:	e3a08c3f 	mov	r8, #16128	; 0x3f00
  18:	e34f8fff 	movt	r8, #65535	; 0xffff
  1c:	e3007000 	movw	r7, #0
  20:	e3407000 	movt	r7, #0
  24:	e1a05009 	mov	r5, r9
  28:	e3a0602e 	mov	r6, #46	; 0x2e
  2c:	e35c003f 	cmp	ip, #63	; 0x3f
  30:	9a000021 	bls	bc <MDNS::DecodeDNSNameNotation(char const*, char*)+0xbc>
  34:	e5d13001 	ldrb	r3, [r1, #1]
  38:	e3590000 	cmp	r9, #0
  3c:	e008c40c 	and	ip, r8, ip, lsl #8
  40:	02855001 	addeq	r5, r5, #1
  44:	e5971000 	ldr	r1, [r7]
  48:	e18cc003 	orr	ip, ip, r3
  4c:	e081300c 	add	r3, r1, ip
  50:	e28ce001 	add	lr, ip, #1
  54:	e7d1000c 	ldrb	r0, [r1, ip]
  58:	e081100e 	add	r1, r1, lr
  5c:	e3500000 	cmp	r0, #0
  60:	0a000027 	beq	104 <MDNS::DecodeDNSNameNotation(char const*, char*)+0x104>
  64:	e082e000 	add	lr, r2, r0
  68:	e5f3c001 	ldrb	ip, [r3, #1]!
  6c:	e4c2c001 	strb	ip, [r2], #1
  70:	e15e0002 	cmp	lr, r2
  74:	1afffffb 	bne	68 <MDNS::DecodeDNSNameNotation(char const*, char*)+0x68>
  78:	e0811000 	add	r1, r1, r0
  7c:	e3a09001 	mov	r9, #1
  80:	e5d13000 	ldrb	r3, [r1]
  84:	e3530000 	cmp	r3, #0
  88:	1a000003 	bne	9c <MDNS::DecodeDNSNameNotation(char const*, char*)+0x9c>
  8c:	e2850001 	add	r0, r5, #1
  90:	e3a03000 	mov	r3, #0
  94:	e5ce3000 	strb	r3, [lr]
  98:	e8bd87f0 	pop	{r4, r5, r6, r7, r8, r9, sl, pc}
  9c:	e1a0200e 	mov	r2, lr
  a0:	e4c26001 	strb	r6, [r2], #1
  a4:	e5d1c000 	ldrb	ip, [r1]
  a8:	e35c0000 	cmp	ip, #0
  ac:	1affffde 	bne	2c <MDNS::DecodeDNSNameNotation(char const*, char*)+0x2c>
  b0:	e2850001 	add	r0, r5, #1
  b4:	e1a0e002 	mov	lr, r2
  b8:	eafffff4 	b	90 <MDNS::DecodeDNSNameNotation(char const*, char*)+0x90>
  bc:	e1e04001 	mvn	r4, r1
  c0:	e281a001 	add	sl, r1, #1
  c4:	e1a0300a 	mov	r3, sl
  c8:	e1a01002 	mov	r1, r2
  cc:	e4d30001 	ldrb	r0, [r3], #1
  d0:	e084e003 	add	lr, r4, r3
  d4:	e15c000e 	cmp	ip, lr
  d8:	e4c10001 	strb	r0, [r1], #1
  dc:	8afffffa 	bhi	cc <MDNS::DecodeDNSNameNotation(char const*, char*)+0xcc>
  e0:	e35c0000 	cmp	ip, #0
  e4:	11a0100c 	movne	r1, ip
  e8:	03a01001 	moveq	r1, #1
  ec:	e082e001 	add	lr, r2, r1
  f0:	e3590000 	cmp	r9, #0
  f4:	e08a1001 	add	r1, sl, r1
  f8:	02855001 	addeq	r5, r5, #1
  fc:	0085500c 	addeq	r5, r5, ip
 100:	eaffffde 	b	80 <MDNS::DecodeDNSNameNotation(char const*, char*)+0x80>
 104:	e1a0e002 	mov	lr, r2
 108:	e3a09001 	mov	r9, #1
 10c:	eaffffdb 	b	80 <MDNS::DecodeDNSNameNotation(char const*, char*)+0x80>
 110:	e1a0e002 	mov	lr, r2
 114:	e3a00001 	mov	r0, #1
 118:	eaffffdc 	b	90 <MDNS::DecodeDNSNameNotation(char const*, char*)+0x90>

Disassembly of section .text._ZNK4MDNS21FindFirstDotFromRightEPKc:

00000000 <MDNS::FindFirstDotFromRight(char const*) const>:
   0:	e5d13000 	ldrb	r3, [r1]
   4:	e3530000 	cmp	r3, #0
   8:	0a00000f 	beq	4c <MDNS::FindFirstDotFromRight(char const*) const+0x4c>
   c:	e1a00001 	mov	r0, r1
  10:	e5f03001 	ldrb	r3, [r0, #1]!
  14:	e3530000 	cmp	r3, #0
  18:	1afffffc 	bne	10 <MDNS::FindFirstDotFromRight(char const*) const+0x10>
  1c:	e1500001 	cmp	r0, r1
  20:	e1a03000 	mov	r3, r0
  24:	9a000006 	bls	44 <MDNS::FindFirstDotFromRight(char const*) const+0x44>
  28:	e4532001 	ldrb	r2, [r3], #-1
  2c:	e352002e 	cmp	r2, #46	; 0x2e
  30:	012fff1e 	bxeq	lr
  34:	e1a00003 	mov	r0, r3
  38:	e1500001 	cmp	r0, r1
  3c:	e1a03000 	mov	r3, r0
  40:	8afffff8 	bhi	28 <MDNS::FindFirstDotFromRight(char const*) const+0x28>
  44:	e2800001 	add	r0, r0, #1
  48:	e12fff1e 	bx	lr
  4c:	e2810001 	add	r0, r1, #1
  50:	e12fff1e 	bx	lr

Disassembly of section .text._ZN4MDNS12WriteDnsNameEPKcPcb:

00000000 <MDNS::WriteDnsName(char const*, char*, bool)>:
   0:	e92d4010 	push	{r4, lr}
   4:	e1a04003 	mov	r4, r3
   8:	e1a03002 	mov	r3, r2
   c:	e5d1c000 	ldrb	ip, [r1]
  10:	e2830001 	add	r0, r3, #1
  14:	e1a0e001 	mov	lr, r1
  18:	e35c002e 	cmp	ip, #46	; 0x2e
  1c:	135c0000 	cmpne	ip, #0
  20:	0a00000d 	beq	5c <MDNS::WriteDnsName(char const*, char*, bool)+0x5c>
  24:	e4c0c001 	strb	ip, [r0], #1
  28:	e5fec001 	ldrb	ip, [lr, #1]!
  2c:	e35c002e 	cmp	ip, #46	; 0x2e
  30:	135c0000 	cmpne	ip, #0
  34:	1afffffa 	bne	24 <MDNS::WriteDnsName(char const*, char*, bool)+0x24>
  38:	e04e1001 	sub	r1, lr, r1
  3c:	e6ef1071 	uxtb	r1, r1
  40:	e5c31000 	strb	r1, [r3]
  44:	e5de1000 	ldrb	r1, [lr]
  48:	e3510000 	cmp	r1, #0
  4c:	0a000007 	beq	70 <MDNS::WriteDnsName(char const*, char*, bool)+0x70>
  50:	e28e1001 	add	r1, lr, #1
  54:	e1a03000 	mov	r3, r0
  58:	eaffffeb 	b	c <MDNS::WriteDnsName(char const*, char*, bool)+0xc>
  5c:	e3a01000 	mov	r1, #0
  60:	e5c31000 	strb	r1, [r3]
  64:	e5de1000 	ldrb	r1, [lr]
  68:	e3510000 	cmp	r1, #0
  6c:	1afffff7 	bne	50 <MDNS::WriteDnsName(char const*, char*, bool)+0x50>
  70:	e3540000 	cmp	r4, #0
  74:	14c01001 	strbne	r1, [r0], #1
  78:	e0400002 	sub	r0, r0, r2
  7c:	e8bd8010 	pop	{r4, pc}

Disassembly of section .text._ZN4MDNS26CreateAnswerLocalIpAddressEv:

00000000 <MDNS::CreateAnswerLocalIpAddress()>:
   0:	e3003000 	movw	r3, #0
   4:	e3a02084 	mov	r2, #132	; 0x84
   8:	e3403000 	movt	r3, #0
   c:	e52de004 	push	{lr}		; (str lr, [sp, #-4]!)
  10:	e300e000 	movw	lr, #0
  14:	e340e000 	movt	lr, #0
  18:	e5930000 	ldr	r0, [r3]
  1c:	e28ec010 	add	ip, lr, #16
  20:	e1ce20b6 	strh	r2, [lr, #6]
  24:	e3a03401 	mov	r3, #16777216	; 0x1000000
  28:	e58e3008 	str	r3, [lr, #8]
  2c:	e3a03000 	mov	r3, #0
  30:	e58e300c 	str	r3, [lr, #12]
  34:	e5d03000 	ldrb	r3, [r0]
  38:	e28c1001 	add	r1, ip, #1
  3c:	e1a02000 	mov	r2, r0
  40:	e353002e 	cmp	r3, #46	; 0x2e
  44:	13530000 	cmpne	r3, #0
  48:	0a00000d 	beq	84 <MDNS::CreateAnswerLocalIpAddress()+0x84>
  4c:	e4c13001 	strb	r3, [r1], #1
  50:	e5f23001 	ldrb	r3, [r2, #1]!
  54:	e353002e 	cmp	r3, #46	; 0x2e
  58:	13530000 	cmpne	r3, #0
  5c:	1afffffa 	bne	4c <MDNS::CreateAnswerLocalIpAddress()+0x4c>
  60:	e0420000 	sub	r0, r2, r0
  64:	e6ef0070 	uxtb	r0, r0
  68:	e5cc0000 	strb	r0, [ip]
  6c:	e5d23000 	ldrb	r3, [r2]
  70:	e3530000 	cmp	r3, #0
  74:	0a000007 	beq	98 <MDNS::CreateAnswerLocalIpAddress()+0x98>
  78:	e2820001 	add	r0, r2, #1
  7c:	e1a0c001 	mov	ip, r1
  80:	eaffffeb 	b	34 <MDNS::CreateAnswerLocalIpAddress()+0x34>
  84:	e3a00000 	mov	r0, #0
  88:	e5cc0000 	strb	r0, [ip]
  8c:	e5d23000 	ldrb	r3, [r2]
  90:	e3530000 	cmp	r3, #0
  94:	1afffff7 	bne	78 <MDNS::CreateAnswerLocalIpAddress()+0x78>
  98:	e59f203c 	ldr	r2, [pc, #60]	; dc <MDNS::CreateAnswerLocalIpAddress()+0xdc>
  9c:	e3000000 	movw	r0, #0
  a0:	e3400000 	movt	r0, #0
  a4:	e3a0c31e 	mov	ip, #2013265920	; 0x78000000
  a8:	e581c005 	str	ip, [r1, #5]
  ac:	e590c000 	ldr	ip, [r0]
  b0:	e3a00c01 	mov	r0, #256	; 0x100
  b4:	e5c13000 	strb	r3, [r1]
  b8:	e3400180 	movt	r0, #384	; 0x180
  bc:	e0413002 	sub	r3, r1, r2
  c0:	e59c2010 	ldr	r2, [ip, #16]
  c4:	e5810001 	str	r0, [r1, #1]
  c8:	e58e3000 	str	r3, [lr]
  cc:	e3a03b01 	mov	r3, #1024	; 0x400
  d0:	e581200b 	str	r2, [r1, #11]
  d4:	e1c130b9 	strh	r3, [r1, #9]
  d8:	e49df004 	pop	{pc}		; (ldr pc, [sp], #4)
  dc:	fffffff5 	.word	0xfffffff5

Disassembly of section .text._ZN4MDNS5StartEv:

00000000 <MDNS::Start()>:
   0:	e92d40f0 	push	{r4, r5, r6, r7, lr}
   4:	e3004000 	movw	r4, #0
   8:	e3404000 	movt	r4, #0
   c:	e3006000 	movw	r6, #0
  10:	e3406000 	movt	r6, #0
  14:	e3005000 	movw	r5, #0
  18:	e3405000 	movt	r5, #0
  1c:	e24dd00c 	sub	sp, sp, #12
  20:	e30114e9 	movw	r1, #5353	; 0x14e9
  24:	e1a07000 	mov	r7, r0
  28:	e5940000 	ldr	r0, [r4]
  2c:	ebfffffe 	bl	0 <Network::Begin(unsigned short)>
  30:	e5850000 	str	r0, [r5]
  34:	e1a01000 	mov	r1, r0
  38:	e5962000 	ldr	r2, [r6]
  3c:	e5940000 	ldr	r0, [r4]
  40:	ebfffffe 	bl	0 <Network::JoinGroup(int, unsigned int)>
  44:	e3003000 	movw	r3, #0
  48:	e3403000 	movt	r3, #0
  4c:	e5933000 	ldr	r3, [r3]
  50:	e3530000 	cmp	r3, #0
  54:	0a000055 	beq	1b0 <MDNS::Start()+0x1b0>
  58:	e1a00007 	mov	r0, r7
  5c:	ebfffffe 	bl	0 <MDNS::Start()>
  60:	e5960000 	ldr	r0, [r6]
  64:	e3002000 	movw	r2, #0
  68:	e3402000 	movt	r2, #0
  6c:	e301c4e9 	movw	ip, #5353	; 0x14e9
  70:	e5951000 	ldr	r1, [r5]
  74:	e4923004 	ldr	r3, [r2], #4
  78:	e58d0000 	str	r0, [sp]
  7c:	e5940000 	ldr	r0, [r4]
  80:	e6ff3073 	uxth	r3, r3
  84:	e58dc004 	str	ip, [sp, #4]
  88:	ebfffffe 	bl	0 <Network::SendTo(int, void const*, unsigned short, unsigned int, unsigned short)>
  8c:	e5944000 	ldr	r4, [r4]
  90:	e3a0206c 	mov	r2, #108	; 0x6c
  94:	e59fe128 	ldr	lr, [pc, #296]	; 1c4 <MDNS::Start()+0x1c4>
  98:	e284305c 	add	r3, r4, #92	; 0x5c
  9c:	e284009b 	add	r0, r4, #155	; 0x9b
  a0:	ea000002 	b	b0 <MDNS::Start()+0xb0>
  a4:	e5fe2001 	ldrb	r2, [lr, #1]!
  a8:	e3520000 	cmp	r2, #0
  ac:	0a000008 	beq	d4 <MDNS::Start()+0xd4>
  b0:	e1a0c003 	mov	ip, r3
  b4:	e4c32001 	strb	r2, [r3], #1
  b8:	e1530000 	cmp	r3, r0
  bc:	e0401003 	sub	r1, r0, r3
  c0:	1afffff7 	bne	a4 <MDNS::Start()+0xa4>
  c4:	e3a03000 	mov	r3, #0
  c8:	e5c4309b 	strb	r3, [r4, #155]	; 0x9b
  cc:	e28dd00c 	add	sp, sp, #12
  d0:	e8bd80f0 	pop	{r4, r5, r6, r7, pc}
  d4:	e241e001 	sub	lr, r1, #1
  d8:	e35e001f 	cmp	lr, #31
  dc:	9a00002a 	bls	18c <MDNS::Start()+0x18c>
  e0:	e281101f 	add	r1, r1, #31
  e4:	e28cc021 	add	ip, ip, #33	; 0x21
  e8:	e0831001 	add	r1, r3, r1
  ec:	e54c2020 	strb	r2, [ip, #-32]	; 0xffffffe0
  f0:	e1a0300c 	mov	r3, ip
  f4:	e54c201f 	strb	r2, [ip, #-31]	; 0xffffffe1
  f8:	e54c201e 	strb	r2, [ip, #-30]	; 0xffffffe2
  fc:	e54c201d 	strb	r2, [ip, #-29]	; 0xffffffe3
 100:	e54c201c 	strb	r2, [ip, #-28]	; 0xffffffe4
 104:	e54c201b 	strb	r2, [ip, #-27]	; 0xffffffe5
 108:	e54c201a 	strb	r2, [ip, #-26]	; 0xffffffe6
 10c:	e54c2019 	strb	r2, [ip, #-25]	; 0xffffffe7
 110:	e54c2018 	strb	r2, [ip, #-24]	; 0xffffffe8
 114:	e54c2017 	strb	r2, [ip, #-23]	; 0xffffffe9
 118:	e54c2016 	strb	r2, [ip, #-22]	; 0xffffffea
 11c:	e54c2015 	strb	r2, [ip, #-21]	; 0xffffffeb
 120:	e54c2014 	strb	r2, [ip, #-20]	; 0xffffffec
 124:	e54c2013 	strb	r2, [ip, #-19]	; 0xffffffed
 128:	e54c2012 	strb	r2, [ip, #-18]	; 0xffffffee
 12c:	e54c2011 	strb	r2, [ip, #-17]	; 0xffffffef
 130:	e54c2010 	strb	r2, [ip, #-16]
 134:	e54c200f 	strb	r2, [ip, #-15]
 138:	e54c200e 	strb	r2, [ip, #-14]
 13c:	e54c200d 	strb	r2, [ip, #-13]
 140:	e54c200c 	strb	r2, [ip, #-12]
 144:	e54c200b 	strb	r2, [ip, #-11]
 148:	e54c200a 	strb	r2, [ip, #-10]
 14c:	e54c2009 	strb	r2, [ip, #-9]
 150:	e54c2008 	strb	r2, [ip, #-8]
 154:	e54c2007 	strb	r2, [ip, #-7]
 158:	e54c2006 	strb	r2, [ip, #-6]
 15c:	e54c2005 	strb	r2, [ip, #-5]
 160:	e54c2004 	strb	r2, [ip, #-4]
 164:	e54c2003 	strb	r2, [ip, #-3]
 168:	e54c2002 	strb	r2, [ip, #-2]
 16c:	f5dcf008 	pld	[ip, #8]
 170:	e040500c 	sub	r5, r0, ip
 174:	e28cc020 	add	ip, ip, #32
 178:	e54c2021 	strb	r2, [ip, #-33]	; 0xffffffdf
 17c:	e041e00c 	sub	lr, r1, ip
 180:	e35e001f 	cmp	lr, #31
 184:	8affffd8 	bhi	ec <MDNS::Start()+0xec>
 188:	e1a01005 	mov	r1, r5
 18c:	e0831001 	add	r1, r3, r1
 190:	e3a02000 	mov	r2, #0
 194:	e4c32001 	strb	r2, [r3], #1
 198:	e1530001 	cmp	r3, r1
 19c:	1afffffc 	bne	194 <MDNS::Start()+0x194>
 1a0:	e3a03000 	mov	r3, #0
 1a4:	e5c4309b 	strb	r3, [r4, #155]	; 0x9b
 1a8:	e28dd00c 	add	sp, sp, #12
 1ac:	e8bd80f0 	pop	{r4, r5, r6, r7, pc}
 1b0:	e5941000 	ldr	r1, [r4]
 1b4:	e1a00007 	mov	r0, r7
 1b8:	e281101c 	add	r1, r1, #28
 1bc:	ebfffffe 	bl	0 <MDNS::Start()>
 1c0:	eaffffa4 	b	58 <MDNS::Start()+0x58>
 1c4:	00000001 	.word	0x00000001

Disassembly of section .text._ZN4MDNS22CreateAnswerServiceSrvEjPh:

00000000 <MDNS::CreateAnswerServiceSrv(unsigned int, unsigned char*)>:
   0:	e92d4030 	push	{r4, r5, lr}
   4:	e3004000 	movw	r4, #0
   8:	e3404000 	movt	r4, #0
   c:	e1a05001 	mov	r5, r1
  10:	e794e201 	ldr	lr, [r4, r1, lsl #4]
  14:	e1a01002 	mov	r1, r2
  18:	e5de3000 	ldrb	r3, [lr]
  1c:	e2810001 	add	r0, r1, #1
  20:	e1a0c00e 	mov	ip, lr
  24:	e353002e 	cmp	r3, #46	; 0x2e
  28:	13530000 	cmpne	r3, #0
  2c:	0a00000d 	beq	68 <MDNS::CreateAnswerServiceSrv(unsigned int, unsigned char*)+0x68>
  30:	e4c03001 	strb	r3, [r0], #1
  34:	e5fc3001 	ldrb	r3, [ip, #1]!
  38:	e353002e 	cmp	r3, #46	; 0x2e
  3c:	13530000 	cmpne	r3, #0
  40:	1afffffa 	bne	30 <MDNS::CreateAnswerServiceSrv(unsigned int, unsigned char*)+0x30>
  44:	e04ce00e 	sub	lr, ip, lr
  48:	e6efe07e 	uxtb	lr, lr
  4c:	e5c1e000 	strb	lr, [r1]
  50:	e5dc3000 	ldrb	r3, [ip]
  54:	e3530000 	cmp	r3, #0
  58:	0a000007 	beq	7c <MDNS::CreateAnswerServiceSrv(unsigned int, unsigned char*)+0x7c>
  5c:	e28ce001 	add	lr, ip, #1
  60:	e1a01000 	mov	r1, r0
  64:	eaffffeb 	b	18 <MDNS::CreateAnswerServiceSrv(unsigned int, unsigned char*)+0x18>
  68:	e3a0e000 	mov	lr, #0
  6c:	e5c1e000 	strb	lr, [r1]
  70:	e5dc3000 	ldrb	r3, [ip]
  74:	e3530000 	cmp	r3, #0
  78:	1afffff7 	bne	5c <MDNS::CreateAnswerServiceSrv(unsigned int, unsigned char*)+0x5c>
  7c:	e1a05205 	lsl	r5, r5, #4
  80:	e300e000 	movw	lr, #0
  84:	e0843005 	add	r3, r4, r5
  88:	e340e000 	movt	lr, #0
  8c:	e5d3100e 	ldrb	r1, [r3, #14]
  90:	e3003000 	movw	r3, #0
  94:	e3403000 	movt	r3, #0
  98:	e3510001 	cmp	r1, #1
  9c:	11a0e003 	movne	lr, r3
  a0:	e3a0305f 	mov	r3, #95	; 0x5f
  a4:	e353002e 	cmp	r3, #46	; 0x2e
  a8:	13530000 	cmpne	r3, #0
  ac:	e1a0c00e 	mov	ip, lr
  b0:	e2801001 	add	r1, r0, #1
  b4:	0a00000d 	beq	f0 <MDNS::CreateAnswerServiceSrv(unsigned int, unsigned char*)+0xf0>
  b8:	e4c13001 	strb	r3, [r1], #1
  bc:	e5fc3001 	ldrb	r3, [ip, #1]!
  c0:	e353002e 	cmp	r3, #46	; 0x2e
  c4:	13530000 	cmpne	r3, #0
  c8:	1afffffa 	bne	b8 <MDNS::CreateAnswerServiceSrv(unsigned int, unsigned char*)+0xb8>
  cc:	e04ce00e 	sub	lr, ip, lr
  d0:	e3530000 	cmp	r3, #0
  d4:	e6efe07e 	uxtb	lr, lr
  d8:	e5c0e000 	strb	lr, [r0]
  dc:	0a000007 	beq	100 <MDNS::CreateAnswerServiceSrv(unsigned int, unsigned char*)+0x100>
  e0:	e5dc3001 	ldrb	r3, [ip, #1]
  e4:	e28ce001 	add	lr, ip, #1
  e8:	e1a00001 	mov	r0, r1
  ec:	eaffffec 	b	a4 <MDNS::CreateAnswerServiceSrv(unsigned int, unsigned char*)+0xa4>
  f0:	e3530000 	cmp	r3, #0
  f4:	e3a0e000 	mov	lr, #0
  f8:	e5c0e000 	strb	lr, [r0]
  fc:	1afffff7 	bne	e0 <MDNS::CreateAnswerServiceSrv(unsigned int, unsigned char*)+0xe0>
 100:	e5c13000 	strb	r3, [r1]
 104:	e3a03c21 	mov	r3, #8448	; 0x2100
 108:	e3403180 	movt	r3, #384	; 0x180
 10c:	e5813001 	str	r3, [r1, #1]
 110:	e3a0331e 	mov	r3, #2013265920	; 0x78000000
 114:	e5813005 	str	r3, [r1, #5]
 118:	e3003000 	movw	r3, #0
 11c:	e3403000 	movt	r3, #0
 120:	e593e000 	ldr	lr, [r3]
 124:	e5de3000 	ldrb	r3, [lr]
 128:	e3530000 	cmp	r3, #0
 12c:	0a00002c 	beq	1e4 <MDNS::CreateAnswerServiceSrv(unsigned int, unsigned char*)+0x1e4>
 130:	e1a0300e 	mov	r3, lr
 134:	e5f30001 	ldrb	r0, [r3, #1]!
 138:	e3500000 	cmp	r0, #0
 13c:	1afffffc 	bne	134 <MDNS::CreateAnswerServiceSrv(unsigned int, unsigned char*)+0x134>
 140:	e043300e 	sub	r3, r3, lr
 144:	e2833008 	add	r3, r3, #8
 148:	e6bf3fb3 	rev16	r3, r3
 14c:	e6ff3073 	uxth	r3, r3
 150:	e0844005 	add	r4, r4, r5
 154:	e3a00000 	mov	r0, #0
 158:	e1c130b9 	strh	r3, [r1, #9]
 15c:	e2811011 	add	r1, r1, #17
 160:	e1d430bc 	ldrh	r3, [r4, #12]
 164:	e5010006 	str	r0, [r1, #-6]
 168:	e6bf3fb3 	rev16	r3, r3
 16c:	e14130b2 	strh	r3, [r1, #-2]
 170:	e5de3000 	ldrb	r3, [lr]
 174:	e281c001 	add	ip, r1, #1
 178:	e3530000 	cmp	r3, #0
 17c:	1353002e 	cmpne	r3, #46	; 0x2e
 180:	0a00000e 	beq	1c0 <MDNS::CreateAnswerServiceSrv(unsigned int, unsigned char*)+0x1c0>
 184:	e1a0000e 	mov	r0, lr
 188:	e4cc3001 	strb	r3, [ip], #1
 18c:	e5f03001 	ldrb	r3, [r0, #1]!
 190:	e353002e 	cmp	r3, #46	; 0x2e
 194:	13530000 	cmpne	r3, #0
 198:	1afffffa 	bne	188 <MDNS::CreateAnswerServiceSrv(unsigned int, unsigned char*)+0x188>
 19c:	e040300e 	sub	r3, r0, lr
 1a0:	e6ef3073 	uxtb	r3, r3
 1a4:	e5c13000 	strb	r3, [r1]
 1a8:	e5d03000 	ldrb	r3, [r0]
 1ac:	e3530000 	cmp	r3, #0
 1b0:	0a000008 	beq	1d8 <MDNS::CreateAnswerServiceSrv(unsigned int, unsigned char*)+0x1d8>
 1b4:	e280e001 	add	lr, r0, #1
 1b8:	e1a0100c 	mov	r1, ip
 1bc:	eaffffeb 	b	170 <MDNS::CreateAnswerServiceSrv(unsigned int, unsigned char*)+0x170>
 1c0:	e1a0000e 	mov	r0, lr
 1c4:	e3a03000 	mov	r3, #0
 1c8:	e5c13000 	strb	r3, [r1]
 1cc:	e5d03000 	ldrb	r3, [r0]
 1d0:	e3530000 	cmp	r3, #0
 1d4:	1afffff6 	bne	1b4 <MDNS::CreateAnswerServiceSrv(unsigned int, unsigned char*)+0x1b4>
 1d8:	e4cc3001 	strb	r3, [ip], #1
 1dc:	e04c0002 	sub	r0, ip, r2
 1e0:	e8bd8030 	pop	{r4, r5, pc}
 1e4:	e3a03b02 	mov	r3, #2048	; 0x800
 1e8:	eaffffd8 	b	150 <MDNS::CreateAnswerServiceSrv(unsigned int, unsigned char*)+0x150>

Disassembly of section .text._ZN4MDNS22CreateAnswerServiceTxtEjPh:

00000000 <MDNS::CreateAnswerServiceTxt(unsigned int, unsigned char*)>:
   0:	e92d4030 	push	{r4, r5, lr}
   4:	e3004000 	movw	r4, #0
   8:	e3404000 	movt	r4, #0
   c:	e1a05001 	mov	r5, r1
  10:	e7940201 	ldr	r0, [r4, r1, lsl #4]
  14:	e1a01002 	mov	r1, r2
  18:	e5d03000 	ldrb	r3, [r0]
  1c:	e281c001 	add	ip, r1, #1
  20:	e1a0e000 	mov	lr, r0
  24:	e353002e 	cmp	r3, #46	; 0x2e
  28:	13530000 	cmpne	r3, #0
  2c:	0a00000d 	beq	68 <MDNS::CreateAnswerServiceTxt(unsigned int, unsigned char*)+0x68>
  30:	e4cc3001 	strb	r3, [ip], #1
  34:	e5fe3001 	ldrb	r3, [lr, #1]!
  38:	e353002e 	cmp	r3, #46	; 0x2e
  3c:	13530000 	cmpne	r3, #0
  40:	1afffffa 	bne	30 <MDNS::CreateAnswerServiceTxt(unsigned int, unsigned char*)+0x30>
  44:	e04e0000 	sub	r0, lr, r0
  48:	e6ef0070 	uxtb	r0, r0
  4c:	e5c10000 	strb	r0, [r1]
  50:	e5de3000 	ldrb	r3, [lr]
  54:	e3530000 	cmp	r3, #0
  58:	0a000007 	beq	7c <MDNS::CreateAnswerServiceTxt(unsigned int, unsigned char*)+0x7c>
  5c:	e28e0001 	add	r0, lr, #1
  60:	e1a0100c 	mov	r1, ip
  64:	eaffffeb 	b	18 <MDNS::CreateAnswerServiceTxt(unsigned int, unsigned char*)+0x18>
  68:	e3a00000 	mov	r0, #0
  6c:	e5c10000 	strb	r0, [r1]
  70:	e5de3000 	ldrb	r3, [lr]
  74:	e3530000 	cmp	r3, #0
  78:	1afffff7 	bne	5c <MDNS::CreateAnswerServiceTxt(unsigned int, unsigned char*)+0x5c>
  7c:	e1a05205 	lsl	r5, r5, #4
  80:	e3000000 	movw	r0, #0
  84:	e0843005 	add	r3, r4, r5
  88:	e3400000 	movt	r0, #0
  8c:	e5d3100e 	ldrb	r1, [r3, #14]
  90:	e3003000 	movw	r3, #0
  94:	e3403000 	movt	r3, #0
  98:	e3510001 	cmp	r1, #1
  9c:	11a00003 	movne	r0, r3
  a0:	e3a0305f 	mov	r3, #95	; 0x5f
  a4:	e3530000 	cmp	r3, #0
  a8:	1353002e 	cmpne	r3, #46	; 0x2e
  ac:	e1a0e000 	mov	lr, r0
  b0:	e28c1001 	add	r1, ip, #1
  b4:	0a00000d 	beq	f0 <MDNS::CreateAnswerServiceTxt(unsigned int, unsigned char*)+0xf0>
  b8:	e4c13001 	strb	r3, [r1], #1
  bc:	e5fe3001 	ldrb	r3, [lr, #1]!
  c0:	e353002e 	cmp	r3, #46	; 0x2e
  c4:	13530000 	cmpne	r3, #0
  c8:	1afffffa 	bne	b8 <MDNS::CreateAnswerServiceTxt(unsigned int, unsigned char*)+0xb8>
  cc:	e04e0000 	sub	r0, lr, r0
  d0:	e3530000 	cmp	r3, #0
  d4:	e6ef0070 	uxtb	r0, r0
  d8:	e5cc0000 	strb	r0, [ip]
  dc:	0a000007 	beq	100 <MDNS::CreateAnswerServiceTxt(unsigned int, unsigned char*)+0x100>
  e0:	e5de3001 	ldrb	r3, [lr, #1]
  e4:	e28e0001 	add	r0, lr, #1
  e8:	e1a0c001 	mov	ip, r1
  ec:	eaffffec 	b	a4 <MDNS::CreateAnswerServiceTxt(unsigned int, unsigned char*)+0xa4>
  f0:	e3530000 	cmp	r3, #0
  f4:	e3a00000 	mov	r0, #0
  f8:	e5cc0000 	strb	r0, [ip]
  fc:	1afffff7 	bne	e0 <MDNS::CreateAnswerServiceTxt(unsigned int, unsigned char*)+0xe0>
 100:	e0840005 	add	r0, r4, r5
 104:	e5c13000 	strb	r3, [r1]
 108:	e590c008 	ldr	ip, [r0, #8]
 10c:	e3a00a01 	mov	r0, #4096	; 0x1000
 110:	e3400180 	movt	r0, #384	; 0x180
 114:	e5810001 	str	r0, [r1, #1]
 118:	e35c0000 	cmp	ip, #0
 11c:	e3a0031e 	mov	r0, #2013265920	; 0x78000000
 120:	e5810005 	str	r0, [r1, #5]
 124:	0a000018 	beq	18c <MDNS::CreateAnswerServiceTxt(unsigned int, unsigned char*)+0x18c>
 128:	e5dce000 	ldrb	lr, [ip]
 12c:	e35e0000 	cmp	lr, #0
 130:	0a00001b 	beq	1a4 <MDNS::CreateAnswerServiceTxt(unsigned int, unsigned char*)+0x1a4>
 134:	e1a0300c 	mov	r3, ip
 138:	e5f30001 	ldrb	r0, [r3, #1]!
 13c:	e3500000 	cmp	r0, #0
 140:	1afffffc 	bne	138 <MDNS::CreateAnswerServiceTxt(unsigned int, unsigned char*)+0x138>
 144:	e043300c 	sub	r3, r3, ip
 148:	e2830001 	add	r0, r3, #1
 14c:	e6efe073 	uxtb	lr, r3
 150:	e6bf0fb0 	rev16	r0, r0
 154:	e6ff0070 	uxth	r0, r0
 158:	e0844005 	add	r4, r4, r5
 15c:	e5c1e00b 	strb	lr, [r1, #11]
 160:	e281e00c 	add	lr, r1, #12
 164:	e1c100b9 	strh	r0, [r1, #9]
 168:	e281100b 	add	r1, r1, #11
 16c:	e594c008 	ldr	ip, [r4, #8]
 170:	e4dc0001 	ldrb	r0, [ip], #1
 174:	e5e10001 	strb	r0, [r1, #1]!
 178:	e3500000 	cmp	r0, #0
 17c:	1afffffb 	bne	170 <MDNS::CreateAnswerServiceTxt(unsigned int, unsigned char*)+0x170>
 180:	e08e3003 	add	r3, lr, r3
 184:	e0430002 	sub	r0, r3, r2
 188:	e8bd8030 	pop	{r4, r5, pc}
 18c:	e5c1300b 	strb	r3, [r1, #11]
 190:	e3a03c01 	mov	r3, #256	; 0x100
 194:	e1c130b9 	strh	r3, [r1, #9]
 198:	e281300c 	add	r3, r1, #12
 19c:	e0430002 	sub	r0, r3, r2
 1a0:	e8bd8030 	pop	{r4, r5, pc}
 1a4:	e3a00c01 	mov	r0, #256	; 0x100
 1a8:	eaffffea 	b	158 <MDNS::CreateAnswerServiceTxt(unsigned int, unsigned char*)+0x158>

Disassembly of section .text._ZN4MDNS22CreateAnswerServicePtrEjPh:

00000000 <MDNS::CreateAnswerServicePtr(unsigned int, unsigned char*)>:
   0:	e92d4070 	push	{r4, r5, r6, lr}
   4:	e3004000 	movw	r4, #0
   8:	e1a05201 	lsl	r5, r1, #4
   c:	e1a06001 	mov	r6, r1
  10:	e3404000 	movt	r4, #0
  14:	e1a01002 	mov	r1, r2
  18:	e0843005 	add	r3, r4, r5
  1c:	e593e004 	ldr	lr, [r3, #4]
  20:	e5de3000 	ldrb	r3, [lr]
  24:	e2810001 	add	r0, r1, #1
  28:	e1a0c00e 	mov	ip, lr
  2c:	e353002e 	cmp	r3, #46	; 0x2e
  30:	13530000 	cmpne	r3, #0
  34:	0a00000d 	beq	70 <MDNS::CreateAnswerServicePtr(unsigned int, unsigned char*)+0x70>
  38:	e4c03001 	strb	r3, [r0], #1
  3c:	e5fc3001 	ldrb	r3, [ip, #1]!
  40:	e353002e 	cmp	r3, #46	; 0x2e
  44:	13530000 	cmpne	r3, #0
  48:	1afffffa 	bne	38 <MDNS::CreateAnswerServicePtr(unsigned int, unsigned char*)+0x38>
  4c:	e04ce00e 	sub	lr, ip, lr
  50:	e6efe07e 	uxtb	lr, lr
  54:	e5c1e000 	strb	lr, [r1]
  58:	e5dc3000 	ldrb	r3, [ip]
  5c:	e3530000 	cmp	r3, #0
  60:	0a000007 	beq	84 <MDNS::CreateAnswerServicePtr(unsigned int, unsigned char*)+0x84>
  64:	e28ce001 	add	lr, ip, #1
  68:	e1a01000 	mov	r1, r0
  6c:	eaffffeb 	b	20 <MDNS::CreateAnswerServicePtr(unsigned int, unsigned char*)+0x20>
  70:	e3a0e000 	mov	lr, #0
  74:	e5c1e000 	strb	lr, [r1]
  78:	e5dc3000 	ldrb	r3, [ip]
  7c:	e3530000 	cmp	r3, #0
  80:	1afffff7 	bne	64 <MDNS::CreateAnswerServicePtr(unsigned int, unsigned char*)+0x64>
  84:	e5c03000 	strb	r3, [r0]
  88:	e3a03b03 	mov	r3, #3072	; 0xc00
  8c:	e794e206 	ldr	lr, [r4, r6, lsl #4]
  90:	e3403100 	movt	r3, #256	; 0x100
  94:	e5803001 	str	r3, [r0, #1]
  98:	e3a0331e 	mov	r3, #2013265920	; 0x78000000
  9c:	e5803005 	str	r3, [r0, #5]
  a0:	e5de3000 	ldrb	r3, [lr]
  a4:	e3530000 	cmp	r3, #0
  a8:	0a000045 	beq	1c4 <MDNS::CreateAnswerServicePtr(unsigned int, unsigned char*)+0x1c4>
  ac:	e1a0300e 	mov	r3, lr
  b0:	e5f31001 	ldrb	r1, [r3, #1]!
  b4:	e3510000 	cmp	r1, #0
  b8:	1afffffc 	bne	b0 <MDNS::CreateAnswerServicePtr(unsigned int, unsigned char*)+0xb0>
  bc:	e043300e 	sub	r3, r3, lr
  c0:	e283300d 	add	r3, r3, #13
  c4:	e6bf3fb3 	rev16	r3, r3
  c8:	e6ff3073 	uxth	r3, r3
  cc:	e1c030b9 	strh	r3, [r0, #9]
  d0:	e280000b 	add	r0, r0, #11
  d4:	e5de3000 	ldrb	r3, [lr]
  d8:	e2801001 	add	r1, r0, #1
  dc:	e1a0c00e 	mov	ip, lr
  e0:	e353002e 	cmp	r3, #46	; 0x2e
  e4:	13530000 	cmpne	r3, #0
  e8:	0a00000d 	beq	124 <MDNS::CreateAnswerServicePtr(unsigned int, unsigned char*)+0x124>
  ec:	e4c13001 	strb	r3, [r1], #1
  f0:	e5fc3001 	ldrb	r3, [ip, #1]!
  f4:	e353002e 	cmp	r3, #46	; 0x2e
  f8:	13530000 	cmpne	r3, #0
  fc:	1afffffa 	bne	ec <MDNS::CreateAnswerServicePtr(unsigned int, unsigned char*)+0xec>
 100:	e04ce00e 	sub	lr, ip, lr
 104:	e6efe07e 	uxtb	lr, lr
 108:	e5c0e000 	strb	lr, [r0]
 10c:	e5dc3000 	ldrb	r3, [ip]
 110:	e3530000 	cmp	r3, #0
 114:	0a000007 	beq	138 <MDNS::CreateAnswerServicePtr(unsigned int, unsigned char*)+0x138>
 118:	e28ce001 	add	lr, ip, #1
 11c:	e1a00001 	mov	r0, r1
 120:	eaffffeb 	b	d4 <MDNS::CreateAnswerServicePtr(unsigned int, unsigned char*)+0xd4>
 124:	e3a0e000 	mov	lr, #0
 128:	e5c0e000 	strb	lr, [r0]
 12c:	e5dc3000 	ldrb	r3, [ip]
 130:	e3530000 	cmp	r3, #0
 134:	1afffff7 	bne	118 <MDNS::CreateAnswerServicePtr(unsigned int, unsigned char*)+0x118>
 138:	e0844005 	add	r4, r4, r5
 13c:	e3003000 	movw	r3, #0
 140:	e3403000 	movt	r3, #0
 144:	e300e000 	movw	lr, #0
 148:	e5d4000e 	ldrb	r0, [r4, #14]
 14c:	e340e000 	movt	lr, #0
 150:	e3500001 	cmp	r0, #1
 154:	11a0e003 	movne	lr, r3
 158:	e3a0305f 	mov	r3, #95	; 0x5f
 15c:	e353002e 	cmp	r3, #46	; 0x2e
 160:	13530000 	cmpne	r3, #0
 164:	e1a0000e 	mov	r0, lr
 168:	e281c001 	add	ip, r1, #1
 16c:	0a00000d 	beq	1a8 <MDNS::CreateAnswerServicePtr(unsigned int, unsigned char*)+0x1a8>
 170:	e4cc3001 	strb	r3, [ip], #1
 174:	e5f03001 	ldrb	r3, [r0, #1]!
 178:	e353002e 	cmp	r3, #46	; 0x2e
 17c:	13530000 	cmpne	r3, #0
 180:	1afffffa 	bne	170 <MDNS::CreateAnswerServicePtr(unsigned int, unsigned char*)+0x170>
 184:	e040e00e 	sub	lr, r0, lr
 188:	e3530000 	cmp	r3, #0
 18c:	e6efe07e 	uxtb	lr, lr
 190:	e5c1e000 	strb	lr, [r1]
 194:	0a000007 	beq	1b8 <MDNS::CreateAnswerServicePtr(unsigned int, unsigned char*)+0x1b8>
 198:	e5d03001 	ldrb	r3, [r0, #1]
 19c:	e280e001 	add	lr, r0, #1
 1a0:	e1a0100c 	mov	r1, ip
 1a4:	eaffffec 	b	15c <MDNS::CreateAnswerServicePtr(unsigned int, unsigned char*)+0x15c>
 1a8:	e3530000 	cmp	r3, #0
 1ac:	e3a0e000 	mov	lr, #0
 1b0:	e5c1e000 	strb	lr, [r1]
 1b4:	1afffff7 	bne	198 <MDNS::CreateAnswerServicePtr(unsigned int, unsigned char*)+0x198>
 1b8:	e4cc3001 	strb	r3, [ip], #1
 1bc:	e04c0002 	sub	r0, ip, r2
 1c0:	e8bd8070 	pop	{r4, r5, r6, pc}
 1c4:	e3a03c0d 	mov	r3, #3328	; 0xd00
 1c8:	eaffffbf 	b	cc <MDNS::CreateAnswerServicePtr(unsigned int, unsigned char*)+0xcc>

Disassembly of section .text._ZN4MDNS24CreateAnswerServiceDnsSdEjPh:

00000000 <MDNS::CreateAnswerServiceDnsSd(unsigned int, unsigned char*)>:
   0:	e92d4010 	push	{r4, lr}
   4:	e300e000 	movw	lr, #0
   8:	e340e000 	movt	lr, #0
   c:	e1a04001 	mov	r4, r1
  10:	e3a0305f 	mov	r3, #95	; 0x5f
  14:	e1a01002 	mov	r1, r2
  18:	e353002e 	cmp	r3, #46	; 0x2e
  1c:	13530000 	cmpne	r3, #0
  20:	e1a0c00e 	mov	ip, lr
  24:	e2810001 	add	r0, r1, #1
  28:	0a00000d 	beq	64 <MDNS::CreateAnswerServiceDnsSd(unsigned int, unsigned char*)+0x64>
  2c:	e4c03001 	strb	r3, [r0], #1
  30:	e5fc3001 	ldrb	r3, [ip, #1]!
  34:	e353002e 	cmp	r3, #46	; 0x2e
  38:	13530000 	cmpne	r3, #0
  3c:	1afffffa 	bne	2c <MDNS::CreateAnswerServiceDnsSd(unsigned int, unsigned char*)+0x2c>
  40:	e04ce00e 	sub	lr, ip, lr
  44:	e3530000 	cmp	r3, #0
  48:	e6efe07e 	uxtb	lr, lr
  4c:	e5c1e000 	strb	lr, [r1]
  50:	0a000007 	beq	74 <MDNS::CreateAnswerServiceDnsSd(unsigned int, unsigned char*)+0x74>
  54:	e5dc3001 	ldrb	r3, [ip, #1]
  58:	e28ce001 	add	lr, ip, #1
  5c:	e1a01000 	mov	r1, r0
  60:	eaffffec 	b	18 <MDNS::CreateAnswerServiceDnsSd(unsigned int, unsigned char*)+0x18>
  64:	e3530000 	cmp	r3, #0
  68:	e3a0e000 	mov	lr, #0
  6c:	e5c1e000 	strb	lr, [r1]
  70:	1afffff7 	bne	54 <MDNS::CreateAnswerServiceDnsSd(unsigned int, unsigned char*)+0x54>
  74:	e5c03000 	strb	r3, [r0]
  78:	e3003000 	movw	r3, #0
  7c:	e3403000 	movt	r3, #0
  80:	e3a01b03 	mov	r1, #3072	; 0xc00
  84:	e0833204 	add	r3, r3, r4, lsl #4
  88:	e3401100 	movt	r1, #256	; 0x100
  8c:	e593e004 	ldr	lr, [r3, #4]
  90:	e5801001 	str	r1, [r0, #1]
  94:	e3a0131e 	mov	r1, #2013265920	; 0x78000000
  98:	e5801005 	str	r1, [r0, #5]
  9c:	e5de3000 	ldrb	r3, [lr]
  a0:	e3530000 	cmp	r3, #0
  a4:	0a000026 	beq	144 <MDNS::CreateAnswerServiceDnsSd(unsigned int, unsigned char*)+0x144>
  a8:	e1a0300e 	mov	r3, lr
  ac:	e5f31001 	ldrb	r1, [r3, #1]!
  b0:	e3510000 	cmp	r1, #0
  b4:	1afffffc 	bne	ac <MDNS::CreateAnswerServiceDnsSd(unsigned int, unsigned char*)+0xac>
  b8:	e043300e 	sub	r3, r3, lr
  bc:	e2833002 	add	r3, r3, #2
  c0:	e6bf3fb3 	rev16	r3, r3
  c4:	e6ff3073 	uxth	r3, r3
  c8:	e1c030b9 	strh	r3, [r0, #9]
  cc:	e280000b 	add	r0, r0, #11
  d0:	e5de3000 	ldrb	r3, [lr]
  d4:	e280c001 	add	ip, r0, #1
  d8:	e353002e 	cmp	r3, #46	; 0x2e
  dc:	13530000 	cmpne	r3, #0
  e0:	0a00000e 	beq	120 <MDNS::CreateAnswerServiceDnsSd(unsigned int, unsigned char*)+0x120>
  e4:	e1a0100e 	mov	r1, lr
  e8:	e4cc3001 	strb	r3, [ip], #1
  ec:	e5f13001 	ldrb	r3, [r1, #1]!
  f0:	e353002e 	cmp	r3, #46	; 0x2e
  f4:	13530000 	cmpne	r3, #0
  f8:	1afffffa 	bne	e8 <MDNS::CreateAnswerServiceDnsSd(unsigned int, unsigned char*)+0xe8>
  fc:	e041300e 	sub	r3, r1, lr
 100:	e6ef3073 	uxtb	r3, r3
 104:	e5c03000 	strb	r3, [r0]
 108:	e5d13000 	ldrb	r3, [r1]
 10c:	e3530000 	cmp	r3, #0
 110:	0a000008 	beq	138 <MDNS::CreateAnswerServiceDnsSd(unsigned int, unsigned char*)+0x138>
 114:	e281e001 	add	lr, r1, #1
 118:	e1a0000c 	mov	r0, ip
 11c:	eaffffeb 	b	d0 <MDNS::CreateAnswerServiceDnsSd(unsigned int, unsigned char*)+0xd0>
 120:	e1a0100e 	mov	r1, lr
 124:	e3a03000 	mov	r3, #0
 128:	e5c03000 	strb	r3, [r0]
 12c:	e5d13000 	ldrb	r3, [r1]
 130:	e3530000 	cmp	r3, #0
 134:	1afffff6 	bne	114 <MDNS::CreateAnswerServiceDnsSd(unsigned int, unsigned char*)+0x114>
 138:	e4cc3001 	strb	r3, [ip], #1
 13c:	e04c0002 	sub	r0, ip, r2
 140:	e8bd8010 	pop	{r4, pc}
 144:	e3a03c02 	mov	r3, #512	; 0x200
 148:	eaffffde 	b	c8 <MDNS::CreateAnswerServiceDnsSd(unsigned int, unsigned char*)+0xc8>

Disassembly of section .text._ZN4MDNS17CreateMDNSMessageEj:

00000000 <MDNS::CreateMDNSMessage(unsigned int)>:
   0:	e92d4070 	push	{r4, r5, r6, lr}
   4:	e3004000 	movw	r4, #0
   8:	e3404000 	movt	r4, #0
   c:	e3a03084 	mov	r3, #132	; 0x84
  10:	e2842010 	add	r2, r4, #16
  14:	e1a05000 	mov	r5, r0
  18:	e1c430b6 	strh	r3, [r4, #6]
  1c:	e3a03301 	mov	r3, #67108864	; 0x4000000
  20:	e5843008 	str	r3, [r4, #8]
  24:	e3a03c01 	mov	r3, #256	; 0x100
  28:	e584300c 	str	r3, [r4, #12]
  2c:	e1a06001 	mov	r6, r1
  30:	ebfffffe 	bl	0 <MDNS::CreateMDNSMessage(unsigned int)>
  34:	e0822000 	add	r2, r2, r0
  38:	e1a01006 	mov	r1, r6
  3c:	e1a00005 	mov	r0, r5
  40:	ebfffffe 	bl	0 <MDNS::CreateMDNSMessage(unsigned int)>
  44:	e0822000 	add	r2, r2, r0
  48:	e1a01006 	mov	r1, r6
  4c:	e1a00005 	mov	r0, r5
  50:	ebfffffe 	bl	0 <MDNS::CreateMDNSMessage(unsigned int)>
  54:	e0822000 	add	r2, r2, r0
  58:	e1a01006 	mov	r1, r6
  5c:	e1a00005 	mov	r0, r5
  60:	ebfffffe 	bl	0 <MDNS::CreateMDNSMessage(unsigned int)>
  64:	e0822000 	add	r2, r2, r0
  68:	e3001000 	movw	r1, #0
  6c:	e3401000 	movt	r1, #0
  70:	e5913000 	ldr	r3, [r1]
  74:	e253000c 	subs	r0, r3, #12
  78:	0a000007 	beq	9c <MDNS::CreateMDNSMessage(unsigned int)+0x9c>
  7c:	e243e00d 	sub	lr, r3, #13
  80:	e2811010 	add	r1, r1, #16
  84:	e082e00e 	add	lr, r2, lr
  88:	e2423001 	sub	r3, r2, #1
  8c:	e4d1c001 	ldrb	ip, [r1], #1
  90:	e5e3c001 	strb	ip, [r3, #1]!
  94:	e153000e 	cmp	r3, lr
  98:	1afffffb 	bne	8c <MDNS::CreateMDNSMessage(unsigned int)+0x8c>
  9c:	e59f300c 	ldr	r3, [pc, #12]	; b0 <MDNS::CreateMDNSMessage(unsigned int)+0xb0>
  a0:	e0822000 	add	r2, r2, r0
  a4:	e0422003 	sub	r2, r2, r3
  a8:	e5842000 	str	r2, [r4]
  ac:	e8bd8070 	pop	{r4, r5, r6, pc}
  b0:	00000004 	.word	0x00000004

Disassembly of section .text._ZN4MDNS16AddServiceRecordEPKcS1_tN4mdns8ProtocolES1_:

00000000 <MDNS::AddServiceRecord(char const*, char const*, unsigned short, mdns::Protocol, char const*)>:
   0:	e92d4ff0 	push	{r4, r5, r6, r7, r8, r9, sl, fp, lr}
   4:	e24dd00c 	sub	sp, sp, #12
   8:	e300a000 	movw	sl, #0
   c:	e1a09000 	mov	r9, r0
  10:	e5dd7030 	ldrb	r7, [sp, #48]	; 0x30
  14:	e1a06001 	mov	r6, r1
  18:	e59d5034 	ldr	r5, [sp, #52]	; 0x34
  1c:	e1a0b002 	mov	fp, r2
  20:	e340a000 	movt	sl, #0
  24:	e3a04000 	mov	r4, #0
  28:	e79ac204 	ldr	ip, [sl, r4, lsl #4]
  2c:	e35c0000 	cmp	ip, #0
  30:	0a000005 	beq	4c <MDNS::AddServiceRecord(char const*, char const*, unsigned short, mdns::Protocol, char const*)+0x4c>
  34:	e2844001 	add	r4, r4, #1
  38:	e3540008 	cmp	r4, #8
  3c:	1afffff9 	bne	28 <MDNS::AddServiceRecord(char const*, char const*, unsigned short, mdns::Protocol, char const*)+0x28>
  40:	e3a00000 	mov	r0, #0
  44:	e28dd00c 	add	sp, sp, #12
  48:	e8bd8ff0 	pop	{r4, r5, r6, r7, r8, r9, sl, fp, pc}
  4c:	e1a08204 	lsl	r8, r4, #4
  50:	e3560000 	cmp	r6, #0
  54:	e08a2008 	add	r2, sl, r8
  58:	e1c230bc 	strh	r3, [r2, #12]
  5c:	e5c2700e 	strb	r7, [r2, #14]
  60:	0a00009a 	beq	2d0 <MDNS::AddServiceRecord(char const*, char const*, unsigned short, mdns::Protocol, char const*)+0x2d0>
  64:	e5d63000 	ldrb	r3, [r6]
  68:	e3530000 	cmp	r3, #0
  6c:	0a0000b8 	beq	354 <MDNS::AddServiceRecord(char const*, char const*, unsigned short, mdns::Protocol, char const*)+0x354>
  70:	e1a03006 	mov	r3, r6
  74:	e5f32001 	ldrb	r2, [r3, #1]!
  78:	e3520000 	cmp	r2, #0
  7c:	1afffffc 	bne	74 <MDNS::AddServiceRecord(char const*, char const*, unsigned short, mdns::Protocol, char const*)+0x74>
  80:	e0433006 	sub	r3, r3, r6
  84:	e2830001 	add	r0, r3, #1
  88:	e5db3000 	ldrb	r3, [fp]
  8c:	e3530000 	cmp	r3, #0
  90:	0a000004 	beq	a8 <MDNS::AddServiceRecord(char const*, char const*, unsigned short, mdns::Protocol, char const*)+0xa8>
  94:	e1a0300b 	mov	r3, fp
  98:	e5f32001 	ldrb	r2, [r3, #1]!
  9c:	e3520000 	cmp	r2, #0
  a0:	1afffffc 	bne	98 <MDNS::AddServiceRecord(char const*, char const*, unsigned short, mdns::Protocol, char const*)+0x98>
  a4:	e043300b 	sub	r3, r3, fp
  a8:	e0800003 	add	r0, r0, r3
  ac:	ebfffffe 	bl	0 <operator new[](unsigned int)>
  b0:	e78a0204 	str	r0, [sl, r4, lsl #4]
  b4:	e2402001 	sub	r2, r0, #1
  b8:	e1a01002 	mov	r1, r2
  bc:	e4d63001 	ldrb	r3, [r6], #1
  c0:	e5e13001 	strb	r3, [r1, #1]!
  c4:	e3530000 	cmp	r3, #0
  c8:	1afffffb 	bne	bc <MDNS::AddServiceRecord(char const*, char const*, unsigned short, mdns::Protocol, char const*)+0xbc>
  cc:	e3006000 	movw	r6, #0
  d0:	e3406000 	movt	r6, #0
  d4:	e5d03000 	ldrb	r3, [r0]
  d8:	e3530000 	cmp	r3, #0
  dc:	0a000003 	beq	f0 <MDNS::AddServiceRecord(char const*, char const*, unsigned short, mdns::Protocol, char const*)+0xf0>
  e0:	e5f03001 	ldrb	r3, [r0, #1]!
  e4:	e3530000 	cmp	r3, #0
  e8:	1afffffc 	bne	e0 <MDNS::AddServiceRecord(char const*, char const*, unsigned short, mdns::Protocol, char const*)+0xe0>
  ec:	e2402001 	sub	r2, r0, #1
  f0:	e1a0100b 	mov	r1, fp
  f4:	e4d13001 	ldrb	r3, [r1], #1
  f8:	e5e23001 	strb	r3, [r2, #1]!
  fc:	e3530000 	cmp	r3, #0
 100:	1afffffb 	bne	f4 <MDNS::AddServiceRecord(char const*, char const*, unsigned short, mdns::Protocol, char const*)+0xf4>
 104:	e5db3000 	ldrb	r3, [fp]
 108:	e3530000 	cmp	r3, #0
 10c:	0a000092 	beq	35c <MDNS::AddServiceRecord(char const*, char const*, unsigned short, mdns::Protocol, char const*)+0x35c>
 110:	e1a0300b 	mov	r3, fp
 114:	e5f32001 	ldrb	r2, [r3, #1]!
 118:	e3520000 	cmp	r2, #0
 11c:	1afffffc 	bne	114 <MDNS::AddServiceRecord(char const*, char const*, unsigned short, mdns::Protocol, char const*)+0x114>
 120:	e15b0003 	cmp	fp, r3
 124:	e1a01003 	mov	r1, r3
 128:	3a000060 	bcc	2b0 <MDNS::AddServiceRecord(char const*, char const*, unsigned short, mdns::Protocol, char const*)+0x2b0>
 12c:	e5d32001 	ldrb	r2, [r3, #1]
 130:	e2833001 	add	r3, r3, #1
 134:	e3520000 	cmp	r2, #0
 138:	e1a0b003 	mov	fp, r3
 13c:	03a0000d 	moveq	r0, #13
 140:	0a000004 	beq	158 <MDNS::AddServiceRecord(char const*, char const*, unsigned short, mdns::Protocol, char const*)+0x158>
 144:	e5f32001 	ldrb	r2, [r3, #1]!
 148:	e3520000 	cmp	r2, #0
 14c:	1a00005b 	bne	2c0 <MDNS::AddServiceRecord(char const*, char const*, unsigned short, mdns::Protocol, char const*)+0x2c0>
 150:	e043300b 	sub	r3, r3, fp
 154:	e283000d 	add	r0, r3, #13
 158:	ebfffffe 	bl	0 <operator new[](unsigned int)>
 15c:	e08a2008 	add	r2, sl, r8
 160:	e1a03000 	mov	r3, r0
 164:	e2401001 	sub	r1, r0, #1
 168:	e5820004 	str	r0, [r2, #4]
 16c:	e4db2001 	ldrb	r2, [fp], #1
 170:	e5e12001 	strb	r2, [r1, #1]!
 174:	e3520000 	cmp	r2, #0
 178:	1afffffb 	bne	16c <MDNS::AddServiceRecord(char const*, char const*, unsigned short, mdns::Protocol, char const*)+0x16c>
 17c:	e5d32000 	ldrb	r2, [r3]
 180:	e3520000 	cmp	r2, #0
 184:	e1a02003 	mov	r2, r3
 188:	0a000002 	beq	198 <MDNS::AddServiceRecord(char const*, char const*, unsigned short, mdns::Protocol, char const*)+0x198>
 18c:	e5f21001 	ldrb	r1, [r2, #1]!
 190:	e3510000 	cmp	r1, #0
 194:	1afffffc 	bne	18c <MDNS::AddServiceRecord(char const*, char const*, unsigned short, mdns::Protocol, char const*)+0x18c>
 198:	e3000000 	movw	r0, #0
 19c:	e3a0102e 	mov	r1, #46	; 0x2e
 1a0:	e3400000 	movt	r0, #0
 1a4:	ea000000 	b	1ac <MDNS::AddServiceRecord(char const*, char const*, unsigned short, mdns::Protocol, char const*)+0x1ac>
 1a8:	e5f01001 	ldrb	r1, [r0, #1]!
 1ac:	e4c21001 	strb	r1, [r2], #1
 1b0:	e3510000 	cmp	r1, #0
 1b4:	1afffffb 	bne	1a8 <MDNS::AddServiceRecord(char const*, char const*, unsigned short, mdns::Protocol, char const*)+0x1a8>
 1b8:	e5d30000 	ldrb	r0, [r3]
 1bc:	e3002000 	movw	r2, #0
 1c0:	e3402000 	movt	r2, #0
 1c4:	e3570001 	cmp	r7, #1
 1c8:	e3001000 	movw	r1, #0
 1cc:	e3401000 	movt	r1, #0
 1d0:	11a01002 	movne	r1, r2
 1d4:	e3500000 	cmp	r0, #0
 1d8:	0a000002 	beq	1e8 <MDNS::AddServiceRecord(char const*, char const*, unsigned short, mdns::Protocol, char const*)+0x1e8>
 1dc:	e5f32001 	ldrb	r2, [r3, #1]!
 1e0:	e3520000 	cmp	r2, #0
 1e4:	1afffffc 	bne	1dc <MDNS::AddServiceRecord(char const*, char const*, unsigned short, mdns::Protocol, char const*)+0x1dc>
 1e8:	e3a0205f 	mov	r2, #95	; 0x5f
 1ec:	ea000000 	b	1f4 <MDNS::AddServiceRecord(char const*, char const*, unsigned short, mdns::Protocol, char const*)+0x1f4>
 1f0:	e5f12001 	ldrb	r2, [r1, #1]!
 1f4:	e4c32001 	strb	r2, [r3], #1
 1f8:	e3520000 	cmp	r2, #0
 1fc:	1afffffb 	bne	1f0 <MDNS::AddServiceRecord(char const*, char const*, unsigned short, mdns::Protocol, char const*)+0x1f0>
 200:	e3550000 	cmp	r5, #0
 204:	0a000010 	beq	24c <MDNS::AddServiceRecord(char const*, char const*, unsigned short, mdns::Protocol, char const*)+0x24c>
 208:	e5d53000 	ldrb	r3, [r5]
 20c:	e3530000 	cmp	r3, #0
 210:	0a000054 	beq	368 <MDNS::AddServiceRecord(char const*, char const*, unsigned short, mdns::Protocol, char const*)+0x368>
 214:	e1a03005 	mov	r3, r5
 218:	e5f32001 	ldrb	r2, [r3, #1]!
 21c:	e3520000 	cmp	r2, #0
 220:	1afffffc 	bne	218 <MDNS::AddServiceRecord(char const*, char const*, unsigned short, mdns::Protocol, char const*)+0x218>
 224:	e0433005 	sub	r3, r3, r5
 228:	e2830001 	add	r0, r3, #1
 22c:	e08a8008 	add	r8, sl, r8
 230:	ebfffffe 	bl	0 <operator new[](unsigned int)>
 234:	e2402001 	sub	r2, r0, #1
 238:	e5880008 	str	r0, [r8, #8]
 23c:	e4d53001 	ldrb	r3, [r5], #1
 240:	e5e23001 	strb	r3, [r2, #1]!
 244:	e3530000 	cmp	r3, #0
 248:	1afffffb 	bne	23c <MDNS::AddServiceRecord(char const*, char const*, unsigned short, mdns::Protocol, char const*)+0x23c>
 24c:	e1a01004 	mov	r1, r4
 250:	e1a00009 	mov	r0, r9
 254:	ebfffffe 	bl	0 <MDNS::AddServiceRecord(char const*, char const*, unsigned short, mdns::Protocol, char const*)>
 258:	e5960000 	ldr	r0, [r6]
 25c:	e300c000 	movw	ip, #0
 260:	e340c000 	movt	ip, #0
 264:	e3002000 	movw	r2, #0
 268:	e3402000 	movt	r2, #0
 26c:	e3001000 	movw	r1, #0
 270:	e59cc000 	ldr	ip, [ip]
 274:	e3401000 	movt	r1, #0
 278:	e4923004 	ldr	r3, [r2], #4
 27c:	e5911000 	ldr	r1, [r1]
 280:	e58dc000 	str	ip, [sp]
 284:	e301c4e9 	movw	ip, #5353	; 0x14e9
 288:	e58dc004 	str	ip, [sp, #4]
 28c:	e6ff3073 	uxth	r3, r3
 290:	ebfffffe 	bl	0 <Network::SendTo(int, void const*, unsigned short, unsigned int, unsigned short)>
 294:	e3a00001 	mov	r0, #1
 298:	e28dd00c 	add	sp, sp, #12
 29c:	e8bd8ff0 	pop	{r4, r5, r6, r7, r8, r9, sl, fp, pc}
 2a0:	e1a03001 	mov	r3, r1
 2a4:	e15b0003 	cmp	fp, r3
 2a8:	e1a01003 	mov	r1, r3
 2ac:	2affff9e 	bcs	12c <MDNS::AddServiceRecord(char const*, char const*, unsigned short, mdns::Protocol, char const*)+0x12c>
 2b0:	e4512001 	ldrb	r2, [r1], #-1
 2b4:	e352002e 	cmp	r2, #46	; 0x2e
 2b8:	1afffff8 	bne	2a0 <MDNS::AddServiceRecord(char const*, char const*, unsigned short, mdns::Protocol, char const*)+0x2a0>
 2bc:	e1a0b003 	mov	fp, r3
 2c0:	e5f32001 	ldrb	r2, [r3, #1]!
 2c4:	e3520000 	cmp	r2, #0
 2c8:	1afffffc 	bne	2c0 <MDNS::AddServiceRecord(char const*, char const*, unsigned short, mdns::Protocol, char const*)+0x2c0>
 2cc:	eaffff9f 	b	150 <MDNS::AddServiceRecord(char const*, char const*, unsigned short, mdns::Protocol, char const*)+0x150>
 2d0:	e5db3000 	ldrb	r3, [fp]
 2d4:	e3006000 	movw	r6, #0
 2d8:	e3406000 	movt	r6, #0
 2dc:	e3530000 	cmp	r3, #0
 2e0:	e5963000 	ldr	r3, [r6]
 2e4:	e283001c 	add	r0, r3, #28
 2e8:	0a000005 	beq	304 <MDNS::AddServiceRecord(char const*, char const*, unsigned short, mdns::Protocol, char const*)+0x304>
 2ec:	e1a0300b 	mov	r3, fp
 2f0:	e5f32001 	ldrb	r2, [r3, #1]!
 2f4:	e3520000 	cmp	r2, #0
 2f8:	1afffffc 	bne	2f0 <MDNS::AddServiceRecord(char const*, char const*, unsigned short, mdns::Protocol, char const*)+0x2f0>
 2fc:	e043300b 	sub	r3, r3, fp
 300:	e0800003 	add	r0, r0, r3
 304:	e5d03000 	ldrb	r3, [r0]
 308:	e3530000 	cmp	r3, #0
 30c:	0a000017 	beq	370 <MDNS::AddServiceRecord(char const*, char const*, unsigned short, mdns::Protocol, char const*)+0x370>
 310:	e1a03000 	mov	r3, r0
 314:	e5f32001 	ldrb	r2, [r3, #1]!
 318:	e3520000 	cmp	r2, #0
 31c:	1afffffc 	bne	314 <MDNS::AddServiceRecord(char const*, char const*, unsigned short, mdns::Protocol, char const*)+0x314>
 320:	e0433000 	sub	r3, r3, r0
 324:	e2830001 	add	r0, r3, #1
 328:	ebfffffe 	bl	0 <operator new[](unsigned int)>
 32c:	e5961000 	ldr	r1, [r6]
 330:	e2402001 	sub	r2, r0, #1
 334:	e78a0204 	str	r0, [sl, r4, lsl #4]
 338:	e1a0c002 	mov	ip, r2
 33c:	e281101c 	add	r1, r1, #28
 340:	e4d13001 	ldrb	r3, [r1], #1
 344:	e5ec3001 	strb	r3, [ip, #1]!
 348:	e3530000 	cmp	r3, #0
 34c:	1afffffb 	bne	340 <MDNS::AddServiceRecord(char const*, char const*, unsigned short, mdns::Protocol, char const*)+0x340>
 350:	eaffff5f 	b	d4 <MDNS::AddServiceRecord(char const*, char const*, unsigned short, mdns::Protocol, char const*)+0xd4>
 354:	e3a00001 	mov	r0, #1
 358:	eaffff4a 	b	88 <MDNS::AddServiceRecord(char const*, char const*, unsigned short, mdns::Protocol, char const*)+0x88>
 35c:	e5db2001 	ldrb	r2, [fp, #1]
 360:	e28b3001 	add	r3, fp, #1
 364:	eaffff72 	b	134 <MDNS::AddServiceRecord(char const*, char const*, unsigned short, mdns::Protocol, char const*)+0x134>
 368:	e3a00001 	mov	r0, #1
 36c:	eaffffae 	b	22c <MDNS::AddServiceRecord(char const*, char const*, unsigned short, mdns::Protocol, char const*)+0x22c>
 370:	e3a00001 	mov	r0, #1
 374:	eaffffeb 	b	328 <MDNS::AddServiceRecord(char const*, char const*, unsigned short, mdns::Protocol, char const*)+0x328>

Disassembly of section .text._ZN4MDNS13HandleRequestEt:

00000000 <MDNS::HandleRequest(unsigned short)>:
   0:	e92d4ff0 	push	{r4, r5, r6, r7, r8, r9, sl, fp, lr}
   4:	e2513000 	subs	r3, r1, #0
   8:	e24ddf47 	sub	sp, sp, #284	; 0x11c
   c:	e58d3008 	str	r3, [sp, #8]
  10:	0a000070 	beq	1d8 <MDNS::HandleRequest(unsigned short)+0x1d8>
  14:	e3003000 	movw	r3, #0
  18:	e3008000 	movw	r8, #0
  1c:	e3403000 	movt	r3, #0
  20:	e3009000 	movw	r9, #0
  24:	e58d3014 	str	r3, [sp, #20]
  28:	e3003000 	movw	r3, #0
  2c:	e3403000 	movt	r3, #0
  30:	e1a0b000 	mov	fp, r0
  34:	e58d3010 	str	r3, [sp, #16]
  38:	e3003000 	movw	r3, #0
  3c:	e3403000 	movt	r3, #0
  40:	e3a07000 	mov	r7, #0
  44:	e3408000 	movt	r8, #0
  48:	e3a0600c 	mov	r6, #12
  4c:	e3409000 	movt	r9, #0
  50:	e58d300c 	str	r3, [sp, #12]
  54:	ea000003 	b	68 <MDNS::HandleRequest(unsigned short)+0x68>
  58:	e59d3008 	ldr	r3, [sp, #8]
  5c:	e2877001 	add	r7, r7, #1
  60:	e1570003 	cmp	r7, r3
  64:	0a00005b 	beq	1d8 <MDNS::HandleRequest(unsigned short)+0x1d8>
  68:	e5981000 	ldr	r1, [r8]
  6c:	e28d2018 	add	r2, sp, #24
  70:	e1a0000b 	mov	r0, fp
  74:	e0811006 	add	r1, r1, r6
  78:	ebfffffe 	bl	0 <MDNS::HandleRequest(unsigned short)>
  7c:	e5982000 	ldr	r2, [r8]
  80:	e0800006 	add	r0, r0, r6
  84:	e0823000 	add	r3, r2, r0
  88:	e2806004 	add	r6, r0, #4
  8c:	e1d330b2 	ldrh	r3, [r3, #2]
  90:	e6bf3fb3 	rev16	r3, r3
  94:	e203307f 	and	r3, r3, #127	; 0x7f
  98:	e3530001 	cmp	r3, #1
  9c:	1affffed 	bne	58 <MDNS::HandleRequest(unsigned short)+0x58>
  a0:	e59d3010 	ldr	r3, [sp, #16]
  a4:	e192a0b0 	ldrh	sl, [r2, r0]
  a8:	e5931000 	ldr	r1, [r3]
  ac:	e5dd2018 	ldrb	r2, [sp, #24]
  b0:	e5d13000 	ldrb	r3, [r1]
  b4:	e6bfafba 	rev16	sl, sl
  b8:	e1520003 	cmp	r2, r3
  bc:	e6ffa07a 	uxth	sl, sl
  c0:	1a000009 	bne	ec <MDNS::HandleRequest(unsigned short)+0xec>
  c4:	e28d0018 	add	r0, sp, #24
  c8:	ea000003 	b	dc <MDNS::HandleRequest(unsigned short)+0xdc>
  cc:	e5f13001 	ldrb	r3, [r1, #1]!
  d0:	e5f0c001 	ldrb	ip, [r0, #1]!
  d4:	e15c0003 	cmp	ip, r3
  d8:	1a000003 	bne	ec <MDNS::HandleRequest(unsigned short)+0xec>
  dc:	e3530000 	cmp	r3, #0
  e0:	1afffff9 	bne	cc <MDNS::HandleRequest(unsigned short)+0xcc>
  e4:	e35a0001 	cmp	sl, #1
  e8:	0a00003f 	beq	1ec <MDNS::HandleRequest(unsigned short)+0x1ec>
  ec:	e352005f 	cmp	r2, #95	; 0x5f
  f0:	1a00003a 	bne	1e0 <MDNS::HandleRequest(unsigned short)+0x1e0>
  f4:	e59f1138 	ldr	r1, [pc, #312]	; 234 <MDNS::HandleRequest(unsigned short)+0x234>
  f8:	e3a05073 	mov	r5, #115	; 0x73
  fc:	e28d3018 	add	r3, sp, #24
 100:	ea000000 	b	108 <MDNS::HandleRequest(unsigned short)+0x108>
 104:	e5f15001 	ldrb	r5, [r1, #1]!
 108:	e5f32001 	ldrb	r2, [r3, #1]!
 10c:	e1520005 	cmp	r2, r5
 110:	1a000033 	bne	1e4 <MDNS::HandleRequest(unsigned short)+0x1e4>
 114:	e3550000 	cmp	r5, #0
 118:	1afffff9 	bne	104 <MDNS::HandleRequest(unsigned short)+0x104>
 11c:	e3a04000 	mov	r4, #0
 120:	ea000004 	b	138 <MDNS::HandleRequest(unsigned short)+0x138>
 124:	e35a000c 	cmp	sl, #12
 128:	0a000017 	beq	18c <MDNS::HandleRequest(unsigned short)+0x18c>
 12c:	e2844001 	add	r4, r4, #1
 130:	e3540008 	cmp	r4, #8
 134:	0affffc7 	beq	58 <MDNS::HandleRequest(unsigned short)+0x58>
 138:	e7993204 	ldr	r3, [r9, r4, lsl #4]
 13c:	e3530000 	cmp	r3, #0
 140:	0afffff9 	beq	12c <MDNS::HandleRequest(unsigned short)+0x12c>
 144:	e3550000 	cmp	r5, #0
 148:	0afffff5 	beq	124 <MDNS::HandleRequest(unsigned short)+0x124>
 14c:	e0893204 	add	r3, r9, r4, lsl #4
 150:	e5dd1018 	ldrb	r1, [sp, #24]
 154:	e5932004 	ldr	r2, [r3, #4]
 158:	e5d23000 	ldrb	r3, [r2]
 15c:	e1510003 	cmp	r1, r3
 160:	1afffff1 	bne	12c <MDNS::HandleRequest(unsigned short)+0x12c>
 164:	e28d1018 	add	r1, sp, #24
 168:	ea000003 	b	17c <MDNS::HandleRequest(unsigned short)+0x17c>
 16c:	e5f23001 	ldrb	r3, [r2, #1]!
 170:	e5f10001 	ldrb	r0, [r1, #1]!
 174:	e1500003 	cmp	r0, r3
 178:	1affffeb 	bne	12c <MDNS::HandleRequest(unsigned short)+0x12c>
 17c:	e3530000 	cmp	r3, #0
 180:	1afffff9 	bne	16c <MDNS::HandleRequest(unsigned short)+0x16c>
 184:	e35a000c 	cmp	sl, #12
 188:	1affffe7 	bne	12c <MDNS::HandleRequest(unsigned short)+0x12c>
 18c:	e1a01004 	mov	r1, r4
 190:	e1a0000b 	mov	r0, fp
 194:	ebfffffe 	bl	0 <MDNS::HandleRequest(unsigned short)>
 198:	e59d200c 	ldr	r2, [sp, #12]
 19c:	e3003000 	movw	r3, #0
 1a0:	e3403000 	movt	r3, #0
 1a4:	e5933000 	ldr	r3, [r3]
 1a8:	e58d3000 	str	r3, [sp]
 1ac:	e3003000 	movw	r3, #0
 1b0:	e3403000 	movt	r3, #0
 1b4:	e5930000 	ldr	r0, [r3]
 1b8:	e30134e9 	movw	r3, #5353	; 0x14e9
 1bc:	e58d3004 	str	r3, [sp, #4]
 1c0:	e59d3014 	ldr	r3, [sp, #20]
 1c4:	e5921000 	ldr	r1, [r2]
 1c8:	e1d330b0 	ldrh	r3, [r3]
 1cc:	e59f2064 	ldr	r2, [pc, #100]	; 238 <MDNS::HandleRequest(unsigned short)+0x238>
 1d0:	ebfffffe 	bl	0 <Network::SendTo(int, void const*, unsigned short, unsigned int, unsigned short)>
 1d4:	eaffffd4 	b	12c <MDNS::HandleRequest(unsigned short)+0x12c>
 1d8:	e28ddf47 	add	sp, sp, #284	; 0x11c
 1dc:	e8bd8ff0 	pop	{r4, r5, r6, r7, r8, r9, sl, fp, pc}
 1e0:	e3a0505f 	mov	r5, #95	; 0x5f
 1e4:	e0455002 	sub	r5, r5, r2
 1e8:	eaffffcb 	b	11c <MDNS::HandleRequest(unsigned short)+0x11c>
 1ec:	e59d300c 	ldr	r3, [sp, #12]
 1f0:	e3002000 	movw	r2, #0
 1f4:	e3402000 	movt	r2, #0
 1f8:	e5931000 	ldr	r1, [r3]
 1fc:	e3003000 	movw	r3, #0
 200:	e3403000 	movt	r3, #0
 204:	e593c000 	ldr	ip, [r3]
 208:	e3003000 	movw	r3, #0
 20c:	e3403000 	movt	r3, #0
 210:	e5930000 	ldr	r0, [r3]
 214:	e4923004 	ldr	r3, [r2], #4
 218:	e58dc000 	str	ip, [sp]
 21c:	e301c4e9 	movw	ip, #5353	; 0x14e9
 220:	e58dc004 	str	ip, [sp, #4]
 224:	e6ff3073 	uxth	r3, r3
 228:	ebfffffe 	bl	0 <Network::SendTo(int, void const*, unsigned short, unsigned int, unsigned short)>
 22c:	e5dd2018 	ldrb	r2, [sp, #24]
 230:	eaffffad 	b	ec <MDNS::HandleRequest(unsigned short)+0xec>
 234:	00000001 	.word	0x00000001
 238:	00000004 	.word	0x00000004

Disassembly of section .text._ZN4MDNS5ParseEv:

00000000 <MDNS::Parse()>:
   0:	e3003000 	movw	r3, #0
   4:	e3403000 	movt	r3, #0
   8:	e5932000 	ldr	r2, [r3]
   c:	e1d230b2 	ldrh	r3, [r2, #2]
  10:	e6bf3fb3 	rev16	r3, r3
  14:	e3130902 	tst	r3, #32768	; 0x8000
  18:	e6ff3073 	uxth	r3, r3
  1c:	112fff1e 	bxne	lr
  20:	e1b03723 	lsrs	r3, r3, #14
  24:	112fff1e 	bxne	lr
  28:	e1d210b4 	ldrh	r1, [r2, #4]
  2c:	e6ff3071 	uxth	r3, r1
  30:	e3530000 	cmp	r3, #0
  34:	012fff1e 	bxeq	lr
  38:	e6bf1fb1 	rev16	r1, r1
  3c:	e6ff1071 	uxth	r1, r1
  40:	eafffffe 	b	0 <MDNS::Parse()>

Disassembly of section .text._ZN4MDNS3RunEv:

00000000 <MDNS::Run()>:
   0:	e3003000 	movw	r3, #0
   4:	e3002000 	movw	r2, #0
   8:	e3403000 	movt	r3, #0
   c:	e92d4070 	push	{r4, r5, r6, lr}
  10:	e3005000 	movw	r5, #0
  14:	e3402000 	movt	r2, #0
  18:	e24dd008 	sub	sp, sp, #8
  1c:	e3405000 	movt	r5, #0
  20:	e3004000 	movw	r4, #0
  24:	e3404000 	movt	r4, #0
  28:	e1a06000 	mov	r6, r0
  2c:	e5930000 	ldr	r0, [r3]
  30:	e3003000 	movw	r3, #0
  34:	e5921000 	ldr	r1, [r2]
  38:	e1a02005 	mov	r2, r5
  3c:	e3403000 	movt	r3, #0
  40:	e58d4000 	str	r4, [sp]
  44:	ebfffffe 	bl	0 <Network::RecvFrom(int, void const**, unsigned int*, unsigned short*)>
  48:	e1d430b0 	ldrh	r3, [r4]
  4c:	e3002000 	movw	r2, #0
  50:	e3402000 	movt	r2, #0
  54:	e350000c 	cmp	r0, #12
  58:	e1c200b0 	strh	r0, [r2]
  5c:	e30124e9 	movw	r2, #5353	; 0x14e9
  60:	e0433002 	sub	r3, r3, r2
  64:	e16f3f13 	clz	r3, r3
  68:	e1a032a3 	lsr	r3, r3, #5
  6c:	93a03000 	movls	r3, #0
  70:	e3530000 	cmp	r3, #0
  74:	1a000001 	bne	80 <MDNS::Run()+0x80>
  78:	e28dd008 	add	sp, sp, #8
  7c:	e8bd8070 	pop	{r4, r5, r6, pc}
  80:	e5952000 	ldr	r2, [r5]
  84:	e1d230b2 	ldrh	r3, [r2, #2]
  88:	e6bf3fb3 	rev16	r3, r3
  8c:	e3130902 	tst	r3, #32768	; 0x8000
  90:	e6ff3073 	uxth	r3, r3
  94:	1afffff7 	bne	78 <MDNS::Run()+0x78>
  98:	e1b03723 	lsrs	r3, r3, #14
  9c:	1afffff5 	bne	78 <MDNS::Run()+0x78>
  a0:	e1d230b4 	ldrh	r3, [r2, #4]
  a4:	e6ff2073 	uxth	r2, r3
  a8:	e3520000 	cmp	r2, #0
  ac:	0afffff1 	beq	78 <MDNS::Run()+0x78>
  b0:	e6bf3fb3 	rev16	r3, r3
  b4:	e1a00006 	mov	r0, r6
  b8:	e6ff1073 	uxth	r1, r3
  bc:	e28dd008 	add	sp, sp, #8
  c0:	e8bd4070 	pop	{r4, r5, r6, lr}
  c4:	eafffffe 	b	0 <MDNS::Run()>

Disassembly of section .text._ZN4MDNS5PrintEv:

00000000 <MDNS::Print()>:
   0:	e3000000 	movw	r0, #0
   4:	e3400000 	movt	r0, #0
   8:	e92d41f0 	push	{r4, r5, r6, r7, r8, lr}
   c:	ebfffffe 	bl	0 <printf>
  10:	e3003000 	movw	r3, #0
  14:	e3403000 	movt	r3, #0
  18:	e5933000 	ldr	r3, [r3]
  1c:	e3730001 	cmn	r3, #1
  20:	0a00001a 	beq	90 <MDNS::Print()+0x90>
  24:	e3003000 	movw	r3, #0
  28:	e3004000 	movw	r4, #0
  2c:	e3403000 	movt	r3, #0
  30:	e3000000 	movw	r0, #0
  34:	e3404000 	movt	r4, #0
  38:	e3007000 	movw	r7, #0
  3c:	e5931000 	ldr	r1, [r3]
  40:	e3005000 	movw	r5, #0
  44:	e3400000 	movt	r0, #0
  48:	e2846080 	add	r6, r4, #128	; 0x80
  4c:	e3407000 	movt	r7, #0
  50:	e3405000 	movt	r5, #0
  54:	ebfffffe 	bl	0 <printf>
  58:	e5943000 	ldr	r3, [r4]
  5c:	e1a00005 	mov	r0, r5
  60:	e3530000 	cmp	r3, #0
  64:	0a000005 	beq	80 <MDNS::Print()+0x80>
  68:	e5943008 	ldr	r3, [r4, #8]
  6c:	e1d420bc 	ldrh	r2, [r4, #12]
  70:	e5941004 	ldr	r1, [r4, #4]
  74:	e3530000 	cmp	r3, #0
  78:	01a03007 	moveq	r3, r7
  7c:	ebfffffe 	bl	0 <printf>
  80:	e2844010 	add	r4, r4, #16
  84:	e1540006 	cmp	r4, r6
  88:	1afffff2 	bne	58 <MDNS::Print()+0x58>
  8c:	e8bd81f0 	pop	{r4, r5, r6, r7, r8, pc}
  90:	e3000000 	movw	r0, #0
  94:	e8bd41f0 	pop	{r4, r5, r6, r7, r8, lr}
  98:	e3400000 	movt	r0, #0
  9c:	eafffffe 	b	0 <printf>

ntpclient.o:     file format elf32-littlearm


Disassembly of section .text._ZN9NtpClientC2Ej:

00000000 <NtpClient::NtpClient(unsigned int)>:
   0:	e3003000 	movw	r3, #0
   4:	e3e02000 	mvn	r2, #0
   8:	e3403000 	movt	r3, #0
   c:	e3510000 	cmp	r1, #0
  10:	e92d4010 	push	{r4, lr}
  14:	e1a04000 	mov	r4, r0
  18:	e5830000 	str	r0, [r3]
  1c:	e3a03000 	mov	r3, #0
  20:	e1c020f8 	strd	r2, [r0, #8]
  24:	e5803070 	str	r3, [r0, #112]	; 0x70
  28:	e5803074 	str	r3, [r0, #116]	; 0x74
  2c:	e5803078 	str	r3, [r0, #120]	; 0x78
  30:	e580307c 	str	r3, [r0, #124]	; 0x7c
  34:	e5803080 	str	r3, [r0, #128]	; 0x80
  38:	e5803084 	str	r3, [r0, #132]	; 0x84
  3c:	e5803088 	str	r3, [r0, #136]	; 0x88
  40:	e580308c 	str	r3, [r0, #140]	; 0x8c
  44:	e5803090 	str	r3, [r0, #144]	; 0x90
  48:	e5803094 	str	r3, [r0, #148]	; 0x94
  4c:	e5803098 	str	r3, [r0, #152]	; 0x98
  50:	e580309c 	str	r3, [r0, #156]	; 0x9c
  54:	e58030a0 	str	r3, [r0, #160]	; 0xa0
  58:	e3003000 	movw	r3, #0
  5c:	e3403000 	movt	r3, #0
  60:	e5801000 	str	r1, [r0]
  64:	e5933000 	ldr	r3, [r3]
  68:	05932008 	ldreq	r2, [r3, #8]
  6c:	ed930a03 	vldr	s0, [r3, #12]
  70:	05802000 	streq	r2, [r0]
  74:	ebfffffe 	bl	0 <Utc::Validate(float)>
  78:	e5840004 	str	r0, [r4, #4]
  7c:	e2843010 	add	r3, r4, #16
  80:	e2841040 	add	r1, r4, #64	; 0x40
  84:	e3a02000 	mov	r2, #0
  88:	e4c32001 	strb	r2, [r3], #1
  8c:	e1530001 	cmp	r3, r1
  90:	1afffffc 	bne	88 <NtpClient::NtpClient(unsigned int)+0x88>
  94:	e2841070 	add	r1, r4, #112	; 0x70
  98:	e3a02000 	mov	r2, #0
  9c:	e4c32001 	strb	r2, [r3], #1
  a0:	e1530001 	cmp	r3, r1
  a4:	1afffffc 	bne	9c <NtpClient::NtpClient(unsigned int)+0x9c>
  a8:	e3053641 	movw	r3, #22081	; 0x5641
  ac:	e3a01023 	mov	r1, #35	; 0x23
  b0:	e3403053 	movt	r3, #83	; 0x53
  b4:	e3a0200a 	mov	r2, #10
  b8:	e5c41010 	strb	r1, [r4, #16]
  bc:	e1a00004 	mov	r0, r4
  c0:	e5c42012 	strb	r2, [r4, #18]
  c4:	e584301c 	str	r3, [r4, #28]
  c8:	e8bd8010 	pop	{r4, pc}

Disassembly of section .text._ZN9NtpClient12SetUtcOffsetEf:

00000000 <NtpClient::SetUtcOffset(float)>:
   0:	e92d4010 	push	{r4, lr}
   4:	e1a04000 	mov	r4, r0
   8:	ebfffffe 	bl	0 <Utc::Validate(float)>
   c:	e5840004 	str	r0, [r4, #4]
  10:	e8bd8010 	pop	{r4, pc}

Disassembly of section .text._ZN9NtpClient16GetTimeNtpFormatERjS0_:

00000000 <NtpClient::GetTimeNtpFormat(unsigned int&, unsigned int&)>:
   0:	e92d4070 	push	{r4, r5, r6, lr}
   4:	e1a06000 	mov	r6, r0
   8:	e24dd008 	sub	sp, sp, #8
   c:	e1a05001 	mov	r5, r1
  10:	e1a0000d 	mov	r0, sp
  14:	e3a01000 	mov	r1, #0
  18:	e1a04002 	mov	r4, r2
  1c:	ebfffffe 	bl	0 <gettimeofday>
  20:	e5960004 	ldr	r0, [r6, #4]
  24:	e3003b5f 	movw	r3, #2911	; 0xb5f
  28:	e59d2004 	ldr	r2, [sp, #4]
  2c:	e59d1000 	ldr	r1, [sp]
  30:	e0030293 	mul	r3, r3, r2
  34:	e0411000 	sub	r1, r1, r0
  38:	e30007bd 	movw	r0, #1981	; 0x7bd
  3c:	e0000290 	mul	r0, r0, r2
  40:	e1a03e23 	lsr	r3, r3, #28
  44:	e08335a0 	add	r3, r3, r0, lsr #11
  48:	e3070e80 	movw	r0, #32384	; 0x7e80
  4c:	e34803aa 	movt	r0, #33706	; 0x83aa
  50:	e0810000 	add	r0, r1, r0
  54:	e30110c6 	movw	r1, #4294	; 0x10c6
  58:	e0233291 	mla	r3, r1, r2, r3
  5c:	e5850000 	str	r0, [r5]
  60:	e5843000 	str	r3, [r4]
  64:	e28dd008 	add	sp, sp, #8
  68:	e8bd8070 	pop	{r4, r5, r6, pc}

Disassembly of section .text._ZN9NtpClient4SendEv:

00000000 <NtpClient::Send()>:
   0:	e92d4010 	push	{r4, lr}
   4:	e1a04000 	mov	r4, r0
   8:	e24dd010 	sub	sp, sp, #16
   c:	e3a01000 	mov	r1, #0
  10:	e28d0008 	add	r0, sp, #8
  14:	ebfffffe 	bl	0 <gettimeofday>
  18:	e1cd00d8 	ldrd	r0, [sp, #8]
  1c:	e5942004 	ldr	r2, [r4, #4]
  20:	e3003b5f 	movw	r3, #2911	; 0xb5f
  24:	e0030193 	mul	r3, r3, r1
  28:	e0400002 	sub	r0, r0, r2
  2c:	e3072e80 	movw	r2, #32384	; 0x7e80
  30:	e34823aa 	movt	r2, #33706	; 0x83aa
  34:	e0802002 	add	r2, r0, r2
  38:	e30007bd 	movw	r0, #1981	; 0x7bd
  3c:	e0000190 	mul	r0, r0, r1
  40:	e1a03e23 	lsr	r3, r3, #28
  44:	e08335a0 	add	r3, r3, r0, lsr #11
  48:	e30100c6 	movw	r0, #4294	; 0x10c6
  4c:	e594c000 	ldr	ip, [r4]
  50:	e0233190 	mla	r3, r0, r1, r3
  54:	e58dc000 	str	ip, [sp]
  58:	e3001000 	movw	r1, #0
  5c:	e3401000 	movt	r1, #0
  60:	e1c427f8 	strd	r2, [r4, #120]	; 0x78
  64:	e6bfcf32 	rev	ip, r2
  68:	e3a0207b 	mov	r2, #123	; 0x7b
  6c:	e6bf3f33 	rev	r3, r3
  70:	e5910000 	ldr	r0, [r1]
  74:	e584302c 	str	r3, [r4, #44]	; 0x2c
  78:	e3a03030 	mov	r3, #48	; 0x30
  7c:	e584c028 	str	ip, [r4, #40]	; 0x28
  80:	e58d2004 	str	r2, [sp, #4]
  84:	e2842010 	add	r2, r4, #16
  88:	e5941008 	ldr	r1, [r4, #8]
  8c:	ebfffffe 	bl	0 <Network::SendTo(int, void const*, unsigned short, unsigned int, unsigned short)>
  90:	e28dd010 	add	sp, sp, #16
  94:	e8bd8010 	pop	{r4, pc}

Disassembly of section .text._ZN9NtpClient7ReceiveEv:

00000000 <NtpClient::Receive()>:
   0:	e3003000 	movw	r3, #0
   4:	e3403000 	movt	r3, #0
   8:	e92d4010 	push	{r4, lr}
   c:	e1a04000 	mov	r4, r0
  10:	e5930000 	ldr	r0, [r3]
  14:	e24dd018 	sub	sp, sp, #24
  18:	e5941008 	ldr	r1, [r4, #8]
  1c:	e28d300a 	add	r3, sp, #10
  20:	e58d3004 	str	r3, [sp, #4]
  24:	e28d200c 	add	r2, sp, #12
  28:	e58d2000 	str	r2, [sp]
  2c:	e3a03030 	mov	r3, #48	; 0x30
  30:	e2842040 	add	r2, r4, #64	; 0x40
  34:	ebfffffe 	bl	0 <Network::RecvFrom(int, void*, unsigned short, unsigned int*, unsigned short*)>
  38:	e3500030 	cmp	r0, #48	; 0x30
  3c:	0a000002 	beq	4c <NtpClient::Receive()+0x4c>
  40:	e3a00000 	mov	r0, #0
  44:	e28dd018 	add	sp, sp, #24
  48:	e8bd8010 	pop	{r4, pc}
  4c:	e3a01000 	mov	r1, #0
  50:	e28d0010 	add	r0, sp, #16
  54:	ebfffffe 	bl	0 <gettimeofday>
  58:	e1cd01d0 	ldrd	r0, [sp, #16]
  5c:	e5942004 	ldr	r2, [r4, #4]
  60:	e3003b5f 	movw	r3, #2911	; 0xb5f
  64:	e0030193 	mul	r3, r3, r1
  68:	e0400002 	sub	r0, r0, r2
  6c:	e3072e80 	movw	r2, #32384	; 0x7e80
  70:	e34823aa 	movt	r2, #33706	; 0x83aa
  74:	e0802002 	add	r2, r0, r2
  78:	e5842090 	str	r2, [r4, #144]	; 0x90
  7c:	e30027bd 	movw	r2, #1981	; 0x7bd
  80:	e0020192 	mul	r2, r2, r1
  84:	e1a03e23 	lsr	r3, r3, #28
  88:	e08335a2 	add	r3, r3, r2, lsr #11
  8c:	e30120c6 	movw	r2, #4294	; 0x10c6
  90:	e0233192 	mla	r3, r2, r1, r3
  94:	e594c000 	ldr	ip, [r4]
  98:	e59d200c 	ldr	r2, [sp, #12]
  9c:	e5843094 	str	r3, [r4, #148]	; 0x94
  a0:	e15c0002 	cmp	ip, r2
  a4:	1affffe5 	bne	40 <NtpClient::Receive()+0x40>
  a8:	e1c406d0 	ldrd	r0, [r4, #96]	; 0x60
  ac:	e1c426d8 	ldrd	r2, [r4, #104]	; 0x68
  b0:	e6bf0f30 	rev	r0, r0
  b4:	e6bf1f31 	rev	r1, r1
  b8:	e6bf2f32 	rev	r2, r2
  bc:	e6bf3f33 	rev	r3, r3
  c0:	e1c408f0 	strd	r0, [r4, #128]	; 0x80
  c4:	e5842088 	str	r2, [r4, #136]	; 0x88
  c8:	e3a00001 	mov	r0, #1
  cc:	e584308c 	str	r3, [r4, #140]	; 0x8c
  d0:	eaffffdb 	b	44 <NtpClient::Receive()+0x44>

Disassembly of section .text._ZN9NtpClient10DifferenceEPKNS_9TimeStampES2_RiRj:

00000000 <NtpClient::Difference(NtpClient::TimeStamp const*, NtpClient::TimeStamp const*, int&, unsigned int&)>:
   0:	e5920000 	ldr	r0, [r2]
   4:	e52de004 	push	{lr}		; (str lr, [sp, #-4]!)
   8:	e591e000 	ldr	lr, [r1]
   c:	e59dc004 	ldr	ip, [sp, #4]
  10:	e040000e 	sub	r0, r0, lr
  14:	e5830000 	str	r0, [r3]
  18:	e592e004 	ldr	lr, [r2, #4]
  1c:	e5912004 	ldr	r2, [r1, #4]
  20:	e30012f7 	movw	r1, #759	; 0x2f7
  24:	e15e0002 	cmp	lr, r2
  28:	3042200e 	subcc	r2, r2, lr
  2c:	32400001 	subcc	r0, r0, #1
  30:	204e2002 	subcs	r2, lr, r2
  34:	31e02002 	mvncc	r2, r2
  38:	35830000 	strcc	r0, [r3]
  3c:	e1a03522 	lsr	r3, r2, #10
  40:	e2833902 	add	r3, r3, #32768	; 0x8000
  44:	e1a03823 	lsr	r3, r3, #16
  48:	e0030391 	mul	r3, r1, r3
  4c:	e0633622 	rsb	r3, r3, r2, lsr #12
  50:	e58c3000 	str	r3, [ip]
  54:	e49df004 	pop	{pc}		; (ldr pc, [sp], #4)

Disassembly of section .text._ZN9NtpClient12SetTimeOfDayEv:

00000000 <NtpClient::SetTimeOfDay()>:
   0:	e5902084 	ldr	r2, [r0, #132]	; 0x84
   4:	e2801078 	add	r1, r0, #120	; 0x78
   8:	e92d4030 	push	{r4, r5, lr}
   c:	e24dd00c 	sub	sp, sp, #12
  10:	e891100a 	ldm	r1, {r1, r3, ip}
  14:	e590e090 	ldr	lr, [r0, #144]	; 0x90
  18:	e1520003 	cmp	r2, r3
  1c:	30433002 	subcc	r3, r3, r2
  20:	20423003 	subcs	r3, r2, r3
  24:	31e03003 	mvncc	r3, r3
  28:	e04c1001 	sub	r1, ip, r1
  2c:	e300c2f7 	movw	ip, #759	; 0x2f7
  30:	e1a04523 	lsr	r4, r3, #10
  34:	32411001 	subcc	r1, r1, #1
  38:	e590208c 	ldr	r2, [r0, #140]	; 0x8c
  3c:	e2844902 	add	r4, r4, #32768	; 0x8000
  40:	e1a03623 	lsr	r3, r3, #12
  44:	e1a04824 	lsr	r4, r4, #16
  48:	e004049c 	mul	r4, ip, r4
  4c:	e590c094 	ldr	ip, [r0, #148]	; 0x94
  50:	e0433004 	sub	r3, r3, r4
  54:	e30042f7 	movw	r4, #759	; 0x2f7
  58:	e152000c 	cmp	r2, ip
  5c:	304c2002 	subcc	r2, ip, r2
  60:	2042200c 	subcs	r2, r2, ip
  64:	31e02002 	mvncc	r2, r2
  68:	e5905088 	ldr	r5, [r0, #136]	; 0x88
  6c:	e0833622 	add	r3, r3, r2, lsr #12
  70:	e1a02522 	lsr	r2, r2, #10
  74:	e045500e 	sub	r5, r5, lr
  78:	e2822902 	add	r2, r2, #32768	; 0x8000
  7c:	32455001 	subcc	r5, r5, #1
  80:	e1a02822 	lsr	r2, r2, #16
  84:	e0633294 	mls	r3, r4, r2, r3
  88:	e0811005 	add	r1, r1, r5
  8c:	e3042240 	movw	r2, #16960	; 0x4240
  90:	e340200f 	movt	r2, #15
  94:	e1530002 	cmp	r3, r2
  98:	e5801098 	str	r1, [r0, #152]	; 0x98
  9c:	22811001 	addcs	r1, r1, #1
  a0:	e5902004 	ldr	r2, [r0, #4]
  a4:	2243393d 	subcs	r3, r3, #999424	; 0xf4000
  a8:	e0811fa1 	add	r1, r1, r1, lsr #31
  ac:	22433d09 	subcs	r3, r3, #576	; 0x240
  b0:	e08ee002 	add	lr, lr, r2
  b4:	e1a030a3 	lsr	r3, r3, #1
  b8:	e1a010c1 	asr	r1, r1, #1
  bc:	e580309c 	str	r3, [r0, #156]	; 0x9c
  c0:	e5801098 	str	r1, [r0, #152]	; 0x98
  c4:	e3080180 	movw	r0, #33152	; 0x8180
  c8:	e1a0252c 	lsr	r2, ip, #10
  cc:	e08e1001 	add	r1, lr, r1
  d0:	e2822902 	add	r2, r2, #32768	; 0x8000
  d4:	e3470c55 	movt	r0, #31829	; 0x7c55
  d8:	e0810000 	add	r0, r1, r0
  dc:	e1a02822 	lsr	r2, r2, #16
  e0:	e58d0000 	str	r0, [sp]
  e4:	e30002f7 	movw	r0, #759	; 0x2f7
  e8:	e0020290 	mul	r2, r0, r2
  ec:	e3040240 	movw	r0, #16960	; 0x4240
  f0:	e062262c 	rsb	r2, r2, ip, lsr #12
  f4:	e0823003 	add	r3, r2, r3
  f8:	e340000f 	movt	r0, #15
  fc:	e1530000 	cmp	r3, r0
 100:	e58d3004 	str	r3, [sp, #4]
 104:	ba000005 	blt	120 <NtpClient::SetTimeOfDay()+0x120>
 108:	e0403003 	sub	r3, r0, r3
 10c:	e3082181 	movw	r2, #33153	; 0x8181
 110:	e3472c55 	movt	r2, #31829	; 0x7c55
 114:	e0812002 	add	r2, r1, r2
 118:	e58d3004 	str	r3, [sp, #4]
 11c:	e58d2000 	str	r2, [sp]
 120:	e3a01000 	mov	r1, #0
 124:	e1a0000d 	mov	r0, sp
 128:	ebfffffe 	bl	0 <settimeofday>
 12c:	e28dd00c 	add	sp, sp, #12
 130:	e8bd8030 	pop	{r4, r5, pc}

Disassembly of section .text._ZN9NtpClient5StartEv:

00000000 <NtpClient::Start()>:
   0:	e5903000 	ldr	r3, [r0]
   4:	e92d41f0 	push	{r4, r5, r6, r7, r8, lr}
   8:	e3530000 	cmp	r3, #0
   c:	e1a04000 	mov	r4, r0
  10:	0a000028 	beq	b8 <NtpClient::Start()+0xb8>
  14:	e590100c 	ldr	r1, [r0, #12]
  18:	e3d15002 	bics	r5, r1, #2
  1c:	18bd81f0 	popne	{r4, r5, r6, r7, r8, pc}
  20:	e3003000 	movw	r3, #0
  24:	e3a0107b 	mov	r1, #123	; 0x7b
  28:	e3403000 	movt	r3, #0
  2c:	e5930000 	ldr	r0, [r3]
  30:	ebfffffe 	bl	0 <Network::Begin(unsigned short)>
  34:	e59430a0 	ldr	r3, [r4, #160]	; 0xa0
  38:	e5840008 	str	r0, [r4, #8]
  3c:	e3530000 	cmp	r3, #0
  40:	0a000004 	beq	58 <NtpClient::Start()+0x58>
  44:	e5932000 	ldr	r2, [r3]
  48:	e1a01005 	mov	r1, r5
  4c:	e1a00003 	mov	r0, r3
  50:	e5922008 	ldr	r2, [r2, #8]
  54:	e12fff32 	blx	r2
  58:	e3a05b03 	mov	r5, #3072	; 0xc00
  5c:	e1a00004 	mov	r0, r4
  60:	e34051c2 	movt	r5, #450	; 0x1c2
  64:	e3007bb8 	movw	r7, #3000	; 0xbb8
  68:	e5956084 	ldr	r6, [r5, #132]	; 0x84
  6c:	ebfffffe 	bl	0 <NtpClient::Start()>
  70:	ea000004 	b	88 <NtpClient::Start()+0x88>
  74:	ebfffffe 	bl	0 <net_handle>
  78:	e5953084 	ldr	r3, [r5, #132]	; 0x84
  7c:	e0433006 	sub	r3, r3, r6
  80:	e1530007 	cmp	r3, r7
  84:	8a000003 	bhi	98 <NtpClient::Start()+0x98>
  88:	e1a00004 	mov	r0, r4
  8c:	ebfffffe 	bl	0 <NtpClient::Start()>
  90:	e3500000 	cmp	r0, #0
  94:	0afffff6 	beq	74 <NtpClient::Start()+0x74>
  98:	e5d43040 	ldrb	r3, [r4, #64]	; 0x40
  9c:	e3130004 	tst	r3, #4
  a0:	1a000007 	bne	c4 <NtpClient::Start()+0xc4>
  a4:	e3a03b03 	mov	r3, #3072	; 0xc00
  a8:	e34031c2 	movt	r3, #450	; 0x1c2
  ac:	e5933084 	ldr	r3, [r3, #132]	; 0x84
  b0:	e5843074 	str	r3, [r4, #116]	; 0x74
  b4:	e8bd81f0 	pop	{r4, r5, r6, r7, r8, pc}
  b8:	e3a03001 	mov	r3, #1
  bc:	e580300c 	str	r3, [r0, #12]
  c0:	e8bd81f0 	pop	{r4, r5, r6, r7, r8, pc}
  c4:	e1a00004 	mov	r0, r4
  c8:	ebfffffe 	bl	0 <NtpClient::Start()>
  cc:	e3500000 	cmp	r0, #0
  d0:	0584000c 	streq	r0, [r4, #12]
  d4:	eafffff2 	b	a4 <NtpClient::Start()+0xa4>

Disassembly of section .text._ZN9NtpClient4StopEv:

00000000 <NtpClient::Stop()>:
   0:	e590300c 	ldr	r3, [r0, #12]
   4:	e3530002 	cmp	r3, #2
   8:	012fff1e 	bxeq	lr
   c:	e3003000 	movw	r3, #0
  10:	e3a0107b 	mov	r1, #123	; 0x7b
  14:	e3403000 	movt	r3, #0
  18:	e92d4010 	push	{r4, lr}
  1c:	e1a04000 	mov	r4, r0
  20:	e5930000 	ldr	r0, [r3]
  24:	ebfffffe 	bl	0 <Network::End(unsigned short)>
  28:	e59430a0 	ldr	r3, [r4, #160]	; 0xa0
  2c:	e3a01002 	mov	r1, #2
  30:	e1c400f8 	strd	r0, [r4, #8]
  34:	e3530000 	cmp	r3, #0
  38:	08bd8010 	popeq	{r4, pc}
  3c:	e5932000 	ldr	r2, [r3]
  40:	e1a00003 	mov	r0, r3
  44:	e8bd4010 	pop	{r4, lr}
  48:	e5922008 	ldr	r2, [r2, #8]
  4c:	e12fff12 	bx	r2

Disassembly of section .text._ZN9NtpClient3RunEv:

00000000 <NtpClient::Run()>:
   0:	e5903000 	ldr	r3, [r0]
   4:	e3530000 	cmp	r3, #0
   8:	012fff1e 	bxeq	lr
   c:	e590300c 	ldr	r3, [r0, #12]
  10:	e92d4070 	push	{r4, r5, r6, lr}
  14:	e3530001 	cmp	r3, #1
  18:	e1a04000 	mov	r4, r0
  1c:	9a000010 	bls	64 <NtpClient::Run()+0x64>
  20:	e3530003 	cmp	r3, #3
  24:	18bd8070 	popne	{r4, r5, r6, pc}
  28:	ebfffffe 	bl	0 <NtpClient::Run()>
  2c:	e3500000 	cmp	r0, #0
  30:	0a000018 	beq	98 <NtpClient::Run()+0x98>
  34:	e5d43040 	ldrb	r3, [r4, #64]	; 0x40
  38:	e3130004 	tst	r3, #4
  3c:	0a000005 	beq	58 <NtpClient::Run()+0x58>
  40:	e3a03b03 	mov	r3, #3072	; 0xc00
  44:	e1a00004 	mov	r0, r4
  48:	e34031c2 	movt	r3, #450	; 0x1c2
  4c:	e5933084 	ldr	r3, [r3, #132]	; 0x84
  50:	e5843074 	str	r3, [r4, #116]	; 0x74
  54:	ebfffffe 	bl	0 <NtpClient::Run()>
  58:	e3a03000 	mov	r3, #0
  5c:	e584300c 	str	r3, [r4, #12]
  60:	e8bd8070 	pop	{r4, r5, r6, pc}
  64:	e5902074 	ldr	r2, [r0, #116]	; 0x74
  68:	e3a05b03 	mov	r5, #3072	; 0xc00
  6c:	e34051c2 	movt	r5, #450	; 0x1c2
  70:	e5953084 	ldr	r3, [r5, #132]	; 0x84
  74:	e0433002 	sub	r3, r3, r2
  78:	e3530afa 	cmp	r3, #1024000	; 0xfa000
  7c:	98bd8070 	popls	{r4, r5, r6, pc}
  80:	ebfffffe 	bl	0 <NtpClient::Run()>
  84:	e5953084 	ldr	r3, [r5, #132]	; 0x84
  88:	e5843070 	str	r3, [r4, #112]	; 0x70
  8c:	e3a03003 	mov	r3, #3
  90:	e584300c 	str	r3, [r4, #12]
  94:	e8bd8070 	pop	{r4, r5, r6, pc}
  98:	e5940070 	ldr	r0, [r4, #112]	; 0x70
  9c:	e3a02b03 	mov	r2, #3072	; 0xc00
  a0:	e34021c2 	movt	r2, #450	; 0x1c2
  a4:	e3001bb8 	movw	r1, #3000	; 0xbb8
  a8:	e5923084 	ldr	r3, [r2, #132]	; 0x84
  ac:	e0433000 	sub	r3, r3, r0
  b0:	e1530001 	cmp	r3, r1
  b4:	98bd8070 	popls	{r4, r5, r6, pc}
  b8:	e59400a0 	ldr	r0, [r4, #160]	; 0xa0
  bc:	e3a01001 	mov	r1, #1
  c0:	e584100c 	str	r1, [r4, #12]
  c4:	e3500000 	cmp	r0, #0
  c8:	08bd8070 	popeq	{r4, r5, r6, pc}
  cc:	e5903000 	ldr	r3, [r0]
  d0:	e8bd4070 	pop	{r4, r5, r6, lr}
  d4:	e5933008 	ldr	r3, [r3, #8]
  d8:	e12fff13 	bx	r3

Disassembly of section .text._ZN9NtpClient12PrintNtpTimeEPKcPKNS_9TimeStampE:

00000000 <NtpClient::PrintNtpTime(char const*, NtpClient::TimeStamp const*)>:
   0:	e12fff1e 	bx	lr

Disassembly of section .text._ZN9NtpClient5PrintEv:

00000000 <NtpClient::Print()>:
   0:	e92d4010 	push	{r4, lr}
   4:	e1a04000 	mov	r4, r0
   8:	e3000000 	movw	r0, #0
   c:	e3a01004 	mov	r1, #4
  10:	e3400000 	movt	r0, #0
  14:	e24dd008 	sub	sp, sp, #8
  18:	ebfffffe 	bl	0 <printf>
  1c:	e5941000 	ldr	r1, [r4]
  20:	e3510000 	cmp	r1, #0
  24:	0a000013 	beq	78 <NtpClient::Print()+0x78>
  28:	e7e73851 	ubfx	r3, r1, #16, #8
  2c:	e3a0007b 	mov	r0, #123	; 0x7b
  30:	e1a02c21 	lsr	r2, r1, #24
  34:	e58d0004 	str	r0, [sp, #4]
  38:	e3000000 	movw	r0, #0
  3c:	e58d2000 	str	r2, [sp]
  40:	e3400000 	movt	r0, #0
  44:	e7e72451 	ubfx	r2, r1, #8, #8
  48:	e6ef1071 	uxtb	r1, r1
  4c:	ebfffffe 	bl	0 <printf>
  50:	e594100c 	ldr	r1, [r4, #12]
  54:	e3000000 	movw	r0, #0
  58:	e3400000 	movt	r0, #0
  5c:	ebfffffe 	bl	0 <printf>
  60:	e5941004 	ldr	r1, [r4, #4]
  64:	e3000000 	movw	r0, #0
  68:	e3400000 	movt	r0, #0
  6c:	e28dd008 	add	sp, sp, #8
  70:	e8bd4010 	pop	{r4, lr}
  74:	eafffffe 	b	0 <printf>
  78:	e3000000 	movw	r0, #0
  7c:	e3400000 	movt	r0, #0
  80:	e28dd008 	add	sp, sp, #8
  84:	e8bd4010 	pop	{r4, lr}
  88:	eafffffe 	b	0 <printf>

tftpdaemon.o:     file format elf32-littlearm


Disassembly of section .text._ZN10TFTPDaemonC2Ev:

00000000 <TFTPDaemon::TFTPDaemon()>:
   0:	e92d4070 	push	{r4, r5, r6, lr}
   4:	e3e01000 	mvn	r1, #0
   8:	e59f3120 	ldr	r3, [pc, #288]	; 130 <TFTPDaemon::TFTPDaemon()+0x130>
   c:	e3005000 	movw	r5, #0
  10:	e5801008 	str	r1, [r0, #8]
  14:	e2801e22 	add	r1, r0, #544	; 0x220
  18:	e3405000 	movt	r5, #0
  1c:	e1a04000 	mov	r4, r0
  20:	e5803000 	str	r3, [r0]
  24:	e3a03000 	mov	r3, #0
  28:	e5803004 	str	r3, [r0, #4]
  2c:	e580321c 	str	r3, [r0, #540]	; 0x21c
  30:	e5952000 	ldr	r2, [r5]
  34:	e1c130b0 	strh	r3, [r1]
  38:	e2801f8a 	add	r1, r0, #552	; 0x228
  3c:	e5803224 	str	r3, [r0, #548]	; 0x224
  40:	e3520000 	cmp	r2, #0
  44:	e1c130b0 	strh	r3, [r1]
  48:	e2801e23 	add	r1, r0, #560	; 0x230
  4c:	e580322c 	str	r3, [r0, #556]	; 0x22c
  50:	e1c130b0 	strh	r3, [r1]
  54:	e5c03232 	strb	r3, [r0, #562]	; 0x232
  58:	0a000003 	beq	6c <TFTPDaemon::TFTPDaemon()+0x6c>
  5c:	e5923000 	ldr	r3, [r2]
  60:	e1a00002 	mov	r0, r2
  64:	e593301c 	ldr	r3, [r3, #28]
  68:	e12fff33 	blx	r3
  6c:	e5854000 	str	r4, [r5]
  70:	e284102c 	add	r1, r4, #44	; 0x2c
  74:	e300020f 	movw	r0, #527	; 0x20f
  78:	e3a02000 	mov	r2, #0
  7c:	f5d1f002 	pld	[r1, #2]
  80:	e2400020 	sub	r0, r0, #32
  84:	e5412020 	strb	r2, [r1, #-32]	; 0xffffffe0
  88:	e350000f 	cmp	r0, #15
  8c:	e541201f 	strb	r2, [r1, #-31]	; 0xffffffe1
  90:	e1a03001 	mov	r3, r1
  94:	e541201e 	strb	r2, [r1, #-30]	; 0xffffffe2
  98:	e2811020 	add	r1, r1, #32
  9c:	e541203d 	strb	r2, [r1, #-61]	; 0xffffffc3
  a0:	e541203c 	strb	r2, [r1, #-60]	; 0xffffffc4
  a4:	e541203b 	strb	r2, [r1, #-59]	; 0xffffffc5
  a8:	e541203a 	strb	r2, [r1, #-58]	; 0xffffffc6
  ac:	e5412039 	strb	r2, [r1, #-57]	; 0xffffffc7
  b0:	e5412038 	strb	r2, [r1, #-56]	; 0xffffffc8
  b4:	e5412037 	strb	r2, [r1, #-55]	; 0xffffffc9
  b8:	e5412036 	strb	r2, [r1, #-54]	; 0xffffffca
  bc:	e5412035 	strb	r2, [r1, #-53]	; 0xffffffcb
  c0:	e5412034 	strb	r2, [r1, #-52]	; 0xffffffcc
  c4:	e5412033 	strb	r2, [r1, #-51]	; 0xffffffcd
  c8:	e5412032 	strb	r2, [r1, #-50]	; 0xffffffce
  cc:	e5412031 	strb	r2, [r1, #-49]	; 0xffffffcf
  d0:	e5412030 	strb	r2, [r1, #-48]	; 0xffffffd0
  d4:	e541202f 	strb	r2, [r1, #-47]	; 0xffffffd1
  d8:	e541202e 	strb	r2, [r1, #-46]	; 0xffffffd2
  dc:	e541202d 	strb	r2, [r1, #-45]	; 0xffffffd3
  e0:	e541202c 	strb	r2, [r1, #-44]	; 0xffffffd4
  e4:	e541202b 	strb	r2, [r1, #-43]	; 0xffffffd5
  e8:	e541202a 	strb	r2, [r1, #-42]	; 0xffffffd6
  ec:	e5412029 	strb	r2, [r1, #-41]	; 0xffffffd7
  f0:	e5412028 	strb	r2, [r1, #-40]	; 0xffffffd8
  f4:	e5412027 	strb	r2, [r1, #-39]	; 0xffffffd9
  f8:	e5412026 	strb	r2, [r1, #-38]	; 0xffffffda
  fc:	e5412025 	strb	r2, [r1, #-37]	; 0xffffffdb
 100:	e5412024 	strb	r2, [r1, #-36]	; 0xffffffdc
 104:	e5412023 	strb	r2, [r1, #-35]	; 0xffffffdd
 108:	e5412022 	strb	r2, [r1, #-34]	; 0xffffffde
 10c:	e5412021 	strb	r2, [r1, #-33]	; 0xffffffdf
 110:	1affffd9 	bne	7c <TFTPDaemon::TFTPDaemon()+0x7c>
 114:	e2831010 	add	r1, r3, #16
 118:	e3a02000 	mov	r2, #0
 11c:	e4c32001 	strb	r2, [r3], #1
 120:	e1530001 	cmp	r3, r1
 124:	1afffffc 	bne	11c <TFTPDaemon::TFTPDaemon()+0x11c>
 128:	e1a00004 	mov	r0, r4
 12c:	e8bd8070 	pop	{r4, r5, r6, pc}
 130:	00000008 	.word	0x00000008

Disassembly of section .text._ZN10TFTPDaemonD2Ev:

00000000 <TFTPDaemon::~TFTPDaemon()>:
   0:	e59f2034 	ldr	r2, [pc, #52]	; 3c <TFTPDaemon::~TFTPDaemon()+0x3c>
   4:	e3003000 	movw	r3, #0
   8:	e3403000 	movt	r3, #0
   c:	e3a01045 	mov	r1, #69	; 0x45
  10:	e92d4010 	push	{r4, lr}
  14:	e1a04000 	mov	r4, r0
  18:	e5802000 	str	r2, [r0]
  1c:	e5930000 	ldr	r0, [r3]
  20:	ebfffffe 	bl	0 <Network::End(unsigned short)>
  24:	e3003000 	movw	r3, #0
  28:	e3a02000 	mov	r2, #0
  2c:	e3403000 	movt	r3, #0
  30:	e1a00004 	mov	r0, r4
  34:	e5832000 	str	r2, [r3]
  38:	e8bd8010 	pop	{r4, pc}
  3c:	00000008 	.word	0x00000008

Disassembly of section .text._ZN10TFTPDaemonD0Ev:

00000000 <TFTPDaemon::~TFTPDaemon()>:
   0:	e59f203c 	ldr	r2, [pc, #60]	; 44 <TFTPDaemon::~TFTPDaemon()+0x44>
   4:	e3003000 	movw	r3, #0
   8:	e3403000 	movt	r3, #0
   c:	e3a01045 	mov	r1, #69	; 0x45
  10:	e92d4010 	push	{r4, lr}
  14:	e1a04000 	mov	r4, r0
  18:	e5802000 	str	r2, [r0]
  1c:	e5930000 	ldr	r0, [r3]
  20:	ebfffffe 	bl	0 <Network::End(unsigned short)>
  24:	e3003000 	movw	r3, #0
  28:	e3a02000 	mov	r2, #0
  2c:	e3403000 	movt	r3, #0
  30:	e1a00004 	mov	r0, r4
  34:	e5832000 	str	r2, [r3]
  38:	ebfffffe 	bl	0 <operator delete(void*)>
  3c:	e1a00004 	mov	r0, r4
  40:	e8bd8010 	pop	{r4, pc}
  44:	00000008 	.word	0x00000008

Disassembly of section .text._ZN10TFTPDaemon9SendErrorEtPKc:

00000000 <TFTPDaemon::SendError(unsigned short, char const*)>:
   0:	e52de004 	push	{lr}		; (str lr, [sp, #-4]!)
   4:	e24dd094 	sub	sp, sp, #148	; 0x94
   8:	e6bf1fb1 	rev16	r1, r1
   c:	e28d3010 	add	r3, sp, #16
  10:	e1cd10be 	strh	r1, [sp, #14]
  14:	e282c07e 	add	ip, r2, #126	; 0x7e
  18:	e2421001 	sub	r1, r2, #1
  1c:	e3a02c05 	mov	r2, #1280	; 0x500
  20:	e1cd20bc 	strh	r2, [sp, #12]
  24:	e04ce001 	sub	lr, ip, r1
  28:	e5f12001 	ldrb	r2, [r1, #1]!
  2c:	e3520000 	cmp	r2, #0
  30:	0a000010 	beq	78 <TFTPDaemon::SendError(unsigned short, char const*)+0x78>
  34:	e151000c 	cmp	r1, ip
  38:	e4c32001 	strb	r2, [r3], #1
  3c:	1afffff8 	bne	24 <TFTPDaemon::SendError(unsigned short, char const*)+0x24>
  40:	e590321c 	ldr	r3, [r0, #540]	; 0x21c
  44:	e280ce22 	add	ip, r0, #544	; 0x220
  48:	e5901008 	ldr	r1, [r0, #8]
  4c:	e3002000 	movw	r2, #0
  50:	e1dcc0b0 	ldrh	ip, [ip]
  54:	e3402000 	movt	r2, #0
  58:	e58d3000 	str	r3, [sp]
  5c:	e3a03084 	mov	r3, #132	; 0x84
  60:	e5920000 	ldr	r0, [r2]
  64:	e28d200c 	add	r2, sp, #12
  68:	e58dc004 	str	ip, [sp, #4]
  6c:	ebfffffe 	bl	0 <Network::SendTo(int, void const*, unsigned short, unsigned int, unsigned short)>
  70:	e28dd094 	add	sp, sp, #148	; 0x94
  74:	e49df004 	pop	{pc}		; (ldr pc, [sp], #4)
  78:	e35e0000 	cmp	lr, #0
  7c:	0affffef 	beq	40 <TFTPDaemon::SendError(unsigned short, char const*)+0x40>
  80:	e083e00e 	add	lr, r3, lr
  84:	e4c32001 	strb	r2, [r3], #1
  88:	e15e0003 	cmp	lr, r3
  8c:	1afffffc 	bne	84 <TFTPDaemon::SendError(unsigned short, char const*)+0x84>
  90:	eaffffea 	b	40 <TFTPDaemon::SendError(unsigned short, char const*)+0x40>

Disassembly of section .text._ZN10TFTPDaemon14HandleRecvDataEv.part.0:

00000000 <TFTPDaemon::HandleRecvData() [clone .part.0]>:
   0:	e1a01000 	mov	r1, r0
   4:	e92d40f0 	push	{r4, r5, r6, r7, lr}
   8:	e2806f8a 	add	r6, r0, #552	; 0x228
   c:	e5905224 	ldr	r5, [r0, #548]	; 0x224
  10:	e24dd00c 	sub	sp, sp, #12
  14:	e1d030be 	ldrh	r3, [r0, #14]
  18:	e1a04000 	mov	r4, r0
  1c:	e4912010 	ldr	r2, [r1], #16
  20:	e2455004 	sub	r5, r5, #4
  24:	e6bf3fb3 	rev16	r3, r3
  28:	e5927018 	ldr	r7, [r2, #24]
  2c:	e1a02005 	mov	r2, r5
  30:	e580522c 	str	r5, [r0, #556]	; 0x22c
  34:	e1c630b0 	strh	r3, [r6]
  38:	e6ff3073 	uxth	r3, r3
  3c:	e12fff37 	blx	r7
  40:	e1550000 	cmp	r5, r0
  44:	1a000022 	bne	d4 <TFTPDaemon::HandleRecvData() [clone .part.0]+0xd4>
  48:	e594322c 	ldr	r3, [r4, #556]	; 0x22c
  4c:	e3530c02 	cmp	r3, #512	; 0x200
  50:	3a000018 	bcc	b8 <TFTPDaemon::HandleRecvData() [clone .part.0]+0xb8>
  54:	e594c21c 	ldr	ip, [r4, #540]	; 0x21c
  58:	e3a03004 	mov	r3, #4
  5c:	e5c4300d 	strb	r3, [r4, #13]
  60:	e3a02000 	mov	r2, #0
  64:	e5c4200c 	strb	r2, [r4, #12]
  68:	e2841e22 	add	r1, r4, #544	; 0x220
  6c:	e1d620b0 	ldrh	r2, [r6]
  70:	e5d40232 	ldrb	r0, [r4, #562]	; 0x232
  74:	e6bf2fb2 	rev16	r2, r2
  78:	e58dc000 	str	ip, [sp]
  7c:	e3500000 	cmp	r0, #0
  80:	e1c420be 	strh	r2, [r4, #14]
  84:	13a0c000 	movne	ip, #0
  88:	e1d120b0 	ldrh	r2, [r1]
  8c:	03a0c005 	moveq	ip, #5
  90:	e58d2004 	str	r2, [sp, #4]
  94:	e3002000 	movw	r2, #0
  98:	e3402000 	movt	r2, #0
  9c:	e5941008 	ldr	r1, [r4, #8]
  a0:	e5920000 	ldr	r0, [r2]
  a4:	e284200c 	add	r2, r4, #12
  a8:	e584c004 	str	ip, [r4, #4]
  ac:	ebfffffe 	bl	0 <Network::SendTo(int, void const*, unsigned short, unsigned int, unsigned short)>
  b0:	e28dd00c 	add	sp, sp, #12
  b4:	e8bd80f0 	pop	{r4, r5, r6, r7, pc}
  b8:	e5943000 	ldr	r3, [r4]
  bc:	e3a02001 	mov	r2, #1
  c0:	e5c42232 	strb	r2, [r4, #562]	; 0x232
  c4:	e1a00004 	mov	r0, r4
  c8:	e5933010 	ldr	r3, [r3, #16]
  cc:	e12fff33 	blx	r3
  d0:	eaffffdf 	b	54 <TFTPDaemon::HandleRecvData() [clone .part.0]+0x54>
  d4:	e3002000 	movw	r2, #0
  d8:	e3a01003 	mov	r1, #3
  dc:	e3402000 	movt	r2, #0
  e0:	e1a00004 	mov	r0, r4
  e4:	ebfffffe 	bl	0 <TFTPDaemon::HandleRecvData() [clone .part.0]>
  e8:	e3a03000 	mov	r3, #0
  ec:	e5843004 	str	r3, [r4, #4]
  f0:	e28dd00c 	add	sp, sp, #12
  f4:	e8bd80f0 	pop	{r4, r5, r6, r7, pc}

Disassembly of section .text._ZN10TFTPDaemon6DoReadEv:

00000000 <TFTPDaemon::DoRead()>:
   0:	e5903004 	ldr	r3, [r0, #4]
   4:	e92d40f0 	push	{r4, r5, r6, r7, lr}
   8:	e3530002 	cmp	r3, #2
   c:	e24dd00c 	sub	sp, sp, #12
  10:	e1a04000 	mov	r4, r0
  14:	e280500c 	add	r5, r0, #12
  18:	0a000010 	beq	60 <TFTPDaemon::DoRead()+0x60>
  1c:	e2803e23 	add	r3, r0, #560	; 0x230
  20:	e1d330b0 	ldrh	r3, [r3]
  24:	e594c21c 	ldr	ip, [r4, #540]	; 0x21c
  28:	e2840e22 	add	r0, r4, #544	; 0x220
  2c:	e5941008 	ldr	r1, [r4, #8]
  30:	e3002000 	movw	r2, #0
  34:	e58dc000 	str	ip, [sp]
  38:	e3402000 	movt	r2, #0
  3c:	e1d000b0 	ldrh	r0, [r0]
  40:	e58d0004 	str	r0, [sp, #4]
  44:	e5920000 	ldr	r0, [r2]
  48:	e1a02005 	mov	r2, r5
  4c:	ebfffffe 	bl	0 <Network::SendTo(int, void const*, unsigned short, unsigned int, unsigned short)>
  50:	e3a03003 	mov	r3, #3
  54:	e5843004 	str	r3, [r4, #4]
  58:	e28dd00c 	add	sp, sp, #12
  5c:	e8bd80f0 	pop	{r4, r5, r6, r7, pc}
  60:	e1a06000 	mov	r6, r0
  64:	e3a02c02 	mov	r2, #512	; 0x200
  68:	e2801010 	add	r1, r0, #16
  6c:	e4963228 	ldr	r3, [r6], #552	; 0x228
  70:	e5937014 	ldr	r7, [r3, #20]
  74:	e1d630b0 	ldrh	r3, [r6]
  78:	e2833001 	add	r3, r3, #1
  7c:	e6ff3073 	uxth	r3, r3
  80:	e1c630b0 	strh	r3, [r6]
  84:	e12fff37 	blx	r7
  88:	e3a03000 	mov	r3, #0
  8c:	e3500c02 	cmp	r0, #512	; 0x200
  90:	e5c4300c 	strb	r3, [r4, #12]
  94:	e3a03003 	mov	r3, #3
  98:	e5c4300d 	strb	r3, [r4, #13]
  9c:	e2803004 	add	r3, r0, #4
  a0:	e1d620b0 	ldrh	r2, [r6]
  a4:	e2846e23 	add	r6, r4, #560	; 0x230
  a8:	e584022c 	str	r0, [r4, #556]	; 0x22c
  ac:	e6ff3073 	uxth	r3, r3
  b0:	e6bf2fb2 	rev16	r2, r2
  b4:	e1c420be 	strh	r2, [r4, #14]
  b8:	23a02000 	movcs	r2, #0
  bc:	e1c630b0 	strh	r3, [r6]
  c0:	33a02001 	movcc	r2, #1
  c4:	e5c42232 	strb	r2, [r4, #562]	; 0x232
  c8:	e3500c02 	cmp	r0, #512	; 0x200
  cc:	2affffd4 	bcs	24 <TFTPDaemon::DoRead()+0x24>
  d0:	e5943000 	ldr	r3, [r4]
  d4:	e1a00004 	mov	r0, r4
  d8:	e5933010 	ldr	r3, [r3, #16]
  dc:	e12fff33 	blx	r3
  e0:	e1d630b0 	ldrh	r3, [r6]
  e4:	eaffffce 	b	24 <TFTPDaemon::DoRead()+0x24>

Disassembly of section .text._ZN10TFTPDaemon13HandleRequestEv:

00000000 <TFTPDaemon::HandleRequest()>:
   0:	e92d41f0 	push	{r4, r5, r6, r7, r8, lr}
   4:	e1a04000 	mov	r4, r0
   8:	e1d050bc 	ldrh	r5, [r0, #12]
   c:	e24dd008 	sub	sp, sp, #8
  10:	e6bf5fb5 	rev16	r5, r5
  14:	e6ff5075 	uxth	r5, r5
  18:	e2453001 	sub	r3, r5, #1
  1c:	e3530001 	cmp	r3, #1
  20:	8a00002f 	bhi	e4 <TFTPDaemon::HandleRequest()+0xe4>
  24:	e5d0300e 	ldrb	r3, [r0, #14]
  28:	e280100e 	add	r1, r0, #14
  2c:	e3530000 	cmp	r3, #0
  30:	0a000061 	beq	1bc <TFTPDaemon::HandleRequest()+0x1bc>
  34:	e1a03001 	mov	r3, r1
  38:	e5f32001 	ldrb	r2, [r3, #1]!
  3c:	e3520000 	cmp	r2, #0
  40:	1afffffc 	bne	38 <TFTPDaemon::HandleRequest()+0x38>
  44:	e0433001 	sub	r3, r3, r1
  48:	e2432001 	sub	r2, r3, #1
  4c:	e352007f 	cmp	r2, #127	; 0x7f
  50:	8a000059 	bhi	1bc <TFTPDaemon::HandleRequest()+0x1bc>
  54:	e284600c 	add	r6, r4, #12
  58:	e2833003 	add	r3, r3, #3
  5c:	e0863003 	add	r3, r6, r3
  60:	e300c000 	movw	ip, #0
  64:	e340c000 	movt	ip, #0
  68:	e2437001 	sub	r7, r3, #1
  6c:	e2838004 	add	r8, r3, #4
  70:	e1a00007 	mov	r0, r7
  74:	e3a0206f 	mov	r2, #111	; 0x6f
  78:	ea000000 	b	80 <TFTPDaemon::HandleRequest()+0x80>
  7c:	e5fc2001 	ldrb	r2, [ip, #1]!
  80:	e5f0e001 	ldrb	lr, [r0, #1]!
  84:	e15e0002 	cmp	lr, r2
  88:	1a00001c 	bne	100 <TFTPDaemon::HandleRequest()+0x100>
  8c:	e3520000 	cmp	r2, #0
  90:	0a000002 	beq	a0 <TFTPDaemon::HandleRequest()+0xa0>
  94:	e1500008 	cmp	r0, r8
  98:	1afffff7 	bne	7c <TFTPDaemon::HandleRequest()+0x7c>
  9c:	e3a02000 	mov	r2, #0
  a0:	e5943000 	ldr	r3, [r4]
  a4:	e3550002 	cmp	r5, #2
  a8:	0a000025 	beq	144 <TFTPDaemon::HandleRequest()+0x144>
  ac:	e5933008 	ldr	r3, [r3, #8]
  b0:	e1a00004 	mov	r0, r4
  b4:	e12fff33 	blx	r3
  b8:	e3500000 	cmp	r0, #0
  bc:	1a00002e 	bne	17c <TFTPDaemon::HandleRequest()+0x17c>
  c0:	e3002000 	movw	r2, #0
  c4:	e3a01001 	mov	r1, #1
  c8:	e3402000 	movt	r2, #0
  cc:	e1a00004 	mov	r0, r4
  d0:	ebfffffe 	bl	0 <TFTPDaemon::HandleRequest()>
  d4:	e3a03001 	mov	r3, #1
  d8:	e5843004 	str	r3, [r4, #4]
  dc:	e28dd008 	add	sp, sp, #8
  e0:	e8bd81f0 	pop	{r4, r5, r6, r7, r8, pc}
  e4:	e3002000 	movw	r2, #0
  e8:	e3a01004 	mov	r1, #4
  ec:	e3402000 	movt	r2, #0
  f0:	e1a00004 	mov	r0, r4
  f4:	e28dd008 	add	sp, sp, #8
  f8:	e8bd41f0 	pop	{r4, r5, r6, r7, r8, lr}
  fc:	eafffffe 	b	0 <TFTPDaemon::HandleRequest()>
 100:	e3000000 	movw	r0, #0
 104:	e2833007 	add	r3, r3, #7
 108:	e3400000 	movt	r0, #0
 10c:	e3a0206e 	mov	r2, #110	; 0x6e
 110:	ea000000 	b	118 <TFTPDaemon::HandleRequest()+0x118>
 114:	e5f02001 	ldrb	r2, [r0, #1]!
 118:	e5f7c001 	ldrb	ip, [r7, #1]!
 11c:	e152000c 	cmp	r2, ip
 120:	1affffef 	bne	e4 <TFTPDaemon::HandleRequest()+0xe4>
 124:	e3520000 	cmp	r2, #0
 128:	0a000001 	beq	134 <TFTPDaemon::HandleRequest()+0x134>
 12c:	e1530007 	cmp	r3, r7
 130:	1afffff7 	bne	114 <TFTPDaemon::HandleRequest()+0x114>
 134:	e5943000 	ldr	r3, [r4]
 138:	e3550002 	cmp	r5, #2
 13c:	e3a02001 	mov	r2, #1
 140:	1affffd9 	bne	ac <TFTPDaemon::HandleRequest()+0xac>
 144:	e593300c 	ldr	r3, [r3, #12]
 148:	e1a00004 	mov	r0, r4
 14c:	e12fff33 	blx	r3
 150:	e3500000 	cmp	r0, #0
 154:	1a00001f 	bne	1d8 <TFTPDaemon::HandleRequest()+0x1d8>
 158:	e3002000 	movw	r2, #0
 15c:	e1a01005 	mov	r1, r5
 160:	e3402000 	movt	r2, #0
 164:	e1a00004 	mov	r0, r4
 168:	ebfffffe 	bl	0 <TFTPDaemon::HandleRequest()>
 16c:	e3a03001 	mov	r3, #1
 170:	e5843004 	str	r3, [r4, #4]
 174:	e28dd008 	add	sp, sp, #8
 178:	e8bd81f0 	pop	{r4, r5, r6, r7, r8, pc}
 17c:	e3005000 	movw	r5, #0
 180:	e3a01045 	mov	r1, #69	; 0x45
 184:	e3405000 	movt	r5, #0
 188:	e5950000 	ldr	r0, [r5]
 18c:	ebfffffe 	bl	0 <Network::End(unsigned short)>
 190:	e5950000 	ldr	r0, [r5]
 194:	e2843e22 	add	r3, r4, #544	; 0x220
 198:	e1d310b0 	ldrh	r1, [r3]
 19c:	ebfffffe 	bl	0 <Network::Begin(unsigned short)>
 1a0:	e5840008 	str	r0, [r4, #8]
 1a4:	e3a03002 	mov	r3, #2
 1a8:	e5843004 	str	r3, [r4, #4]
 1ac:	e1a00004 	mov	r0, r4
 1b0:	e28dd008 	add	sp, sp, #8
 1b4:	e8bd41f0 	pop	{r4, r5, r6, r7, r8, lr}
 1b8:	eafffffe 	b	0 <TFTPDaemon::HandleRequest()>
 1bc:	e3002000 	movw	r2, #0
 1c0:	e3a01000 	mov	r1, #0
 1c4:	e3402000 	movt	r2, #0
 1c8:	e1a00004 	mov	r0, r4
 1cc:	e28dd008 	add	sp, sp, #8
 1d0:	e8bd41f0 	pop	{r4, r5, r6, r7, r8, lr}
 1d4:	eafffffe 	b	0 <TFTPDaemon::HandleRequest()>
 1d8:	e3005000 	movw	r5, #0
 1dc:	e2847e22 	add	r7, r4, #544	; 0x220
 1e0:	e3405000 	movt	r5, #0
 1e4:	e3a01045 	mov	r1, #69	; 0x45
 1e8:	e5950000 	ldr	r0, [r5]
 1ec:	ebfffffe 	bl	0 <Network::End(unsigned short)>
 1f0:	e1d710b0 	ldrh	r1, [r7]
 1f4:	e5950000 	ldr	r0, [r5]
 1f8:	ebfffffe 	bl	0 <Network::Begin(unsigned short)>
 1fc:	e594c21c 	ldr	ip, [r4, #540]	; 0x21c
 200:	e1a01000 	mov	r1, r0
 204:	e5d43232 	ldrb	r3, [r4, #562]	; 0x232
 208:	e3a0e000 	mov	lr, #0
 20c:	e5950000 	ldr	r0, [r5]
 210:	e1a02006 	mov	r2, r6
 214:	e5841008 	str	r1, [r4, #8]
 218:	e3530000 	cmp	r3, #0
 21c:	e58dc000 	str	ip, [sp]
 220:	e284cf8a 	add	ip, r4, #552	; 0x228
 224:	e5c4e00c 	strb	lr, [r4, #12]
 228:	e3a03004 	mov	r3, #4
 22c:	e5c4300d 	strb	r3, [r4, #13]
 230:	e1dcc0b0 	ldrh	ip, [ip]
 234:	e6bfcfbc 	rev16	ip, ip
 238:	e1c4c0be 	strh	ip, [r4, #14]
 23c:	e1d7c0b0 	ldrh	ip, [r7]
 240:	e58dc004 	str	ip, [sp, #4]
 244:	11a0c00e 	movne	ip, lr
 248:	03a0c005 	moveq	ip, #5
 24c:	e584c004 	str	ip, [r4, #4]
 250:	ebfffffe 	bl	0 <Network::SendTo(int, void const*, unsigned short, unsigned int, unsigned short)>
 254:	eaffffc6 	b	174 <TFTPDaemon::HandleRequest()+0x174>

Disassembly of section .text._ZN10TFTPDaemon3RunEv:

00000000 <TFTPDaemon::Run()>:
   0:	e92d40f0 	push	{r4, r5, r6, r7, lr}
   4:	e1a04000 	mov	r4, r0
   8:	e5906004 	ldr	r6, [r0, #4]
   c:	e24dd00c 	sub	sp, sp, #12
  10:	e3560000 	cmp	r6, #0
  14:	1a000045 	bne	130 <TFTPDaemon::Run()+0x130>
  18:	e2807e22 	add	r7, r0, #544	; 0x220
  1c:	e3005000 	movw	r5, #0
  20:	e3405000 	movt	r5, #0
  24:	e1d710b0 	ldrh	r1, [r7]
  28:	e3510000 	cmp	r1, #0
  2c:	1a000039 	bne	118 <TFTPDaemon::Run()+0x118>
  30:	e5950000 	ldr	r0, [r5]
  34:	e3a01045 	mov	r1, #69	; 0x45
  38:	ebfffffe 	bl	0 <Network::Begin(unsigned short)>
  3c:	e5840008 	str	r0, [r4, #8]
  40:	e2843f8a 	add	r3, r4, #552	; 0x228
  44:	e3a02000 	mov	r2, #0
  48:	e284102c 	add	r1, r4, #44	; 0x2c
  4c:	e1c320b0 	strh	r2, [r3]
  50:	e3a00093 	mov	r0, #147	; 0x93
  54:	e5c42232 	strb	r2, [r4, #562]	; 0x232
  58:	e3a03001 	mov	r3, #1
  5c:	e5843004 	str	r3, [r4, #4]
  60:	f5d1f002 	pld	[r1, #2]
  64:	e2400020 	sub	r0, r0, #32
  68:	e5412020 	strb	r2, [r1, #-32]	; 0xffffffe0
  6c:	e3500013 	cmp	r0, #19
  70:	e541201f 	strb	r2, [r1, #-31]	; 0xffffffe1
  74:	e1a03001 	mov	r3, r1
  78:	e541201e 	strb	r2, [r1, #-30]	; 0xffffffe2
  7c:	e2811020 	add	r1, r1, #32
  80:	e541203d 	strb	r2, [r1, #-61]	; 0xffffffc3
  84:	e541203c 	strb	r2, [r1, #-60]	; 0xffffffc4
  88:	e541203b 	strb	r2, [r1, #-59]	; 0xffffffc5
  8c:	e541203a 	strb	r2, [r1, #-58]	; 0xffffffc6
  90:	e5412039 	strb	r2, [r1, #-57]	; 0xffffffc7
  94:	e5412038 	strb	r2, [r1, #-56]	; 0xffffffc8
  98:	e5412037 	strb	r2, [r1, #-55]	; 0xffffffc9
  9c:	e5412036 	strb	r2, [r1, #-54]	; 0xffffffca
  a0:	e5412035 	strb	r2, [r1, #-53]	; 0xffffffcb
  a4:	e5412034 	strb	r2, [r1, #-52]	; 0xffffffcc
  a8:	e5412033 	strb	r2, [r1, #-51]	; 0xffffffcd
  ac:	e5412032 	strb	r2, [r1, #-50]	; 0xffffffce
  b0:	e5412031 	strb	r2, [r1, #-49]	; 0xffffffcf
  b4:	e5412030 	strb	r2, [r1, #-48]	; 0xffffffd0
  b8:	e541202f 	strb	r2, [r1, #-47]	; 0xffffffd1
  bc:	e541202e 	strb	r2, [r1, #-46]	; 0xffffffd2
  c0:	e541202d 	strb	r2, [r1, #-45]	; 0xffffffd3
  c4:	e541202c 	strb	r2, [r1, #-44]	; 0xffffffd4
  c8:	e541202b 	strb	r2, [r1, #-43]	; 0xffffffd5
  cc:	e541202a 	strb	r2, [r1, #-42]	; 0xffffffd6
  d0:	e5412029 	strb	r2, [r1, #-41]	; 0xffffffd7
  d4:	e5412028 	strb	r2, [r1, #-40]	; 0xffffffd8
  d8:	e5412027 	strb	r2, [r1, #-39]	; 0xffffffd9
  dc:	e5412026 	strb	r2, [r1, #-38]	; 0xffffffda
  e0:	e5412025 	strb	r2, [r1, #-37]	; 0xffffffdb
  e4:	e5412024 	strb	r2, [r1, #-36]	; 0xffffffdc
  e8:	e5412023 	strb	r2, [r1, #-35]	; 0xffffffdd
  ec:	e5412022 	strb	r2, [r1, #-34]	; 0xffffffde
  f0:	e5412021 	strb	r2, [r1, #-33]	; 0xffffffdf
  f4:	1affffd9 	bne	60 <TFTPDaemon::Run()+0x60>
  f8:	e2831014 	add	r1, r3, #20
  fc:	e3a02000 	mov	r2, #0
 100:	e4c32001 	strb	r2, [r3], #1
 104:	e1530001 	cmp	r3, r1
 108:	1afffffc 	bne	100 <TFTPDaemon::Run()+0x100>
 10c:	e3a00001 	mov	r0, #1
 110:	e28dd00c 	add	sp, sp, #12
 114:	e8bd80f0 	pop	{r4, r5, r6, r7, pc}
 118:	e5950000 	ldr	r0, [r5]
 11c:	ebfffffe 	bl	0 <Network::End(unsigned short)>
 120:	e3e03000 	mvn	r3, #0
 124:	e5843008 	str	r3, [r4, #8]
 128:	e1c760b0 	strh	r6, [r7]
 12c:	eaffffbf 	b	30 <TFTPDaemon::Run()+0x30>
 130:	e5901008 	ldr	r1, [r0, #8]
 134:	e3003000 	movw	r3, #0
 138:	e3403000 	movt	r3, #0
 13c:	e2802e22 	add	r2, r0, #544	; 0x220
 140:	e58d2004 	str	r2, [sp, #4]
 144:	e2802f87 	add	r2, r0, #540	; 0x21c
 148:	e5930000 	ldr	r0, [r3]
 14c:	e3a03e21 	mov	r3, #528	; 0x210
 150:	e58d2000 	str	r2, [sp]
 154:	e284200c 	add	r2, r4, #12
 158:	ebfffffe 	bl	0 <Network::RecvFrom(int, void*, unsigned short, unsigned int*, unsigned short*)>
 15c:	e5943004 	ldr	r3, [r4, #4]
 160:	e5840224 	str	r0, [r4, #548]	; 0x224
 164:	e2433001 	sub	r3, r3, #1
 168:	e3530004 	cmp	r3, #4
 16c:	979ff103 	ldrls	pc, [pc, r3, lsl #2]
 170:	eaffffe5 	b	10c <TFTPDaemon::Run()+0x10c>
 174:	000001fc 	.word	0x000001fc
 178:	000001f0 	.word	0x000001f0
 17c:	000001a8 	.word	0x000001a8
 180:	0000010c 	.word	0x0000010c
 184:	00000188 	.word	0x00000188
 188:	e3500f81 	cmp	r0, #516	; 0x204
 18c:	8affffde 	bhi	10c <TFTPDaemon::Run()+0x10c>
 190:	e1d430bc 	ldrh	r3, [r4, #12]
 194:	e3530c03 	cmp	r3, #768	; 0x300
 198:	1affffdb 	bne	10c <TFTPDaemon::Run()+0x10c>
 19c:	e1a00004 	mov	r0, r4
 1a0:	ebfffffe 	bl	0 <TFTPDaemon::Run()>
 1a4:	eaffffd8 	b	10c <TFTPDaemon::Run()+0x10c>
 1a8:	e3500004 	cmp	r0, #4
 1ac:	1affffd6 	bne	10c <TFTPDaemon::Run()+0x10c>
 1b0:	e1d430bc 	ldrh	r3, [r4, #12]
 1b4:	e3530b01 	cmp	r3, #1024	; 0x400
 1b8:	1affffd3 	bne	10c <TFTPDaemon::Run()+0x10c>
 1bc:	e1d420be 	ldrh	r2, [r4, #14]
 1c0:	e2843f8a 	add	r3, r4, #552	; 0x228
 1c4:	e1d330b0 	ldrh	r3, [r3]
 1c8:	e6bf3fb3 	rev16	r3, r3
 1cc:	e6ff3073 	uxth	r3, r3
 1d0:	e1520003 	cmp	r2, r3
 1d4:	1affffcc 	bne	10c <TFTPDaemon::Run()+0x10c>
 1d8:	e5d43232 	ldrb	r3, [r4, #562]	; 0x232
 1dc:	e3530000 	cmp	r3, #0
 1e0:	13a03000 	movne	r3, #0
 1e4:	03a03002 	moveq	r3, #2
 1e8:	e5843004 	str	r3, [r4, #4]
 1ec:	eaffffc6 	b	10c <TFTPDaemon::Run()+0x10c>
 1f0:	e1a00004 	mov	r0, r4
 1f4:	ebfffffe 	bl	0 <TFTPDaemon::Run()>
 1f8:	eaffffc3 	b	10c <TFTPDaemon::Run()+0x10c>
 1fc:	e3500004 	cmp	r0, #4
 200:	9affffc1 	bls	10c <TFTPDaemon::Run()+0x10c>
 204:	e1a00004 	mov	r0, r4
 208:	ebfffffe 	bl	0 <TFTPDaemon::Run()>
 20c:	eaffffbe 	b	10c <TFTPDaemon::Run()+0x10c>

Disassembly of section .text._ZN10TFTPDaemon13HandleRecvAckEv:

00000000 <TFTPDaemon::HandleRecvAck()>:
   0:	e1d030bc 	ldrh	r3, [r0, #12]
   4:	e3530b01 	cmp	r3, #1024	; 0x400
   8:	112fff1e 	bxne	lr
   c:	e1d020be 	ldrh	r2, [r0, #14]
  10:	e2803f8a 	add	r3, r0, #552	; 0x228
  14:	e1d330b0 	ldrh	r3, [r3]
  18:	e6bf3fb3 	rev16	r3, r3
  1c:	e6ff3073 	uxth	r3, r3
  20:	e1520003 	cmp	r2, r3
  24:	112fff1e 	bxne	lr
  28:	e5d03232 	ldrb	r3, [r0, #562]	; 0x232
  2c:	e3530000 	cmp	r3, #0
  30:	13a03000 	movne	r3, #0
  34:	03a03002 	moveq	r3, #2
  38:	e5803004 	str	r3, [r0, #4]
  3c:	e12fff1e 	bx	lr

Disassembly of section .text._ZN10TFTPDaemon10DoWriteAckEv:

00000000 <TFTPDaemon::DoWriteAck()>:
   0:	e5d0c232 	ldrb	ip, [r0, #562]	; 0x232
   4:	e3a01000 	mov	r1, #0
   8:	e52de004 	push	{lr}		; (str lr, [sp, #-4]!)
   c:	e3a03004 	mov	r3, #4
  10:	e5c0100c 	strb	r1, [r0, #12]
  14:	e2801f8a 	add	r1, r0, #552	; 0x228
  18:	e5c0300d 	strb	r3, [r0, #13]
  1c:	e1a02000 	mov	r2, r0
  20:	e1d110b0 	ldrh	r1, [r1]
  24:	e2800e22 	add	r0, r0, #544	; 0x220
  28:	e24dd00c 	sub	sp, sp, #12
  2c:	e35c0000 	cmp	ip, #0
  30:	e6bf1fb1 	rev16	r1, r1
  34:	13a0e000 	movne	lr, #0
  38:	e1c210be 	strh	r1, [r2, #14]
  3c:	e3001000 	movw	r1, #0
  40:	e1d0c0b0 	ldrh	ip, [r0]
  44:	03a0e005 	moveq	lr, #5
  48:	e3401000 	movt	r1, #0
  4c:	e282200c 	add	r2, r2, #12
  50:	e502e008 	str	lr, [r2, #-8]
  54:	e5910000 	ldr	r0, [r1]
  58:	e58dc004 	str	ip, [sp, #4]
  5c:	e592c210 	ldr	ip, [r2, #528]	; 0x210
  60:	e5121004 	ldr	r1, [r2, #-4]
  64:	e58dc000 	str	ip, [sp]
  68:	ebfffffe 	bl	0 <Network::SendTo(int, void const*, unsigned short, unsigned int, unsigned short)>
  6c:	e28dd00c 	add	sp, sp, #12
  70:	e49df004 	pop	{pc}		; (ldr pc, [sp], #4)

Disassembly of section .text._ZN10TFTPDaemon14HandleRecvDataEv:

00000000 <TFTPDaemon::HandleRecvData()>:
   0:	e1d030bc 	ldrh	r3, [r0, #12]
   4:	e3530c03 	cmp	r3, #768	; 0x300
   8:	112fff1e 	bxne	lr
   c:	eafffffe 	b	0 <TFTPDaemon::HandleRecvData()>

networkparams.o:     file format elf32-littlearm


Disassembly of section .text._ZN13NetworkParamsC2EP18NetworkParamsStore:

00000000 <NetworkParams::NetworkParams(NetworkParamsStore*)>:
   0:	e92d4010 	push	{r4, lr}
   4:	e3a0205e 	mov	r2, #94	; 0x5e
   8:	e1a04000 	mov	r4, r0
   c:	e4801004 	str	r1, [r0], #4
  10:	e3a01000 	mov	r1, #0
  14:	ebfffffe 	bl	0 <memset>
  18:	e3a03001 	mov	r3, #1
  1c:	e1a00004 	mov	r0, r4
  20:	e5c43018 	strb	r3, [r4, #24]
  24:	e8bd8010 	pop	{r4, pc}

Disassembly of section .text._ZN13NetworkParams4LoadEv:

00000000 <NetworkParams::Load()>:
   0:	e3a03000 	mov	r3, #0
   4:	e92d4037 	push	{r0, r1, r2, r4, r5, lr}
   8:	e1a02000 	mov	r2, r0
   c:	e5803004 	str	r3, [r0, #4]
  10:	e1a04000 	mov	r4, r0
  14:	e59f1068 	ldr	r1, [pc, #104]	; 84 <NetworkParams::Load()+0x84>
  18:	e1a0000d 	mov	r0, sp
  1c:	ebfffffe 	bl	0 <ReadConfigFile::ReadConfigFile(void (*)(void*, char const*), void*)>
  20:	e59f1060 	ldr	r1, [pc, #96]	; 88 <NetworkParams::Load()+0x88>
  24:	e1a0000d 	mov	r0, sp
  28:	ebfffffe 	bl	0 <ReadConfigFile::Read(char const*)>
  2c:	e2505000 	subs	r5, r0, #0
  30:	e5940000 	ldr	r0, [r4]
  34:	0a000006 	beq	54 <NetworkParams::Load()+0x54>
  38:	e3500000 	cmp	r0, #0
  3c:	0a00000b 	beq	70 <NetworkParams::Load()+0x70>
  40:	e5903000 	ldr	r3, [r0]
  44:	e2841004 	add	r1, r4, #4
  48:	e5933008 	ldr	r3, [r3, #8]
  4c:	e12fff33 	blx	r3
  50:	ea000006 	b	70 <NetworkParams::Load()+0x70>
  54:	e3500000 	cmp	r0, #0
  58:	0a000004 	beq	70 <NetworkParams::Load()+0x70>
  5c:	e5903000 	ldr	r3, [r0]
  60:	e2841004 	add	r1, r4, #4
  64:	e3a05001 	mov	r5, #1
  68:	e593300c 	ldr	r3, [r3, #12]
  6c:	e12fff33 	blx	r3
  70:	e1a0000d 	mov	r0, sp
  74:	ebfffffe 	bl	0 <ReadConfigFile::~ReadConfigFile()>
  78:	e1a00005 	mov	r0, r5
  7c:	e28dd00c 	add	sp, sp, #12
  80:	e8bd8030 	pop	{r4, r5, pc}
	...

Disassembly of section .text._ZN13NetworkParams4LoadEPKcj:

00000000 <NetworkParams::Load(char const*, unsigned int)>:
   0:	e5903000 	ldr	r3, [r0]
   4:	e3530000 	cmp	r3, #0
   8:	012fff1e 	bxeq	lr
   c:	e3a03000 	mov	r3, #0
  10:	e92d4073 	push	{r0, r1, r4, r5, r6, lr}
  14:	e1a04000 	mov	r4, r0
  18:	e5803004 	str	r3, [r0, #4]
  1c:	e1a05001 	mov	r5, r1
  20:	e59f1040 	ldr	r1, [pc, #64]	; 68 <NetworkParams::Load(char const*, unsigned int)+0x68>
  24:	e1a06002 	mov	r6, r2
  28:	e1a02000 	mov	r2, r0
  2c:	e1a0000d 	mov	r0, sp
  30:	ebfffffe 	bl	0 <ReadConfigFile::ReadConfigFile(void (*)(void*, char const*), void*)>
  34:	e1a02006 	mov	r2, r6
  38:	e1a01005 	mov	r1, r5
  3c:	e1a0000d 	mov	r0, sp
  40:	ebfffffe 	bl	0 <ReadConfigFile::Read(char const*, unsigned int)>
  44:	e1a01004 	mov	r1, r4
  48:	e4910004 	ldr	r0, [r1], #4
  4c:	e5903000 	ldr	r3, [r0]
  50:	e5933008 	ldr	r3, [r3, #8]
  54:	e12fff33 	blx	r3
  58:	e1a0000d 	mov	r0, sp
  5c:	ebfffffe 	bl	0 <ReadConfigFile::~ReadConfigFile()>
  60:	e28dd008 	add	sp, sp, #8
  64:	e8bd8070 	pop	{r4, r5, r6, pc}
  68:	00000000 	.word	0x00000000

Disassembly of section .text._ZN13NetworkParams16callbackFunctionEPKc:

00000000 <NetworkParams::callbackFunction(char const*)>:
   0:	e92d4030 	push	{r4, r5, lr}
   4:	e1a05001 	mov	r5, r1
   8:	e59f1240 	ldr	r1, [pc, #576]	; 250 <NetworkParams::callbackFunction(char const*)+0x250>
   c:	e24dd014 	sub	sp, sp, #20
  10:	e1a04000 	mov	r4, r0
  14:	e28d2003 	add	r2, sp, #3
  18:	e1a00005 	mov	r0, r5
  1c:	ebfffffe 	bl	0 <Sscan::Uint8(char const*, char const*, unsigned char&)>
  20:	e3500000 	cmp	r0, #0
  24:	1a000009 	bne	50 <NetworkParams::callbackFunction(char const*)+0x50>
  28:	e5dd2003 	ldrb	r2, [sp, #3]
  2c:	e5943004 	ldr	r3, [r4, #4]
  30:	e3520000 	cmp	r2, #0
  34:	13c33001 	bicne	r3, r3, #1
  38:	03833001 	orreq	r3, r3, #1
  3c:	e2522000 	subs	r2, r2, #0
  40:	e5843004 	str	r3, [r4, #4]
  44:	13a02001 	movne	r2, #1
  48:	e5c42018 	strb	r2, [r4, #24]
  4c:	ea00007d 	b	248 <NetworkParams::callbackFunction(char const*)+0x248>
  50:	e59f11fc 	ldr	r1, [pc, #508]	; 254 <NetworkParams::callbackFunction(char const*)+0x254>
  54:	e28d2003 	add	r2, sp, #3
  58:	e1a00005 	mov	r0, r5
  5c:	ebfffffe 	bl	0 <Sscan::Uint8(char const*, char const*, unsigned char&)>
  60:	e3500000 	cmp	r0, #0
  64:	1a000009 	bne	90 <NetworkParams::callbackFunction(char const*)+0x90>
  68:	e5dd2003 	ldrb	r2, [sp, #3]
  6c:	e5943004 	ldr	r3, [r4, #4]
  70:	e2421001 	sub	r1, r2, #1
  74:	e3510004 	cmp	r1, #4
  78:	83c33c01 	bichi	r3, r3, #256	; 0x100
  7c:	93833c01 	orrls	r3, r3, #256	; 0x100
  80:	95843004 	strls	r3, [r4, #4]
  84:	95c42061 	strbls	r2, [r4, #97]	; 0x61
  88:	85843004 	strhi	r3, [r4, #4]
  8c:	85c40061 	strbhi	r0, [r4, #97]	; 0x61
  90:	e59f11c0 	ldr	r1, [pc, #448]	; 258 <NetworkParams::callbackFunction(char const*)+0x258>
  94:	e28d2004 	add	r2, sp, #4
  98:	e1a00005 	mov	r0, r5
  9c:	ebfffffe 	bl	0 <Sscan::IpAddress(char const*, char const*, unsigned int&)>
  a0:	e3500000 	cmp	r0, #0
  a4:	1a000014 	bne	fc <NetworkParams::callbackFunction(char const*)+0xfc>
  a8:	e59d3004 	ldr	r3, [sp, #4]
  ac:	e7e72453 	ubfx	r2, r3, #8, #8
  b0:	e6ef1073 	uxtb	r1, r3
  b4:	e35100ac 	cmp	r1, #172	; 0xac
  b8:	0a000005 	beq	d4 <NetworkParams::callbackFunction(char const*)+0xd4>
  bc:	e35100c0 	cmp	r1, #192	; 0xc0
  c0:	0a000007 	beq	e4 <NetworkParams::callbackFunction(char const*)+0xe4>
  c4:	e351000a 	cmp	r1, #10
  c8:	0a000007 	beq	ec <NetworkParams::callbackFunction(char const*)+0xec>
  cc:	e3530000 	cmp	r3, #0
  d0:	ea000004 	b	e8 <NetworkParams::callbackFunction(char const*)+0xe8>
  d4:	e2422010 	sub	r2, r2, #16
  d8:	e352000f 	cmp	r2, #15
  dc:	8a000059 	bhi	248 <NetworkParams::callbackFunction(char const*)+0x248>
  e0:	ea000001 	b	ec <NetworkParams::callbackFunction(char const*)+0xec>
  e4:	e35200a8 	cmp	r2, #168	; 0xa8
  e8:	1a000056 	bne	248 <NetworkParams::callbackFunction(char const*)+0x248>
  ec:	e5843008 	str	r3, [r4, #8]
  f0:	e5943004 	ldr	r3, [r4, #4]
  f4:	e3833002 	orr	r3, r3, #2
  f8:	ea000051 	b	244 <NetworkParams::callbackFunction(char const*)+0x244>
  fc:	e59f1158 	ldr	r1, [pc, #344]	; 25c <NetworkParams::callbackFunction(char const*)+0x25c>
 100:	e28d2004 	add	r2, sp, #4
 104:	e1a00005 	mov	r0, r5
 108:	ebfffffe 	bl	0 <Sscan::IpAddress(char const*, char const*, unsigned int&)>
 10c:	e3500000 	cmp	r0, #0
 110:	1a00000a 	bne	140 <NetworkParams::callbackFunction(char const*)+0x140>
 114:	e59d3004 	ldr	r3, [sp, #4]
 118:	e3530000 	cmp	r3, #0
 11c:	0a000049 	beq	248 <NetworkParams::callbackFunction(char const*)+0x248>
 120:	e6bf2f33 	rev	r2, r3
 124:	e1e01002 	mvn	r1, r2
 128:	e01220a1 	ands	r2, r2, r1, lsr #1
 12c:	0584300c 	streq	r3, [r4, #12]
 130:	05943004 	ldreq	r3, [r4, #4]
 134:	03833004 	orreq	r3, r3, #4
 138:	0a000041 	beq	244 <NetworkParams::callbackFunction(char const*)+0x244>
 13c:	ea000041 	b	248 <NetworkParams::callbackFunction(char const*)+0x248>
 140:	e59f1118 	ldr	r1, [pc, #280]	; 260 <NetworkParams::callbackFunction(char const*)+0x260>
 144:	e28d2004 	add	r2, sp, #4
 148:	e1a00005 	mov	r0, r5
 14c:	ebfffffe 	bl	0 <Sscan::IpAddress(char const*, char const*, unsigned int&)>
 150:	e3500000 	cmp	r0, #0
 154:	1a000004 	bne	16c <NetworkParams::callbackFunction(char const*)+0x16c>
 158:	e59d3004 	ldr	r3, [sp, #4]
 15c:	e5843010 	str	r3, [r4, #16]
 160:	e5943004 	ldr	r3, [r4, #4]
 164:	e3833008 	orr	r3, r3, #8
 168:	ea000035 	b	244 <NetworkParams::callbackFunction(char const*)+0x244>
 16c:	e59f10f0 	ldr	r1, [pc, #240]	; 264 <NetworkParams::callbackFunction(char const*)+0x264>
 170:	e3a0303f 	mov	r3, #63	; 0x3f
 174:	e58d3008 	str	r3, [sp, #8]
 178:	e2842019 	add	r2, r4, #25
 17c:	e28d3008 	add	r3, sp, #8
 180:	e1a00005 	mov	r0, r5
 184:	ebfffffe 	bl	0 <Sscan::Char(char const*, char const*, char*, unsigned int&)>
 188:	e3500000 	cmp	r0, #0
 18c:	1a000005 	bne	1a8 <NetworkParams::callbackFunction(char const*)+0x1a8>
 190:	e59d3008 	ldr	r3, [sp, #8]
 194:	e0843003 	add	r3, r4, r3
 198:	e5c30019 	strb	r0, [r3, #25]
 19c:	e5943004 	ldr	r3, [r4, #4]
 1a0:	e3833020 	orr	r3, r3, #32
 1a4:	ea000026 	b	244 <NetworkParams::callbackFunction(char const*)+0x244>
 1a8:	e59f10b8 	ldr	r1, [pc, #184]	; 268 <NetworkParams::callbackFunction(char const*)+0x268>
 1ac:	e28d2004 	add	r2, sp, #4
 1b0:	e1a00005 	mov	r0, r5
 1b4:	ebfffffe 	bl	0 <Sscan::IpAddress(char const*, char const*, unsigned int&)>
 1b8:	e3500000 	cmp	r0, #0
 1bc:	1a000007 	bne	1e0 <NetworkParams::callbackFunction(char const*)+0x1e0>
 1c0:	e59d2004 	ldr	r2, [sp, #4]
 1c4:	e5943004 	ldr	r3, [r4, #4]
 1c8:	e5842059 	str	r2, [r4, #89]	; 0x59
 1cc:	e3520000 	cmp	r2, #0
 1d0:	03c33040 	biceq	r3, r3, #64	; 0x40
 1d4:	13833040 	orrne	r3, r3, #64	; 0x40
 1d8:	e5843004 	str	r3, [r4, #4]
 1dc:	ea000019 	b	248 <NetworkParams::callbackFunction(char const*)+0x248>
 1e0:	e59f1084 	ldr	r1, [pc, #132]	; 26c <NetworkParams::callbackFunction(char const*)+0x26c>
 1e4:	e28d200c 	add	r2, sp, #12
 1e8:	e1a00005 	mov	r0, r5
 1ec:	ebfffffe 	bl	0 <Sscan::Float(char const*, char const*, float&)>
 1f0:	e3500000 	cmp	r0, #0
 1f4:	1a000013 	bne	248 <NetworkParams::callbackFunction(char const*)+0x248>
 1f8:	eddd7a03 	vldr	s15, [sp, #12]
 1fc:	e5943004 	ldr	r3, [r4, #4]
 200:	eef57a40 	vcmp.f32	s15, #0.0
 204:	eebd7ae7 	vcvt.s32.f32	s14, s15
 208:	eef1fa10 	vmrs	APSR_nzcv, fpscr
 20c:	ee171a10 	vmov	r1, s14
 210:	e281100c 	add	r1, r1, #12
 214:	13a02001 	movne	r2, #1
 218:	03a02000 	moveq	r2, #0
 21c:	e351001a 	cmp	r1, #26
 220:	83a02000 	movhi	r2, #0
 224:	92022001 	andls	r2, r2, #1
 228:	e3520000 	cmp	r2, #0
 22c:	03c33080 	biceq	r3, r3, #128	; 0x80
 230:	13833080 	orrne	r3, r3, #128	; 0x80
 234:	1e172a90 	vmovne	r2, s15
 238:	03a02000 	moveq	r2, #0
 23c:	0584205d 	streq	r2, [r4, #93]	; 0x5d
 240:	1584205d 	strne	r2, [r4, #93]	; 0x5d
 244:	e5843004 	str	r3, [r4, #4]
 248:	e28dd014 	add	sp, sp, #20
 24c:	e8bd8030 	pop	{r4, r5, pc}
	...

Disassembly of section .text._ZN13NetworkParams22staticCallbackFunctionEPvPKc:

00000000 <NetworkParams::staticCallbackFunction(void*, char const*)>:
   0:	eafffffe 	b	0 <NetworkParams::staticCallbackFunction(void*, char const*)>

Disassembly of section .text._ZN13NetworkParams7BuilderEPK14TNetworkParamsPcjRj:

00000000 <NetworkParams::Builder(TNetworkParams const*, char*, unsigned int, unsigned int&)>:
   0:	e3510000 	cmp	r1, #0
   4:	e92d4070 	push	{r4, r5, r6, lr}
   8:	e1a04000 	mov	r4, r0
   c:	e24dd020 	sub	sp, sp, #32
  10:	e1a05002 	mov	r5, r2
  14:	e1a06003 	mov	r6, r3
  18:	e2800004 	add	r0, r0, #4
  1c:	0a000002 	beq	2c <NetworkParams::Builder(TNetworkParams const*, char*, unsigned int, unsigned int&)+0x2c>
  20:	e3a0205e 	mov	r2, #94	; 0x5e
  24:	ebfffffe 	bl	0 <memmove>
  28:	ea000005 	b	44 <NetworkParams::Builder(TNetworkParams const*, char*, unsigned int, unsigned int&)+0x44>
  2c:	e5943000 	ldr	r3, [r4]
  30:	e1a01000 	mov	r1, r0
  34:	e5932000 	ldr	r2, [r3]
  38:	e1a00003 	mov	r0, r3
  3c:	e592200c 	ldr	r2, [r2, #12]
  40:	e12fff32 	blx	r2
  44:	e59f138c 	ldr	r1, [pc, #908]	; 3d8 <NetworkParams::Builder(TNetworkParams const*, char*, unsigned int, unsigned int&)+0x3d8>
  48:	e1a02005 	mov	r2, r5
  4c:	e1a03006 	mov	r3, r6
  50:	e28d0014 	add	r0, sp, #20
  54:	e2845019 	add	r5, r4, #25
  58:	ebfffffe 	bl	0 <PropertiesBuilder::PropertiesBuilder(char const*, char*, unsigned int)>
  5c:	e5943004 	ldr	r3, [r4, #4]
  60:	e3130002 	tst	r3, #2
  64:	059f2370 	ldreq	r2, [pc, #880]	; 3dc <NetworkParams::Builder(TNetworkParams const*, char*, unsigned int, unsigned int&)+0x3dc>
  68:	05922000 	ldreq	r2, [r2]
  6c:	05922010 	ldreq	r2, [r2, #16]
  70:	05842008 	streq	r2, [r4, #8]
  74:	e3130004 	tst	r3, #4
  78:	059f235c 	ldreq	r2, [pc, #860]	; 3dc <NetworkParams::Builder(TNetworkParams const*, char*, unsigned int, unsigned int&)+0x3dc>
  7c:	05922000 	ldreq	r2, [r2]
  80:	05922018 	ldreq	r2, [r2, #24]
  84:	0584200c 	streq	r2, [r4, #12]
  88:	e3130008 	tst	r3, #8
  8c:	059f2348 	ldreq	r2, [pc, #840]	; 3dc <NetworkParams::Builder(TNetworkParams const*, char*, unsigned int, unsigned int&)+0x3dc>
  90:	05922000 	ldreq	r2, [r2]
  94:	05922014 	ldreq	r2, [r2, #20]
  98:	05842010 	streq	r2, [r4, #16]
  9c:	e3130020 	tst	r3, #32
  a0:	1a00000e 	bne	e0 <NetworkParams::Builder(TNetworkParams const*, char*, unsigned int, unsigned int&)+0xe0>
  a4:	e59f3330 	ldr	r3, [pc, #816]	; 3dc <NetworkParams::Builder(TNetworkParams const*, char*, unsigned int, unsigned int&)+0x3dc>
  a8:	e1a00005 	mov	r0, r5
  ac:	e3a0203f 	mov	r2, #63	; 0x3f
  b0:	e5933000 	ldr	r3, [r3]
  b4:	e283301b 	add	r3, r3, #27
  b8:	e5f31001 	ldrb	r1, [r3, #1]!
  bc:	e3510000 	cmp	r1, #0
  c0:	1a000001 	bne	cc <NetworkParams::Builder(TNetworkParams const*, char*, unsigned int, unsigned int&)+0xcc>
  c4:	ebfffffe 	bl	0 <memset>
  c8:	ea000002 	b	d8 <NetworkParams::Builder(TNetworkParams const*, char*, unsigned int, unsigned int&)+0xd8>
  cc:	e4c01001 	strb	r1, [r0], #1
  d0:	e2522001 	subs	r2, r2, #1
  d4:	1afffff7 	bne	b8 <NetworkParams::Builder(TNetworkParams const*, char*, unsigned int, unsigned int&)+0xb8>
  d8:	e3a03000 	mov	r3, #0
  dc:	e5c43058 	strb	r3, [r4, #88]	; 0x58
  e0:	e1dd11ba 	ldrh	r1, [sp, #26]
  e4:	e1dd61b8 	ldrh	r6, [sp, #24]
  e8:	e1510006 	cmp	r1, r6
  ec:	2a00001d 	bcs	168 <NetworkParams::Builder(TNetworkParams const*, char*, unsigned int, unsigned int&)+0x168>
  f0:	e59d0014 	ldr	r0, [sp, #20]
  f4:	e0466001 	sub	r6, r6, r1
  f8:	e0800001 	add	r0, r0, r1
  fc:	e5941004 	ldr	r1, [r4, #4]
 100:	e5dd201c 	ldrb	r2, [sp, #28]
 104:	e5d43018 	ldrb	r3, [r4, #24]
 108:	e3110001 	tst	r1, #1
 10c:	1a000002 	bne	11c <NetworkParams::Builder(TNetworkParams const*, char*, unsigned int, unsigned int&)+0x11c>
 110:	e3520000 	cmp	r2, #0
 114:	1a000002 	bne	124 <NetworkParams::Builder(TNetworkParams const*, char*, unsigned int, unsigned int&)+0x124>
 118:	ea000009 	b	144 <NetworkParams::Builder(TNetworkParams const*, char*, unsigned int, unsigned int&)+0x144>
 11c:	e3520000 	cmp	r2, #0
 120:	0a000003 	beq	134 <NetworkParams::Builder(TNetworkParams const*, char*, unsigned int, unsigned int&)+0x134>
 124:	e58d3000 	str	r3, [sp]
 128:	e59f22b0 	ldr	r2, [pc, #688]	; 3e0 <NetworkParams::Builder(TNetworkParams const*, char*, unsigned int, unsigned int&)+0x3e0>
 12c:	e59f32b0 	ldr	r3, [pc, #688]	; 3e4 <NetworkParams::Builder(TNetworkParams const*, char*, unsigned int, unsigned int&)+0x3e4>
 130:	ea000006 	b	150 <NetworkParams::Builder(TNetworkParams const*, char*, unsigned int, unsigned int&)+0x150>
 134:	e58d3000 	str	r3, [sp]
 138:	e59f22a8 	ldr	r2, [pc, #680]	; 3e8 <NetworkParams::Builder(TNetworkParams const*, char*, unsigned int, unsigned int&)+0x3e8>
 13c:	e59f32a0 	ldr	r3, [pc, #672]	; 3e4 <NetworkParams::Builder(TNetworkParams const*, char*, unsigned int, unsigned int&)+0x3e4>
 140:	ea000002 	b	150 <NetworkParams::Builder(TNetworkParams const*, char*, unsigned int, unsigned int&)+0x150>
 144:	e58d3000 	str	r3, [sp]
 148:	e59f229c 	ldr	r2, [pc, #668]	; 3ec <NetworkParams::Builder(TNetworkParams const*, char*, unsigned int, unsigned int&)+0x3ec>
 14c:	e59f3290 	ldr	r3, [pc, #656]	; 3e4 <NetworkParams::Builder(TNetworkParams const*, char*, unsigned int, unsigned int&)+0x3e4>
 150:	e1a01006 	mov	r1, r6
 154:	ebfffffe 	bl	0 <snprintf>
 158:	e1560000 	cmp	r6, r0
 15c:	a1dd31ba 	ldrhge	r3, [sp, #26]
 160:	a0830000 	addge	r0, r3, r0
 164:	a1cd01ba 	strhge	r0, [sp, #26]
 168:	e1dd11ba 	ldrh	r1, [sp, #26]
 16c:	e1dd61b8 	ldrh	r6, [sp, #24]
 170:	e1510006 	cmp	r1, r6
 174:	2a00001d 	bcs	1f0 <NetworkParams::Builder(TNetworkParams const*, char*, unsigned int, unsigned int&)+0x1f0>
 178:	e59d0014 	ldr	r0, [sp, #20]
 17c:	e0466001 	sub	r6, r6, r1
 180:	e0800001 	add	r0, r0, r1
 184:	e5941004 	ldr	r1, [r4, #4]
 188:	e5dd201c 	ldrb	r2, [sp, #28]
 18c:	e5d43061 	ldrb	r3, [r4, #97]	; 0x61
 190:	e3110c01 	tst	r1, #256	; 0x100
 194:	1a000002 	bne	1a4 <NetworkParams::Builder(TNetworkParams const*, char*, unsigned int, unsigned int&)+0x1a4>
 198:	e3520000 	cmp	r2, #0
 19c:	1a000002 	bne	1ac <NetworkParams::Builder(TNetworkParams const*, char*, unsigned int, unsigned int&)+0x1ac>
 1a0:	ea000009 	b	1cc <NetworkParams::Builder(TNetworkParams const*, char*, unsigned int, unsigned int&)+0x1cc>
 1a4:	e3520000 	cmp	r2, #0
 1a8:	0a000003 	beq	1bc <NetworkParams::Builder(TNetworkParams const*, char*, unsigned int, unsigned int&)+0x1bc>
 1ac:	e58d3000 	str	r3, [sp]
 1b0:	e59f2228 	ldr	r2, [pc, #552]	; 3e0 <NetworkParams::Builder(TNetworkParams const*, char*, unsigned int, unsigned int&)+0x3e0>
 1b4:	e59f3234 	ldr	r3, [pc, #564]	; 3f0 <NetworkParams::Builder(TNetworkParams const*, char*, unsigned int, unsigned int&)+0x3f0>
 1b8:	ea000006 	b	1d8 <NetworkParams::Builder(TNetworkParams const*, char*, unsigned int, unsigned int&)+0x1d8>
 1bc:	e58d3000 	str	r3, [sp]
 1c0:	e59f2220 	ldr	r2, [pc, #544]	; 3e8 <NetworkParams::Builder(TNetworkParams const*, char*, unsigned int, unsigned int&)+0x3e8>
 1c4:	e59f3224 	ldr	r3, [pc, #548]	; 3f0 <NetworkParams::Builder(TNetworkParams const*, char*, unsigned int, unsigned int&)+0x3f0>
 1c8:	ea000002 	b	1d8 <NetworkParams::Builder(TNetworkParams const*, char*, unsigned int, unsigned int&)+0x1d8>
 1cc:	e58d3000 	str	r3, [sp]
 1d0:	e59f2214 	ldr	r2, [pc, #532]	; 3ec <NetworkParams::Builder(TNetworkParams const*, char*, unsigned int, unsigned int&)+0x3ec>
 1d4:	e59f3214 	ldr	r3, [pc, #532]	; 3f0 <NetworkParams::Builder(TNetworkParams const*, char*, unsigned int, unsigned int&)+0x3f0>
 1d8:	e1a01006 	mov	r1, r6
 1dc:	ebfffffe 	bl	0 <snprintf>
 1e0:	e1560000 	cmp	r6, r0
 1e4:	a1dd31ba 	ldrhge	r3, [sp, #26]
 1e8:	a0830000 	addge	r0, r3, r0
 1ec:	a1cd01ba 	strhge	r0, [sp, #26]
 1f0:	e59f11fc 	ldr	r1, [pc, #508]	; 3f4 <NetworkParams::Builder(TNetworkParams const*, char*, unsigned int, unsigned int&)+0x3f4>
 1f4:	e28d0014 	add	r0, sp, #20
 1f8:	ebfffffe 	bl	0 <PropertiesBuilder::AddComment(char const*)>
 1fc:	e5943004 	ldr	r3, [r4, #4]
 200:	e28d0014 	add	r0, sp, #20
 204:	e5942008 	ldr	r2, [r4, #8]
 208:	e7e030d3 	ubfx	r3, r3, #1, #1
 20c:	e59f11e4 	ldr	r1, [pc, #484]	; 3f8 <NetworkParams::Builder(TNetworkParams const*, char*, unsigned int, unsigned int&)+0x3f8>
 210:	ebfffffe 	bl	0 <PropertiesBuilder::AddIpAddress(char const*, unsigned int, bool)>
 214:	e5943004 	ldr	r3, [r4, #4]
 218:	e28d0014 	add	r0, sp, #20
 21c:	e594200c 	ldr	r2, [r4, #12]
 220:	e7e03153 	ubfx	r3, r3, #2, #1
 224:	e59f11d0 	ldr	r1, [pc, #464]	; 3fc <NetworkParams::Builder(TNetworkParams const*, char*, unsigned int, unsigned int&)+0x3fc>
 228:	ebfffffe 	bl	0 <PropertiesBuilder::AddIpAddress(char const*, unsigned int, bool)>
 22c:	e5943004 	ldr	r3, [r4, #4]
 230:	e28d0014 	add	r0, sp, #20
 234:	e59f11c4 	ldr	r1, [pc, #452]	; 400 <NetworkParams::Builder(TNetworkParams const*, char*, unsigned int, unsigned int&)+0x400>
 238:	e7e031d3 	ubfx	r3, r3, #3, #1
 23c:	e5942010 	ldr	r2, [r4, #16]
 240:	ebfffffe 	bl	0 <PropertiesBuilder::AddIpAddress(char const*, unsigned int, bool)>
 244:	e1dd11ba 	ldrh	r1, [sp, #26]
 248:	e1dd61b8 	ldrh	r6, [sp, #24]
 24c:	e1510006 	cmp	r1, r6
 250:	2a00001c 	bcs	2c8 <NetworkParams::Builder(TNetworkParams const*, char*, unsigned int, unsigned int&)+0x2c8>
 254:	e5942004 	ldr	r2, [r4, #4]
 258:	e59d0014 	ldr	r0, [sp, #20]
 25c:	e0466001 	sub	r6, r6, r1
 260:	e3120020 	tst	r2, #32
 264:	e0800001 	add	r0, r0, r1
 268:	e5dd301c 	ldrb	r3, [sp, #28]
 26c:	1a000002 	bne	27c <NetworkParams::Builder(TNetworkParams const*, char*, unsigned int, unsigned int&)+0x27c>
 270:	e3530000 	cmp	r3, #0
 274:	1a000002 	bne	284 <NetworkParams::Builder(TNetworkParams const*, char*, unsigned int, unsigned int&)+0x284>
 278:	ea000009 	b	2a4 <NetworkParams::Builder(TNetworkParams const*, char*, unsigned int, unsigned int&)+0x2a4>
 27c:	e3530000 	cmp	r3, #0
 280:	0a000003 	beq	294 <NetworkParams::Builder(TNetworkParams const*, char*, unsigned int, unsigned int&)+0x294>
 284:	e59f3178 	ldr	r3, [pc, #376]	; 404 <NetworkParams::Builder(TNetworkParams const*, char*, unsigned int, unsigned int&)+0x404>
 288:	e59f2178 	ldr	r2, [pc, #376]	; 408 <NetworkParams::Builder(TNetworkParams const*, char*, unsigned int, unsigned int&)+0x408>
 28c:	e58d5000 	str	r5, [sp]
 290:	ea000006 	b	2b0 <NetworkParams::Builder(TNetworkParams const*, char*, unsigned int, unsigned int&)+0x2b0>
 294:	e59f3168 	ldr	r3, [pc, #360]	; 404 <NetworkParams::Builder(TNetworkParams const*, char*, unsigned int, unsigned int&)+0x404>
 298:	e59f216c 	ldr	r2, [pc, #364]	; 40c <NetworkParams::Builder(TNetworkParams const*, char*, unsigned int, unsigned int&)+0x40c>
 29c:	e58d5000 	str	r5, [sp]
 2a0:	ea000002 	b	2b0 <NetworkParams::Builder(TNetworkParams const*, char*, unsigned int, unsigned int&)+0x2b0>
 2a4:	e59f3158 	ldr	r3, [pc, #344]	; 404 <NetworkParams::Builder(TNetworkParams const*, char*, unsigned int, unsigned int&)+0x404>
 2a8:	e59f2160 	ldr	r2, [pc, #352]	; 410 <NetworkParams::Builder(TNetworkParams const*, char*, unsigned int, unsigned int&)+0x410>
 2ac:	e58d5000 	str	r5, [sp]
 2b0:	e1a01006 	mov	r1, r6
 2b4:	ebfffffe 	bl	0 <snprintf>
 2b8:	e1560000 	cmp	r6, r0
 2bc:	a1dd31ba 	ldrhge	r3, [sp, #26]
 2c0:	a0830000 	addge	r0, r3, r0
 2c4:	a1cd01ba 	strhge	r0, [sp, #26]
 2c8:	e59f1144 	ldr	r1, [pc, #324]	; 414 <NetworkParams::Builder(TNetworkParams const*, char*, unsigned int, unsigned int&)+0x414>
 2cc:	e28d0014 	add	r0, sp, #20
 2d0:	ebfffffe 	bl	0 <PropertiesBuilder::AddComment(char const*)>
 2d4:	e5943004 	ldr	r3, [r4, #4]
 2d8:	e28d0014 	add	r0, sp, #20
 2dc:	e59f1134 	ldr	r1, [pc, #308]	; 418 <NetworkParams::Builder(TNetworkParams const*, char*, unsigned int, unsigned int&)+0x418>
 2e0:	e7e03353 	ubfx	r3, r3, #6, #1
 2e4:	e5942059 	ldr	r2, [r4, #89]	; 0x59
 2e8:	ebfffffe 	bl	0 <PropertiesBuilder::AddIpAddress(char const*, unsigned int, bool)>
 2ec:	e1dd11ba 	ldrh	r1, [sp, #26]
 2f0:	e1dd51b8 	ldrh	r5, [sp, #24]
 2f4:	e1510005 	cmp	r1, r5
 2f8:	2a000023 	bcs	38c <NetworkParams::Builder(TNetworkParams const*, char*, unsigned int, unsigned int&)+0x38c>
 2fc:	e594305d 	ldr	r3, [r4, #93]	; 0x5d
 300:	e59d0014 	ldr	r0, [sp, #20]
 304:	ee073a90 	vmov	s15, r3
 308:	e5943004 	ldr	r3, [r4, #4]
 30c:	e0800001 	add	r0, r0, r1
 310:	e0455001 	sub	r5, r5, r1
 314:	e3130080 	tst	r3, #128	; 0x80
 318:	eef70ae7 	vcvt.f64.f32	d16, s15
 31c:	e3a03001 	mov	r3, #1
 320:	e5dd201c 	ldrb	r2, [sp, #28]
 324:	1a000002 	bne	334 <NetworkParams::Builder(TNetworkParams const*, char*, unsigned int, unsigned int&)+0x334>
 328:	e3520000 	cmp	r2, #0
 32c:	1a000002 	bne	33c <NetworkParams::Builder(TNetworkParams const*, char*, unsigned int, unsigned int&)+0x33c>
 330:	ea00000b 	b	364 <NetworkParams::Builder(TNetworkParams const*, char*, unsigned int, unsigned int&)+0x364>
 334:	e3520000 	cmp	r2, #0
 338:	0a000004 	beq	350 <NetworkParams::Builder(TNetworkParams const*, char*, unsigned int, unsigned int&)+0x350>
 33c:	e58d3000 	str	r3, [sp]
 340:	e59f20d4 	ldr	r2, [pc, #212]	; 41c <NetworkParams::Builder(TNetworkParams const*, char*, unsigned int, unsigned int&)+0x41c>
 344:	e59f30d4 	ldr	r3, [pc, #212]	; 420 <NetworkParams::Builder(TNetworkParams const*, char*, unsigned int, unsigned int&)+0x420>
 348:	edcd0b02 	vstr	d16, [sp, #8]
 34c:	ea000008 	b	374 <NetworkParams::Builder(TNetworkParams const*, char*, unsigned int, unsigned int&)+0x374>
 350:	e58d3000 	str	r3, [sp]
 354:	e59f20c8 	ldr	r2, [pc, #200]	; 424 <NetworkParams::Builder(TNetworkParams const*, char*, unsigned int, unsigned int&)+0x424>
 358:	e59f30c0 	ldr	r3, [pc, #192]	; 420 <NetworkParams::Builder(TNetworkParams const*, char*, unsigned int, unsigned int&)+0x420>
 35c:	edcd0b02 	vstr	d16, [sp, #8]
 360:	ea000003 	b	374 <NetworkParams::Builder(TNetworkParams const*, char*, unsigned int, unsigned int&)+0x374>
 364:	e58d3000 	str	r3, [sp]
 368:	e59f20b8 	ldr	r2, [pc, #184]	; 428 <NetworkParams::Builder(TNetworkParams const*, char*, unsigned int, unsigned int&)+0x428>
 36c:	e59f30ac 	ldr	r3, [pc, #172]	; 420 <NetworkParams::Builder(TNetworkParams const*, char*, unsigned int, unsigned int&)+0x420>
 370:	edcd0b02 	vstr	d16, [sp, #8]
 374:	e1a01005 	mov	r1, r5
 378:	ebfffffe 	bl	0 <snprintf>
 37c:	e1550000 	cmp	r5, r0
 380:	a1dd31ba 	ldrhge	r3, [sp, #26]
 384:	a0830000 	addge	r0, r3, r0
 388:	a1cd01ba 	strhge	r0, [sp, #26]
 38c:	e5dd301c 	ldrb	r3, [sp, #28]
 390:	e3530000 	cmp	r3, #0
 394:	0a00000a 	beq	3c4 <NetworkParams::Builder(TNetworkParams const*, char*, unsigned int, unsigned int&)+0x3c4>
 398:	e1dd21ba 	ldrh	r2, [sp, #26]
 39c:	e59d3014 	ldr	r3, [sp, #20]
 3a0:	e0833002 	add	r3, r3, r2
 3a4:	e3a0207d 	mov	r2, #125	; 0x7d
 3a8:	e5432001 	strb	r2, [r3, #-1]
 3ac:	e59d1014 	ldr	r1, [sp, #20]
 3b0:	e1dd31ba 	ldrh	r3, [sp, #26]
 3b4:	e7c12003 	strb	r2, [r1, r3]
 3b8:	e1dd31ba 	ldrh	r3, [sp, #26]
 3bc:	e2833001 	add	r3, r3, #1
 3c0:	e1cd31ba 	strh	r3, [sp, #26]
 3c4:	e1dd21ba 	ldrh	r2, [sp, #26]
 3c8:	e59d3030 	ldr	r3, [sp, #48]	; 0x30
 3cc:	e5832000 	str	r2, [r3]
 3d0:	e28dd020 	add	sp, sp, #32
 3d4:	e8bd8070 	pop	{r4, r5, r6, pc}
	...
 3e8:	00000009 	.word	0x00000009
 3ec:	00000010 	.word	0x00000010
 3f0:	00000000 	.word	0x00000000
 3f4:	00000018 	.word	0x00000018
	...
 408:	00000022 	.word	0x00000022
 40c:	0000002d 	.word	0x0000002d
 410:	00000034 	.word	0x00000034
 414:	0000003c 	.word	0x0000003c
 418:	00000000 	.word	0x00000000
 41c:	00000047 	.word	0x00000047
 420:	00000000 	.word	0x00000000
 424:	00000052 	.word	0x00000052
 428:	0000005b 	.word	0x0000005b

Disassembly of section .text._ZN13NetworkParams4SaveEPcjRj:

00000000 <NetworkParams::Save(char*, unsigned int, unsigned int&)>:
   0:	e590c000 	ldr	ip, [r0]
   4:	e35c0000 	cmp	ip, #0
   8:	1a000001 	bne	14 <NetworkParams::Save(char*, unsigned int, unsigned int&)+0x14>
   c:	e583c000 	str	ip, [r3]
  10:	e12fff1e 	bx	lr
  14:	e92d4007 	push	{r0, r1, r2, lr}
  18:	e58d3000 	str	r3, [sp]
  1c:	e1a03002 	mov	r3, r2
  20:	e1a02001 	mov	r2, r1
  24:	e3a01000 	mov	r1, #0
  28:	ebfffffe 	bl	0 <NetworkParams::Save(char*, unsigned int, unsigned int&)>
  2c:	e28dd00c 	add	sp, sp, #12
  30:	e49df004 	pop	{pc}		; (ldr pc, [sp], #4)

networkparamsconst.o:     file format elf32-littlearm


networkparamsdump.o:     file format elf32-littlearm


Disassembly of section .text._ZN13NetworkParams4DumpEv:

00000000 <NetworkParams::Dump()>:
   0:	e12fff1e 	bx	lr

network.o:     file format elf32-littlearm


Disassembly of section .text._ZN7NetworkC2Ev:

00000000 <Network::Network()>:
   0:	e3002000 	movw	r2, #0
   4:	e3a03000 	mov	r3, #0
   8:	e3402000 	movt	r2, #0
   c:	e3001000 	movw	r1, #0
  10:	e52de004 	push	{lr}		; (str lr, [sp, #-4]!)
  14:	e3a0c001 	mov	ip, #1
  18:	e5820000 	str	r0, [r2]
  1c:	e3a02001 	mov	r2, #1
  20:	e58030b4 	str	r3, [r0, #180]	; 0xb4
  24:	e3a0e000 	mov	lr, #0
  28:	e58030bc 	str	r3, [r0, #188]	; 0xbc
  2c:	e58030c0 	str	r3, [r0, #192]	; 0xc0
  30:	e58030c4 	str	r3, [r0, #196]	; 0xc4
  34:	e5c0309c 	strb	r3, [r0, #156]	; 0x9c
  38:	e5802004 	str	r2, [r0, #4]
  3c:	e28020a2 	add	r2, r0, #162	; 0xa2
  40:	e5803008 	str	r3, [r0, #8]
  44:	e5803010 	str	r3, [r0, #16]
  48:	e5803014 	str	r3, [r0, #20]
  4c:	e5803018 	str	r3, [r0, #24]
  50:	e5c0301c 	strb	r3, [r0, #28]
  54:	e5c0305c 	strb	r3, [r0, #92]	; 0x5c
  58:	e3a03065 	mov	r3, #101	; 0x65
  5c:	e3401000 	movt	r1, #0
  60:	e340c001 	movt	ip, #1
  64:	e580c000 	str	ip, [r0]
  68:	e580e00c 	str	lr, [r0, #12]
  6c:	e4c23001 	strb	r3, [r2], #1
  70:	e3530000 	cmp	r3, #0
  74:	049df004 	popeq	{pc}		; (ldreq pc, [sp], #4)
  78:	e5f13001 	ldrb	r3, [r1, #1]!
  7c:	eafffffa 	b	6c <Network::Network()+0x6c>

Disassembly of section .text._ZN7Network4InitEP18NetworkParamsStore:

00000000 <Network::Init(NetworkParamsStore*)>:
   0:	e92d4ff0 	push	{r4, r5, r6, r7, r8, r9, sl, fp, lr}
   4:	e24dd08c 	sub	sp, sp, #140	; 0x8c
   8:	e1a08000 	mov	r8, r0
   c:	e28d0024 	add	r0, sp, #36	; 0x24
  10:	ebfffffe 	bl	0 <NetworkParams::NetworkParams(NetworkParamsStore*)>
  14:	e28d0024 	add	r0, sp, #36	; 0x24
  18:	ebfffffe 	bl	0 <NetworkParams::Load()>
  1c:	e3500000 	cmp	r0, #0
  20:	1a0000d2 	bne	370 <Network::Init(NetworkParamsStore*)+0x370>
  24:	e28890b8 	add	r9, r8, #184	; 0xb8
  28:	e288a09c 	add	sl, r8, #156	; 0x9c
  2c:	e1a00009 	mov	r0, r9
  30:	ebfffffe 	bl	0 <NetworkDisplay::ShowEmacStart()>
  34:	e1a0000a 	mov	r0, sl
  38:	ebfffffe 	bl	0 <emac_start>
  3c:	e59d3030 	ldr	r3, [sp, #48]	; 0x30
  40:	e5dd403c 	ldrb	r4, [sp, #60]	; 0x3c
  44:	e58d301c 	str	r3, [sp, #28]
  48:	e59d3034 	ldr	r3, [sp, #52]	; 0x34
  4c:	e5c84001 	strb	r4, [r8, #1]
  50:	e58d3020 	str	r3, [sp, #32]
  54:	e59d3028 	ldr	r3, [sp, #40]	; 0x28
  58:	e59de02c 	ldr	lr, [sp, #44]	; 0x2c
  5c:	e2132040 	ands	r2, r3, #64	; 0x40
  60:	e58de018 	str	lr, [sp, #24]
  64:	159d207d 	ldrne	r2, [sp, #125]	; 0x7d
  68:	e3130080 	tst	r3, #128	; 0x80
  6c:	03a03000 	moveq	r3, #0
  70:	e5882008 	str	r2, [r8, #8]
  74:	159d3081 	ldrne	r3, [sp, #129]	; 0x81
  78:	e588300c 	str	r3, [r8, #12]
  7c:	e5dd303d 	ldrb	r3, [sp, #61]	; 0x3d
  80:	e3530000 	cmp	r3, #0
  84:	1a0000a8 	bne	32c <Network::Init(NetworkParamsStore*)+0x32c>
  88:	e3001000 	movw	r1, #0
  8c:	e288001b 	add	r0, r8, #27
  90:	e3401000 	movt	r1, #0
  94:	e3a02061 	mov	r2, #97	; 0x61
  98:	e5e02001 	strb	r2, [r0, #1]!
  9c:	e1a0c003 	mov	ip, r3
  a0:	e5f12001 	ldrb	r2, [r1, #1]!
  a4:	e2833001 	add	r3, r3, #1
  a8:	e3520000 	cmp	r2, #0
  ac:	1afffff9 	bne	98 <Network::Init(NetworkParamsStore*)+0x98>
  b0:	e5d8209f 	ldrb	r2, [r8, #159]	; 0x9f
  b4:	e288b01c 	add	fp, r8, #28
  b8:	e0883003 	add	r3, r8, r3
  bc:	e1a01222 	lsr	r1, r2, #4
  c0:	e352009f 	cmp	r2, #159	; 0x9f
  c4:	92811030 	addls	r1, r1, #48	; 0x30
  c8:	82811037 	addhi	r1, r1, #55	; 0x37
  cc:	e5c3101c 	strb	r1, [r3, #28]
  d0:	e202200f 	and	r2, r2, #15
  d4:	e28c3002 	add	r3, ip, #2
  d8:	e3520009 	cmp	r2, #9
  dc:	e0883003 	add	r3, r8, r3
  e0:	92822030 	addls	r2, r2, #48	; 0x30
  e4:	82822037 	addhi	r2, r2, #55	; 0x37
  e8:	e5c3201c 	strb	r2, [r3, #28]
  ec:	e28c2003 	add	r2, ip, #3
  f0:	e5d830a0 	ldrb	r3, [r8, #160]	; 0xa0
  f4:	e0882002 	add	r2, r8, r2
  f8:	e1a01223 	lsr	r1, r3, #4
  fc:	e353009f 	cmp	r3, #159	; 0x9f
 100:	92811030 	addls	r1, r1, #48	; 0x30
 104:	82811037 	addhi	r1, r1, #55	; 0x37
 108:	e5c2101c 	strb	r1, [r2, #28]
 10c:	e203300f 	and	r3, r3, #15
 110:	e28c2004 	add	r2, ip, #4
 114:	e3530009 	cmp	r3, #9
 118:	e0882002 	add	r2, r8, r2
 11c:	92833030 	addls	r3, r3, #48	; 0x30
 120:	82833037 	addhi	r3, r3, #55	; 0x37
 124:	e5c2301c 	strb	r3, [r2, #28]
 128:	e28c2005 	add	r2, ip, #5
 12c:	e5d830a1 	ldrb	r3, [r8, #161]	; 0xa1
 130:	e0882002 	add	r2, r8, r2
 134:	e1a01223 	lsr	r1, r3, #4
 138:	e353009f 	cmp	r3, #159	; 0x9f
 13c:	92811030 	addls	r1, r1, #48	; 0x30
 140:	82811037 	addhi	r1, r1, #55	; 0x37
 144:	e5c2101c 	strb	r1, [r2, #28]
 148:	e203300f 	and	r3, r3, #15
 14c:	e28c2006 	add	r2, ip, #6
 150:	e3530009 	cmp	r3, #9
 154:	e0882002 	add	r2, r8, r2
 158:	92833030 	addls	r3, r3, #48	; 0x30
 15c:	e088c00c 	add	ip, r8, ip
 160:	82833037 	addhi	r3, r3, #55	; 0x37
 164:	e5c2301c 	strb	r3, [r2, #28]
 168:	e3a03000 	mov	r3, #0
 16c:	e5cc3023 	strb	r3, [ip, #35]	; 0x23
 170:	e3540000 	cmp	r4, #0
 174:	0a00005f 	beq	2f8 <Network::Init(NetworkParamsStore*)+0x2f8>
 178:	e3a01001 	mov	r1, #1
 17c:	e1a00009 	mov	r0, r9
 180:	ebfffffe 	bl	0 <NetworkDisplay::ShowDhcpStatus(network::dhcp::ClientStatus)>
 184:	e2882003 	add	r2, r8, #3
 188:	e2883001 	add	r3, r8, #1
 18c:	e58d2014 	str	r2, [sp, #20]
 190:	e28d1018 	add	r1, sp, #24
 194:	e58d2000 	str	r2, [sp]
 198:	e1a0000a 	mov	r0, sl
 19c:	e58d3010 	str	r3, [sp, #16]
 1a0:	e1a0200b 	mov	r2, fp
 1a4:	ebfffffe 	bl	0 <net_init>
 1a8:	e5d83003 	ldrb	r3, [r8, #3]
 1ac:	e3530000 	cmp	r3, #0
 1b0:	1a000058 	bne	318 <Network::Init(NetworkParamsStore*)+0x318>
 1b4:	e5dd2085 	ldrb	r2, [sp, #133]	; 0x85
 1b8:	e3530000 	cmp	r3, #0
 1bc:	e3005000 	movw	r5, #0
 1c0:	e3a07b03 	mov	r7, #3072	; 0xc00
 1c4:	e1a06202 	lsl	r6, r2, #4
 1c8:	e0466002 	sub	r6, r6, r2
 1cc:	e58d200c 	str	r2, [sp, #12]
 1d0:	e5dd203c 	ldrb	r2, [sp, #60]	; 0x3c
 1d4:	e3405000 	movt	r5, #0
 1d8:	e34071c2 	movt	r7, #450	; 0x1c2
 1dc:	e1a06106 	lsl	r6, r6, #2
 1e0:	e58d2008 	str	r2, [sp, #8]
 1e4:	0a00003a 	beq	2d4 <Network::Init(NetworkParamsStore*)+0x2d4>
 1e8:	e59d3008 	ldr	r3, [sp, #8]
 1ec:	e2234001 	eor	r4, r3, #1
 1f0:	e59d300c 	ldr	r3, [sp, #12]
 1f4:	e3530000 	cmp	r3, #0
 1f8:	03844001 	orreq	r4, r4, #1
 1fc:	e3540000 	cmp	r4, #0
 200:	1a000033 	bne	2d4 <Network::Init(NetworkParamsStore*)+0x2d4>
 204:	e5950000 	ldr	r0, [r5]
 208:	e3a01004 	mov	r1, #4
 20c:	ebfffffe 	bl	0 <LedBlink::SetMode(ledblink::Mode)>
 210:	e3a01003 	mov	r1, #3
 214:	e1a00009 	mov	r0, r9
 218:	ebfffffe 	bl	0 <NetworkDisplay::ShowDhcpStatus(network::dhcp::ClientStatus)>
 21c:	e1a00004 	mov	r0, r4
 220:	ebfffffe 	bl	0 <time>
 224:	e1a04000 	mov	r4, r0
 228:	e3a00000 	mov	r0, #0
 22c:	ebfffffe 	bl	0 <time>
 230:	e0400004 	sub	r0, r0, r4
 234:	e1500006 	cmp	r0, r6
 238:	aa00000e 	bge	278 <Network::Init(NetworkParamsStore*)+0x278>
 23c:	e5953000 	ldr	r3, [r5]
 240:	e593100c 	ldr	r1, [r3, #12]
 244:	e3510000 	cmp	r1, #0
 248:	0afffff6 	beq	228 <Network::Init(NetworkParamsStore*)+0x228>
 24c:	e597c088 	ldr	ip, [r7, #136]	; 0x88
 250:	e5932014 	ldr	r2, [r3, #20]
 254:	e04c2002 	sub	r2, ip, r2
 258:	e1510002 	cmp	r1, r2
 25c:	8afffff1 	bhi	228 <Network::Init(NetworkParamsStore*)+0x228>
 260:	e5930010 	ldr	r0, [r3, #16]
 264:	e583c014 	str	ip, [r3, #20]
 268:	e2200001 	eor	r0, r0, #1
 26c:	e5830010 	str	r0, [r3, #16]
 270:	ebfffffe 	bl	0 <hardware_led_set>
 274:	eaffffeb 	b	228 <Network::Init(NetworkParamsStore*)+0x228>
 278:	e3a01001 	mov	r1, #1
 27c:	e1a00009 	mov	r0, r9
 280:	ebfffffe 	bl	0 <NetworkDisplay::ShowDhcpStatus(network::dhcp::ClientStatus)>
 284:	e5950000 	ldr	r0, [r5]
 288:	e3a01001 	mov	r1, #1
 28c:	ebfffffe 	bl	0 <LedBlink::SetMode(ledblink::Mode)>
 290:	e59d2014 	ldr	r2, [sp, #20]
 294:	e3a03001 	mov	r3, #1
 298:	e5c83001 	strb	r3, [r8, #1]
 29c:	e3a03000 	mov	r3, #0
 2a0:	e5c83003 	strb	r3, [r8, #3]
 2a4:	e28d1018 	add	r1, sp, #24
 2a8:	e59d3010 	ldr	r3, [sp, #16]
 2ac:	e1a0000a 	mov	r0, sl
 2b0:	e58d2000 	str	r2, [sp]
 2b4:	e1a0200b 	mov	r2, fp
 2b8:	ebfffffe 	bl	0 <net_init>
 2bc:	e5d83001 	ldrb	r3, [r8, #1]
 2c0:	e3530000 	cmp	r3, #0
 2c4:	1a000002 	bne	2d4 <Network::Init(NetworkParamsStore*)+0x2d4>
 2c8:	e5d83003 	ldrb	r3, [r8, #3]
 2cc:	e3530000 	cmp	r3, #0
 2d0:	1affffc4 	bne	1e8 <Network::Init(NetworkParamsStore*)+0x1e8>
 2d4:	e28d1018 	add	r1, sp, #24
 2d8:	e1a00009 	mov	r0, r9
 2dc:	e891000e 	ldm	r1, {r1, r2, r3}
 2e0:	e5881010 	str	r1, [r8, #16]
 2e4:	e5882018 	str	r2, [r8, #24]
 2e8:	e5883014 	str	r3, [r8, #20]
 2ec:	ebfffffe 	bl	0 <NetworkDisplay::ShowIp()>
 2f0:	e28dd08c 	add	sp, sp, #140	; 0x8c
 2f4:	e8bd8ff0 	pop	{r4, r5, r6, r7, r8, r9, sl, fp, pc}
 2f8:	e35e0000 	cmp	lr, #0
 2fc:	0a00001e 	beq	37c <Network::Init(NetworkParamsStore*)+0x37c>
 300:	e1c821d0 	ldrd	r2, [r8, #16]
 304:	e5981018 	ldr	r1, [r8, #24]
 308:	e0233002 	eor	r3, r3, r2
 30c:	e1130001 	tst	r3, r1
 310:	158d2020 	strne	r2, [sp, #32]
 314:	eaffff9a 	b	184 <Network::Init(NetworkParamsStore*)+0x184>
 318:	e3a01004 	mov	r1, #4
 31c:	e1a00009 	mov	r0, r9
 320:	ebfffffe 	bl	0 <NetworkDisplay::ShowDhcpStatus(network::dhcp::ClientStatus)>
 324:	e5d83003 	ldrb	r3, [r8, #3]
 328:	eaffffa1 	b	1b4 <Network::Init(NetworkParamsStore*)+0x1b4>
 32c:	e288b01c 	add	fp, r8, #28
 330:	e28d103d 	add	r1, sp, #61	; 0x3d
 334:	e28d407b 	add	r4, sp, #123	; 0x7b
 338:	e1a0200b 	mov	r2, fp
 33c:	e288c05b 	add	ip, r8, #91	; 0x5b
 340:	ea000000 	b	348 <Network::Init(NetworkParamsStore*)+0x348>
 344:	e5f13001 	ldrb	r3, [r1, #1]!
 348:	e04c0002 	sub	r0, ip, r2
 34c:	e3530000 	cmp	r3, #0
 350:	0a000018 	beq	3b8 <Network::Init(NetworkParamsStore*)+0x3b8>
 354:	e1510004 	cmp	r1, r4
 358:	e4c23001 	strb	r3, [r2], #1
 35c:	1afffff8 	bne	344 <Network::Init(NetworkParamsStore*)+0x344>
 360:	e5d84001 	ldrb	r4, [r8, #1]
 364:	e3a03000 	mov	r3, #0
 368:	e5c8305b 	strb	r3, [r8, #91]	; 0x5b
 36c:	eaffff7f 	b	170 <Network::Init(NetworkParamsStore*)+0x170>
 370:	e28d0024 	add	r0, sp, #36	; 0x24
 374:	ebfffffe 	bl	0 <NetworkParams::Dump()>
 378:	eaffff29 	b	24 <Network::Init(NetworkParamsStore*)+0x24>
 37c:	e5d830a0 	ldrb	r3, [r8, #160]	; 0xa0
 380:	e5d8209f 	ldrb	r2, [r8, #159]	; 0x9f
 384:	e1a03803 	lsl	r3, r3, #16
 388:	e0833402 	add	r3, r3, r2, lsl #8
 38c:	e5d820a1 	ldrb	r2, [r8, #161]	; 0xa1
 390:	e2833002 	add	r3, r3, #2
 394:	e0833c02 	add	r3, r3, r2, lsl #24
 398:	e5883010 	str	r3, [r8, #16]
 39c:	e5883014 	str	r3, [r8, #20]
 3a0:	e58d3018 	str	r3, [sp, #24]
 3a4:	e58d3020 	str	r3, [sp, #32]
 3a8:	e3a030ff 	mov	r3, #255	; 0xff
 3ac:	e5883018 	str	r3, [r8, #24]
 3b0:	e58d301c 	str	r3, [sp, #28]
 3b4:	eaffff72 	b	184 <Network::Init(NetworkParamsStore*)+0x184>
 3b8:	e3500000 	cmp	r0, #0
 3bc:	0affffe7 	beq	360 <Network::Init(NetworkParamsStore*)+0x360>
 3c0:	e0820000 	add	r0, r2, r0
 3c4:	e4c23001 	strb	r3, [r2], #1
 3c8:	e1500002 	cmp	r0, r2
 3cc:	1afffffc 	bne	3c4 <Network::Init(NetworkParamsStore*)+0x3c4>
 3d0:	e5d84001 	ldrb	r4, [r8, #1]
 3d4:	e3a03000 	mov	r3, #0
 3d8:	e5c8305b 	strb	r3, [r8, #91]	; 0x5b
 3dc:	eaffff63 	b	170 <Network::Init(NetworkParamsStore*)+0x170>

Disassembly of section .text._ZN7Network8ShutdownEv:

00000000 <Network::Shutdown()>:
   0:	e92d4010 	push	{r4, lr}
   4:	e28000b8 	add	r0, r0, #184	; 0xb8
   8:	ebfffffe 	bl	0 <NetworkDisplay::ShowShutdown()>
   c:	e8bd4010 	pop	{r4, lr}
  10:	eafffffe 	b	0 <net_shutdown>

Disassembly of section .text._ZN7Network5BeginEt:

00000000 <Network::Begin(unsigned short)>:
   0:	e1a00001 	mov	r0, r1
   4:	eafffffe 	b	0 <udp_bind>

Disassembly of section .text._ZN7Network3EndEt:

00000000 <Network::End(unsigned short)>:
   0:	e1a00001 	mov	r0, r1
   4:	eafffffe 	b	0 <udp_unbind>

Disassembly of section .text._ZN7Network16MacAddressCopyToEPh:

00000000 <Network::MacAddressCopyTo(unsigned char*)>:
   0:	e280309c 	add	r3, r0, #156	; 0x9c
   4:	e2411001 	sub	r1, r1, #1
   8:	e28000a2 	add	r0, r0, #162	; 0xa2
   c:	e4d32001 	ldrb	r2, [r3], #1
  10:	e1530000 	cmp	r3, r0
  14:	e5e12001 	strb	r2, [r1, #1]!
  18:	1afffffb 	bne	c <Network::MacAddressCopyTo(unsigned char*)+0xc>
  1c:	e12fff1e 	bx	lr

Disassembly of section .text._ZN7Network9JoinGroupEij:

00000000 <Network::JoinGroup(int, unsigned int)>:
   0:	e1a00002 	mov	r0, r2
   4:	eafffffe 	b	0 <igmp_join>

Disassembly of section .text._ZN7Network10LeaveGroupEij:

00000000 <Network::LeaveGroup(int, unsigned int)>:
   0:	e1a00002 	mov	r0, r2
   4:	eafffffe 	b	0 <igmp_leave>

Disassembly of section .text._ZN7Network8RecvFromEiPvtPjPt:

00000000 <Network::RecvFrom(int, void*, unsigned short, unsigned int*, unsigned short*)>:
   0:	e59d0004 	ldr	r0, [sp, #4]
   4:	e59dc000 	ldr	ip, [sp]
   8:	e58d0000 	str	r0, [sp]
   c:	e1a00001 	mov	r0, r1
  10:	e6ef0070 	uxtb	r0, r0
  14:	e1a01002 	mov	r1, r2
  18:	e1a02003 	mov	r2, r3
  1c:	e1a0300c 	mov	r3, ip
  20:	eafffffe 	b	0 <udp_recv>

Disassembly of section .text._ZN7Network8RecvFromEiPPKvPjPt:

00000000 <Network::RecvFrom(int, void const**, unsigned int*, unsigned short*)>:
   0:	e1a00001 	mov	r0, r1
   4:	e1a01002 	mov	r1, r2
   8:	e6ef0070 	uxtb	r0, r0
   c:	e1a02003 	mov	r2, r3
  10:	e59d3000 	ldr	r3, [sp]
  14:	eafffffe 	b	0 <udp_recv2>

Disassembly of section .text._ZN7Network6SendToEiPKvtjt:

00000000 <Network::SendTo(int, void const*, unsigned short, unsigned int, unsigned short)>:
   0:	e1dd00b4 	ldrh	r0, [sp, #4]
   4:	e59dc000 	ldr	ip, [sp]
   8:	e58d0000 	str	r0, [sp]
   c:	e1a00001 	mov	r0, r1
  10:	e6ef0070 	uxtb	r0, r0
  14:	e1a01002 	mov	r1, r2
  18:	e1a02003 	mov	r2, r3
  1c:	e1a0300c 	mov	r3, ip
  20:	eafffffe 	b	0 <udp_send>

Disassembly of section .text._ZN7Network12SetDefaultIpEv:

00000000 <Network::SetDefaultIp()>:
   0:	e5d030a0 	ldrb	r3, [r0, #160]	; 0xa0
   4:	e3a0c0ff 	mov	ip, #255	; 0xff
   8:	e5d0109f 	ldrb	r1, [r0, #159]	; 0x9f
   c:	e1a03803 	lsl	r3, r3, #16
  10:	e5d020a1 	ldrb	r2, [r0, #161]	; 0xa1
  14:	e0833401 	add	r3, r3, r1, lsl #8
  18:	e580c018 	str	ip, [r0, #24]
  1c:	e2833002 	add	r3, r3, #2
  20:	e0833c02 	add	r3, r3, r2, lsl #24
  24:	e5803010 	str	r3, [r0, #16]
  28:	e5803014 	str	r3, [r0, #20]
  2c:	e12fff1e 	bx	lr

Disassembly of section .text._ZN7Network5SetIpEj:

00000000 <Network::SetIp(unsigned int)>:
   0:	e5d03001 	ldrb	r3, [r0, #1]
   4:	e92d4070 	push	{r4, r5, r6, lr}
   8:	e3530000 	cmp	r3, #0
   c:	e1a04000 	mov	r4, r0
  10:	e1a05001 	mov	r5, r1
  14:	1a000026 	bne	b4 <Network::SetIp(unsigned int)+0xb4>
  18:	e3550000 	cmp	r5, #0
  1c:	e3a06000 	mov	r6, #0
  20:	e5c46003 	strb	r6, [r4, #3]
  24:	1a000011 	bne	70 <Network::SetIp(unsigned int)+0x70>
  28:	e5d400a0 	ldrb	r0, [r4, #160]	; 0xa0
  2c:	e3a010ff 	mov	r1, #255	; 0xff
  30:	e5d4209f 	ldrb	r2, [r4, #159]	; 0x9f
  34:	e1a00800 	lsl	r0, r0, #16
  38:	e5d430a1 	ldrb	r3, [r4, #161]	; 0xa1
  3c:	e0800402 	add	r0, r0, r2, lsl #8
  40:	e5841018 	str	r1, [r4, #24]
  44:	e2800002 	add	r0, r0, #2
  48:	e0800c03 	add	r0, r0, r3, lsl #24
  4c:	e5840010 	str	r0, [r4, #16]
  50:	e5840014 	str	r0, [r4, #20]
  54:	ebfffffe 	bl	0 <net_set_ip>
  58:	e28440b8 	add	r4, r4, #184	; 0xb8
  5c:	e1a00004 	mov	r0, r4
  60:	ebfffffe 	bl	0 <NetworkDisplay::ShowIp()>
  64:	e1a00004 	mov	r0, r4
  68:	e8bd4070 	pop	{r4, r5, r6, lr}
  6c:	eafffffe 	b	0 <NetworkDisplay::ShowNetMask()>
  70:	e1a00005 	mov	r0, r5
  74:	ebfffffe 	bl	0 <net_set_ip>
  78:	e59400b4 	ldr	r0, [r4, #180]	; 0xb4
  7c:	e5845010 	str	r5, [r4, #16]
  80:	e5845014 	str	r5, [r4, #20]
  84:	e3500000 	cmp	r0, #0
  88:	0afffff2 	beq	58 <Network::SetIp(unsigned int)+0x58>
  8c:	e5903000 	ldr	r3, [r0]
  90:	e1a01005 	mov	r1, r5
  94:	e5933008 	ldr	r3, [r3, #8]
  98:	e12fff33 	blx	r3
  9c:	e59400b4 	ldr	r0, [r4, #180]	; 0xb4
  a0:	e1a01006 	mov	r1, r6
  a4:	e5903000 	ldr	r3, [r0]
  a8:	e5933018 	ldr	r3, [r3, #24]
  ac:	e12fff33 	blx	r3
  b0:	eaffffe8 	b	58 <Network::SetIp(unsigned int)+0x58>
  b4:	e3a03000 	mov	r3, #0
  b8:	e5c03001 	strb	r3, [r0, #1]
  bc:	ebfffffe 	bl	0 <net_dhcp_release>
  c0:	eaffffd4 	b	18 <Network::SetIp(unsigned int)+0x18>

Disassembly of section .text._ZN7Network10SetNetmaskEj:

00000000 <Network::SetNetmask(unsigned int)>:
   0:	e5902018 	ldr	r2, [r0, #24]
   4:	e1520001 	cmp	r2, r1
   8:	012fff1e 	bxeq	lr
   c:	e92d4010 	push	{r4, lr}
  10:	e1a04000 	mov	r4, r0
  14:	e59000b4 	ldr	r0, [r0, #180]	; 0xb4
  18:	e5841018 	str	r1, [r4, #24]
  1c:	e3500000 	cmp	r0, #0
  20:	0a000002 	beq	30 <Network::SetNetmask(unsigned int)+0x30>
  24:	e5903000 	ldr	r3, [r0]
  28:	e593300c 	ldr	r3, [r3, #12]
  2c:	e12fff33 	blx	r3
  30:	e28440b8 	add	r4, r4, #184	; 0xb8
  34:	e1a00004 	mov	r0, r4
  38:	ebfffffe 	bl	0 <NetworkDisplay::ShowIp()>
  3c:	e1a00004 	mov	r0, r4
  40:	e8bd4010 	pop	{r4, lr}
  44:	eafffffe 	b	0 <NetworkDisplay::ShowNetMask()>

Disassembly of section .text._ZN7Network12SetGatewayIpEj:

00000000 <Network::SetGatewayIp(unsigned int)>:
   0:	e5903014 	ldr	r3, [r0, #20]
   4:	e1530001 	cmp	r3, r1
   8:	012fff1e 	bxeq	lr
   c:	e92d4070 	push	{r4, r5, r6, lr}
  10:	e1a04000 	mov	r4, r0
  14:	e1a00001 	mov	r0, r1
  18:	e1a05001 	mov	r5, r1
  1c:	ebfffffe 	bl	0 <net_set_gw>
  20:	e59400b4 	ldr	r0, [r4, #180]	; 0xb4
  24:	e3500000 	cmp	r0, #0
  28:	0a000003 	beq	3c <Network::SetGatewayIp(unsigned int)+0x3c>
  2c:	e5903000 	ldr	r3, [r0]
  30:	e1a01005 	mov	r1, r5
  34:	e5933010 	ldr	r3, [r3, #16]
  38:	e12fff33 	blx	r3
  3c:	e28400b8 	add	r0, r4, #184	; 0xb8
  40:	e8bd4070 	pop	{r4, r5, r6, lr}
  44:	eafffffe 	b	0 <NetworkDisplay::ShowGatewayIp()>

Disassembly of section .text._ZN7Network11SetHostNameEPKc:

00000000 <Network::SetHostName(char const*)>:
   0:	e92d4070 	push	{r4, r5, r6, lr}
   4:	e1a05000 	mov	r5, r0
   8:	e1a04001 	mov	r4, r1
   c:	ebfffffe 	bl	0 <Network::SetHostName(char const*)>
  10:	e1a00004 	mov	r0, r4
  14:	ebfffffe 	bl	0 <net_set_hostname>
  18:	e59500b4 	ldr	r0, [r5, #180]	; 0xb4
  1c:	e3500000 	cmp	r0, #0
  20:	08bd8070 	popeq	{r4, r5, r6, pc}
  24:	e5d42000 	ldrb	r2, [r4]
  28:	e5903000 	ldr	r3, [r0]
  2c:	e3520000 	cmp	r2, #0
  30:	e593e014 	ldr	lr, [r3, #20]
  34:	0a000005 	beq	50 <Network::SetHostName(char const*)+0x50>
  38:	e1a02004 	mov	r2, r4
  3c:	e5f23001 	ldrb	r3, [r2, #1]!
  40:	e3530000 	cmp	r3, #0
  44:	1afffffc 	bne	3c <Network::SetHostName(char const*)+0x3c>
  48:	e0422004 	sub	r2, r2, r4
  4c:	e6ff2072 	uxth	r2, r2
  50:	e1a01004 	mov	r1, r4
  54:	e1a0300e 	mov	r3, lr
  58:	e8bd4070 	pop	{r4, r5, r6, lr}
  5c:	e12fff13 	bx	r3

Disassembly of section .text._ZN7Network11SetZeroconfEv:

00000000 <Network::SetZeroconf()>:
   0:	e92d4030 	push	{r4, r5, lr}
   4:	e24dd014 	sub	sp, sp, #20
   8:	e1a04000 	mov	r4, r0
   c:	e28d0004 	add	r0, sp, #4
  10:	ebfffffe 	bl	0 <net_set_zeroconf>
  14:	e5c40003 	strb	r0, [r4, #3]
  18:	e3500000 	cmp	r0, #0
  1c:	0a00000d 	beq	58 <Network::SetZeroconf()+0x58>
  20:	e59400b4 	ldr	r0, [r4, #180]	; 0xb4
  24:	e99d000a 	ldmib	sp, {r1, r3}
  28:	e59d200c 	ldr	r2, [sp, #12]
  2c:	e3500000 	cmp	r0, #0
  30:	e5843018 	str	r3, [r4, #24]
  34:	e3a03000 	mov	r3, #0
  38:	e5841010 	str	r1, [r4, #16]
  3c:	e5842014 	str	r2, [r4, #20]
  40:	e5c43001 	strb	r3, [r4, #1]
  44:	0a000003 	beq	58 <Network::SetZeroconf()+0x58>
  48:	e5903000 	ldr	r3, [r0]
  4c:	e3a01001 	mov	r1, #1
  50:	e5933018 	ldr	r3, [r3, #24]
  54:	e12fff33 	blx	r3
  58:	e28450b8 	add	r5, r4, #184	; 0xb8
  5c:	e1a00005 	mov	r0, r5
  60:	ebfffffe 	bl	0 <NetworkDisplay::ShowIp()>
  64:	e1a00005 	mov	r0, r5
  68:	ebfffffe 	bl	0 <NetworkDisplay::ShowNetMask()>
  6c:	e5d40003 	ldrb	r0, [r4, #3]
  70:	e28dd014 	add	sp, sp, #20
  74:	e8bd8030 	pop	{r4, r5, pc}

Disassembly of section .text._ZN7Network10EnableDhcpEv:

00000000 <Network::EnableDhcp()>:
   0:	e92d40f0 	push	{r4, r5, r6, r7, lr}
   4:	e3006000 	movw	r6, #0
   8:	e3406000 	movt	r6, #0
   c:	e24dd014 	sub	sp, sp, #20
  10:	e1a04000 	mov	r4, r0
  14:	e5963000 	ldr	r3, [r6]
  18:	e5d37018 	ldrb	r7, [r3, #24]
  1c:	e3570000 	cmp	r7, #0
  20:	1a000022 	bne	b0 <Network::EnableDhcp()+0xb0>
  24:	e28450b8 	add	r5, r4, #184	; 0xb8
  28:	e3a01001 	mov	r1, #1
  2c:	e1a00005 	mov	r0, r5
  30:	ebfffffe 	bl	0 <NetworkDisplay::ShowDhcpStatus(network::dhcp::ClientStatus)>
  34:	e2841003 	add	r1, r4, #3
  38:	e28d0004 	add	r0, sp, #4
  3c:	ebfffffe 	bl	0 <net_set_dhcp>
  40:	e5d43003 	ldrb	r3, [r4, #3]
  44:	e5c40001 	strb	r0, [r4, #1]
  48:	e1a00005 	mov	r0, r5
  4c:	e3530000 	cmp	r3, #0
  50:	13a01004 	movne	r1, #4
  54:	03a01002 	moveq	r1, #2
  58:	ebfffffe 	bl	0 <NetworkDisplay::ShowDhcpStatus(network::dhcp::ClientStatus)>
  5c:	e3570000 	cmp	r7, #0
  60:	1a000016 	bne	c0 <Network::EnableDhcp()+0xc0>
  64:	e1cd20d4 	ldrd	r2, [sp, #4]
  68:	e59400b4 	ldr	r0, [r4, #180]	; 0xb4
  6c:	e5843018 	str	r3, [r4, #24]
  70:	e59d300c 	ldr	r3, [sp, #12]
  74:	e3500000 	cmp	r0, #0
  78:	e5842010 	str	r2, [r4, #16]
  7c:	e5843014 	str	r3, [r4, #20]
  80:	0a000003 	beq	94 <Network::EnableDhcp()+0x94>
  84:	e5903000 	ldr	r3, [r0]
  88:	e5d41001 	ldrb	r1, [r4, #1]
  8c:	e5933018 	ldr	r3, [r3, #24]
  90:	e12fff33 	blx	r3
  94:	e1a00005 	mov	r0, r5
  98:	ebfffffe 	bl	0 <NetworkDisplay::ShowIp()>
  9c:	e1a00005 	mov	r0, r5
  a0:	ebfffffe 	bl	0 <NetworkDisplay::ShowNetMask()>
  a4:	e5d40001 	ldrb	r0, [r4, #1]
  a8:	e28dd014 	add	sp, sp, #20
  ac:	e8bd80f0 	pop	{r4, r5, r6, r7, pc}
  b0:	e3a02000 	mov	r2, #0
  b4:	e5c32018 	strb	r2, [r3, #24]
  b8:	ebfffffe 	bl	0 <h3_watchdog_disable>
  bc:	eaffffd8 	b	24 <Network::EnableDhcp()+0x24>
  c0:	e5963000 	ldr	r3, [r6]
  c4:	e3a02001 	mov	r2, #1
  c8:	e5c32018 	strb	r2, [r3, #24]
  cc:	ebfffffe 	bl	0 <h3_watchdog_enable>
  d0:	eaffffe3 	b	64 <Network::EnableDhcp()+0x64>

Disassembly of section .text._ZN7Network17SetQueuedStaticIpEjj:

00000000 <Network::SetQueuedStaticIp(unsigned int, unsigned int)>:
   0:	e59030bc 	ldr	r3, [r0, #188]	; 0xbc
   4:	e3510000 	cmp	r1, #0
   8:	158010c0 	strne	r1, [r0, #192]	; 0xc0
   c:	e3520000 	cmp	r2, #0
  10:	158020c4 	strne	r2, [r0, #196]	; 0xc4
  14:	e3833003 	orr	r3, r3, #3
  18:	e58030bc 	str	r3, [r0, #188]	; 0xbc
  1c:	e12fff1e 	bx	lr

Disassembly of section .text._ZN7Network17ApplyQueuedConfigEv:

00000000 <Network::ApplyQueuedConfig()>:
   0:	e59030bc 	ldr	r3, [r0, #188]	; 0xbc
   4:	e3530000 	cmp	r3, #0
   8:	0a00001c 	beq	80 <Network::ApplyQueuedConfig()+0x80>
   c:	e3130003 	tst	r3, #3
  10:	e92d4070 	push	{r4, r5, r6, lr}
  14:	e1a04000 	mov	r4, r0
  18:	0a000003 	beq	2c <Network::ApplyQueuedConfig()+0x2c>
  1c:	e3130002 	tst	r3, #2
  20:	1a000021 	bne	ac <Network::ApplyQueuedConfig()+0xac>
  24:	e3130001 	tst	r3, #1
  28:	1a000016 	bne	88 <Network::ApplyQueuedConfig()+0x88>
  2c:	e3130004 	tst	r3, #4
  30:	1a00000a 	bne	60 <Network::ApplyQueuedConfig()+0x60>
  34:	e3130008 	tst	r3, #8
  38:	1a000001 	bne	44 <Network::ApplyQueuedConfig()+0x44>
  3c:	e3a00001 	mov	r0, #1
  40:	e8bd8070 	pop	{r4, r5, r6, pc}
  44:	e1a00004 	mov	r0, r4
  48:	ebfffffe 	bl	0 <Network::ApplyQueuedConfig()>
  4c:	e59430bc 	ldr	r3, [r4, #188]	; 0xbc
  50:	e3a00001 	mov	r0, #1
  54:	e3c33008 	bic	r3, r3, #8
  58:	e58430bc 	str	r3, [r4, #188]	; 0xbc
  5c:	e8bd8070 	pop	{r4, r5, r6, pc}
  60:	e1a00004 	mov	r0, r4
  64:	ebfffffe 	bl	0 <Network::ApplyQueuedConfig()>
  68:	e59430bc 	ldr	r3, [r4, #188]	; 0xbc
  6c:	e3c33004 	bic	r3, r3, #4
  70:	e58430bc 	str	r3, [r4, #188]	; 0xbc
  74:	e3130008 	tst	r3, #8
  78:	0affffef 	beq	3c <Network::ApplyQueuedConfig()+0x3c>
  7c:	eafffff0 	b	44 <Network::ApplyQueuedConfig()+0x44>
  80:	e1a00003 	mov	r0, r3
  84:	e12fff1e 	bx	lr
  88:	e59410c0 	ldr	r1, [r4, #192]	; 0xc0
  8c:	e1a00004 	mov	r0, r4
  90:	ebfffffe 	bl	0 <Network::ApplyQueuedConfig()>
  94:	e59430bc 	ldr	r3, [r4, #188]	; 0xbc
  98:	e3c33001 	bic	r3, r3, #1
  9c:	e58430bc 	str	r3, [r4, #188]	; 0xbc
  a0:	e3130004 	tst	r3, #4
  a4:	0affffe2 	beq	34 <Network::ApplyQueuedConfig()+0x34>
  a8:	eaffffec 	b	60 <Network::ApplyQueuedConfig()+0x60>
  ac:	e59010c4 	ldr	r1, [r0, #196]	; 0xc4
  b0:	e5902018 	ldr	r2, [r0, #24]
  b4:	e1510002 	cmp	r1, r2
  b8:	0a00000c 	beq	f0 <Network::ApplyQueuedConfig()+0xf0>
  bc:	e59000b4 	ldr	r0, [r0, #180]	; 0xb4
  c0:	e5841018 	str	r1, [r4, #24]
  c4:	e3500000 	cmp	r0, #0
  c8:	0a000002 	beq	d8 <Network::ApplyQueuedConfig()+0xd8>
  cc:	e5903000 	ldr	r3, [r0]
  d0:	e593300c 	ldr	r3, [r3, #12]
  d4:	e12fff33 	blx	r3
  d8:	e28450b8 	add	r5, r4, #184	; 0xb8
  dc:	e1a00005 	mov	r0, r5
  e0:	ebfffffe 	bl	0 <NetworkDisplay::ShowIp()>
  e4:	e1a00005 	mov	r0, r5
  e8:	ebfffffe 	bl	0 <NetworkDisplay::ShowNetMask()>
  ec:	e59430bc 	ldr	r3, [r4, #188]	; 0xbc
  f0:	e3c33002 	bic	r3, r3, #2
  f4:	e58430bc 	str	r3, [r4, #188]	; 0xbc
  f8:	eaffffc9 	b	24 <Network::ApplyQueuedConfig()+0x24>

Disassembly of section .text._ZN7Network5PrintEv:

00000000 <Network::Print()>:
   0:	e92d4030 	push	{r4, r5, lr}
   4:	e1a04000 	mov	r4, r0
   8:	e3000000 	movw	r0, #0
   c:	e24dd014 	sub	sp, sp, #20
  10:	e3400000 	movt	r0, #0
  14:	ebfffffe 	bl	0 <printf>
  18:	e3000000 	movw	r0, #0
  1c:	e284101c 	add	r1, r4, #28
  20:	e3400000 	movt	r0, #0
  24:	ebfffffe 	bl	0 <printf>
  28:	e5941004 	ldr	r1, [r4, #4]
  2c:	e3000000 	movw	r0, #0
  30:	e3400000 	movt	r0, #0
  34:	e28420a2 	add	r2, r4, #162	; 0xa2
  38:	ebfffffe 	bl	0 <printf>
  3c:	e5945010 	ldr	r5, [r4, #16]
  40:	e5940018 	ldr	r0, [r4, #24]
  44:	ebfffffe 	bl	0 <__popcountsi2>
  48:	e58d0004 	str	r0, [sp, #4]
  4c:	e3000000 	movw	r0, #0
  50:	e1a02c25 	lsr	r2, r5, #24
  54:	e6ef1075 	uxtb	r1, r5
  58:	e7e73855 	ubfx	r3, r5, #16, #8
  5c:	e58d2000 	str	r2, [sp]
  60:	e3400000 	movt	r0, #0
  64:	e7e72455 	ubfx	r2, r5, #8, #8
  68:	ebfffffe 	bl	0 <printf>
  6c:	e5941018 	ldr	r1, [r4, #24]
  70:	e1a00c21 	lsr	r0, r1, #24
  74:	e58d0000 	str	r0, [sp]
  78:	e3000000 	movw	r0, #0
  7c:	e7e73851 	ubfx	r3, r1, #16, #8
  80:	e7e72451 	ubfx	r2, r1, #8, #8
  84:	e6ef1071 	uxtb	r1, r1
  88:	e3400000 	movt	r0, #0
  8c:	ebfffffe 	bl	0 <printf>
  90:	e5941014 	ldr	r1, [r4, #20]
  94:	e1a00c21 	lsr	r0, r1, #24
  98:	e58d0000 	str	r0, [sp]
  9c:	e3000000 	movw	r0, #0
  a0:	e7e73851 	ubfx	r3, r1, #16, #8
  a4:	e7e72451 	ubfx	r2, r1, #8, #8
  a8:	e6ef1071 	uxtb	r1, r1
  ac:	e3400000 	movt	r0, #0
  b0:	ebfffffe 	bl	0 <printf>
  b4:	e5941018 	ldr	r1, [r4, #24]
  b8:	e5943010 	ldr	r3, [r4, #16]
  bc:	e1e01001 	mvn	r1, r1
  c0:	e1811003 	orr	r1, r1, r3
  c4:	e7e73851 	ubfx	r3, r1, #16, #8
  c8:	e1a00c21 	lsr	r0, r1, #24
  cc:	e58d0000 	str	r0, [sp]
  d0:	e3000000 	movw	r0, #0
  d4:	e7e72451 	ubfx	r2, r1, #8, #8
  d8:	e6ef1071 	uxtb	r1, r1
  dc:	e3400000 	movt	r0, #0
  e0:	ebfffffe 	bl	0 <printf>
  e4:	e5d410a1 	ldrb	r1, [r4, #161]	; 0xa1
  e8:	e3000000 	movw	r0, #0
  ec:	e5d420a0 	ldrb	r2, [r4, #160]	; 0xa0
  f0:	e5d4c09f 	ldrb	ip, [r4, #159]	; 0x9f
  f4:	e5d4309e 	ldrb	r3, [r4, #158]	; 0x9e
  f8:	e3400000 	movt	r0, #0
  fc:	e58d1008 	str	r1, [sp, #8]
 100:	e58d2004 	str	r2, [sp, #4]
 104:	e5d4209d 	ldrb	r2, [r4, #157]	; 0x9d
 108:	e5d4109c 	ldrb	r1, [r4, #156]	; 0x9c
 10c:	e58dc000 	str	ip, [sp]
 110:	ebfffffe 	bl	0 <printf>
 114:	e3003000 	movw	r3, #0
 118:	e3403000 	movt	r3, #0
 11c:	e5933000 	ldr	r3, [r3]
 120:	e5d32003 	ldrb	r2, [r3, #3]
 124:	e3520000 	cmp	r2, #0
 128:	13a0105a 	movne	r1, #90	; 0x5a
 12c:	1a000003 	bne	140 <Network::Print()+0x140>
 130:	e5d33001 	ldrb	r3, [r3, #1]
 134:	e3530000 	cmp	r3, #0
 138:	13a01044 	movne	r1, #68	; 0x44
 13c:	03a01053 	moveq	r1, #83	; 0x53
 140:	e3000000 	movw	r0, #0
 144:	e3400000 	movt	r0, #0
 148:	e28dd014 	add	sp, sp, #20
 14c:	e8bd4030 	pop	{r4, r5, lr}
 150:	eafffffe 	b	0 <printf>

networktcp.o:     file format elf32-littlearm


Disassembly of section .text._ZN7Network8TcpBeginEt:

00000000 <Network::TcpBegin(unsigned short)>:
   0:	e1a00001 	mov	r0, r1
   4:	eafffffe 	b	0 <tcp_begin>

Disassembly of section .text._ZN7Network7TcpReadEiPPKh:

00000000 <Network::TcpRead(int, unsigned char const**)>:
   0:	e1a00001 	mov	r0, r1
   4:	e1a01002 	mov	r1, r2
   8:	eafffffe 	b	0 <tcp_read>

Disassembly of section .text._ZN7Network8TcpWriteEiPKht:

00000000 <Network::TcpWrite(int, unsigned char const*, unsigned short)>:
   0:	e1a00001 	mov	r0, r1
   4:	e1a01002 	mov	r1, r2
   8:	e1a02003 	mov	r2, r3
   c:	eafffffe 	b	0 <tcp_write>
