In archive lib_linux/libartnet.a:

artnetconst.o:     file format elf64-x86-64


artnetmsgconst.o:     file format elf64-x86-64


artnetnode.o:     file format elf64-x86-64


Disassembly of section .text._ZN8Hardware13GetWebsiteUrlEv:

0000000000000000 <Hardware::GetWebsiteUrl()>:
   0:	f3 0f 1e fa          	endbr64 
   4:	55                   	push   %rbp
   5:	48 89 e5             	mov    %rsp,%rbp
   8:	48 89 7d f8          	mov    %rdi,-0x8(%rbp)
   c:	48 8d 05 00 00 00 00 	lea    0x0(%rip),%rax        # 13 <Hardware::GetWebsiteUrl()+0x13>
  13:	5d                   	pop    %rbp
  14:	c3                   	ret    

Disassembly of section .text._ZN8Hardware7GetModeEv:

0000000000000000 <Hardware::GetMode()>:
   0:	f3 0f 1e fa          	endbr64 
   4:	55                   	push   %rbp
   5:	48 89 e5             	mov    %rsp,%rbp
   8:	48 89 7d f8          	mov    %rdi,-0x8(%rbp)
   c:	48 8b 45 f8          	mov    -0x8(%rbp),%rax
  10:	8b 80 50 02 00 00    	mov    0x250(%rax),%eax
  16:	5d                   	pop    %rbp
  17:	c3                   	ret    

Disassembly of section .text._ZN8Hardware3GetEv:

0000000000000000 <Hardware::Get()>:
   0:	f3 0f 1e fa          	endbr64 
   4:	55                   	push   %rbp
   5:	48 89 e5             	mov    %rsp,%rbp
   8:	48 8b 05 00 00 00 00 	mov    0x0(%rip),%rax        # f <Hardware::Get()+0xf>
   f:	5d                   	pop    %rbp
  10:	c3                   	ret    

Disassembly of section .text._ZNK7Network5GetIpEv:

0000000000000000 <Network::GetIp() const>:
   0:	f3 0f 1e fa          	endbr64 
   4:	55                   	push   %rbp
   5:	48 89 e5             	mov    %rsp,%rbp
   8:	48 89 7d f8          	mov    %rdi,-0x8(%rbp)
   c:	48 8b 45 f8          	mov    -0x8(%rbp),%rax
  10:	8b 40 10             	mov    0x10(%rax),%eax
  13:	5d                   	pop    %rbp
  14:	c3                   	ret    

Disassembly of section .text._ZNK7Network14GetBroadcastIpEv:

0000000000000000 <Network::GetBroadcastIp() const>:
   0:	f3 0f 1e fa          	endbr64 
   4:	55                   	push   %rbp
   5:	48 89 e5             	mov    %rsp,%rbp
   8:	48 89 7d f8          	mov    %rdi,-0x8(%rbp)
   c:	48 8b 45 f8          	mov    -0x8(%rbp),%rax
  10:	8b 50 10             	mov    0x10(%rax),%edx
  13:	48 8b 45 f8          	mov    -0x8(%rbp),%rax
  17:	8b 40 18             	mov    0x18(%rax),%eax
  1a:	f7 d0                	not    %eax
  1c:	09 d0                	or     %edx,%eax
  1e:	5d                   	pop    %rbp
  1f:	c3                   	ret    

Disassembly of section .text._ZNK7Network13IsDhcpCapableEv:

0000000000000000 <Network::IsDhcpCapable() const>:
   0:	f3 0f 1e fa          	endbr64 
   4:	55                   	push   %rbp
   5:	48 89 e5             	mov    %rsp,%rbp
   8:	48 89 7d f8          	mov    %rdi,-0x8(%rbp)
   c:	48 8b 45 f8          	mov    -0x8(%rbp),%rax
  10:	0f b6 00             	movzbl (%rax),%eax
  13:	5d                   	pop    %rbp
  14:	c3                   	ret    

Disassembly of section .text._ZNK7Network10IsDhcpUsedEv:

0000000000000000 <Network::IsDhcpUsed() const>:
   0:	f3 0f 1e fa          	endbr64 
   4:	55                   	push   %rbp
   5:	48 89 e5             	mov    %rsp,%rbp
   8:	48 89 7d f8          	mov    %rdi,-0x8(%rbp)
   c:	48 8b 45 f8          	mov    -0x8(%rbp),%rax
  10:	0f b6 40 01          	movzbl 0x1(%rax),%eax
  14:	5d                   	pop    %rbp
  15:	c3                   	ret    

Disassembly of section .text._ZN7Network3GetEv:

0000000000000000 <Network::Get()>:
   0:	f3 0f 1e fa          	endbr64 
   4:	55                   	push   %rbp
   5:	48 89 e5             	mov    %rsp,%rbp
   8:	48 8b 05 00 00 00 00 	mov    0x0(%rip),%rax        # f <Network::Get()+0xf>
   f:	5d                   	pop    %rbp
  10:	c3                   	ret    

Disassembly of section .text._ZN8lightset4Data3GetEv:

0000000000000000 <lightset::Data::Get()>:
   0:	f3 0f 1e fa          	endbr64 
   4:	55                   	push   %rbp
   5:	48 89 e5             	mov    %rsp,%rbp
   8:	0f b6 05 00 00 00 00 	movzbl 0x0(%rip),%eax        # f <lightset::Data::Get()+0xf>
   f:	84 c0                	test   %al,%al
  11:	0f 94 c0             	sete   %al
  14:	84 c0                	test   %al,%al
  16:	74 36                	je     4e <lightset::Data::Get()+0x4e>
  18:	48 8d 05 00 00 00 00 	lea    0x0(%rip),%rax        # 1f <lightset::Data::Get()+0x1f>
  1f:	48 89 c7             	mov    %rax,%rdi
  22:	e8 00 00 00 00       	call   27 <lightset::Data::Get()+0x27>
  27:	85 c0                	test   %eax,%eax
  29:	0f 95 c0             	setne  %al
  2c:	84 c0                	test   %al,%al
  2e:	74 1e                	je     4e <lightset::Data::Get()+0x4e>
  30:	48 8d 05 00 00 00 00 	lea    0x0(%rip),%rax        # 37 <lightset::Data::Get()+0x37>
  37:	48 89 c7             	mov    %rax,%rdi
  3a:	e8 00 00 00 00       	call   3f <lightset::Data::Get()+0x3f>
  3f:	48 8d 05 00 00 00 00 	lea    0x0(%rip),%rax        # 46 <lightset::Data::Get()+0x46>
  46:	48 89 c7             	mov    %rax,%rdi
  49:	e8 00 00 00 00       	call   4e <lightset::Data::Get()+0x4e>
  4e:	48 8d 05 00 00 00 00 	lea    0x0(%rip),%rax        # 55 <lightset::Data::Get()+0x55>
  55:	5d                   	pop    %rbp
  56:	c3                   	ret    

Disassembly of section .text._ZN8lightset4Data11ClearLengthEj:

0000000000000000 <lightset::Data::ClearLength(unsigned int)>:
   0:	f3 0f 1e fa          	endbr64 
   4:	55                   	push   %rbp
   5:	48 89 e5             	mov    %rsp,%rbp
   8:	48 83 ec 10          	sub    $0x10,%rsp
   c:	89 7d fc             	mov    %edi,-0x4(%rbp)
   f:	e8 00 00 00 00       	call   14 <lightset::Data::ClearLength(unsigned int)+0x14>
  14:	48 89 c2             	mov    %rax,%rdx
  17:	8b 45 fc             	mov    -0x4(%rbp),%eax
  1a:	89 c6                	mov    %eax,%esi
  1c:	48 89 d7             	mov    %rdx,%rdi
  1f:	e8 00 00 00 00       	call   24 <lightset::Data::ClearLength(unsigned int)+0x24>
  24:	90                   	nop
  25:	c9                   	leave  
  26:	c3                   	ret    

Disassembly of section .text._ZN8lightset4DataC2Ev:

0000000000000000 <lightset::Data::Data()>:
   0:	f3 0f 1e fa          	endbr64 
   4:	55                   	push   %rbp
   5:	48 89 e5             	mov    %rsp,%rbp
   8:	48 89 7d f8          	mov    %rdi,-0x8(%rbp)
   c:	90                   	nop
   d:	5d                   	pop    %rbp
   e:	c3                   	ret    

Disassembly of section .text._ZN8lightset4Data12IClearLengthEj:

0000000000000000 <lightset::Data::IClearLength(unsigned int)>:
   0:	f3 0f 1e fa          	endbr64 
   4:	55                   	push   %rbp
   5:	48 89 e5             	mov    %rsp,%rbp
   8:	48 89 7d f8          	mov    %rdi,-0x8(%rbp)
   c:	89 75 f4             	mov    %esi,-0xc(%rbp)
   f:	48 8b 55 f8          	mov    -0x8(%rbp),%rdx
  13:	8b 45 f4             	mov    -0xc(%rbp),%eax
  16:	48 69 c0 04 06 00 00 	imul   $0x604,%rax,%rax
  1d:	48 01 d0             	add    %rdx,%rax
  20:	48 05 00 06 00 00    	add    $0x600,%rax
  26:	c7 00 00 00 00 00    	movl   $0x0,(%rax)
  2c:	90                   	nop
  2d:	5d                   	pop    %rbp
  2e:	c3                   	ret    

Disassembly of section .text._ZN3halL12panel_led_onEj:

0000000000000000 <hal::panel_led_on(unsigned int)>:
   0:	55                   	push   %rbp
   1:	48 89 e5             	mov    %rsp,%rbp
   4:	89 7d fc             	mov    %edi,-0x4(%rbp)
   7:	90                   	nop
   8:	5d                   	pop    %rbp
   9:	c3                   	ret    

Disassembly of section .text._ZN3halL13panel_led_offEj:

0000000000000000 <hal::panel_led_off(unsigned int)>:
   0:	55                   	push   %rbp
   1:	48 89 e5             	mov    %rsp,%rbp
   4:	89 7d fc             	mov    %edi,-0x4(%rbp)
   7:	90                   	nop
   8:	5d                   	pop    %rbp
   9:	c3                   	ret    

Disassembly of section .text._ZN10ArtNetNodeC2Ev:

0000000000000000 <ArtNetNode::ArtNetNode()>:
   0:	f3 0f 1e fa          	endbr64 
   4:	55                   	push   %rbp
   5:	48 89 e5             	mov    %rsp,%rbp
   8:	48 83 ec 20          	sub    $0x20,%rsp
   c:	48 89 7d e8          	mov    %rdi,-0x18(%rbp)
  10:	48 8b 45 e8          	mov    -0x18(%rbp),%rax
  14:	c7 00 ff ff ff ff    	movl   $0xffffffff,(%rax)
  1a:	48 8b 45 e8          	mov    -0x18(%rbp),%rax
  1e:	c7 80 44 0a 00 00 00 	movl   $0x0,0xa44(%rax)
  25:	00 00 00 
  28:	48 8b 45 e8          	mov    -0x18(%rbp),%rax
  2c:	c7 80 48 0a 00 00 00 	movl   $0x0,0xa48(%rax)
  33:	00 00 00 
  36:	48 8b 45 e8          	mov    -0x18(%rbp),%rax
  3a:	c6 80 4c 0a 00 00 00 	movb   $0x0,0xa4c(%rax)
  41:	48 8b 45 e8          	mov    -0x18(%rbp),%rax
  45:	48 c7 80 50 0a 00 00 	movq   $0x0,0xa50(%rax)
  4c:	00 00 00 00 
  50:	48 8b 45 e8          	mov    -0x18(%rbp),%rax
  54:	48 c7 80 58 0a 00 00 	movq   $0x0,0xa58(%rax)
  5b:	00 00 00 00 
  5f:	48 8b 45 e8          	mov    -0x18(%rbp),%rax
  63:	48 c7 80 60 0a 00 00 	movq   $0x0,0xa60(%rax)
  6a:	00 00 00 00 
  6e:	48 8b 45 e8          	mov    -0x18(%rbp),%rax
  72:	48 c7 80 68 0a 00 00 	movq   $0x0,0xa68(%rax)
  79:	00 00 00 00 
  7d:	48 8b 45 e8          	mov    -0x18(%rbp),%rax
  81:	48 c7 80 70 0a 00 00 	movq   $0x0,0xa70(%rax)
  88:	00 00 00 00 
  8c:	48 8b 45 e8          	mov    -0x18(%rbp),%rax
  90:	48 c7 80 78 0a 00 00 	movq   $0x0,0xa78(%rax)
  97:	00 00 00 00 
  9b:	48 8b 45 e8          	mov    -0x18(%rbp),%rax
  9f:	48 89 05 00 00 00 00 	mov    %rax,0x0(%rip)        # a6 <ArtNetNode::ArtNetNode()+0xa6>
  a6:	48 8b 45 e8          	mov    -0x18(%rbp),%rax
  aa:	48 83 c0 04          	add    $0x4,%rax
  ae:	ba 70 00 00 00       	mov    $0x70,%edx
  b3:	be 00 00 00 00       	mov    $0x0,%esi
  b8:	48 89 c7             	mov    %rax,%rdi
  bb:	e8 00 00 00 00       	call   c0 <ArtNetNode::ArtNetNode()+0xc0>
  c0:	e8 00 00 00 00       	call   c5 <ArtNetNode::ArtNetNode()+0xc5>
  c5:	48 89 c7             	mov    %rax,%rdi
  c8:	e8 00 00 00 00       	call   cd <ArtNetNode::ArtNetNode()+0xcd>
  cd:	48 8b 55 e8          	mov    -0x18(%rbp),%rdx
  d1:	89 42 04             	mov    %eax,0x4(%rdx)
  d4:	48 8b 45 e8          	mov    -0x18(%rbp),%rax
  d8:	8b 50 04             	mov    0x4(%rax),%edx
  db:	48 8b 45 e8          	mov    -0x18(%rbp),%rax
  df:	89 50 08             	mov    %edx,0x8(%rax)
  e2:	e8 00 00 00 00       	call   e7 <ArtNetNode::ArtNetNode()+0xe7>
  e7:	48 89 c2             	mov    %rax,%rdx
  ea:	48 8b 45 e8          	mov    -0x18(%rbp),%rax
  ee:	48 83 c0 0c          	add    $0xc,%rax
  f2:	48 89 c6             	mov    %rax,%rsi
  f5:	48 89 d7             	mov    %rdx,%rdi
  f8:	e8 00 00 00 00       	call   fd <ArtNetNode::ArtNetNode()+0xfd>
  fd:	48 8b 45 e8          	mov    -0x18(%rbp),%rax
 101:	c6 40 67 d0          	movb   $0xd0,0x67(%rax)
 105:	48 8b 45 e8          	mov    -0x18(%rbp),%rax
 109:	c6 40 68 18          	movb   $0x18,0x68(%rax)
 10d:	48 8b 45 e8          	mov    -0x18(%rbp),%rax
 111:	0f b6 40 68          	movzbl 0x68(%rax),%eax
 115:	83 c8 80             	or     $0xffffff80,%eax
 118:	89 c2                	mov    %eax,%edx
 11a:	48 8b 45 e8          	mov    -0x18(%rbp),%rax
 11e:	88 50 68             	mov    %dl,0x68(%rax)
 121:	48 8b 45 e8          	mov    -0x18(%rbp),%rax
 125:	c6 40 69 20          	movb   $0x20,0x69(%rax)
 129:	48 8b 45 e8          	mov    -0x18(%rbp),%rax
 12d:	48 83 c0 74          	add    $0x74,%rax
 131:	ba 20 00 00 00       	mov    $0x20,%edx
 136:	be 00 00 00 00       	mov    $0x0,%esi
 13b:	48 89 c7             	mov    %rax,%rdi
 13e:	e8 00 00 00 00       	call   143 <ArtNetNode::ArtNetNode()+0x143>
 143:	48 8b 45 e8          	mov    -0x18(%rbp),%rax
 147:	c6 80 84 00 00 00 01 	movb   $0x1,0x84(%rax)
 14e:	48 8b 45 e8          	mov    -0x18(%rbp),%rax
 152:	c6 80 85 00 00 00 01 	movb   $0x1,0x85(%rax)
 159:	c7 45 fc 00 00 00 00 	movl   $0x0,-0x4(%rbp)
 160:	e9 92 00 00 00       	jmp    1f7 <ArtNetNode::ArtNetNode()+0x1f7>
 165:	8b 45 fc             	mov    -0x4(%rbp),%eax
 168:	48 c1 e0 05          	shl    $0x5,%rax
 16c:	48 8d 90 90 00 00 00 	lea    0x90(%rax),%rdx
 173:	48 8b 45 e8          	mov    -0x18(%rbp),%rax
 177:	48 01 d0             	add    %rdx,%rax
 17a:	48 83 c0 04          	add    $0x4,%rax
 17e:	ba 20 00 00 00       	mov    $0x20,%edx
 183:	be 00 00 00 00       	mov    $0x0,%esi
 188:	48 89 c7             	mov    %rax,%rdi
 18b:	e8 00 00 00 00       	call   190 <ArtNetNode::ArtNetNode()+0x190>
 190:	48 8b 55 e8          	mov    -0x18(%rbp),%rdx
 194:	8b 45 fc             	mov    -0x4(%rbp),%eax
 197:	48 83 c0 05          	add    $0x5,%rax
 19b:	48 c1 e0 05          	shl    $0x5,%rax
 19f:	48 01 d0             	add    %rdx,%rax
 1a2:	48 83 c0 13          	add    $0x13,%rax
 1a6:	c6 00 c0             	movb   $0xc0,(%rax)
 1a9:	8b 45 fc             	mov    -0x4(%rbp),%eax
 1ac:	48 83 c0 11          	add    $0x11,%rax
 1b0:	48 c1 e0 04          	shl    $0x4,%rax
 1b4:	48 89 c2             	mov    %rax,%rdx
 1b7:	48 8b 45 e8          	mov    -0x18(%rbp),%rax
 1bb:	48 01 d0             	add    %rdx,%rax
 1be:	48 83 c0 04          	add    $0x4,%rax
 1c2:	ba 10 00 00 00       	mov    $0x10,%edx
 1c7:	be 00 00 00 00       	mov    $0x0,%esi
 1cc:	48 89 c7             	mov    %rax,%rdi
 1cf:	e8 00 00 00 00       	call   1d4 <ArtNetNode::ArtNetNode()+0x1d4>
 1d4:	48 8b 45 e8          	mov    -0x18(%rbp),%rax
 1d8:	8b 40 04             	mov    0x4(%rax),%eax
 1db:	48 8b 4d e8          	mov    -0x18(%rbp),%rcx
 1df:	8b 55 fc             	mov    -0x4(%rbp),%edx
 1e2:	48 83 c2 11          	add    $0x11,%rdx
 1e6:	48 c1 e2 04          	shl    $0x4,%rdx
 1ea:	48 01 ca             	add    %rcx,%rdx
 1ed:	48 83 c2 0c          	add    $0xc,%rdx
 1f1:	89 02                	mov    %eax,(%rdx)
 1f3:	83 45 fc 01          	addl   $0x1,-0x4(%rbp)
 1f7:	83 7d fc 03          	cmpl   $0x3,-0x4(%rbp)
 1fb:	0f 86 64 ff ff ff    	jbe    165 <ArtNetNode::ArtNetNode()+0x165>
 201:	48 8b 45 e8          	mov    -0x18(%rbp),%rax
 205:	be 00 00 00 00       	mov    $0x0,%esi
 20a:	48 89 c7             	mov    %rax,%rdi
 20d:	e8 00 00 00 00       	call   212 <ArtNetNode::ArtNetNode()+0x212>
 212:	48 8b 45 e8          	mov    -0x18(%rbp),%rax
 216:	be 00 00 00 00       	mov    $0x0,%esi
 21b:	48 89 c7             	mov    %rax,%rdi
 21e:	e8 00 00 00 00       	call   223 <ArtNetNode::ArtNetNode()+0x223>
 223:	48 8b 45 e8          	mov    -0x18(%rbp),%rax
 227:	48 8d 90 2d 09 00 00 	lea    0x92d(%rax),%rdx
 22e:	48 8b 05 00 00 00 00 	mov    0x0(%rip),%rax        # 235 <ArtNetNode::ArtNetNode()+0x235>
 235:	48 89 02             	mov    %rax,(%rdx)
 238:	48 8b 45 e8          	mov    -0x18(%rbp),%rax
 23c:	66 c7 80 35 09 00 00 	movw   $0x8300,0x935(%rax)
 243:	00 83 
 245:	48 8b 45 e8          	mov    -0x18(%rbp),%rax
 249:	c6 80 37 09 00 00 00 	movb   $0x0,0x937(%rax)
 250:	48 8b 45 e8          	mov    -0x18(%rbp),%rax
 254:	c6 80 38 09 00 00 0e 	movb   $0xe,0x938(%rax)
 25b:	48 8b 45 e8          	mov    -0x18(%rbp),%rax
 25f:	c6 80 39 09 00 00 01 	movb   $0x1,0x939(%rax)
 266:	48 8b 45 e8          	mov    -0x18(%rbp),%rax
 26a:	c6 80 3b 09 00 00 00 	movb   $0x0,0x93b(%rax)
 271:	48 8b 45 e8          	mov    -0x18(%rbp),%rax
 275:	c6 80 3c 09 00 00 00 	movb   $0x0,0x93c(%rax)
 27c:	48 8b 45 e8          	mov    -0x18(%rbp),%rax
 280:	c6 80 3d 09 00 00 00 	movb   $0x0,0x93d(%rax)
 287:	48 8b 45 e8          	mov    -0x18(%rbp),%rax
 28b:	c6 80 3e 09 00 00 00 	movb   $0x0,0x93e(%rax)
 292:	48 8b 45 e8          	mov    -0x18(%rbp),%rax
 296:	c6 80 3f 09 00 00 00 	movb   $0x0,0x93f(%rax)
 29d:	48 8b 45 e8          	mov    -0x18(%rbp),%rax
 2a1:	c6 80 40 09 00 00 00 	movb   $0x0,0x940(%rax)
 2a8:	48 8b 45 e8          	mov    -0x18(%rbp),%rax
 2ac:	c6 80 41 09 00 00 00 	movb   $0x0,0x941(%rax)
 2b3:	90                   	nop
 2b4:	c9                   	leave  
 2b5:	c3                   	ret    

Disassembly of section .text._ZN10ArtNetNodeD2Ev:

0000000000000000 <ArtNetNode::~ArtNetNode()>:
   0:	f3 0f 1e fa          	endbr64 
   4:	55                   	push   %rbp
   5:	48 89 e5             	mov    %rsp,%rbp
   8:	48 89 7d f8          	mov    %rdi,-0x8(%rbp)
   c:	90                   	nop
   d:	5d                   	pop    %rbp
   e:	c3                   	ret    

Disassembly of section .text._ZN10ArtNetNode5StartEv:

0000000000000000 <ArtNetNode::Start()>:
   0:	f3 0f 1e fa          	endbr64 
   4:	55                   	push   %rbp
   5:	48 89 e5             	mov    %rsp,%rbp
   8:	53                   	push   %rbx
   9:	48 83 ec 28          	sub    $0x28,%rsp
   d:	48 89 7d d8          	mov    %rdi,-0x28(%rbp)
  11:	48 8b 45 d8          	mov    -0x28(%rbp),%rax
  15:	0f b6 40 68          	movzbl 0x68(%rax),%eax
  19:	83 e0 fd             	and    $0xfffffffd,%eax
  1c:	89 c3                	mov    %eax,%ebx
  1e:	e8 00 00 00 00       	call   23 <ArtNetNode::Start()+0x23>
  23:	48 89 c7             	mov    %rax,%rdi
  26:	e8 00 00 00 00       	call   2b <ArtNetNode::Start()+0x2b>
  2b:	84 c0                	test   %al,%al
  2d:	74 07                	je     36 <ArtNetNode::Start()+0x36>
  2f:	b8 02 00 00 00       	mov    $0x2,%eax
  34:	eb 05                	jmp    3b <ArtNetNode::Start()+0x3b>
  36:	b8 00 00 00 00       	mov    $0x0,%eax
  3b:	09 d8                	or     %ebx,%eax
  3d:	89 c2                	mov    %eax,%edx
  3f:	48 8b 45 d8          	mov    -0x28(%rbp),%rax
  43:	88 50 68             	mov    %dl,0x68(%rax)
  46:	48 8b 45 d8          	mov    -0x28(%rbp),%rax
  4a:	0f b6 40 68          	movzbl 0x68(%rax),%eax
  4e:	83 e0 fb             	and    $0xfffffffb,%eax
  51:	89 c3                	mov    %eax,%ebx
  53:	e8 00 00 00 00       	call   58 <ArtNetNode::Start()+0x58>
  58:	48 89 c7             	mov    %rax,%rdi
  5b:	e8 00 00 00 00       	call   60 <ArtNetNode::Start()+0x60>
  60:	84 c0                	test   %al,%al
  62:	74 07                	je     6b <ArtNetNode::Start()+0x6b>
  64:	b8 04 00 00 00       	mov    $0x4,%eax
  69:	eb 05                	jmp    70 <ArtNetNode::Start()+0x70>
  6b:	b8 00 00 00 00       	mov    $0x0,%eax
  70:	09 d8                	or     %ebx,%eax
  72:	89 c2                	mov    %eax,%edx
  74:	48 8b 45 d8          	mov    -0x28(%rbp),%rax
  78:	88 50 68             	mov    %dl,0x68(%rax)
  7b:	48 8b 45 d8          	mov    -0x28(%rbp),%rax
  7f:	48 89 c7             	mov    %rax,%rdi
  82:	e8 00 00 00 00       	call   87 <ArtNetNode::Start()+0x87>
  87:	e8 00 00 00 00       	call   8c <ArtNetNode::Start()+0x8c>
  8c:	be 36 19 00 00       	mov    $0x1936,%esi
  91:	48 89 c7             	mov    %rax,%rdi
  94:	e8 00 00 00 00       	call   99 <ArtNetNode::Start()+0x99>
  99:	48 8b 55 d8          	mov    -0x28(%rbp),%rdx
  9d:	89 02                	mov    %eax,(%rdx)
  9f:	48 8b 45 d8          	mov    -0x28(%rbp),%rax
  a3:	c6 80 85 00 00 00 02 	movb   $0x2,0x85(%rax)
  aa:	48 8b 45 d8          	mov    -0x28(%rbp),%rax
  ae:	be 00 00 00 00       	mov    $0x0,%esi
  b3:	48 89 c7             	mov    %rax,%rdi
  b6:	e8 00 00 00 00       	call   bb <ArtNetNode::Start()+0xbb>
  bb:	48 8b 45 d8          	mov    -0x28(%rbp),%rax
  bf:	48 8b 80 60 0a 00 00 	mov    0xa60(%rax),%rax
  c6:	48 85 c0             	test   %rax,%rax
  c9:	0f 84 9e 00 00 00    	je     16d <ArtNetNode::Start()+0x16d>
  cf:	c7 45 ec 00 00 00 00 	movl   $0x0,-0x14(%rbp)
  d6:	e9 88 00 00 00       	jmp    163 <ArtNetNode::Start()+0x163>
  db:	48 8b 55 d8          	mov    -0x28(%rbp),%rdx
  df:	8b 45 ec             	mov    -0x14(%rbp),%eax
  e2:	48 83 c0 05          	add    $0x5,%rax
  e6:	48 c1 e0 05          	shl    $0x5,%rax
  ea:	48 01 d0             	add    %rdx,%rax
  ed:	48 83 c0 13          	add    $0x13,%rax
  f1:	0f b6 00             	movzbl (%rax),%eax
  f4:	c0 e8 07             	shr    $0x7,%al
  f7:	88 45 eb             	mov    %al,-0x15(%rbp)
  fa:	0f b6 45 eb          	movzbl -0x15(%rbp),%eax
  fe:	83 f0 01             	xor    $0x1,%eax
 101:	84 c0                	test   %al,%al
 103:	74 2c                	je     131 <ArtNetNode::Start()+0x131>
 105:	48 8b 55 d8          	mov    -0x28(%rbp),%rdx
 109:	8b 45 ec             	mov    -0x14(%rbp),%eax
 10c:	48 c1 e0 05          	shl    $0x5,%rax
 110:	48 01 d0             	add    %rdx,%rax
 113:	48 05 98 00 00 00    	add    $0x98,%rax
 119:	0f b6 00             	movzbl (%rax),%eax
 11c:	84 c0                	test   %al,%al
 11e:	74 11                	je     131 <ArtNetNode::Start()+0x131>
 120:	8b 55 ec             	mov    -0x14(%rbp),%edx
 123:	48 8b 45 d8          	mov    -0x28(%rbp),%rax
 127:	89 d6                	mov    %edx,%esi
 129:	48 89 c7             	mov    %rax,%rdi
 12c:	e8 00 00 00 00       	call   131 <ArtNetNode::Start()+0x131>
 131:	48 8b 55 d8          	mov    -0x28(%rbp),%rdx
 135:	8b 45 ec             	mov    -0x14(%rbp),%eax
 138:	48 83 c0 11          	add    $0x11,%rax
 13c:	48 c1 e0 04          	shl    $0x4,%rax
 140:	48 01 d0             	add    %rdx,%rax
 143:	48 83 c0 08          	add    $0x8,%rax
 147:	0f b6 00             	movzbl (%rax),%eax
 14a:	84 c0                	test   %al,%al
 14c:	74 11                	je     15f <ArtNetNode::Start()+0x15f>
 14e:	8b 55 ec             	mov    -0x14(%rbp),%edx
 151:	48 8b 45 d8          	mov    -0x28(%rbp),%rax
 155:	89 d6                	mov    %edx,%esi
 157:	48 89 c7             	mov    %rax,%rdi
 15a:	e8 00 00 00 00       	call   15f <ArtNetNode::Start()+0x15f>
 15f:	83 45 ec 01          	addl   $0x1,-0x14(%rbp)
 163:	83 7d ec 03          	cmpl   $0x3,-0x14(%rbp)
 167:	0f 86 6e ff ff ff    	jbe    db <ArtNetNode::Start()+0xdb>
 16d:	e8 00 00 00 00       	call   172 <ArtNetNode::Start()+0x172>
 172:	be 02 00 00 00       	mov    $0x2,%esi
 177:	48 89 c7             	mov    %rax,%rdi
 17a:	e8 00 00 00 00       	call   17f <ArtNetNode::Start()+0x17f>
 17f:	bf 00 00 00 00       	mov    $0x0,%edi
 184:	e8 00 00 00 00       	call   189 <ArtNetNode::Start()+0x189>
 189:	90                   	nop
 18a:	48 8b 5d f8          	mov    -0x8(%rbp),%rbx
 18e:	c9                   	leave  
 18f:	c3                   	ret    

Disassembly of section .text._ZN10ArtNetNode4StopEv:

0000000000000000 <ArtNetNode::Stop()>:
   0:	f3 0f 1e fa          	endbr64 
   4:	55                   	push   %rbp
   5:	48 89 e5             	mov    %rsp,%rbp
   8:	48 83 ec 20          	sub    $0x20,%rsp
   c:	48 89 7d e8          	mov    %rdi,-0x18(%rbp)
  10:	c7 45 fc 00 00 00 00 	movl   $0x0,-0x4(%rbp)
  17:	eb 7d                	jmp    96 <ArtNetNode::Stop()+0x96>
  19:	48 8b 55 e8          	mov    -0x18(%rbp),%rdx
  1d:	8b 45 fc             	mov    -0x4(%rbp),%eax
  20:	48 83 c0 05          	add    $0x5,%rax
  24:	48 c1 e0 05          	shl    $0x5,%rax
  28:	48 01 d0             	add    %rdx,%rax
  2b:	48 83 c0 0c          	add    $0xc,%rax
  2f:	8b 00                	mov    (%rax),%eax
  31:	85 c0                	test   %eax,%eax
  33:	75 5d                	jne    92 <ArtNetNode::Stop()+0x92>
  35:	48 8b 45 e8          	mov    -0x18(%rbp),%rax
  39:	48 8b 80 50 0a 00 00 	mov    0xa50(%rax),%rax
  40:	48 85 c0             	test   %rax,%rax
  43:	74 2a                	je     6f <ArtNetNode::Stop()+0x6f>
  45:	48 8b 45 e8          	mov    -0x18(%rbp),%rax
  49:	48 8b 80 50 0a 00 00 	mov    0xa50(%rax),%rax
  50:	48 8b 55 e8          	mov    -0x18(%rbp),%rdx
  54:	48 8b 92 50 0a 00 00 	mov    0xa50(%rdx),%rdx
  5b:	48 8b 12             	mov    (%rdx),%rdx
  5e:	48 83 c2 18          	add    $0x18,%rdx
  62:	48 8b 0a             	mov    (%rdx),%rcx
  65:	8b 55 fc             	mov    -0x4(%rbp),%edx
  68:	89 d6                	mov    %edx,%esi
  6a:	48 89 c7             	mov    %rax,%rdi
  6d:	ff d1                	call   *%rcx
  6f:	8b 45 fc             	mov    -0x4(%rbp),%eax
  72:	89 c7                	mov    %eax,%edi
  74:	e8 00 00 00 00       	call   79 <ArtNetNode::Stop()+0x79>
  79:	48 8b 55 e8          	mov    -0x18(%rbp),%rdx
  7d:	8b 45 fc             	mov    -0x4(%rbp),%eax
  80:	48 83 c0 05          	add    $0x5,%rax
  84:	48 c1 e0 05          	shl    $0x5,%rax
  88:	48 01 d0             	add    %rdx,%rax
  8b:	48 83 c0 11          	add    $0x11,%rax
  8f:	c6 00 00             	movb   $0x0,(%rax)
  92:	83 45 fc 01          	addl   $0x1,-0x4(%rbp)
  96:	83 7d fc 03          	cmpl   $0x3,-0x4(%rbp)
  9a:	0f 86 79 ff ff ff    	jbe    19 <ArtNetNode::Stop()+0x19>
  a0:	e8 00 00 00 00       	call   a5 <ArtNetNode::Stop()+0xa5>
  a5:	be 00 00 00 00       	mov    $0x0,%esi
  aa:	48 89 c7             	mov    %rax,%rdi
  ad:	e8 00 00 00 00       	call   b2 <ArtNetNode::Stop()+0xb2>
  b2:	bf 00 00 00 00       	mov    $0x0,%edi
  b7:	e8 00 00 00 00       	call   bc <ArtNetNode::Stop()+0xbc>
  bc:	48 8b 45 e8          	mov    -0x18(%rbp),%rax
  c0:	0f b6 40 67          	movzbl 0x67(%rax),%eax
  c4:	83 e0 3f             	and    $0x3f,%eax
  c7:	83 c8 80             	or     $0xffffff80,%eax
  ca:	89 c2                	mov    %eax,%edx
  cc:	48 8b 45 e8          	mov    -0x18(%rbp),%rax
  d0:	88 50 67             	mov    %dl,0x67(%rax)
  d3:	48 8b 45 e8          	mov    -0x18(%rbp),%rax
  d7:	c6 80 85 00 00 00 01 	movb   $0x1,0x85(%rax)
  de:	90                   	nop
  df:	c9                   	leave  
  e0:	c3                   	ret    

Disassembly of section .text._ZN10ArtNetNode19GetShortNameDefaultEPc:

0000000000000000 <ArtNetNode::GetShortNameDefault(char*)>:
   0:	f3 0f 1e fa          	endbr64 
   4:	55                   	push   %rbp
   5:	48 89 e5             	mov    %rsp,%rbp
   8:	41 55                	push   %r13
   a:	41 54                	push   %r12
   c:	53                   	push   %rbx
   d:	48 83 ec 18          	sub    $0x18,%rsp
  11:	48 89 7d d8          	mov    %rdi,-0x28(%rbp)
  15:	48 89 75 d0          	mov    %rsi,-0x30(%rbp)
  19:	e8 00 00 00 00       	call   1e <ArtNetNode::GetShortNameDefault(char*)+0x1e>
  1e:	48 89 c7             	mov    %rax,%rdi
  21:	e8 00 00 00 00       	call   26 <ArtNetNode::GetShortNameDefault(char*)+0x26>
  26:	c1 e8 18             	shr    $0x18,%eax
  29:	0f b6 d8             	movzbl %al,%ebx
  2c:	e8 00 00 00 00       	call   31 <ArtNetNode::GetShortNameDefault(char*)+0x31>
  31:	48 89 c7             	mov    %rax,%rdi
  34:	e8 00 00 00 00       	call   39 <ArtNetNode::GetShortNameDefault(char*)+0x39>
  39:	c1 e8 10             	shr    $0x10,%eax
  3c:	44 0f b6 e8          	movzbl %al,%r13d
  40:	e8 00 00 00 00       	call   45 <ArtNetNode::GetShortNameDefault(char*)+0x45>
  45:	48 89 c7             	mov    %rax,%rdi
  48:	e8 00 00 00 00       	call   4d <ArtNetNode::GetShortNameDefault(char*)+0x4d>
  4d:	c1 e8 08             	shr    $0x8,%eax
  50:	44 0f b6 e0          	movzbl %al,%r12d
  54:	e8 00 00 00 00       	call   59 <ArtNetNode::GetShortNameDefault(char*)+0x59>
  59:	48 89 c7             	mov    %rax,%rdi
  5c:	e8 00 00 00 00       	call   61 <ArtNetNode::GetShortNameDefault(char*)+0x61>
  61:	0f b6 d0             	movzbl %al,%edx
  64:	48 8b 45 d0          	mov    -0x30(%rbp),%rax
  68:	48 83 ec 08          	sub    $0x8,%rsp
  6c:	53                   	push   %rbx
  6d:	45 89 e9             	mov    %r13d,%r9d
  70:	45 89 e0             	mov    %r12d,%r8d
  73:	89 d1                	mov    %edx,%ecx
  75:	48 8d 15 00 00 00 00 	lea    0x0(%rip),%rdx        # 7c <ArtNetNode::GetShortNameDefault(char*)+0x7c>
  7c:	be 11 00 00 00       	mov    $0x11,%esi
  81:	48 89 c7             	mov    %rax,%rdi
  84:	b8 00 00 00 00       	mov    $0x0,%eax
  89:	e8 00 00 00 00       	call   8e <ArtNetNode::GetShortNameDefault(char*)+0x8e>
  8e:	48 83 c4 10          	add    $0x10,%rsp
  92:	90                   	nop
  93:	48 8d 65 e8          	lea    -0x18(%rbp),%rsp
  97:	5b                   	pop    %rbx
  98:	41 5c                	pop    %r12
  9a:	41 5d                	pop    %r13
  9c:	5d                   	pop    %rbp
  9d:	c3                   	ret    

Disassembly of section .text._ZN10ArtNetNode12SetShortNameEPKc:

0000000000000000 <ArtNetNode::SetShortName(char const*)>:
   0:	f3 0f 1e fa          	endbr64 
   4:	55                   	push   %rbp
   5:	48 89 e5             	mov    %rsp,%rbp
   8:	48 83 ec 10          	sub    $0x10,%rsp
   c:	48 89 7d f8          	mov    %rdi,-0x8(%rbp)
  10:	48 89 75 f0          	mov    %rsi,-0x10(%rbp)
  14:	48 83 7d f0 00       	cmpq   $0x0,-0x10(%rbp)
  19:	75 19                	jne    34 <ArtNetNode::SetShortName(char const*)+0x34>
  1b:	48 8b 45 f8          	mov    -0x8(%rbp),%rax
  1f:	48 8d 50 14          	lea    0x14(%rax),%rdx
  23:	48 8b 45 f8          	mov    -0x8(%rbp),%rax
  27:	48 89 d6             	mov    %rdx,%rsi
  2a:	48 89 c7             	mov    %rax,%rdi
  2d:	e8 00 00 00 00       	call   32 <ArtNetNode::SetShortName(char const*)+0x32>
  32:	eb 1c                	jmp    50 <ArtNetNode::SetShortName(char const*)+0x50>
  34:	48 8b 45 f8          	mov    -0x8(%rbp),%rax
  38:	48 8d 48 14          	lea    0x14(%rax),%rcx
  3c:	48 8b 45 f0          	mov    -0x10(%rbp),%rax
  40:	ba 11 00 00 00       	mov    $0x11,%edx
  45:	48 89 c6             	mov    %rax,%rsi
  48:	48 89 cf             	mov    %rcx,%rdi
  4b:	e8 00 00 00 00       	call   50 <ArtNetNode::SetShortName(char const*)+0x50>
  50:	48 8b 45 f8          	mov    -0x8(%rbp),%rax
  54:	c6 40 25 00          	movb   $0x0,0x25(%rax)
  58:	48 8b 45 f8          	mov    -0x8(%rbp),%rax
  5c:	48 8d 48 14          	lea    0x14(%rax),%rcx
  60:	48 8b 45 f8          	mov    -0x8(%rbp),%rax
  64:	48 05 46 06 00 00    	add    $0x646,%rax
  6a:	ba 12 00 00 00       	mov    $0x12,%edx
  6f:	48 89 ce             	mov    %rcx,%rsi
  72:	48 89 c7             	mov    %rax,%rdi
  75:	e8 00 00 00 00       	call   7a <ArtNetNode::SetShortName(char const*)+0x7a>
  7a:	48 8b 45 f8          	mov    -0x8(%rbp),%rax
  7e:	0f b6 80 85 00 00 00 	movzbl 0x85(%rax),%eax
  85:	3c 02                	cmp    $0x2,%al
  87:	75 50                	jne    d9 <ArtNetNode::SetShortName(char const*)+0xd9>
  89:	48 8b 45 f8          	mov    -0x8(%rbp),%rax
  8d:	48 8b 80 78 0a 00 00 	mov    0xa78(%rax),%rax
  94:	48 85 c0             	test   %rax,%rax
  97:	74 30                	je     c9 <ArtNetNode::SetShortName(char const*)+0xc9>
  99:	48 8b 45 f8          	mov    -0x8(%rbp),%rax
  9d:	48 8b 80 78 0a 00 00 	mov    0xa78(%rax),%rax
  a4:	48 8b 55 f8          	mov    -0x8(%rbp),%rdx
  a8:	48 8b 92 78 0a 00 00 	mov    0xa78(%rdx),%rdx
  af:	48 8b 12             	mov    (%rdx),%rdx
  b2:	48 83 c2 18          	add    $0x18,%rdx
  b6:	48 8b 12             	mov    (%rdx),%rdx
  b9:	48 8b 4d f8          	mov    -0x8(%rbp),%rcx
  bd:	48 83 c1 14          	add    $0x14,%rcx
  c1:	48 89 ce             	mov    %rcx,%rsi
  c4:	48 89 c7             	mov    %rax,%rdi
  c7:	ff d2                	call   *%rdx
  c9:	48 8b 45 f8          	mov    -0x8(%rbp),%rax
  cd:	48 83 c0 14          	add    $0x14,%rax
  d1:	48 89 c7             	mov    %rax,%rdi
  d4:	e8 00 00 00 00       	call   d9 <ArtNetNode::SetShortName(char const*)+0xd9>
  d9:	90                   	nop
  da:	c9                   	leave  
  db:	c3                   	ret    

Disassembly of section .text._ZN10ArtNetNode18GetLongNameDefaultEPc:

0000000000000000 <ArtNetNode::GetLongNameDefault(char*)>:
   0:	f3 0f 1e fa          	endbr64 
   4:	55                   	push   %rbp
   5:	48 89 e5             	mov    %rsp,%rbp
   8:	48 83 ec 30          	sub    $0x30,%rsp
   c:	48 89 7d d8          	mov    %rdi,-0x28(%rbp)
  10:	48 89 75 d0          	mov    %rsi,-0x30(%rbp)
  14:	64 48 8b 04 25 28 00 	mov    %fs:0x28,%rax
  1b:	00 00 
  1d:	48 89 45 f8          	mov    %rax,-0x8(%rbp)
  21:	31 c0                	xor    %eax,%eax
  23:	e8 00 00 00 00       	call   28 <ArtNetNode::GetLongNameDefault(char*)+0x28>
  28:	48 89 c2             	mov    %rax,%rdx
  2b:	48 8d 45 e7          	lea    -0x19(%rbp),%rax
  2f:	48 89 c6             	mov    %rax,%rsi
  32:	48 89 d7             	mov    %rdx,%rdi
  35:	e8 00 00 00 00       	call   3a <ArtNetNode::GetLongNameDefault(char*)+0x3a>
  3a:	48 89 45 e8          	mov    %rax,-0x18(%rbp)
  3e:	e8 00 00 00 00       	call   43 <ArtNetNode::GetLongNameDefault(char*)+0x43>
  43:	48 89 c7             	mov    %rax,%rdi
  46:	e8 00 00 00 00       	call   4b <ArtNetNode::GetLongNameDefault(char*)+0x4b>
  4b:	48 89 45 f0          	mov    %rax,-0x10(%rbp)
  4f:	48 8b 55 e8          	mov    -0x18(%rbp),%rdx
  53:	48 8b 45 d0          	mov    -0x30(%rbp),%rax
  57:	48 83 ec 08          	sub    $0x8,%rsp
  5b:	ff 75 f0             	push   -0x10(%rbp)
  5e:	41 b9 04 00 00 00    	mov    $0x4,%r9d
  64:	4c 8d 05 00 00 00 00 	lea    0x0(%rip),%r8        # 6b <ArtNetNode::GetLongNameDefault(char*)+0x6b>
  6b:	48 89 d1             	mov    %rdx,%rcx
  6e:	48 8d 15 00 00 00 00 	lea    0x0(%rip),%rdx        # 75 <ArtNetNode::GetLongNameDefault(char*)+0x75>
  75:	be 3f 00 00 00       	mov    $0x3f,%esi
  7a:	48 89 c7             	mov    %rax,%rdi
  7d:	b8 00 00 00 00       	mov    $0x0,%eax
  82:	e8 00 00 00 00       	call   87 <ArtNetNode::GetLongNameDefault(char*)+0x87>
  87:	48 83 c4 10          	add    $0x10,%rsp
  8b:	90                   	nop
  8c:	48 8b 45 f8          	mov    -0x8(%rbp),%rax
  90:	64 48 2b 04 25 28 00 	sub    %fs:0x28,%rax
  97:	00 00 
  99:	74 05                	je     a0 <ArtNetNode::GetLongNameDefault(char*)+0xa0>
  9b:	e8 00 00 00 00       	call   a0 <ArtNetNode::GetLongNameDefault(char*)+0xa0>
  a0:	c9                   	leave  
  a1:	c3                   	ret    

Disassembly of section .text._ZN10ArtNetNode11SetLongNameEPKc:

0000000000000000 <ArtNetNode::SetLongName(char const*)>:
   0:	f3 0f 1e fa          	endbr64 
   4:	55                   	push   %rbp
   5:	48 89 e5             	mov    %rsp,%rbp
   8:	48 83 ec 10          	sub    $0x10,%rsp
   c:	48 89 7d f8          	mov    %rdi,-0x8(%rbp)
  10:	48 89 75 f0          	mov    %rsi,-0x10(%rbp)
  14:	48 83 7d f0 00       	cmpq   $0x0,-0x10(%rbp)
  19:	75 19                	jne    34 <ArtNetNode::SetLongName(char const*)+0x34>
  1b:	48 8b 45 f8          	mov    -0x8(%rbp),%rax
  1f:	48 8d 50 26          	lea    0x26(%rax),%rdx
  23:	48 8b 45 f8          	mov    -0x8(%rbp),%rax
  27:	48 89 d6             	mov    %rdx,%rsi
  2a:	48 89 c7             	mov    %rax,%rdi
  2d:	e8 00 00 00 00       	call   32 <ArtNetNode::SetLongName(char const*)+0x32>
  32:	eb 1c                	jmp    50 <ArtNetNode::SetLongName(char const*)+0x50>
  34:	48 8b 45 f8          	mov    -0x8(%rbp),%rax
  38:	48 8d 48 26          	lea    0x26(%rax),%rcx
  3c:	48 8b 45 f0          	mov    -0x10(%rbp),%rax
  40:	ba 3f 00 00 00       	mov    $0x3f,%edx
  45:	48 89 c6             	mov    %rax,%rsi
  48:	48 89 cf             	mov    %rcx,%rdi
  4b:	e8 00 00 00 00       	call   50 <ArtNetNode::SetLongName(char const*)+0x50>
  50:	48 8b 45 f8          	mov    -0x8(%rbp),%rax
  54:	c6 40 65 00          	movb   $0x0,0x65(%rax)
  58:	48 8b 45 f8          	mov    -0x8(%rbp),%rax
  5c:	48 8d 48 26          	lea    0x26(%rax),%rcx
  60:	48 8b 45 f8          	mov    -0x8(%rbp),%rax
  64:	48 05 58 06 00 00    	add    $0x658,%rax
  6a:	ba 40 00 00 00       	mov    $0x40,%edx
  6f:	48 89 ce             	mov    %rcx,%rsi
  72:	48 89 c7             	mov    %rax,%rdi
  75:	e8 00 00 00 00       	call   7a <ArtNetNode::SetLongName(char const*)+0x7a>
  7a:	48 8b 45 f8          	mov    -0x8(%rbp),%rax
  7e:	0f b6 80 85 00 00 00 	movzbl 0x85(%rax),%eax
  85:	3c 02                	cmp    $0x2,%al
  87:	75 50                	jne    d9 <ArtNetNode::SetLongName(char const*)+0xd9>
  89:	48 8b 45 f8          	mov    -0x8(%rbp),%rax
  8d:	48 8b 80 78 0a 00 00 	mov    0xa78(%rax),%rax
  94:	48 85 c0             	test   %rax,%rax
  97:	74 30                	je     c9 <ArtNetNode::SetLongName(char const*)+0xc9>
  99:	48 8b 45 f8          	mov    -0x8(%rbp),%rax
  9d:	48 8b 80 78 0a 00 00 	mov    0xa78(%rax),%rax
  a4:	48 8b 55 f8          	mov    -0x8(%rbp),%rdx
  a8:	48 8b 92 78 0a 00 00 	mov    0xa78(%rdx),%rdx
  af:	48 8b 12             	mov    (%rdx),%rdx
  b2:	48 83 c2 20          	add    $0x20,%rdx
  b6:	48 8b 12             	mov    (%rdx),%rdx
  b9:	48 8b 4d f8          	mov    -0x8(%rbp),%rcx
  bd:	48 83 c1 26          	add    $0x26,%rcx
  c1:	48 89 ce             	mov    %rcx,%rsi
  c4:	48 89 c7             	mov    %rax,%rdi
  c7:	ff d2                	call   *%rdx
  c9:	48 8b 45 f8          	mov    -0x8(%rbp),%rax
  cd:	48 83 c0 26          	add    $0x26,%rax
  d1:	48 89 c7             	mov    %rax,%rdi
  d4:	e8 00 00 00 00       	call   d9 <ArtNetNode::SetLongName(char const*)+0xd9>
  d9:	90                   	nop
  da:	c9                   	leave  
  db:	c3                   	ret    

Disassembly of section .text._ZN10ArtNetNode27SetNetworkDataLossConditionEv:

0000000000000000 <ArtNetNode::SetNetworkDataLossCondition()>:
   0:	f3 0f 1e fa          	endbr64 
   4:	55                   	push   %rbp
   5:	48 89 e5             	mov    %rsp,%rbp
   8:	48 83 ec 20          	sub    $0x20,%rsp
   c:	48 89 7d e8          	mov    %rdi,-0x18(%rbp)
  10:	48 8b 45 e8          	mov    -0x18(%rbp),%rax
  14:	c6 80 8a 00 00 00 00 	movb   $0x0,0x8a(%rax)
  1b:	48 8b 45 e8          	mov    -0x18(%rbp),%rax
  1f:	c6 80 89 00 00 00 00 	movb   $0x0,0x89(%rax)
  26:	c7 45 f0 00 00 00 00 	movl   $0x0,-0x10(%rbp)
  2d:	c7 45 f4 00 00 00 00 	movl   $0x0,-0xc(%rbp)
  34:	eb 3d                	jmp    73 <ArtNetNode::SetNetworkDataLossCondition()+0x73>
  36:	48 8b 55 e8          	mov    -0x18(%rbp),%rdx
  3a:	8b 45 f4             	mov    -0xc(%rbp),%eax
  3d:	48 c1 e0 05          	shl    $0x5,%rax
  41:	48 01 d0             	add    %rdx,%rax
  44:	48 05 a0 00 00 00    	add    $0xa0,%rax
  4a:	8b 10                	mov    (%rax),%edx
  4c:	48 8b 4d e8          	mov    -0x18(%rbp),%rcx
  50:	8b 45 f4             	mov    -0xc(%rbp),%eax
  53:	48 83 c0 05          	add    $0x5,%rax
  57:	48 c1 e0 05          	shl    $0x5,%rax
  5b:	48 01 c8             	add    %rcx,%rax
  5e:	48 83 c0 08          	add    $0x8,%rax
  62:	8b 00                	mov    (%rax),%eax
  64:	01 d0                	add    %edx,%eax
  66:	01 45 f0             	add    %eax,-0x10(%rbp)
  69:	83 7d f0 00          	cmpl   $0x0,-0x10(%rbp)
  6d:	75 0c                	jne    7b <ArtNetNode::SetNetworkDataLossCondition()+0x7b>
  6f:	83 45 f4 01          	addl   $0x1,-0xc(%rbp)
  73:	83 7d f4 03          	cmpl   $0x3,-0xc(%rbp)
  77:	76 bd                	jbe    36 <ArtNetNode::SetNetworkDataLossCondition()+0x36>
  79:	eb 01                	jmp    7c <ArtNetNode::SetNetworkDataLossCondition()+0x7c>
  7b:	90                   	nop
  7c:	83 7d f0 00          	cmpl   $0x0,-0x10(%rbp)
  80:	0f 84 ef 00 00 00    	je     175 <ArtNetNode::SetNetworkDataLossCondition()+0x175>
  86:	48 8b 45 e8          	mov    -0x18(%rbp),%rax
  8a:	0f b6 40 69          	movzbl 0x69(%rax),%eax
  8e:	0f b6 c0             	movzbl %al,%eax
  91:	25 c0 00 00 00       	and    $0xc0,%eax
  96:	89 45 fc             	mov    %eax,-0x4(%rbp)
  99:	81 7d fc c0 00 00 00 	cmpl   $0xc0,-0x4(%rbp)
  a0:	74 7a                	je     11c <ArtNetNode::SetNetworkDataLossCondition()+0x11c>
  a2:	81 7d fc c0 00 00 00 	cmpl   $0xc0,-0x4(%rbp)
  a9:	7f 71                	jg     11c <ArtNetNode::SetNetworkDataLossCondition()+0x11c>
  ab:	81 7d fc 80 00 00 00 	cmpl   $0x80,-0x4(%rbp)
  b2:	74 41                	je     f5 <ArtNetNode::SetNetworkDataLossCondition()+0xf5>
  b4:	81 7d fc 80 00 00 00 	cmpl   $0x80,-0x4(%rbp)
  bb:	7f 5f                	jg     11c <ArtNetNode::SetNetworkDataLossCondition()+0x11c>
  bd:	83 7d fc 00          	cmpl   $0x0,-0x4(%rbp)
  c1:	74 5c                	je     11f <ArtNetNode::SetNetworkDataLossCondition()+0x11f>
  c3:	83 7d fc 40          	cmpl   $0x40,-0x4(%rbp)
  c7:	75 53                	jne    11c <ArtNetNode::SetNetworkDataLossCondition()+0x11c>
  c9:	48 8b 45 e8          	mov    -0x18(%rbp),%rax
  cd:	48 8b 80 50 0a 00 00 	mov    0xa50(%rax),%rax
  d4:	48 8b 55 e8          	mov    -0x18(%rbp),%rdx
  d8:	48 8b 92 50 0a 00 00 	mov    0xa50(%rdx),%rdx
  df:	48 8b 12             	mov    (%rdx),%rdx
  e2:	48 83 c2 28          	add    $0x28,%rdx
  e6:	48 8b 12             	mov    (%rdx),%rdx
  e9:	be 01 00 00 00       	mov    $0x1,%esi
  ee:	48 89 c7             	mov    %rax,%rdi
  f1:	ff d2                	call   *%rdx
  f3:	eb 2b                	jmp    120 <ArtNetNode::SetNetworkDataLossCondition()+0x120>
  f5:	48 8b 45 e8          	mov    -0x18(%rbp),%rax
  f9:	48 8b 80 50 0a 00 00 	mov    0xa50(%rax),%rax
 100:	48 8b 55 e8          	mov    -0x18(%rbp),%rdx
 104:	48 8b 92 50 0a 00 00 	mov    0xa50(%rdx),%rdx
 10b:	48 8b 12             	mov    (%rdx),%rdx
 10e:	48 83 c2 30          	add    $0x30,%rdx
 112:	48 8b 12             	mov    (%rdx),%rdx
 115:	48 89 c7             	mov    %rax,%rdi
 118:	ff d2                	call   *%rdx
 11a:	eb 04                	jmp    120 <ArtNetNode::SetNetworkDataLossCondition()+0x120>
 11c:	90                   	nop
 11d:	eb 01                	jmp    120 <ArtNetNode::SetNetworkDataLossCondition()+0x120>
 11f:	90                   	nop
 120:	c7 45 f8 00 00 00 00 	movl   $0x0,-0x8(%rbp)
 127:	eb 44                	jmp    16d <ArtNetNode::SetNetworkDataLossCondition()+0x16d>
 129:	48 8b 55 e8          	mov    -0x18(%rbp),%rdx
 12d:	8b 45 f8             	mov    -0x8(%rbp),%eax
 130:	48 c1 e0 05          	shl    $0x5,%rax
 134:	48 01 d0             	add    %rdx,%rax
 137:	48 05 a0 00 00 00    	add    $0xa0,%rax
 13d:	c7 00 00 00 00 00    	movl   $0x0,(%rax)
 143:	48 8b 55 e8          	mov    -0x18(%rbp),%rdx
 147:	8b 45 f8             	mov    -0x8(%rbp),%eax
 14a:	48 83 c0 05          	add    $0x5,%rax
 14e:	48 c1 e0 05          	shl    $0x5,%rax
 152:	48 01 d0             	add    %rdx,%rax
 155:	48 83 c0 08          	add    $0x8,%rax
 159:	c7 00 00 00 00 00    	movl   $0x0,(%rax)
 15f:	8b 45 f8             	mov    -0x8(%rbp),%eax
 162:	89 c7                	mov    %eax,%edi
 164:	e8 00 00 00 00       	call   169 <ArtNetNode::SetNetworkDataLossCondition()+0x169>
 169:	83 45 f8 01          	addl   $0x1,-0x8(%rbp)
 16d:	83 7d f8 03          	cmpl   $0x3,-0x8(%rbp)
 171:	76 b6                	jbe    129 <ArtNetNode::SetNetworkDataLossCondition()+0x129>
 173:	eb 01                	jmp    176 <ArtNetNode::SetNetworkDataLossCondition()+0x176>
 175:	90                   	nop
 176:	c9                   	leave  
 177:	c3                   	ret    

Disassembly of section .text._ZN10ArtNetNode7GetTypeEv:

0000000000000000 <ArtNetNode::GetType()>:
   0:	f3 0f 1e fa          	endbr64 
   4:	55                   	push   %rbp
   5:	48 89 e5             	mov    %rsp,%rbp
   8:	48 83 ec 20          	sub    $0x20,%rsp
   c:	48 89 7d e8          	mov    %rdi,-0x18(%rbp)
  10:	48 8b 45 e8          	mov    -0x18(%rbp),%rax
  14:	48 05 54 01 00 00    	add    $0x154,%rax
  1a:	48 89 45 f8          	mov    %rax,-0x8(%rbp)
  1e:	48 8b 45 e8          	mov    -0x18(%rbp),%rax
  22:	0f b7 80 24 06 00 00 	movzwl 0x624(%rax),%eax
  29:	66 83 f8 0b          	cmp    $0xb,%ax
  2d:	77 13                	ja     42 <ArtNetNode::GetType()+0x42>
  2f:	48 8b 45 e8          	mov    -0x18(%rbp),%rax
  33:	c7 80 28 06 00 00 00 	movl   $0x0,0x628(%rax)
  3a:	00 00 00 
  3d:	e9 8c 00 00 00       	jmp    ce <ArtNetNode::GetType()+0xce>
  42:	48 8b 45 f8          	mov    -0x8(%rbp),%rax
  46:	48 83 c0 0a          	add    $0xa,%rax
  4a:	0f b6 00             	movzbl (%rax),%eax
  4d:	84 c0                	test   %al,%al
  4f:	75 0f                	jne    60 <ArtNetNode::GetType()+0x60>
  51:	48 8b 45 f8          	mov    -0x8(%rbp),%rax
  55:	48 83 c0 0b          	add    $0xb,%rax
  59:	0f b6 00             	movzbl (%rax),%eax
  5c:	3c 0e                	cmp    $0xe,%al
  5e:	74 10                	je     70 <ArtNetNode::GetType()+0x70>
  60:	48 8b 45 e8          	mov    -0x18(%rbp),%rax
  64:	c7 80 28 06 00 00 00 	movl   $0x0,0x628(%rax)
  6b:	00 00 00 
  6e:	eb 5e                	jmp    ce <ArtNetNode::GetType()+0xce>
  70:	48 8b 45 f8          	mov    -0x8(%rbp),%rax
  74:	ba 08 00 00 00       	mov    $0x8,%edx
  79:	48 8d 0d 00 00 00 00 	lea    0x0(%rip),%rcx        # 80 <ArtNetNode::GetType()+0x80>
  80:	48 89 ce             	mov    %rcx,%rsi
  83:	48 89 c7             	mov    %rax,%rdi
  86:	e8 00 00 00 00       	call   8b <ArtNetNode::GetType()+0x8b>
  8b:	85 c0                	test   %eax,%eax
  8d:	75 31                	jne    c0 <ArtNetNode::GetType()+0xc0>
  8f:	48 8b 45 f8          	mov    -0x8(%rbp),%rax
  93:	48 83 c0 09          	add    $0x9,%rax
  97:	0f b6 00             	movzbl (%rax),%eax
  9a:	66 98                	cbtw   
  9c:	c1 e0 08             	shl    $0x8,%eax
  9f:	0f b7 d0             	movzwl %ax,%edx
  a2:	48 8b 45 f8          	mov    -0x8(%rbp),%rax
  a6:	48 83 c0 08          	add    $0x8,%rax
  aa:	0f b6 00             	movzbl (%rax),%eax
  ad:	0f be c0             	movsbl %al,%eax
  b0:	01 d0                	add    %edx,%eax
  b2:	89 c2                	mov    %eax,%edx
  b4:	48 8b 45 e8          	mov    -0x18(%rbp),%rax
  b8:	89 90 28 06 00 00    	mov    %edx,0x628(%rax)
  be:	eb 0e                	jmp    ce <ArtNetNode::GetType()+0xce>
  c0:	48 8b 45 e8          	mov    -0x18(%rbp),%rax
  c4:	c7 80 28 06 00 00 00 	movl   $0x0,0x628(%rax)
  cb:	00 00 00 
  ce:	c9                   	leave  
  cf:	c3                   	ret    

Disassembly of section .text._ZN10ArtNetNode3RunEv:

0000000000000000 <ArtNetNode::Run()>:
   0:	f3 0f 1e fa          	endbr64 
   4:	55                   	push   %rbp
   5:	48 89 e5             	mov    %rsp,%rbp
   8:	48 83 ec 20          	sub    $0x20,%rsp
   c:	48 89 7d e8          	mov    %rdi,-0x18(%rbp)
  10:	64 48 8b 04 25 28 00 	mov    %fs:0x28,%rax
  17:	00 00 
  19:	48 89 45 f8          	mov    %rax,-0x8(%rbp)
  1d:	31 c0                	xor    %eax,%eax
  1f:	e8 00 00 00 00       	call   24 <ArtNetNode::Run()+0x24>
  24:	48 89 c7             	mov    %rax,%rdi
  27:	48 8b 45 e8          	mov    -0x18(%rbp),%rax
  2b:	48 8d b0 20 06 00 00 	lea    0x620(%rax),%rsi
  32:	48 8b 45 e8          	mov    -0x18(%rbp),%rax
  36:	48 8d 90 54 01 00 00 	lea    0x154(%rax),%rdx
  3d:	48 8b 45 e8          	mov    -0x18(%rbp),%rax
  41:	8b 00                	mov    (%rax),%eax
  43:	48 8d 4d f4          	lea    -0xc(%rbp),%rcx
  47:	49 89 c9             	mov    %rcx,%r9
  4a:	49 89 f0             	mov    %rsi,%r8
  4d:	b9 cc 04 00 00       	mov    $0x4cc,%ecx
  52:	89 c6                	mov    %eax,%esi
  54:	e8 00 00 00 00       	call   59 <ArtNetNode::Run()+0x59>
  59:	66 89 45 f6          	mov    %ax,-0xa(%rbp)
  5d:	e8 00 00 00 00       	call   62 <ArtNetNode::Run()+0x62>
  62:	48 89 c7             	mov    %rax,%rdi
  65:	e8 00 00 00 00       	call   6a <ArtNetNode::Run()+0x6a>
  6a:	48 8b 55 e8          	mov    -0x18(%rbp),%rdx
  6e:	89 82 44 0a 00 00    	mov    %eax,0xa44(%rdx)
  74:	66 83 7d f6 00       	cmpw   $0x0,-0xa(%rbp)
  79:	0f 94 c0             	sete   %al
  7c:	0f b6 c0             	movzbl %al,%eax
  7f:	48 85 c0             	test   %rax,%rax
  82:	0f 84 7f 01 00 00    	je     207 <ArtNetNode::Run()+0x207>
  88:	48 8b 45 e8          	mov    -0x18(%rbp),%rax
  8c:	8b 90 44 0a 00 00    	mov    0xa44(%rax),%edx
  92:	48 8b 45 e8          	mov    -0x18(%rbp),%rax
  96:	8b 88 48 0a 00 00    	mov    0xa48(%rax),%ecx
  9c:	89 d0                	mov    %edx,%eax
  9e:	29 c8                	sub    %ecx,%eax
  a0:	3d 0f 27 00 00       	cmp    $0x270f,%eax
  a5:	76 16                	jbe    bd <ArtNetNode::Run()+0xbd>
  a7:	48 8b 45 e8          	mov    -0x18(%rbp),%rax
  ab:	48 89 c7             	mov    %rax,%rdi
  ae:	e8 00 00 00 00       	call   b3 <ArtNetNode::Run()+0xb3>
  b3:	bf 00 00 00 00       	mov    $0x0,%edi
  b8:	e8 00 00 00 00       	call   bd <ArtNetNode::Run()+0xbd>
  bd:	48 8b 45 e8          	mov    -0x18(%rbp),%rax
  c1:	0f b6 80 86 00 00 00 	movzbl 0x86(%rax),%eax
  c8:	84 c0                	test   %al,%al
  ca:	74 58                	je     124 <ArtNetNode::Run()+0x124>
  cc:	48 8b 45 e8          	mov    -0x18(%rbp),%rax
  d0:	0f b6 80 8b 00 00 00 	movzbl 0x8b(%rax),%eax
  d7:	88 45 f3             	mov    %al,-0xd(%rbp)
  da:	48 8b 45 e8          	mov    -0x18(%rbp),%rax
  de:	48 8b 80 70 0a 00 00 	mov    0xa70(%rax),%rax
  e5:	48 8b 55 e8          	mov    -0x18(%rbp),%rdx
  e9:	48 8b 92 70 0a 00 00 	mov    0xa70(%rdx),%rdx
  f0:	48 8b 12             	mov    (%rdx),%rdx
  f3:	48 83 c2 28          	add    $0x28,%rdx
  f7:	48 8b 12             	mov    (%rdx),%rdx
  fa:	48 89 c7             	mov    %rax,%rdi
  fd:	ff d2                	call   *%rdx
  ff:	0a 45 f3             	or     -0xd(%rbp),%al
 102:	0f b6 c0             	movzbl %al,%eax
 105:	85 c0                	test   %eax,%eax
 107:	0f 95 c0             	setne  %al
 10a:	88 45 f3             	mov    %al,-0xd(%rbp)
 10d:	80 7d f3 00          	cmpb   $0x0,-0xd(%rbp)
 111:	74 11                	je     124 <ArtNetNode::Run()+0x124>
 113:	48 8b 45 e8          	mov    -0x18(%rbp),%rax
 117:	be 00 00 00 00       	mov    $0x0,%esi
 11c:	48 89 c7             	mov    %rax,%rdi
 11f:	e8 00 00 00 00       	call   124 <ArtNetNode::Run()+0x124>
 124:	48 8b 45 e8          	mov    -0x18(%rbp),%rax
 128:	8b 90 44 0a 00 00    	mov    0xa44(%rax),%edx
 12e:	48 8b 45 e8          	mov    -0x18(%rbp),%rax
 132:	8b 88 48 0a 00 00    	mov    0xa48(%rax),%ecx
 138:	89 d0                	mov    %edx,%eax
 13a:	29 c8                	sub    %ecx,%eax
 13c:	3d e7 03 00 00       	cmp    $0x3e7,%eax
 141:	76 1a                	jbe    15d <ArtNetNode::Run()+0x15d>
 143:	48 8b 45 e8          	mov    -0x18(%rbp),%rax
 147:	0f b6 80 8d 00 00 00 	movzbl 0x8d(%rax),%eax
 14e:	83 e0 fd             	and    $0xfffffffd,%eax
 151:	89 c2                	mov    %eax,%edx
 153:	48 8b 45 e8          	mov    -0x18(%rbp),%rax
 157:	88 90 8d 00 00 00    	mov    %dl,0x8d(%rax)
 15d:	48 8b 45 e8          	mov    -0x18(%rbp),%rax
 161:	0f b6 40 67          	movzbl 0x67(%rax),%eax
 165:	0f b6 c0             	movzbl %al,%eax
 168:	25 c0 00 00 00       	and    $0xc0,%eax
 16d:	3d c0 00 00 00       	cmp    $0xc0,%eax
 172:	75 19                	jne    18d <ArtNetNode::Run()+0x18d>
 174:	e8 00 00 00 00       	call   179 <ArtNetNode::Run()+0x179>
 179:	48 89 c7             	mov    %rax,%rdi
 17c:	e8 00 00 00 00       	call   181 <ArtNetNode::Run()+0x181>
 181:	83 f8 04             	cmp    $0x4,%eax
 184:	74 07                	je     18d <ArtNetNode::Run()+0x18d>
 186:	b8 01 00 00 00       	mov    $0x1,%eax
 18b:	eb 05                	jmp    192 <ArtNetNode::Run()+0x192>
 18d:	b8 00 00 00 00       	mov    $0x0,%eax
 192:	84 c0                	test   %al,%al
 194:	0f 84 2c 03 00 00    	je     4c6 <ArtNetNode::Run()+0x4c6>
 19a:	48 8b 45 e8          	mov    -0x18(%rbp),%rax
 19e:	0f b6 80 8d 00 00 00 	movzbl 0x8d(%rax),%eax
 1a5:	84 c0                	test   %al,%al
 1a7:	74 2f                	je     1d8 <ArtNetNode::Run()+0x1d8>
 1a9:	48 8b 45 e8          	mov    -0x18(%rbp),%rax
 1ad:	48 8b 80 70 0a 00 00 	mov    0xa70(%rax),%rax
 1b4:	48 8b 55 e8          	mov    -0x18(%rbp),%rdx
 1b8:	48 8b 92 70 0a 00 00 	mov    0xa70(%rdx),%rdx
 1bf:	48 8b 12             	mov    (%rdx),%rdx
 1c2:	48 83 c2 30          	add    $0x30,%rdx
 1c6:	48 8b 12             	mov    (%rdx),%rdx
 1c9:	be 03 00 00 00       	mov    $0x3,%esi
 1ce:	48 89 c7             	mov    %rax,%rdi
 1d1:	ff d2                	call   *%rdx
 1d3:	e9 ee 02 00 00       	jmp    4c6 <ArtNetNode::Run()+0x4c6>
 1d8:	48 8b 45 e8          	mov    -0x18(%rbp),%rax
 1dc:	48 8b 80 70 0a 00 00 	mov    0xa70(%rax),%rax
 1e3:	48 8b 55 e8          	mov    -0x18(%rbp),%rdx
 1e7:	48 8b 92 70 0a 00 00 	mov    0xa70(%rdx),%rdx
 1ee:	48 8b 12             	mov    (%rdx),%rdx
 1f1:	48 83 c2 30          	add    $0x30,%rdx
 1f5:	48 8b 12             	mov    (%rdx),%rdx
 1f8:	be 02 00 00 00       	mov    $0x2,%esi
 1fd:	48 89 c7             	mov    %rax,%rdi
 200:	ff d2                	call   *%rdx
 202:	e9 c0 02 00 00       	jmp    4c7 <ArtNetNode::Run()+0x4c7>
 207:	48 8b 45 e8          	mov    -0x18(%rbp),%rax
 20b:	0f b7 55 f6          	movzwl -0xa(%rbp),%edx
 20f:	66 89 90 24 06 00 00 	mov    %dx,0x624(%rax)
 216:	48 8b 45 e8          	mov    -0x18(%rbp),%rax
 21a:	8b 90 44 0a 00 00    	mov    0xa44(%rax),%edx
 220:	48 8b 45 e8          	mov    -0x18(%rbp),%rax
 224:	89 90 48 0a 00 00    	mov    %edx,0xa48(%rax)
 22a:	48 8b 45 e8          	mov    -0x18(%rbp),%rax
 22e:	0f b6 80 89 00 00 00 	movzbl 0x89(%rax),%eax
 235:	84 c0                	test   %al,%al
 237:	74 2a                	je     263 <ArtNetNode::Run()+0x263>
 239:	48 8b 45 e8          	mov    -0x18(%rbp),%rax
 23d:	8b 90 44 0a 00 00    	mov    0xa44(%rax),%edx
 243:	48 8b 45 e8          	mov    -0x18(%rbp),%rax
 247:	8b 88 80 00 00 00    	mov    0x80(%rax),%ecx
 24d:	89 d0                	mov    %edx,%eax
 24f:	29 c8                	sub    %ecx,%eax
 251:	3d 9f 0f 00 00       	cmp    $0xf9f,%eax
 256:	76 0b                	jbe    263 <ArtNetNode::Run()+0x263>
 258:	48 8b 45 e8          	mov    -0x18(%rbp),%rax
 25c:	c6 80 89 00 00 00 00 	movb   $0x0,0x89(%rax)
 263:	48 8b 45 e8          	mov    -0x18(%rbp),%rax
 267:	48 89 c7             	mov    %rax,%rdi
 26a:	e8 00 00 00 00       	call   26f <ArtNetNode::Run()+0x26f>
 26f:	48 8b 45 e8          	mov    -0x18(%rbp),%rax
 273:	8b 80 28 06 00 00    	mov    0x628(%rax),%eax
 279:	3d 00 f8 00 00       	cmp    $0xf800,%eax
 27e:	0f 84 7d 01 00 00    	je     401 <ArtNetNode::Run()+0x401>
 284:	3d 00 f8 00 00       	cmp    $0xf800,%eax
 289:	0f 8f 80 01 00 00    	jg     40f <ArtNetNode::Run()+0x40f>
 28f:	3d 00 98 00 00       	cmp    $0x9800,%eax
 294:	0f 84 de 00 00 00    	je     378 <ArtNetNode::Run()+0x378>
 29a:	3d 00 98 00 00       	cmp    $0x9800,%eax
 29f:	0f 8f 6a 01 00 00    	jg     40f <ArtNetNode::Run()+0x40f>
 2a5:	3d 00 83 00 00       	cmp    $0x8300,%eax
 2aa:	0f 84 33 01 00 00    	je     3e3 <ArtNetNode::Run()+0x3e3>
 2b0:	3d 00 83 00 00       	cmp    $0x8300,%eax
 2b5:	0f 8f 54 01 00 00    	jg     40f <ArtNetNode::Run()+0x40f>
 2bb:	3d 00 82 00 00       	cmp    $0x8200,%eax
 2c0:	0f 84 ff 00 00 00    	je     3c5 <ArtNetNode::Run()+0x3c5>
 2c6:	3d 00 82 00 00       	cmp    $0x8200,%eax
 2cb:	0f 8f 3e 01 00 00    	jg     40f <ArtNetNode::Run()+0x40f>
 2d1:	3d 00 81 00 00       	cmp    $0x8100,%eax
 2d6:	0f 84 cb 00 00 00    	je     3a7 <ArtNetNode::Run()+0x3a7>
 2dc:	3d 00 81 00 00       	cmp    $0x8100,%eax
 2e1:	0f 8f 28 01 00 00    	jg     40f <ArtNetNode::Run()+0x40f>
 2e7:	3d 00 80 00 00       	cmp    $0x8000,%eax
 2ec:	0f 84 97 00 00 00    	je     389 <ArtNetNode::Run()+0x389>
 2f2:	3d 00 80 00 00       	cmp    $0x8000,%eax
 2f7:	0f 8f 12 01 00 00    	jg     40f <ArtNetNode::Run()+0x40f>
 2fd:	3d 00 60 00 00       	cmp    $0x6000,%eax
 302:	74 63                	je     367 <ArtNetNode::Run()+0x367>
 304:	3d 00 60 00 00       	cmp    $0x6000,%eax
 309:	0f 8f 00 01 00 00    	jg     40f <ArtNetNode::Run()+0x40f>
 30f:	3d 00 52 00 00       	cmp    $0x5200,%eax
 314:	74 40                	je     356 <ArtNetNode::Run()+0x356>
 316:	3d 00 52 00 00       	cmp    $0x5200,%eax
 31b:	0f 8f ee 00 00 00    	jg     40f <ArtNetNode::Run()+0x40f>
 321:	3d 00 20 00 00       	cmp    $0x2000,%eax
 326:	74 0c                	je     334 <ArtNetNode::Run()+0x334>
 328:	3d 00 50 00 00       	cmp    $0x5000,%eax
 32d:	74 16                	je     345 <ArtNetNode::Run()+0x345>
 32f:	e9 db 00 00 00       	jmp    40f <ArtNetNode::Run()+0x40f>
 334:	48 8b 45 e8          	mov    -0x18(%rbp),%rax
 338:	48 89 c7             	mov    %rax,%rdi
 33b:	e8 00 00 00 00       	call   340 <ArtNetNode::Run()+0x340>
 340:	e9 d7 00 00 00       	jmp    41c <ArtNetNode::Run()+0x41c>
 345:	48 8b 45 e8          	mov    -0x18(%rbp),%rax
 349:	48 89 c7             	mov    %rax,%rdi
 34c:	e8 00 00 00 00       	call   351 <ArtNetNode::Run()+0x351>
 351:	e9 c6 00 00 00       	jmp    41c <ArtNetNode::Run()+0x41c>
 356:	48 8b 45 e8          	mov    -0x18(%rbp),%rax
 35a:	48 89 c7             	mov    %rax,%rdi
 35d:	e8 00 00 00 00       	call   362 <ArtNetNode::Run()+0x362>
 362:	e9 b5 00 00 00       	jmp    41c <ArtNetNode::Run()+0x41c>
 367:	48 8b 45 e8          	mov    -0x18(%rbp),%rax
 36b:	48 89 c7             	mov    %rax,%rdi
 36e:	e8 00 00 00 00       	call   373 <ArtNetNode::Run()+0x373>
 373:	e9 a4 00 00 00       	jmp    41c <ArtNetNode::Run()+0x41c>
 378:	48 8b 45 e8          	mov    -0x18(%rbp),%rax
 37c:	48 89 c7             	mov    %rax,%rdi
 37f:	e8 00 00 00 00       	call   384 <ArtNetNode::Run()+0x384>
 384:	e9 93 00 00 00       	jmp    41c <ArtNetNode::Run()+0x41c>
 389:	48 8b 45 e8          	mov    -0x18(%rbp),%rax
 38d:	48 8b 80 60 0a 00 00 	mov    0xa60(%rax),%rax
 394:	48 85 c0             	test   %rax,%rax
 397:	74 79                	je     412 <ArtNetNode::Run()+0x412>
 399:	48 8b 45 e8          	mov    -0x18(%rbp),%rax
 39d:	48 89 c7             	mov    %rax,%rdi
 3a0:	e8 00 00 00 00       	call   3a5 <ArtNetNode::Run()+0x3a5>
 3a5:	eb 6b                	jmp    412 <ArtNetNode::Run()+0x412>
 3a7:	48 8b 45 e8          	mov    -0x18(%rbp),%rax
 3ab:	48 8b 80 60 0a 00 00 	mov    0xa60(%rax),%rax
 3b2:	48 85 c0             	test   %rax,%rax
 3b5:	74 5e                	je     415 <ArtNetNode::Run()+0x415>
 3b7:	48 8b 45 e8          	mov    -0x18(%rbp),%rax
 3bb:	48 89 c7             	mov    %rax,%rdi
 3be:	e8 00 00 00 00       	call   3c3 <ArtNetNode::Run()+0x3c3>
 3c3:	eb 50                	jmp    415 <ArtNetNode::Run()+0x415>
 3c5:	48 8b 45 e8          	mov    -0x18(%rbp),%rax
 3c9:	48 8b 80 60 0a 00 00 	mov    0xa60(%rax),%rax
 3d0:	48 85 c0             	test   %rax,%rax
 3d3:	74 43                	je     418 <ArtNetNode::Run()+0x418>
 3d5:	48 8b 45 e8          	mov    -0x18(%rbp),%rax
 3d9:	48 89 c7             	mov    %rax,%rdi
 3dc:	e8 00 00 00 00       	call   3e1 <ArtNetNode::Run()+0x3e1>
 3e1:	eb 35                	jmp    418 <ArtNetNode::Run()+0x418>
 3e3:	48 8b 45 e8          	mov    -0x18(%rbp),%rax
 3e7:	48 8b 80 60 0a 00 00 	mov    0xa60(%rax),%rax
 3ee:	48 85 c0             	test   %rax,%rax
 3f1:	74 28                	je     41b <ArtNetNode::Run()+0x41b>
 3f3:	48 8b 45 e8          	mov    -0x18(%rbp),%rax
 3f7:	48 89 c7             	mov    %rax,%rdi
 3fa:	e8 00 00 00 00       	call   3ff <ArtNetNode::Run()+0x3ff>
 3ff:	eb 1a                	jmp    41b <ArtNetNode::Run()+0x41b>
 401:	48 8b 45 e8          	mov    -0x18(%rbp),%rax
 405:	48 89 c7             	mov    %rax,%rdi
 408:	e8 00 00 00 00       	call   40d <ArtNetNode::Run()+0x40d>
 40d:	eb 0d                	jmp    41c <ArtNetNode::Run()+0x41c>
 40f:	90                   	nop
 410:	eb 0a                	jmp    41c <ArtNetNode::Run()+0x41c>
 412:	90                   	nop
 413:	eb 07                	jmp    41c <ArtNetNode::Run()+0x41c>
 415:	90                   	nop
 416:	eb 04                	jmp    41c <ArtNetNode::Run()+0x41c>
 418:	90                   	nop
 419:	eb 01                	jmp    41c <ArtNetNode::Run()+0x41c>
 41b:	90                   	nop
 41c:	48 8b 45 e8          	mov    -0x18(%rbp),%rax
 420:	0f b6 40 67          	movzbl 0x67(%rax),%eax
 424:	0f b6 c0             	movzbl %al,%eax
 427:	25 c0 00 00 00       	and    $0xc0,%eax
 42c:	3d c0 00 00 00       	cmp    $0xc0,%eax
 431:	75 19                	jne    44c <ArtNetNode::Run()+0x44c>
 433:	e8 00 00 00 00       	call   438 <ArtNetNode::Run()+0x438>
 438:	48 89 c7             	mov    %rax,%rdi
 43b:	e8 00 00 00 00       	call   440 <ArtNetNode::Run()+0x440>
 440:	83 f8 04             	cmp    $0x4,%eax
 443:	74 07                	je     44c <ArtNetNode::Run()+0x44c>
 445:	b8 01 00 00 00       	mov    $0x1,%eax
 44a:	eb 05                	jmp    451 <ArtNetNode::Run()+0x451>
 44c:	b8 00 00 00 00       	mov    $0x0,%eax
 451:	84 c0                	test   %al,%al
 453:	74 65                	je     4ba <ArtNetNode::Run()+0x4ba>
 455:	48 8b 45 e8          	mov    -0x18(%rbp),%rax
 459:	0f b6 80 8d 00 00 00 	movzbl 0x8d(%rax),%eax
 460:	84 c0                	test   %al,%al
 462:	74 2c                	je     490 <ArtNetNode::Run()+0x490>
 464:	48 8b 45 e8          	mov    -0x18(%rbp),%rax
 468:	48 8b 80 70 0a 00 00 	mov    0xa70(%rax),%rax
 46f:	48 8b 55 e8          	mov    -0x18(%rbp),%rdx
 473:	48 8b 92 70 0a 00 00 	mov    0xa70(%rdx),%rdx
 47a:	48 8b 12             	mov    (%rdx),%rdx
 47d:	48 83 c2 30          	add    $0x30,%rdx
 481:	48 8b 12             	mov    (%rdx),%rdx
 484:	be 03 00 00 00       	mov    $0x3,%esi
 489:	48 89 c7             	mov    %rax,%rdi
 48c:	ff d2                	call   *%rdx
 48e:	eb 2a                	jmp    4ba <ArtNetNode::Run()+0x4ba>
 490:	48 8b 45 e8          	mov    -0x18(%rbp),%rax
 494:	48 8b 80 70 0a 00 00 	mov    0xa70(%rax),%rax
 49b:	48 8b 55 e8          	mov    -0x18(%rbp),%rdx
 49f:	48 8b 92 70 0a 00 00 	mov    0xa70(%rdx),%rdx
 4a6:	48 8b 12             	mov    (%rdx),%rdx
 4a9:	48 83 c2 30          	add    $0x30,%rdx
 4ad:	48 8b 12             	mov    (%rdx),%rdx
 4b0:	be 02 00 00 00       	mov    $0x2,%esi
 4b5:	48 89 c7             	mov    %rax,%rdi
 4b8:	ff d2                	call   *%rdx
 4ba:	bf 00 00 00 00       	mov    $0x0,%edi
 4bf:	e8 00 00 00 00       	call   4c4 <ArtNetNode::Run()+0x4c4>
 4c4:	eb 01                	jmp    4c7 <ArtNetNode::Run()+0x4c7>
 4c6:	90                   	nop
 4c7:	48 8b 45 f8          	mov    -0x8(%rbp),%rax
 4cb:	64 48 2b 04 25 28 00 	sub    %fs:0x28,%rax
 4d2:	00 00 
 4d4:	74 05                	je     4db <ArtNetNode::Run()+0x4db>
 4d6:	e8 00 00 00 00       	call   4db <ArtNetNode::Run()+0x4db>
 4db:	c9                   	leave  
 4dc:	c3                   	ret    

artnetnodediag.o:     file format elf64-x86-64


artnetnodegetportaddress.o:     file format elf64-x86-64


Disassembly of section .text._ZNK10ArtNetNode14GetPortAddressEjRt:

0000000000000000 <ArtNetNode::GetPortAddress(unsigned int, unsigned short&) const>:
   0:	f3 0f 1e fa          	endbr64 
   4:	55                   	push   %rbp
   5:	48 89 e5             	mov    %rsp,%rbp
   8:	48 89 7d f8          	mov    %rdi,-0x8(%rbp)
   c:	89 75 f4             	mov    %esi,-0xc(%rbp)
   f:	48 89 55 e8          	mov    %rdx,-0x18(%rbp)
  13:	48 8b 55 f8          	mov    -0x8(%rbp),%rdx
  17:	8b 45 f4             	mov    -0xc(%rbp),%eax
  1a:	48 83 c0 11          	add    $0x11,%rax
  1e:	48 c1 e0 04          	shl    $0x4,%rax
  22:	48 01 d0             	add    %rdx,%rax
  25:	48 83 c0 08          	add    $0x8,%rax
  29:	0f b6 00             	movzbl (%rax),%eax
  2c:	84 c0                	test   %al,%al
  2e:	74 27                	je     57 <ArtNetNode::GetPortAddress(unsigned int, unsigned short&) const+0x57>
  30:	48 8b 55 f8          	mov    -0x8(%rbp),%rdx
  34:	8b 45 f4             	mov    -0xc(%rbp),%eax
  37:	48 83 c0 11          	add    $0x11,%rax
  3b:	48 c1 e0 04          	shl    $0x4,%rax
  3f:	48 01 d0             	add    %rdx,%rax
  42:	48 83 c0 04          	add    $0x4,%rax
  46:	0f b7 10             	movzwl (%rax),%edx
  49:	48 8b 45 e8          	mov    -0x18(%rbp),%rax
  4d:	66 89 10             	mov    %dx,(%rax)
  50:	b8 01 00 00 00       	mov    $0x1,%eax
  55:	eb 45                	jmp    9c <ArtNetNode::GetPortAddress(unsigned int, unsigned short&) const+0x9c>
  57:	48 8b 55 f8          	mov    -0x8(%rbp),%rdx
  5b:	8b 45 f4             	mov    -0xc(%rbp),%eax
  5e:	48 c1 e0 05          	shl    $0x5,%rax
  62:	48 01 d0             	add    %rdx,%rax
  65:	48 05 98 00 00 00    	add    $0x98,%rax
  6b:	0f b6 00             	movzbl (%rax),%eax
  6e:	84 c0                	test   %al,%al
  70:	74 25                	je     97 <ArtNetNode::GetPortAddress(unsigned int, unsigned short&) const+0x97>
  72:	48 8b 55 f8          	mov    -0x8(%rbp),%rdx
  76:	8b 45 f4             	mov    -0xc(%rbp),%eax
  79:	48 c1 e0 05          	shl    $0x5,%rax
  7d:	48 01 d0             	add    %rdx,%rax
  80:	48 05 94 00 00 00    	add    $0x94,%rax
  86:	0f b7 10             	movzwl (%rax),%edx
  89:	48 8b 45 e8          	mov    -0x18(%rbp),%rax
  8d:	66 89 10             	mov    %dx,(%rax)
  90:	b8 01 00 00 00       	mov    $0x1,%eax
  95:	eb 05                	jmp    9c <ArtNetNode::GetPortAddress(unsigned int, unsigned short&) const+0x9c>
  97:	b8 00 00 00 00       	mov    $0x0,%eax
  9c:	5d                   	pop    %rbp
  9d:	c3                   	ret    

Disassembly of section .text._ZNK10ArtNetNode14GetPortAddressEjRtN8lightset7PortDirE:

0000000000000000 <ArtNetNode::GetPortAddress(unsigned int, unsigned short&, lightset::PortDir) const>:
   0:	f3 0f 1e fa          	endbr64 
   4:	55                   	push   %rbp
   5:	48 89 e5             	mov    %rsp,%rbp
   8:	48 89 7d f8          	mov    %rdi,-0x8(%rbp)
   c:	89 75 f4             	mov    %esi,-0xc(%rbp)
   f:	48 89 55 e8          	mov    %rdx,-0x18(%rbp)
  13:	89 4d f0             	mov    %ecx,-0x10(%rbp)
  16:	83 7d f0 00          	cmpl   $0x0,-0x10(%rbp)
  1a:	75 3b                	jne    57 <ArtNetNode::GetPortAddress(unsigned int, unsigned short&, lightset::PortDir) const+0x57>
  1c:	48 8b 55 f8          	mov    -0x8(%rbp),%rdx
  20:	8b 45 f4             	mov    -0xc(%rbp),%eax
  23:	48 83 c0 11          	add    $0x11,%rax
  27:	48 c1 e0 04          	shl    $0x4,%rax
  2b:	48 01 d0             	add    %rdx,%rax
  2e:	48 83 c0 04          	add    $0x4,%rax
  32:	0f b7 10             	movzwl (%rax),%edx
  35:	48 8b 45 e8          	mov    -0x18(%rbp),%rax
  39:	66 89 10             	mov    %dx,(%rax)
  3c:	48 8b 55 f8          	mov    -0x8(%rbp),%rdx
  40:	8b 45 f4             	mov    -0xc(%rbp),%eax
  43:	48 83 c0 11          	add    $0x11,%rax
  47:	48 c1 e0 04          	shl    $0x4,%rax
  4b:	48 01 d0             	add    %rdx,%rax
  4e:	48 83 c0 08          	add    $0x8,%rax
  52:	0f b6 00             	movzbl (%rax),%eax
  55:	eb 42                	jmp    99 <ArtNetNode::GetPortAddress(unsigned int, unsigned short&, lightset::PortDir) const+0x99>
  57:	83 7d f0 01          	cmpl   $0x1,-0x10(%rbp)
  5b:	75 37                	jne    94 <ArtNetNode::GetPortAddress(unsigned int, unsigned short&, lightset::PortDir) const+0x94>
  5d:	48 8b 55 f8          	mov    -0x8(%rbp),%rdx
  61:	8b 45 f4             	mov    -0xc(%rbp),%eax
  64:	48 c1 e0 05          	shl    $0x5,%rax
  68:	48 01 d0             	add    %rdx,%rax
  6b:	48 05 94 00 00 00    	add    $0x94,%rax
  71:	0f b7 10             	movzwl (%rax),%edx
  74:	48 8b 45 e8          	mov    -0x18(%rbp),%rax
  78:	66 89 10             	mov    %dx,(%rax)
  7b:	48 8b 55 f8          	mov    -0x8(%rbp),%rdx
  7f:	8b 45 f4             	mov    -0xc(%rbp),%eax
  82:	48 c1 e0 05          	shl    $0x5,%rax
  86:	48 01 d0             	add    %rdx,%rax
  89:	48 05 98 00 00 00    	add    $0x98,%rax
  8f:	0f b6 00             	movzbl (%rax),%eax
  92:	eb 05                	jmp    99 <ArtNetNode::GetPortAddress(unsigned int, unsigned short&, lightset::PortDir) const+0x99>
  94:	b8 00 00 00 00       	mov    $0x0,%eax
  99:	5d                   	pop    %rbp
  9a:	c3                   	ret    

artnetnodehandleaddress.o:     file format elf64-x86-64


Disassembly of section .text._ZN6artnetL17make_port_addressEjjj:

0000000000000000 <artnet::make_port_address(unsigned int, unsigned int, unsigned int)>:
   0:	55                   	push   %rbp
   1:	48 89 e5             	mov    %rsp,%rbp
   4:	89 7d ec             	mov    %edi,-0x14(%rbp)
   7:	89 75 e8             	mov    %esi,-0x18(%rbp)
   a:	89 55 e4             	mov    %edx,-0x1c(%rbp)
   d:	8b 45 ec             	mov    -0x14(%rbp),%eax
  10:	c1 e0 08             	shl    $0x8,%eax
  13:	66 25 00 7f          	and    $0x7f00,%ax
  17:	66 89 45 fe          	mov    %ax,-0x2(%rbp)
  1b:	8b 45 e8             	mov    -0x18(%rbp),%eax
  1e:	c1 e0 04             	shl    $0x4,%eax
  21:	0f b6 c0             	movzbl %al,%eax
  24:	66 09 45 fe          	or     %ax,-0x2(%rbp)
  28:	8b 45 e4             	mov    -0x1c(%rbp),%eax
  2b:	83 e0 0f             	and    $0xf,%eax
  2e:	66 09 45 fe          	or     %ax,-0x2(%rbp)
  32:	0f b7 45 fe          	movzwl -0x2(%rbp),%eax
  36:	5d                   	pop    %rbp
  37:	c3                   	ret    

Disassembly of section .text._ZN8Hardware3GetEv:

0000000000000000 <Hardware::Get()>:
   0:	f3 0f 1e fa          	endbr64 
   4:	55                   	push   %rbp
   5:	48 89 e5             	mov    %rsp,%rbp
   8:	48 8b 05 00 00 00 00 	mov    0x0(%rip),%rax        # f <Hardware::Get()+0xf>
   f:	5d                   	pop    %rbp
  10:	c3                   	ret    

Disassembly of section .text._ZN8lightset4Data3GetEv:

0000000000000000 <lightset::Data::Get()>:
   0:	f3 0f 1e fa          	endbr64 
   4:	55                   	push   %rbp
   5:	48 89 e5             	mov    %rsp,%rbp
   8:	0f b6 05 00 00 00 00 	movzbl 0x0(%rip),%eax        # f <lightset::Data::Get()+0xf>
   f:	84 c0                	test   %al,%al
  11:	0f 94 c0             	sete   %al
  14:	84 c0                	test   %al,%al
  16:	74 36                	je     4e <lightset::Data::Get()+0x4e>
  18:	48 8d 05 00 00 00 00 	lea    0x0(%rip),%rax        # 1f <lightset::Data::Get()+0x1f>
  1f:	48 89 c7             	mov    %rax,%rdi
  22:	e8 00 00 00 00       	call   27 <lightset::Data::Get()+0x27>
  27:	85 c0                	test   %eax,%eax
  29:	0f 95 c0             	setne  %al
  2c:	84 c0                	test   %al,%al
  2e:	74 1e                	je     4e <lightset::Data::Get()+0x4e>
  30:	48 8d 05 00 00 00 00 	lea    0x0(%rip),%rax        # 37 <lightset::Data::Get()+0x37>
  37:	48 89 c7             	mov    %rax,%rdi
  3a:	e8 00 00 00 00       	call   3f <lightset::Data::Get()+0x3f>
  3f:	48 8d 05 00 00 00 00 	lea    0x0(%rip),%rax        # 46 <lightset::Data::Get()+0x46>
  46:	48 89 c7             	mov    %rax,%rdi
  49:	e8 00 00 00 00       	call   4e <lightset::Data::Get()+0x4e>
  4e:	48 8d 05 00 00 00 00 	lea    0x0(%rip),%rax        # 55 <lightset::Data::Get()+0x55>
  55:	5d                   	pop    %rbp
  56:	c3                   	ret    

Disassembly of section .text._ZN8lightset4Data11OutputClearEP8LightSetj:

0000000000000000 <lightset::Data::OutputClear(LightSet*, unsigned int)>:
   0:	f3 0f 1e fa          	endbr64 
   4:	55                   	push   %rbp
   5:	48 89 e5             	mov    %rsp,%rbp
   8:	48 83 ec 10          	sub    $0x10,%rsp
   c:	48 89 7d f8          	mov    %rdi,-0x8(%rbp)
  10:	89 75 f4             	mov    %esi,-0xc(%rbp)
  13:	e8 00 00 00 00       	call   18 <lightset::Data::OutputClear(LightSet*, unsigned int)+0x18>
  18:	48 89 c1             	mov    %rax,%rcx
  1b:	8b 55 f4             	mov    -0xc(%rbp),%edx
  1e:	48 8b 45 f8          	mov    -0x8(%rbp),%rax
  22:	48 89 c6             	mov    %rax,%rsi
  25:	48 89 cf             	mov    %rcx,%rdi
  28:	e8 00 00 00 00       	call   2d <lightset::Data::OutputClear(LightSet*, unsigned int)+0x2d>
  2d:	90                   	nop
  2e:	c9                   	leave  
  2f:	c3                   	ret    

Disassembly of section .text._ZN8lightset4DataC2Ev:

0000000000000000 <lightset::Data::Data()>:
   0:	f3 0f 1e fa          	endbr64 
   4:	55                   	push   %rbp
   5:	48 89 e5             	mov    %rsp,%rbp
   8:	48 89 7d f8          	mov    %rdi,-0x8(%rbp)
   c:	90                   	nop
   d:	5d                   	pop    %rbp
   e:	c3                   	ret    

Disassembly of section .text._ZNK8lightset4Data7IOutputEP8LightSetj:

0000000000000000 <lightset::Data::IOutput(LightSet*, unsigned int) const>:
   0:	f3 0f 1e fa          	endbr64 
   4:	55                   	push   %rbp
   5:	48 89 e5             	mov    %rsp,%rbp
   8:	48 83 ec 20          	sub    $0x20,%rsp
   c:	48 89 7d f8          	mov    %rdi,-0x8(%rbp)
  10:	48 89 75 f0          	mov    %rsi,-0x10(%rbp)
  14:	89 55 ec             	mov    %edx,-0x14(%rbp)
  17:	48 8b 45 f0          	mov    -0x10(%rbp),%rax
  1b:	48 8b 00             	mov    (%rax),%rax
  1e:	48 83 c0 20          	add    $0x20,%rax
  22:	4c 8b 00             	mov    (%rax),%r8
  25:	48 8b 55 f8          	mov    -0x8(%rbp),%rdx
  29:	8b 45 ec             	mov    -0x14(%rbp),%eax
  2c:	48 69 c0 04 06 00 00 	imul   $0x604,%rax,%rax
  33:	48 01 d0             	add    %rdx,%rax
  36:	48 05 00 06 00 00    	add    $0x600,%rax
  3c:	8b 10                	mov    (%rax),%edx
  3e:	8b 45 ec             	mov    -0x14(%rbp),%eax
  41:	48 69 c0 04 06 00 00 	imul   $0x604,%rax,%rax
  48:	48 8d 88 00 04 00 00 	lea    0x400(%rax),%rcx
  4f:	48 8b 45 f8          	mov    -0x8(%rbp),%rax
  53:	48 8d 3c 01          	lea    (%rcx,%rax,1),%rdi
  57:	8b 75 ec             	mov    -0x14(%rbp),%esi
  5a:	48 8b 45 f0          	mov    -0x10(%rbp),%rax
  5e:	89 d1                	mov    %edx,%ecx
  60:	48 89 fa             	mov    %rdi,%rdx
  63:	48 89 c7             	mov    %rax,%rdi
  66:	41 ff d0             	call   *%r8
  69:	90                   	nop
  6a:	c9                   	leave  
  6b:	c3                   	ret    

Disassembly of section .text._ZN8lightset4Data12IOutputClearEP8LightSetj:

0000000000000000 <lightset::Data::IOutputClear(LightSet*, unsigned int)>:
   0:	f3 0f 1e fa          	endbr64 
   4:	55                   	push   %rbp
   5:	48 89 e5             	mov    %rsp,%rbp
   8:	48 83 ec 20          	sub    $0x20,%rsp
   c:	48 89 7d f8          	mov    %rdi,-0x8(%rbp)
  10:	48 89 75 f0          	mov    %rsi,-0x10(%rbp)
  14:	89 55 ec             	mov    %edx,-0x14(%rbp)
  17:	8b 45 ec             	mov    -0x14(%rbp),%eax
  1a:	48 69 c0 04 06 00 00 	imul   $0x604,%rax,%rax
  21:	48 8d 90 00 04 00 00 	lea    0x400(%rax),%rdx
  28:	48 8b 45 f8          	mov    -0x8(%rbp),%rax
  2c:	48 01 d0             	add    %rdx,%rax
  2f:	ba 00 02 00 00       	mov    $0x200,%edx
  34:	be 00 00 00 00       	mov    $0x0,%esi
  39:	48 89 c7             	mov    %rax,%rdi
  3c:	e8 00 00 00 00       	call   41 <lightset::Data::IOutputClear(LightSet*, unsigned int)+0x41>
  41:	48 8b 55 f8          	mov    -0x8(%rbp),%rdx
  45:	8b 45 ec             	mov    -0x14(%rbp),%eax
  48:	48 69 c0 04 06 00 00 	imul   $0x604,%rax,%rax
  4f:	48 01 d0             	add    %rdx,%rax
  52:	48 05 00 06 00 00    	add    $0x600,%rax
  58:	c7 00 00 02 00 00    	movl   $0x200,(%rax)
  5e:	8b 55 ec             	mov    -0x14(%rbp),%edx
  61:	48 8b 4d f0          	mov    -0x10(%rbp),%rcx
  65:	48 8b 45 f8          	mov    -0x8(%rbp),%rax
  69:	48 89 ce             	mov    %rcx,%rsi
  6c:	48 89 c7             	mov    %rax,%rdi
  6f:	e8 00 00 00 00       	call   74 <lightset::Data::IOutputClear(LightSet*, unsigned int)+0x74>
  74:	90                   	nop
  75:	c9                   	leave  
  76:	c3                   	ret    

Disassembly of section .text._ZN10ArtNetNode15MakePortAddressEtj:

0000000000000000 <ArtNetNode::MakePortAddress(unsigned short, unsigned int)>:
   0:	f3 0f 1e fa          	endbr64 
   4:	55                   	push   %rbp
   5:	48 89 e5             	mov    %rsp,%rbp
   8:	48 83 ec 10          	sub    $0x10,%rsp
   c:	48 89 7d f8          	mov    %rdi,-0x8(%rbp)
  10:	89 f0                	mov    %esi,%eax
  12:	89 55 f0             	mov    %edx,-0x10(%rbp)
  15:	66 89 45 f4          	mov    %ax,-0xc(%rbp)
  19:	0f b7 55 f4          	movzwl -0xc(%rbp),%edx
  1d:	48 8b 4d f8          	mov    -0x8(%rbp),%rcx
  21:	8b 45 f0             	mov    -0x10(%rbp),%eax
  24:	0f b6 44 01 13       	movzbl 0x13(%rcx,%rax,1),%eax
  29:	0f b6 c8             	movzbl %al,%ecx
  2c:	48 8b 75 f8          	mov    -0x8(%rbp),%rsi
  30:	8b 45 f0             	mov    -0x10(%rbp),%eax
  33:	0f b6 44 06 12       	movzbl 0x12(%rsi,%rax,1),%eax
  38:	0f b6 c0             	movzbl %al,%eax
  3b:	89 ce                	mov    %ecx,%esi
  3d:	89 c7                	mov    %eax,%edi
  3f:	e8 00 00 00 00       	call   44 <ArtNetNode::MakePortAddress(unsigned short, unsigned int)+0x44>
  44:	c9                   	leave  
  45:	c3                   	ret    

Disassembly of section .text._ZN10ArtNetNode11SetUniverseEjN8lightset7PortDirEt:

0000000000000000 <ArtNetNode::SetUniverse(unsigned int, lightset::PortDir, unsigned short)>:
   0:	f3 0f 1e fa          	endbr64 
   4:	55                   	push   %rbp
   5:	48 89 e5             	mov    %rsp,%rbp
   8:	48 83 ec 30          	sub    $0x30,%rsp
   c:	48 89 7d e8          	mov    %rdi,-0x18(%rbp)
  10:	89 75 e4             	mov    %esi,-0x1c(%rbp)
  13:	89 55 e0             	mov    %edx,-0x20(%rbp)
  16:	89 c8                	mov    %ecx,%eax
  18:	66 89 45 dc          	mov    %ax,-0x24(%rbp)
  1c:	8b 45 e4             	mov    -0x1c(%rbp),%eax
  1f:	c1 e8 02             	shr    $0x2,%eax
  22:	89 45 fc             	mov    %eax,-0x4(%rbp)
  25:	0f b7 45 dc          	movzwl -0x24(%rbp),%eax
  29:	66 c1 e8 08          	shr    $0x8,%ax
  2d:	83 e0 7f             	and    $0x7f,%eax
  30:	89 c1                	mov    %eax,%ecx
  32:	48 8b 55 e8          	mov    -0x18(%rbp),%rdx
  36:	8b 45 fc             	mov    -0x4(%rbp),%eax
  39:	88 4c 02 12          	mov    %cl,0x12(%rdx,%rax,1)
  3d:	0f b7 45 dc          	movzwl -0x24(%rbp),%eax
  41:	66 c1 e8 04          	shr    $0x4,%ax
  45:	83 e0 0f             	and    $0xf,%eax
  48:	89 c1                	mov    %eax,%ecx
  4a:	48 8b 55 e8          	mov    -0x18(%rbp),%rdx
  4e:	8b 45 fc             	mov    -0x4(%rbp),%eax
  51:	88 4c 02 13          	mov    %cl,0x13(%rdx,%rax,1)
  55:	0f b7 45 dc          	movzwl -0x24(%rbp),%eax
  59:	0f b6 c0             	movzbl %al,%eax
  5c:	83 e0 0f             	and    $0xf,%eax
  5f:	89 c1                	mov    %eax,%ecx
  61:	8b 55 e0             	mov    -0x20(%rbp),%edx
  64:	8b 75 e4             	mov    -0x1c(%rbp),%esi
  67:	48 8b 45 e8          	mov    -0x18(%rbp),%rax
  6b:	48 89 c7             	mov    %rax,%rdi
  6e:	e8 00 00 00 00       	call   73 <ArtNetNode::SetUniverse(unsigned int, lightset::PortDir, unsigned short)+0x73>
  73:	c9                   	leave  
  74:	c3                   	ret    

Disassembly of section .text._ZN10ArtNetNode17SetUniverseSwitchEjN8lightset7PortDirEh:

0000000000000000 <ArtNetNode::SetUniverseSwitch(unsigned int, lightset::PortDir, unsigned char)>:
   0:	f3 0f 1e fa          	endbr64 
   4:	55                   	push   %rbp
   5:	48 89 e5             	mov    %rsp,%rbp
   8:	48 83 ec 40          	sub    $0x40,%rsp
   c:	48 89 7d d8          	mov    %rdi,-0x28(%rbp)
  10:	89 75 d4             	mov    %esi,-0x2c(%rbp)
  13:	89 55 d0             	mov    %edx,-0x30(%rbp)
  16:	89 c8                	mov    %ecx,%eax
  18:	88 45 cc             	mov    %al,-0x34(%rbp)
  1b:	64 48 8b 04 25 28 00 	mov    %fs:0x28,%rax
  22:	00 00 
  24:	48 89 45 f8          	mov    %rax,-0x8(%rbp)
  28:	31 c0                	xor    %eax,%eax
  2a:	83 7d d4 03          	cmpl   $0x3,-0x2c(%rbp)
  2e:	76 0a                	jbe    3a <ArtNetNode::SetUniverseSwitch(unsigned int, lightset::PortDir, unsigned char)+0x3a>
  30:	b8 fb ff ff ff       	mov    $0xfffffffb,%eax
  35:	e9 cb 02 00 00       	jmp    305 <ArtNetNode::SetUniverseSwitch(unsigned int, lightset::PortDir, unsigned char)+0x305>
  3a:	8b 45 d4             	mov    -0x2c(%rbp),%eax
  3d:	c1 e8 02             	shr    $0x2,%eax
  40:	89 45 f0             	mov    %eax,-0x10(%rbp)
  43:	83 7d d0 02          	cmpl   $0x2,-0x30(%rbp)
  47:	75 54                	jne    9d <ArtNetNode::SetUniverseSwitch(unsigned int, lightset::PortDir, unsigned char)+0x9d>
  49:	48 8b 55 d8          	mov    -0x28(%rbp),%rdx
  4d:	8b 45 d4             	mov    -0x2c(%rbp),%eax
  50:	48 c1 e0 05          	shl    $0x5,%rax
  54:	48 01 d0             	add    %rdx,%rax
  57:	48 05 98 00 00 00    	add    $0x98,%rax
  5d:	0f b6 00             	movzbl (%rax),%eax
  60:	84 c0                	test   %al,%al
  62:	74 2f                	je     93 <ArtNetNode::SetUniverseSwitch(unsigned int, lightset::PortDir, unsigned char)+0x93>
  64:	48 8b 55 d8          	mov    -0x28(%rbp),%rdx
  68:	8b 45 d4             	mov    -0x2c(%rbp),%eax
  6b:	48 c1 e0 05          	shl    $0x5,%rax
  6f:	48 01 d0             	add    %rdx,%rax
  72:	48 05 98 00 00 00    	add    $0x98,%rax
  78:	c6 00 00             	movb   $0x0,(%rax)
  7b:	48 8b 45 d8          	mov    -0x28(%rbp),%rax
  7f:	0f b6 80 8e 00 00 00 	movzbl 0x8e(%rax),%eax
  86:	8d 50 ff             	lea    -0x1(%rax),%edx
  89:	48 8b 45 d8          	mov    -0x28(%rbp),%rax
  8d:	88 90 8e 00 00 00    	mov    %dl,0x8e(%rax)
  93:	b8 00 00 00 00       	mov    $0x0,%eax
  98:	e9 68 02 00 00       	jmp    305 <ArtNetNode::SetUniverseSwitch(unsigned int, lightset::PortDir, unsigned char)+0x305>
  9d:	83 7d d0 00          	cmpl   $0x0,-0x30(%rbp)
  a1:	75 0a                	jne    ad <ArtNetNode::SetUniverseSwitch(unsigned int, lightset::PortDir, unsigned char)+0xad>
  a3:	b8 fd ff ff ff       	mov    $0xfffffffd,%eax
  a8:	e9 58 02 00 00       	jmp    305 <ArtNetNode::SetUniverseSwitch(unsigned int, lightset::PortDir, unsigned char)+0x305>
  ad:	83 7d d0 01          	cmpl   $0x1,-0x30(%rbp)
  b1:	0f 85 9e 01 00 00    	jne    255 <ArtNetNode::SetUniverseSwitch(unsigned int, lightset::PortDir, unsigned char)+0x255>
  b7:	48 8b 55 d8          	mov    -0x28(%rbp),%rdx
  bb:	8b 45 d4             	mov    -0x2c(%rbp),%eax
  be:	48 c1 e0 05          	shl    $0x5,%rax
  c2:	48 01 d0             	add    %rdx,%rax
  c5:	48 05 98 00 00 00    	add    $0x98,%rax
  cb:	0f b6 00             	movzbl (%rax),%eax
  ce:	83 f0 01             	xor    $0x1,%eax
  d1:	84 c0                	test   %al,%al
  d3:	74 18                	je     ed <ArtNetNode::SetUniverseSwitch(unsigned int, lightset::PortDir, unsigned char)+0xed>
  d5:	48 8b 45 d8          	mov    -0x28(%rbp),%rax
  d9:	0f b6 80 8e 00 00 00 	movzbl 0x8e(%rax),%eax
  e0:	8d 50 01             	lea    0x1(%rax),%edx
  e3:	48 8b 45 d8          	mov    -0x28(%rbp),%rax
  e7:	88 90 8e 00 00 00    	mov    %dl,0x8e(%rax)
  ed:	48 8b 55 d8          	mov    -0x28(%rbp),%rdx
  f1:	8b 45 d4             	mov    -0x2c(%rbp),%eax
  f4:	48 c1 e0 05          	shl    $0x5,%rax
  f8:	48 01 d0             	add    %rdx,%rax
  fb:	48 05 98 00 00 00    	add    $0x98,%rax
 101:	c6 00 01             	movb   $0x1,(%rax)
 104:	0f b6 45 cc          	movzbl -0x34(%rbp),%eax
 108:	83 e0 0f             	and    $0xf,%eax
 10b:	89 c2                	mov    %eax,%edx
 10d:	48 8b 4d d8          	mov    -0x28(%rbp),%rcx
 111:	8b 45 d4             	mov    -0x2c(%rbp),%eax
 114:	48 c1 e0 05          	shl    $0x5,%rax
 118:	48 01 c8             	add    %rcx,%rax
 11b:	48 05 96 00 00 00    	add    $0x96,%rax
 121:	88 10                	mov    %dl,(%rax)
 123:	0f b6 4d cc          	movzbl -0x34(%rbp),%ecx
 127:	8b 55 f0             	mov    -0x10(%rbp),%edx
 12a:	48 8b 45 d8          	mov    -0x28(%rbp),%rax
 12e:	89 ce                	mov    %ecx,%esi
 130:	48 89 c7             	mov    %rax,%rdi
 133:	e8 00 00 00 00       	call   138 <ArtNetNode::SetUniverseSwitch(unsigned int, lightset::PortDir, unsigned char)+0x138>
 138:	48 8b 4d d8          	mov    -0x28(%rbp),%rcx
 13c:	8b 55 d4             	mov    -0x2c(%rbp),%edx
 13f:	48 c1 e2 05          	shl    $0x5,%rdx
 143:	48 01 ca             	add    %rcx,%rdx
 146:	48 81 c2 94 00 00 00 	add    $0x94,%rdx
 14d:	66 89 02             	mov    %ax,(%rdx)
 150:	48 8b 55 d8          	mov    -0x28(%rbp),%rdx
 154:	8b 45 d4             	mov    -0x2c(%rbp),%eax
 157:	48 83 c0 11          	add    $0x11,%rax
 15b:	48 c1 e0 04          	shl    $0x4,%rax
 15f:	48 01 d0             	add    %rdx,%rax
 162:	48 83 c0 08          	add    $0x8,%rax
 166:	0f b6 00             	movzbl (%rax),%eax
 169:	84 c0                	test   %al,%al
 16b:	74 31                	je     19e <ArtNetNode::SetUniverseSwitch(unsigned int, lightset::PortDir, unsigned char)+0x19e>
 16d:	48 8b 55 d8          	mov    -0x28(%rbp),%rdx
 171:	8b 45 d4             	mov    -0x2c(%rbp),%eax
 174:	48 83 c0 11          	add    $0x11,%rax
 178:	48 c1 e0 04          	shl    $0x4,%rax
 17c:	48 01 d0             	add    %rdx,%rax
 17f:	48 83 c0 08          	add    $0x8,%rax
 183:	c6 00 00             	movb   $0x0,(%rax)
 186:	48 8b 45 d8          	mov    -0x28(%rbp),%rax
 18a:	0f b6 80 8f 00 00 00 	movzbl 0x8f(%rax),%eax
 191:	8d 50 ff             	lea    -0x1(%rax),%edx
 194:	48 8b 45 d8          	mov    -0x28(%rbp),%rax
 198:	88 90 8f 00 00 00    	mov    %dl,0x8f(%rax)
 19e:	c7 45 e8 00 00 00 00 	movl   $0x0,-0x18(%rbp)
 1a5:	e9 a1 00 00 00       	jmp    24b <ArtNetNode::SetUniverseSwitch(unsigned int, lightset::PortDir, unsigned char)+0x24b>
 1aa:	8b 45 e8             	mov    -0x18(%rbp),%eax
 1ad:	c1 e0 02             	shl    $0x2,%eax
 1b0:	89 45 f4             	mov    %eax,-0xc(%rbp)
 1b3:	c6 45 e3 00          	movb   $0x0,-0x1d(%rbp)
 1b7:	8b 45 f4             	mov    -0xc(%rbp),%eax
 1ba:	89 45 ec             	mov    %eax,-0x14(%rbp)
 1bd:	eb 59                	jmp    218 <ArtNetNode::SetUniverseSwitch(unsigned int, lightset::PortDir, unsigned char)+0x218>
 1bf:	48 8b 55 d8          	mov    -0x28(%rbp),%rdx
 1c3:	8b 45 ec             	mov    -0x14(%rbp),%eax
 1c6:	48 c1 e0 05          	shl    $0x5,%rax
 1ca:	48 01 d0             	add    %rdx,%rax
 1cd:	48 05 98 00 00 00    	add    $0x98,%rax
 1d3:	0f b6 00             	movzbl (%rax),%eax
 1d6:	84 c0                	test   %al,%al
 1d8:	74 23                	je     1fd <ArtNetNode::SetUniverseSwitch(unsigned int, lightset::PortDir, unsigned char)+0x1fd>
 1da:	0f b6 45 e3          	movzbl -0x1d(%rbp),%eax
 1de:	8d 50 01             	lea    0x1(%rax),%edx
 1e1:	88 55 e3             	mov    %dl,-0x1d(%rbp)
 1e4:	48 8b 4d d8          	mov    -0x28(%rbp),%rcx
 1e8:	8b 55 ec             	mov    -0x14(%rbp),%edx
 1eb:	48 c1 e2 05          	shl    $0x5,%rdx
 1ef:	48 01 ca             	add    %rcx,%rdx
 1f2:	48 81 c2 97 00 00 00 	add    $0x97,%rdx
 1f9:	88 02                	mov    %al,(%rdx)
 1fb:	eb 17                	jmp    214 <ArtNetNode::SetUniverseSwitch(unsigned int, lightset::PortDir, unsigned char)+0x214>
 1fd:	48 8b 55 d8          	mov    -0x28(%rbp),%rdx
 201:	8b 45 ec             	mov    -0x14(%rbp),%eax
 204:	48 c1 e0 05          	shl    $0x5,%rax
 208:	48 01 d0             	add    %rdx,%rax
 20b:	48 05 97 00 00 00    	add    $0x97,%rax
 211:	c6 00 ff             	movb   $0xff,(%rax)
 214:	83 45 ec 01          	addl   $0x1,-0x14(%rbp)
 218:	8b 45 f4             	mov    -0xc(%rbp),%eax
 21b:	83 c0 04             	add    $0x4,%eax
 21e:	89 45 e4             	mov    %eax,-0x1c(%rbp)
 221:	48 8d 45 e4          	lea    -0x1c(%rbp),%rax
 225:	48 8d 15 00 00 00 00 	lea    0x0(%rip),%rdx        # 22c <ArtNetNode::SetUniverseSwitch(unsigned int, lightset::PortDir, unsigned char)+0x22c>
 22c:	48 89 d6             	mov    %rdx,%rsi
 22f:	48 89 c7             	mov    %rax,%rdi
 232:	e8 00 00 00 00       	call   237 <ArtNetNode::SetUniverseSwitch(unsigned int, lightset::PortDir, unsigned char)+0x237>
 237:	8b 00                	mov    (%rax),%eax
 239:	39 45 ec             	cmp    %eax,-0x14(%rbp)
 23c:	0f 92 c0             	setb   %al
 23f:	84 c0                	test   %al,%al
 241:	0f 85 78 ff ff ff    	jne    1bf <ArtNetNode::SetUniverseSwitch(unsigned int, lightset::PortDir, unsigned char)+0x1bf>
 247:	83 45 e8 01          	addl   $0x1,-0x18(%rbp)
 24b:	83 7d e8 00          	cmpl   $0x0,-0x18(%rbp)
 24f:	0f 84 55 ff ff ff    	je     1aa <ArtNetNode::SetUniverseSwitch(unsigned int, lightset::PortDir, unsigned char)+0x1aa>
 255:	48 8b 45 d8          	mov    -0x28(%rbp),%rax
 259:	48 8b 80 70 0a 00 00 	mov    0xa70(%rax),%rax
 260:	48 85 c0             	test   %rax,%rax
 263:	74 3d                	je     2a2 <ArtNetNode::SetUniverseSwitch(unsigned int, lightset::PortDir, unsigned char)+0x2a2>
 265:	48 8b 45 d8          	mov    -0x28(%rbp),%rax
 269:	0f b6 80 85 00 00 00 	movzbl 0x85(%rax),%eax
 270:	3c 02                	cmp    $0x2,%al
 272:	74 2e                	je     2a2 <ArtNetNode::SetUniverseSwitch(unsigned int, lightset::PortDir, unsigned char)+0x2a2>
 274:	48 8b 45 d8          	mov    -0x28(%rbp),%rax
 278:	48 8b 80 70 0a 00 00 	mov    0xa70(%rax),%rax
 27f:	48 8b 55 d8          	mov    -0x28(%rbp),%rdx
 283:	48 8b 92 70 0a 00 00 	mov    0xa70(%rdx),%rdx
 28a:	48 8b 12             	mov    (%rdx),%rdx
 28d:	48 83 c2 10          	add    $0x10,%rdx
 291:	4c 8b 02             	mov    (%rdx),%r8
 294:	8b 55 d0             	mov    -0x30(%rbp),%edx
 297:	8b 4d d4             	mov    -0x2c(%rbp),%ecx
 29a:	89 ce                	mov    %ecx,%esi
 29c:	48 89 c7             	mov    %rax,%rdi
 29f:	41 ff d0             	call   *%r8
 2a2:	48 8b 45 d8          	mov    -0x28(%rbp),%rax
 2a6:	0f b6 80 85 00 00 00 	movzbl 0x85(%rax),%eax
 2ad:	3c 02                	cmp    $0x2,%al
 2af:	75 4f                	jne    300 <ArtNetNode::SetUniverseSwitch(unsigned int, lightset::PortDir, unsigned char)+0x300>
 2b1:	48 8b 45 d8          	mov    -0x28(%rbp),%rax
 2b5:	48 8b 80 78 0a 00 00 	mov    0xa78(%rax),%rax
 2bc:	48 85 c0             	test   %rax,%rax
 2bf:	74 2f                	je     2f0 <ArtNetNode::SetUniverseSwitch(unsigned int, lightset::PortDir, unsigned char)+0x2f0>
 2c1:	48 8b 45 d8          	mov    -0x28(%rbp),%rax
 2c5:	48 8b 80 78 0a 00 00 	mov    0xa78(%rax),%rax
 2cc:	48 8b 55 d8          	mov    -0x28(%rbp),%rdx
 2d0:	48 8b 92 78 0a 00 00 	mov    0xa78(%rdx),%rdx
 2d7:	48 8b 12             	mov    (%rdx),%rdx
 2da:	48 83 c2 28          	add    $0x28,%rdx
 2de:	4c 8b 02             	mov    (%rdx),%r8
 2e1:	0f b6 55 cc          	movzbl -0x34(%rbp),%edx
 2e5:	8b 4d d4             	mov    -0x2c(%rbp),%ecx
 2e8:	89 ce                	mov    %ecx,%esi
 2ea:	48 89 c7             	mov    %rax,%rdi
 2ed:	41 ff d0             	call   *%r8
 2f0:	0f b6 55 cc          	movzbl -0x34(%rbp),%edx
 2f4:	8b 45 d4             	mov    -0x2c(%rbp),%eax
 2f7:	89 d6                	mov    %edx,%esi
 2f9:	89 c7                	mov    %eax,%edi
 2fb:	e8 00 00 00 00       	call   300 <ArtNetNode::SetUniverseSwitch(unsigned int, lightset::PortDir, unsigned char)+0x300>
 300:	b8 00 00 00 00       	mov    $0x0,%eax
 305:	48 8b 55 f8          	mov    -0x8(%rbp),%rdx
 309:	64 48 2b 14 25 28 00 	sub    %fs:0x28,%rdx
 310:	00 00 
 312:	74 05                	je     319 <ArtNetNode::SetUniverseSwitch(unsigned int, lightset::PortDir, unsigned char)+0x319>
 314:	e8 00 00 00 00       	call   319 <ArtNetNode::SetUniverseSwitch(unsigned int, lightset::PortDir, unsigned char)+0x319>
 319:	c9                   	leave  
 31a:	c3                   	ret    

Disassembly of section .text._ZNK10ArtNetNode17GetUniverseSwitchEjRhN8lightset7PortDirE:

0000000000000000 <ArtNetNode::GetUniverseSwitch(unsigned int, unsigned char&, lightset::PortDir) const>:
   0:	f3 0f 1e fa          	endbr64 
   4:	55                   	push   %rbp
   5:	48 89 e5             	mov    %rsp,%rbp
   8:	48 89 7d f8          	mov    %rdi,-0x8(%rbp)
   c:	89 75 f4             	mov    %esi,-0xc(%rbp)
   f:	48 89 55 e8          	mov    %rdx,-0x18(%rbp)
  13:	89 4d f0             	mov    %ecx,-0x10(%rbp)
  16:	83 7d f4 03          	cmpl   $0x3,-0xc(%rbp)
  1a:	76 07                	jbe    23 <ArtNetNode::GetUniverseSwitch(unsigned int, unsigned char&, lightset::PortDir) const+0x23>
  1c:	b8 00 00 00 00       	mov    $0x0,%eax
  21:	eb 4e                	jmp    71 <ArtNetNode::GetUniverseSwitch(unsigned int, unsigned char&, lightset::PortDir) const+0x71>
  23:	83 7d f0 00          	cmpl   $0x0,-0x10(%rbp)
  27:	75 07                	jne    30 <ArtNetNode::GetUniverseSwitch(unsigned int, unsigned char&, lightset::PortDir) const+0x30>
  29:	b8 00 00 00 00       	mov    $0x0,%eax
  2e:	eb 41                	jmp    71 <ArtNetNode::GetUniverseSwitch(unsigned int, unsigned char&, lightset::PortDir) const+0x71>
  30:	83 7d f0 02          	cmpl   $0x2,-0x10(%rbp)
  34:	75 07                	jne    3d <ArtNetNode::GetUniverseSwitch(unsigned int, unsigned char&, lightset::PortDir) const+0x3d>
  36:	b8 00 00 00 00       	mov    $0x0,%eax
  3b:	eb 34                	jmp    71 <ArtNetNode::GetUniverseSwitch(unsigned int, unsigned char&, lightset::PortDir) const+0x71>
  3d:	48 8b 55 f8          	mov    -0x8(%rbp),%rdx
  41:	8b 45 f4             	mov    -0xc(%rbp),%eax
  44:	48 c1 e0 05          	shl    $0x5,%rax
  48:	48 01 d0             	add    %rdx,%rax
  4b:	48 05 96 00 00 00    	add    $0x96,%rax
  51:	0f b6 10             	movzbl (%rax),%edx
  54:	48 8b 45 e8          	mov    -0x18(%rbp),%rax
  58:	88 10                	mov    %dl,(%rax)
  5a:	48 8b 55 f8          	mov    -0x8(%rbp),%rdx
  5e:	8b 45 f4             	mov    -0xc(%rbp),%eax
  61:	48 c1 e0 05          	shl    $0x5,%rax
  65:	48 01 d0             	add    %rdx,%rax
  68:	48 05 98 00 00 00    	add    $0x98,%rax
  6e:	0f b6 00             	movzbl (%rax),%eax
  71:	5d                   	pop    %rbp
  72:	c3                   	ret    

Disassembly of section .text._ZN10ArtNetNode15SetSubnetSwitchEhj:

0000000000000000 <ArtNetNode::SetSubnetSwitch(unsigned char, unsigned int)>:
   0:	f3 0f 1e fa          	endbr64 
   4:	55                   	push   %rbp
   5:	48 89 e5             	mov    %rsp,%rbp
   8:	48 83 ec 30          	sub    $0x30,%rsp
   c:	48 89 7d d8          	mov    %rdi,-0x28(%rbp)
  10:	89 f0                	mov    %esi,%eax
  12:	89 55 d0             	mov    %edx,-0x30(%rbp)
  15:	88 45 d4             	mov    %al,-0x2c(%rbp)
  18:	64 48 8b 04 25 28 00 	mov    %fs:0x28,%rax
  1f:	00 00 
  21:	48 89 45 f8          	mov    %rax,-0x8(%rbp)
  25:	31 c0                	xor    %eax,%eax
  27:	48 8b 55 d8          	mov    -0x28(%rbp),%rdx
  2b:	8b 45 d0             	mov    -0x30(%rbp),%eax
  2e:	0f b6 4d d4          	movzbl -0x2c(%rbp),%ecx
  32:	88 4c 02 13          	mov    %cl,0x13(%rdx,%rax,1)
  36:	8b 45 d0             	mov    -0x30(%rbp),%eax
  39:	c1 e0 02             	shl    $0x2,%eax
  3c:	89 45 f0             	mov    %eax,-0x10(%rbp)
  3f:	8b 45 f0             	mov    -0x10(%rbp),%eax
  42:	83 c0 04             	add    $0x4,%eax
  45:	89 45 e8             	mov    %eax,-0x18(%rbp)
  48:	48 8d 45 e8          	lea    -0x18(%rbp),%rax
  4c:	48 89 c6             	mov    %rax,%rsi
  4f:	48 8d 05 00 00 00 00 	lea    0x0(%rip),%rax        # 56 <ArtNetNode::SetSubnetSwitch(unsigned char, unsigned int)+0x56>
  56:	48 89 c7             	mov    %rax,%rdi
  59:	e8 00 00 00 00       	call   5e <ArtNetNode::SetSubnetSwitch(unsigned char, unsigned int)+0x5e>
  5e:	8b 00                	mov    (%rax),%eax
  60:	89 45 f4             	mov    %eax,-0xc(%rbp)
  63:	8b 45 f0             	mov    -0x10(%rbp),%eax
  66:	89 45 ec             	mov    %eax,-0x14(%rbp)
  69:	eb 47                	jmp    b2 <ArtNetNode::SetSubnetSwitch(unsigned char, unsigned int)+0xb2>
  6b:	48 8b 55 d8          	mov    -0x28(%rbp),%rdx
  6f:	8b 45 ec             	mov    -0x14(%rbp),%eax
  72:	48 c1 e0 05          	shl    $0x5,%rax
  76:	48 01 d0             	add    %rdx,%rax
  79:	48 05 94 00 00 00    	add    $0x94,%rax
  7f:	0f b7 00             	movzwl (%rax),%eax
  82:	0f b7 c8             	movzwl %ax,%ecx
  85:	8b 55 d0             	mov    -0x30(%rbp),%edx
  88:	48 8b 45 d8          	mov    -0x28(%rbp),%rax
  8c:	89 ce                	mov    %ecx,%esi
  8e:	48 89 c7             	mov    %rax,%rdi
  91:	e8 00 00 00 00       	call   96 <ArtNetNode::SetSubnetSwitch(unsigned char, unsigned int)+0x96>
  96:	48 8b 4d d8          	mov    -0x28(%rbp),%rcx
  9a:	8b 55 ec             	mov    -0x14(%rbp),%edx
  9d:	48 c1 e2 05          	shl    $0x5,%rdx
  a1:	48 01 ca             	add    %rcx,%rdx
  a4:	48 81 c2 94 00 00 00 	add    $0x94,%rdx
  ab:	66 89 02             	mov    %ax,(%rdx)
  ae:	83 45 ec 01          	addl   $0x1,-0x14(%rbp)
  b2:	8b 45 ec             	mov    -0x14(%rbp),%eax
  b5:	3b 45 f4             	cmp    -0xc(%rbp),%eax
  b8:	72 b1                	jb     6b <ArtNetNode::SetSubnetSwitch(unsigned char, unsigned int)+0x6b>
  ba:	48 8b 45 d8          	mov    -0x28(%rbp),%rax
  be:	48 8b 80 78 0a 00 00 	mov    0xa78(%rax),%rax
  c5:	48 85 c0             	test   %rax,%rax
  c8:	74 3e                	je     108 <ArtNetNode::SetSubnetSwitch(unsigned char, unsigned int)+0x108>
  ca:	48 8b 45 d8          	mov    -0x28(%rbp),%rax
  ce:	0f b6 80 85 00 00 00 	movzbl 0x85(%rax),%eax
  d5:	3c 02                	cmp    $0x2,%al
  d7:	75 2f                	jne    108 <ArtNetNode::SetSubnetSwitch(unsigned char, unsigned int)+0x108>
  d9:	48 8b 45 d8          	mov    -0x28(%rbp),%rax
  dd:	48 8b 80 78 0a 00 00 	mov    0xa78(%rax),%rax
  e4:	48 8b 55 d8          	mov    -0x28(%rbp),%rdx
  e8:	48 8b 92 78 0a 00 00 	mov    0xa78(%rdx),%rdx
  ef:	48 8b 12             	mov    (%rdx),%rdx
  f2:	48 83 c2 38          	add    $0x38,%rdx
  f6:	4c 8b 02             	mov    (%rdx),%r8
  f9:	0f b6 55 d4          	movzbl -0x2c(%rbp),%edx
  fd:	8b 4d d0             	mov    -0x30(%rbp),%ecx
 100:	89 ce                	mov    %ecx,%esi
 102:	48 89 c7             	mov    %rax,%rdi
 105:	41 ff d0             	call   *%r8
 108:	90                   	nop
 109:	48 8b 45 f8          	mov    -0x8(%rbp),%rax
 10d:	64 48 2b 04 25 28 00 	sub    %fs:0x28,%rax
 114:	00 00 
 116:	74 05                	je     11d <ArtNetNode::SetSubnetSwitch(unsigned char, unsigned int)+0x11d>
 118:	e8 00 00 00 00       	call   11d <ArtNetNode::SetSubnetSwitch(unsigned char, unsigned int)+0x11d>
 11d:	c9                   	leave  
 11e:	c3                   	ret    

Disassembly of section .text._ZN10ArtNetNode12SetNetSwitchEhj:

0000000000000000 <ArtNetNode::SetNetSwitch(unsigned char, unsigned int)>:
   0:	f3 0f 1e fa          	endbr64 
   4:	55                   	push   %rbp
   5:	48 89 e5             	mov    %rsp,%rbp
   8:	48 83 ec 30          	sub    $0x30,%rsp
   c:	48 89 7d d8          	mov    %rdi,-0x28(%rbp)
  10:	89 f0                	mov    %esi,%eax
  12:	89 55 d0             	mov    %edx,-0x30(%rbp)
  15:	88 45 d4             	mov    %al,-0x2c(%rbp)
  18:	64 48 8b 04 25 28 00 	mov    %fs:0x28,%rax
  1f:	00 00 
  21:	48 89 45 f8          	mov    %rax,-0x8(%rbp)
  25:	31 c0                	xor    %eax,%eax
  27:	48 8b 55 d8          	mov    -0x28(%rbp),%rdx
  2b:	8b 45 d0             	mov    -0x30(%rbp),%eax
  2e:	0f b6 4d d4          	movzbl -0x2c(%rbp),%ecx
  32:	88 4c 02 12          	mov    %cl,0x12(%rdx,%rax,1)
  36:	8b 45 d0             	mov    -0x30(%rbp),%eax
  39:	c1 e0 02             	shl    $0x2,%eax
  3c:	89 45 f0             	mov    %eax,-0x10(%rbp)
  3f:	8b 45 f0             	mov    -0x10(%rbp),%eax
  42:	83 c0 04             	add    $0x4,%eax
  45:	89 45 e8             	mov    %eax,-0x18(%rbp)
  48:	48 8d 45 e8          	lea    -0x18(%rbp),%rax
  4c:	48 89 c6             	mov    %rax,%rsi
  4f:	48 8d 05 00 00 00 00 	lea    0x0(%rip),%rax        # 56 <ArtNetNode::SetNetSwitch(unsigned char, unsigned int)+0x56>
  56:	48 89 c7             	mov    %rax,%rdi
  59:	e8 00 00 00 00       	call   5e <ArtNetNode::SetNetSwitch(unsigned char, unsigned int)+0x5e>
  5e:	8b 00                	mov    (%rax),%eax
  60:	89 45 f4             	mov    %eax,-0xc(%rbp)
  63:	8b 45 f0             	mov    -0x10(%rbp),%eax
  66:	89 45 ec             	mov    %eax,-0x14(%rbp)
  69:	eb 47                	jmp    b2 <ArtNetNode::SetNetSwitch(unsigned char, unsigned int)+0xb2>
  6b:	48 8b 55 d8          	mov    -0x28(%rbp),%rdx
  6f:	8b 45 ec             	mov    -0x14(%rbp),%eax
  72:	48 c1 e0 05          	shl    $0x5,%rax
  76:	48 01 d0             	add    %rdx,%rax
  79:	48 05 94 00 00 00    	add    $0x94,%rax
  7f:	0f b7 00             	movzwl (%rax),%eax
  82:	0f b7 c8             	movzwl %ax,%ecx
  85:	8b 55 d0             	mov    -0x30(%rbp),%edx
  88:	48 8b 45 d8          	mov    -0x28(%rbp),%rax
  8c:	89 ce                	mov    %ecx,%esi
  8e:	48 89 c7             	mov    %rax,%rdi
  91:	e8 00 00 00 00       	call   96 <ArtNetNode::SetNetSwitch(unsigned char, unsigned int)+0x96>
  96:	48 8b 4d d8          	mov    -0x28(%rbp),%rcx
  9a:	8b 55 ec             	mov    -0x14(%rbp),%edx
  9d:	48 c1 e2 05          	shl    $0x5,%rdx
  a1:	48 01 ca             	add    %rcx,%rdx
  a4:	48 81 c2 94 00 00 00 	add    $0x94,%rdx
  ab:	66 89 02             	mov    %ax,(%rdx)
  ae:	83 45 ec 01          	addl   $0x1,-0x14(%rbp)
  b2:	8b 45 ec             	mov    -0x14(%rbp),%eax
  b5:	3b 45 f4             	cmp    -0xc(%rbp),%eax
  b8:	72 b1                	jb     6b <ArtNetNode::SetNetSwitch(unsigned char, unsigned int)+0x6b>
  ba:	48 8b 45 d8          	mov    -0x28(%rbp),%rax
  be:	48 8b 80 78 0a 00 00 	mov    0xa78(%rax),%rax
  c5:	48 85 c0             	test   %rax,%rax
  c8:	74 3e                	je     108 <ArtNetNode::SetNetSwitch(unsigned char, unsigned int)+0x108>
  ca:	48 8b 45 d8          	mov    -0x28(%rbp),%rax
  ce:	0f b6 80 85 00 00 00 	movzbl 0x85(%rax),%eax
  d5:	3c 02                	cmp    $0x2,%al
  d7:	75 2f                	jne    108 <ArtNetNode::SetNetSwitch(unsigned char, unsigned int)+0x108>
  d9:	48 8b 45 d8          	mov    -0x28(%rbp),%rax
  dd:	48 8b 80 78 0a 00 00 	mov    0xa78(%rax),%rax
  e4:	48 8b 55 d8          	mov    -0x28(%rbp),%rdx
  e8:	48 8b 92 78 0a 00 00 	mov    0xa78(%rdx),%rdx
  ef:	48 8b 12             	mov    (%rdx),%rdx
  f2:	48 83 c2 30          	add    $0x30,%rdx
  f6:	4c 8b 02             	mov    (%rdx),%r8
  f9:	0f b6 55 d4          	movzbl -0x2c(%rbp),%edx
  fd:	8b 4d d0             	mov    -0x30(%rbp),%ecx
 100:	89 ce                	mov    %ecx,%esi
 102:	48 89 c7             	mov    %rax,%rdi
 105:	41 ff d0             	call   *%r8
 108:	90                   	nop
 109:	48 8b 45 f8          	mov    -0x8(%rbp),%rax
 10d:	64 48 2b 04 25 28 00 	sub    %fs:0x28,%rax
 114:	00 00 
 116:	74 05                	je     11d <ArtNetNode::SetNetSwitch(unsigned char, unsigned int)+0x11d>
 118:	e8 00 00 00 00       	call   11d <ArtNetNode::SetNetSwitch(unsigned char, unsigned int)+0x11d>
 11d:	c9                   	leave  
 11e:	c3                   	ret    

Disassembly of section .text._ZN10ArtNetNode15SetPortProtocolEjN6artnet12PortProtocolE:

0000000000000000 <ArtNetNode::SetPortProtocol(unsigned int, artnet::PortProtocol)>:
   0:	f3 0f 1e fa          	endbr64 
   4:	55                   	push   %rbp
   5:	48 89 e5             	mov    %rsp,%rbp
   8:	48 83 ec 10          	sub    $0x10,%rsp
   c:	48 89 7d f8          	mov    %rdi,-0x8(%rbp)
  10:	89 75 f4             	mov    %esi,-0xc(%rbp)
  13:	89 55 f0             	mov    %edx,-0x10(%rbp)
  16:	83 7d f4 03          	cmpl   $0x3,-0xc(%rbp)
  1a:	0f 87 ed 00 00 00    	ja     10d <ArtNetNode::SetPortProtocol(unsigned int, artnet::PortProtocol)+0x10d>
  20:	48 8b 55 f8          	mov    -0x8(%rbp),%rdx
  24:	8b 45 f4             	mov    -0xc(%rbp),%eax
  27:	48 83 c0 05          	add    $0x5,%rax
  2b:	48 c1 e0 05          	shl    $0x5,%rax
  2f:	48 01 d0             	add    %rdx,%rax
  32:	48 8d 50 0c          	lea    0xc(%rax),%rdx
  36:	8b 45 f0             	mov    -0x10(%rbp),%eax
  39:	89 02                	mov    %eax,(%rdx)
  3b:	83 7d f0 01          	cmpl   $0x1,-0x10(%rbp)
  3f:	75 38                	jne    79 <ArtNetNode::SetPortProtocol(unsigned int, artnet::PortProtocol)+0x79>
  41:	48 8b 55 f8          	mov    -0x8(%rbp),%rdx
  45:	8b 45 f4             	mov    -0xc(%rbp),%eax
  48:	48 83 c0 05          	add    $0x5,%rax
  4c:	48 c1 e0 05          	shl    $0x5,%rax
  50:	48 01 d0             	add    %rdx,%rax
  53:	48 83 c0 12          	add    $0x12,%rax
  57:	0f b6 00             	movzbl (%rax),%eax
  5a:	83 c8 01             	or     $0x1,%eax
  5d:	89 c2                	mov    %eax,%edx
  5f:	48 8b 4d f8          	mov    -0x8(%rbp),%rcx
  63:	8b 45 f4             	mov    -0xc(%rbp),%eax
  66:	48 83 c0 05          	add    $0x5,%rax
  6a:	48 c1 e0 05          	shl    $0x5,%rax
  6e:	48 01 c8             	add    %rcx,%rax
  71:	48 83 c0 12          	add    $0x12,%rax
  75:	88 10                	mov    %dl,(%rax)
  77:	eb 36                	jmp    af <ArtNetNode::SetPortProtocol(unsigned int, artnet::PortProtocol)+0xaf>
  79:	48 8b 55 f8          	mov    -0x8(%rbp),%rdx
  7d:	8b 45 f4             	mov    -0xc(%rbp),%eax
  80:	48 83 c0 05          	add    $0x5,%rax
  84:	48 c1 e0 05          	shl    $0x5,%rax
  88:	48 01 d0             	add    %rdx,%rax
  8b:	48 83 c0 12          	add    $0x12,%rax
  8f:	0f b6 00             	movzbl (%rax),%eax
  92:	83 e0 fe             	and    $0xfffffffe,%eax
  95:	89 c2                	mov    %eax,%edx
  97:	48 8b 4d f8          	mov    -0x8(%rbp),%rcx
  9b:	8b 45 f4             	mov    -0xc(%rbp),%eax
  9e:	48 83 c0 05          	add    $0x5,%rax
  a2:	48 c1 e0 05          	shl    $0x5,%rax
  a6:	48 01 c8             	add    %rcx,%rax
  a9:	48 83 c0 12          	add    $0x12,%rax
  ad:	88 10                	mov    %dl,(%rax)
  af:	48 8b 45 f8          	mov    -0x8(%rbp),%rax
  b3:	0f b6 80 85 00 00 00 	movzbl 0x85(%rax),%eax
  ba:	3c 02                	cmp    $0x2,%al
  bc:	75 50                	jne    10e <ArtNetNode::SetPortProtocol(unsigned int, artnet::PortProtocol)+0x10e>
  be:	48 8b 45 f8          	mov    -0x8(%rbp),%rax
  c2:	48 8b 80 78 0a 00 00 	mov    0xa78(%rax),%rax
  c9:	48 85 c0             	test   %rax,%rax
  cc:	74 2e                	je     fc <ArtNetNode::SetPortProtocol(unsigned int, artnet::PortProtocol)+0xfc>
  ce:	48 8b 45 f8          	mov    -0x8(%rbp),%rax
  d2:	48 8b 80 78 0a 00 00 	mov    0xa78(%rax),%rax
  d9:	48 8b 55 f8          	mov    -0x8(%rbp),%rdx
  dd:	48 8b 92 78 0a 00 00 	mov    0xa78(%rdx),%rdx
  e4:	48 8b 12             	mov    (%rdx),%rdx
  e7:	48 83 c2 50          	add    $0x50,%rdx
  eb:	4c 8b 02             	mov    (%rdx),%r8
  ee:	8b 55 f0             	mov    -0x10(%rbp),%edx
  f1:	8b 4d f4             	mov    -0xc(%rbp),%ecx
  f4:	89 ce                	mov    %ecx,%esi
  f6:	48 89 c7             	mov    %rax,%rdi
  f9:	41 ff d0             	call   *%r8
  fc:	8b 55 f0             	mov    -0x10(%rbp),%edx
  ff:	8b 45 f4             	mov    -0xc(%rbp),%eax
 102:	89 d6                	mov    %edx,%esi
 104:	89 c7                	mov    %eax,%edi
 106:	e8 00 00 00 00       	call   10b <ArtNetNode::SetPortProtocol(unsigned int, artnet::PortProtocol)+0x10b>
 10b:	eb 01                	jmp    10e <ArtNetNode::SetPortProtocol(unsigned int, artnet::PortProtocol)+0x10e>
 10d:	90                   	nop
 10e:	c9                   	leave  
 10f:	c3                   	ret    

Disassembly of section .text._ZN10ArtNetNode12SetMergeModeEjN8lightset9MergeModeE:

0000000000000000 <ArtNetNode::SetMergeMode(unsigned int, lightset::MergeMode)>:
   0:	f3 0f 1e fa          	endbr64 
   4:	55                   	push   %rbp
   5:	48 89 e5             	mov    %rsp,%rbp
   8:	48 83 ec 10          	sub    $0x10,%rsp
   c:	48 89 7d f8          	mov    %rdi,-0x8(%rbp)
  10:	89 75 f4             	mov    %esi,-0xc(%rbp)
  13:	89 55 f0             	mov    %edx,-0x10(%rbp)
  16:	83 7d f4 03          	cmpl   $0x3,-0xc(%rbp)
  1a:	0f 87 d2 00 00 00    	ja     f2 <ArtNetNode::SetMergeMode(unsigned int, lightset::MergeMode)+0xf2>
  20:	83 7d f0 01          	cmpl   $0x1,-0x10(%rbp)
  24:	75 38                	jne    5e <ArtNetNode::SetMergeMode(unsigned int, lightset::MergeMode)+0x5e>
  26:	48 8b 55 f8          	mov    -0x8(%rbp),%rdx
  2a:	8b 45 f4             	mov    -0xc(%rbp),%eax
  2d:	48 83 c0 05          	add    $0x5,%rax
  31:	48 c1 e0 05          	shl    $0x5,%rax
  35:	48 01 d0             	add    %rdx,%rax
  38:	48 83 c0 12          	add    $0x12,%rax
  3c:	0f b6 00             	movzbl (%rax),%eax
  3f:	83 c8 02             	or     $0x2,%eax
  42:	89 c2                	mov    %eax,%edx
  44:	48 8b 4d f8          	mov    -0x8(%rbp),%rcx
  48:	8b 45 f4             	mov    -0xc(%rbp),%eax
  4b:	48 83 c0 05          	add    $0x5,%rax
  4f:	48 c1 e0 05          	shl    $0x5,%rax
  53:	48 01 c8             	add    %rcx,%rax
  56:	48 83 c0 12          	add    $0x12,%rax
  5a:	88 10                	mov    %dl,(%rax)
  5c:	eb 36                	jmp    94 <ArtNetNode::SetMergeMode(unsigned int, lightset::MergeMode)+0x94>
  5e:	48 8b 55 f8          	mov    -0x8(%rbp),%rdx
  62:	8b 45 f4             	mov    -0xc(%rbp),%eax
  65:	48 83 c0 05          	add    $0x5,%rax
  69:	48 c1 e0 05          	shl    $0x5,%rax
  6d:	48 01 d0             	add    %rdx,%rax
  70:	48 83 c0 12          	add    $0x12,%rax
  74:	0f b6 00             	movzbl (%rax),%eax
  77:	83 e0 fd             	and    $0xfffffffd,%eax
  7a:	89 c2                	mov    %eax,%edx
  7c:	48 8b 4d f8          	mov    -0x8(%rbp),%rcx
  80:	8b 45 f4             	mov    -0xc(%rbp),%eax
  83:	48 83 c0 05          	add    $0x5,%rax
  87:	48 c1 e0 05          	shl    $0x5,%rax
  8b:	48 01 c8             	add    %rcx,%rax
  8e:	48 83 c0 12          	add    $0x12,%rax
  92:	88 10                	mov    %dl,(%rax)
  94:	48 8b 45 f8          	mov    -0x8(%rbp),%rax
  98:	0f b6 80 85 00 00 00 	movzbl 0x85(%rax),%eax
  9f:	3c 02                	cmp    $0x2,%al
  a1:	75 50                	jne    f3 <ArtNetNode::SetMergeMode(unsigned int, lightset::MergeMode)+0xf3>
  a3:	48 8b 45 f8          	mov    -0x8(%rbp),%rax
  a7:	48 8b 80 78 0a 00 00 	mov    0xa78(%rax),%rax
  ae:	48 85 c0             	test   %rax,%rax
  b1:	74 2e                	je     e1 <ArtNetNode::SetMergeMode(unsigned int, lightset::MergeMode)+0xe1>
  b3:	48 8b 45 f8          	mov    -0x8(%rbp),%rax
  b7:	48 8b 80 78 0a 00 00 	mov    0xa78(%rax),%rax
  be:	48 8b 55 f8          	mov    -0x8(%rbp),%rdx
  c2:	48 8b 92 78 0a 00 00 	mov    0xa78(%rdx),%rdx
  c9:	48 8b 12             	mov    (%rdx),%rdx
  cc:	48 83 c2 48          	add    $0x48,%rdx
  d0:	4c 8b 02             	mov    (%rdx),%r8
  d3:	8b 55 f0             	mov    -0x10(%rbp),%edx
  d6:	8b 4d f4             	mov    -0xc(%rbp),%ecx
  d9:	89 ce                	mov    %ecx,%esi
  db:	48 89 c7             	mov    %rax,%rdi
  de:	41 ff d0             	call   *%r8
  e1:	8b 55 f0             	mov    -0x10(%rbp),%edx
  e4:	8b 45 f4             	mov    -0xc(%rbp),%eax
  e7:	89 d6                	mov    %edx,%esi
  e9:	89 c7                	mov    %eax,%edi
  eb:	e8 00 00 00 00       	call   f0 <ArtNetNode::SetMergeMode(unsigned int, lightset::MergeMode)+0xf0>
  f0:	eb 01                	jmp    f3 <ArtNetNode::SetMergeMode(unsigned int, lightset::MergeMode)+0xf3>
  f2:	90                   	nop
  f3:	c9                   	leave  
  f4:	c3                   	ret    

Disassembly of section .text._ZN10ArtNetNode11SetFailSafeEN10artnetnode8FailSafeE:

0000000000000000 <ArtNetNode::SetFailSafe(artnetnode::FailSafe)>:
   0:	f3 0f 1e fa          	endbr64 
   4:	55                   	push   %rbp
   5:	48 89 e5             	mov    %rsp,%rbp
   8:	48 83 ec 20          	sub    $0x20,%rsp
   c:	48 89 7d e8          	mov    %rdi,-0x18(%rbp)
  10:	89 f0                	mov    %esi,%eax
  12:	88 45 e4             	mov    %al,-0x1c(%rbp)
  15:	48 8b 45 e8          	mov    -0x18(%rbp),%rax
  19:	0f b6 40 69          	movzbl 0x69(%rax),%eax
  1d:	83 e0 3f             	and    $0x3f,%eax
  20:	89 c2                	mov    %eax,%edx
  22:	48 8b 45 e8          	mov    -0x18(%rbp),%rax
  26:	88 50 69             	mov    %dl,0x69(%rax)
  29:	0f b6 45 e4          	movzbl -0x1c(%rbp),%eax
  2d:	83 e8 08             	sub    $0x8,%eax
  30:	0f b6 c0             	movzbl %al,%eax
  33:	48 8d 14 85 00 00 00 	lea    0x0(,%rax,4),%rdx
  3a:	00 
  3b:	48 8d 05 00 00 00 00 	lea    0x0(%rip),%rax        # 42 <ArtNetNode::SetFailSafe(artnetnode::FailSafe)+0x42>
  42:	8b 04 02             	mov    (%rdx,%rax,1),%eax
  45:	48 98                	cltq   
  47:	48 8d 15 00 00 00 00 	lea    0x0(%rip),%rdx        # 4e <ArtNetNode::SetFailSafe(artnetnode::FailSafe)+0x4e>
  4e:	48 01 d0             	add    %rdx,%rax
  51:	3e ff e0             	notrack jmp *%rax
  54:	48 8b 45 e8          	mov    -0x18(%rbp),%rax
  58:	0f b6 50 69          	movzbl 0x69(%rax),%edx
  5c:	48 8b 45 e8          	mov    -0x18(%rbp),%rax
  60:	88 50 69             	mov    %dl,0x69(%rax)
  63:	eb 2b                	jmp    90 <ArtNetNode::SetFailSafe(artnetnode::FailSafe)+0x90>
  65:	48 8b 45 e8          	mov    -0x18(%rbp),%rax
  69:	0f b6 40 69          	movzbl 0x69(%rax),%eax
  6d:	83 c8 40             	or     $0x40,%eax
  70:	89 c2                	mov    %eax,%edx
  72:	48 8b 45 e8          	mov    -0x18(%rbp),%rax
  76:	88 50 69             	mov    %dl,0x69(%rax)
  79:	eb 15                	jmp    90 <ArtNetNode::SetFailSafe(artnetnode::FailSafe)+0x90>
  7b:	48 8b 45 e8          	mov    -0x18(%rbp),%rax
  7f:	0f b6 40 69          	movzbl 0x69(%rax),%eax
  83:	83 c8 80             	or     $0xffffff80,%eax
  86:	89 c2                	mov    %eax,%edx
  88:	48 8b 45 e8          	mov    -0x18(%rbp),%rax
  8c:	88 50 69             	mov    %dl,0x69(%rax)
  8f:	90                   	nop
  90:	48 8b 45 e8          	mov    -0x18(%rbp),%rax
  94:	0f b6 80 85 00 00 00 	movzbl 0x85(%rax),%eax
  9b:	3c 02                	cmp    $0x2,%al
  9d:	75 53                	jne    f2 <ArtNetNode::SetFailSafe(artnetnode::FailSafe)+0xf2>
  9f:	0f b6 45 e4          	movzbl -0x1c(%rbp),%eax
  a3:	83 e0 03             	and    $0x3,%eax
  a6:	88 45 ff             	mov    %al,-0x1(%rbp)
  a9:	48 8b 45 e8          	mov    -0x18(%rbp),%rax
  ad:	48 8b 80 78 0a 00 00 	mov    0xa78(%rax),%rax
  b4:	48 85 c0             	test   %rax,%rax
  b7:	74 2b                	je     e4 <ArtNetNode::SetFailSafe(artnetnode::FailSafe)+0xe4>
  b9:	48 8b 45 e8          	mov    -0x18(%rbp),%rax
  bd:	48 8b 80 78 0a 00 00 	mov    0xa78(%rax),%rax
  c4:	48 8b 55 e8          	mov    -0x18(%rbp),%rdx
  c8:	48 8b 92 78 0a 00 00 	mov    0xa78(%rdx),%rdx
  cf:	48 8b 12             	mov    (%rdx),%rdx
  d2:	48 83 c2 10          	add    $0x10,%rdx
  d6:	48 8b 0a             	mov    (%rdx),%rcx
  d9:	0f b6 55 ff          	movzbl -0x1(%rbp),%edx
  dd:	89 d6                	mov    %edx,%esi
  df:	48 89 c7             	mov    %rax,%rdi
  e2:	ff d1                	call   *%rcx
  e4:	0f b6 45 ff          	movzbl -0x1(%rbp),%eax
  e8:	89 c7                	mov    %eax,%edi
  ea:	e8 00 00 00 00       	call   ef <ArtNetNode::SetFailSafe(artnetnode::FailSafe)+0xef>
  ef:	eb 01                	jmp    f2 <ArtNetNode::SetFailSafe(artnetnode::FailSafe)+0xf2>
  f1:	90                   	nop
  f2:	c9                   	leave  
  f3:	c3                   	ret    

Disassembly of section .text._ZN10ArtNetNode17GetPortIndexInputEjjRj:

0000000000000000 <ArtNetNode::GetPortIndexInput(unsigned int, unsigned int, unsigned int&)>:
   0:	f3 0f 1e fa          	endbr64 
   4:	55                   	push   %rbp
   5:	48 89 e5             	mov    %rsp,%rbp
   8:	48 89 7d e8          	mov    %rdi,-0x18(%rbp)
   c:	89 75 e4             	mov    %esi,-0x1c(%rbp)
   f:	89 55 e0             	mov    %edx,-0x20(%rbp)
  12:	48 89 4d d8          	mov    %rcx,-0x28(%rbp)
  16:	8b 45 e4             	mov    -0x1c(%rbp),%eax
  19:	c1 e0 02             	shl    $0x2,%eax
  1c:	89 45 fc             	mov    %eax,-0x4(%rbp)
  1f:	48 8b 45 d8          	mov    -0x28(%rbp),%rax
  23:	8b 55 fc             	mov    -0x4(%rbp),%edx
  26:	89 10                	mov    %edx,(%rax)
  28:	eb 3c                	jmp    66 <ArtNetNode::GetPortIndexInput(unsigned int, unsigned int, unsigned int&)+0x66>
  2a:	48 8b 45 d8          	mov    -0x28(%rbp),%rax
  2e:	8b 00                	mov    (%rax),%eax
  30:	48 8b 55 e8          	mov    -0x18(%rbp),%rdx
  34:	89 c0                	mov    %eax,%eax
  36:	48 83 c0 11          	add    $0x11,%rax
  3a:	48 c1 e0 04          	shl    $0x4,%rax
  3e:	48 01 d0             	add    %rdx,%rax
  41:	48 83 c0 07          	add    $0x7,%rax
  45:	0f b6 00             	movzbl (%rax),%eax
  48:	0f b6 c0             	movzbl %al,%eax
  4b:	39 45 e0             	cmp    %eax,-0x20(%rbp)
  4e:	75 07                	jne    57 <ArtNetNode::GetPortIndexInput(unsigned int, unsigned int, unsigned int&)+0x57>
  50:	b8 01 00 00 00       	mov    $0x1,%eax
  55:	eb 24                	jmp    7b <ArtNetNode::GetPortIndexInput(unsigned int, unsigned int, unsigned int&)+0x7b>
  57:	48 8b 45 d8          	mov    -0x28(%rbp),%rax
  5b:	8b 00                	mov    (%rax),%eax
  5d:	8d 50 01             	lea    0x1(%rax),%edx
  60:	48 8b 45 d8          	mov    -0x28(%rbp),%rax
  64:	89 10                	mov    %edx,(%rax)
  66:	48 8b 45 d8          	mov    -0x28(%rbp),%rax
  6a:	8b 00                	mov    (%rax),%eax
  6c:	8b 55 fc             	mov    -0x4(%rbp),%edx
  6f:	83 c2 04             	add    $0x4,%edx
  72:	39 d0                	cmp    %edx,%eax
  74:	72 b4                	jb     2a <ArtNetNode::GetPortIndexInput(unsigned int, unsigned int, unsigned int&)+0x2a>
  76:	b8 00 00 00 00       	mov    $0x0,%eax
  7b:	5d                   	pop    %rbp
  7c:	c3                   	ret    

Disassembly of section .text._ZN10ArtNetNode18GetPortIndexOutputEjjRj:

0000000000000000 <ArtNetNode::GetPortIndexOutput(unsigned int, unsigned int, unsigned int&)>:
   0:	f3 0f 1e fa          	endbr64 
   4:	55                   	push   %rbp
   5:	48 89 e5             	mov    %rsp,%rbp
   8:	48 89 7d e8          	mov    %rdi,-0x18(%rbp)
   c:	89 75 e4             	mov    %esi,-0x1c(%rbp)
   f:	89 55 e0             	mov    %edx,-0x20(%rbp)
  12:	48 89 4d d8          	mov    %rcx,-0x28(%rbp)
  16:	8b 45 e4             	mov    -0x1c(%rbp),%eax
  19:	c1 e0 02             	shl    $0x2,%eax
  1c:	89 45 fc             	mov    %eax,-0x4(%rbp)
  1f:	48 8b 45 d8          	mov    -0x28(%rbp),%rax
  23:	8b 55 fc             	mov    -0x4(%rbp),%edx
  26:	89 10                	mov    %edx,(%rax)
  28:	eb 3a                	jmp    64 <ArtNetNode::GetPortIndexOutput(unsigned int, unsigned int, unsigned int&)+0x64>
  2a:	48 8b 45 d8          	mov    -0x28(%rbp),%rax
  2e:	8b 10                	mov    (%rax),%edx
  30:	48 8b 45 e8          	mov    -0x18(%rbp),%rax
  34:	89 d2                	mov    %edx,%edx
  36:	48 c1 e2 05          	shl    $0x5,%rdx
  3a:	48 01 d0             	add    %rdx,%rax
  3d:	48 05 97 00 00 00    	add    $0x97,%rax
  43:	0f b6 00             	movzbl (%rax),%eax
  46:	0f b6 c0             	movzbl %al,%eax
  49:	39 45 e0             	cmp    %eax,-0x20(%rbp)
  4c:	75 07                	jne    55 <ArtNetNode::GetPortIndexOutput(unsigned int, unsigned int, unsigned int&)+0x55>
  4e:	b8 01 00 00 00       	mov    $0x1,%eax
  53:	eb 24                	jmp    79 <ArtNetNode::GetPortIndexOutput(unsigned int, unsigned int, unsigned int&)+0x79>
  55:	48 8b 45 d8          	mov    -0x28(%rbp),%rax
  59:	8b 00                	mov    (%rax),%eax
  5b:	8d 50 01             	lea    0x1(%rax),%edx
  5e:	48 8b 45 d8          	mov    -0x28(%rbp),%rax
  62:	89 10                	mov    %edx,(%rax)
  64:	48 8b 45 d8          	mov    -0x28(%rbp),%rax
  68:	8b 00                	mov    (%rax),%eax
  6a:	8b 55 fc             	mov    -0x4(%rbp),%edx
  6d:	83 c2 04             	add    $0x4,%edx
  70:	39 d0                	cmp    %edx,%eax
  72:	72 b6                	jb     2a <ArtNetNode::GetPortIndexOutput(unsigned int, unsigned int, unsigned int&)+0x2a>
  74:	b8 00 00 00 00       	mov    $0x0,%eax
  79:	5d                   	pop    %rbp
  7a:	c3                   	ret    

Disassembly of section .text._ZN10ArtNetNode13HandleAddressEv:

0000000000000000 <ArtNetNode::HandleAddress()>:
   0:	f3 0f 1e fa          	endbr64 
   4:	55                   	push   %rbp
   5:	48 89 e5             	mov    %rsp,%rbp
   8:	48 83 ec 40          	sub    $0x40,%rsp
   c:	48 89 7d c8          	mov    %rdi,-0x38(%rbp)
  10:	64 48 8b 04 25 28 00 	mov    %fs:0x28,%rax
  17:	00 00 
  19:	48 89 45 f8          	mov    %rax,-0x8(%rbp)
  1d:	31 c0                	xor    %eax,%eax
  1f:	48 8b 45 c8          	mov    -0x38(%rbp),%rax
  23:	48 05 54 01 00 00    	add    $0x154,%rax
  29:	48 89 45 f0          	mov    %rax,-0x10(%rbp)
  2d:	c6 45 de ff          	movb   $0xff,-0x22(%rbp)
  31:	48 8b 45 c8          	mov    -0x38(%rbp),%rax
  35:	c6 80 84 00 00 00 01 	movb   $0x1,0x84(%rax)
  3c:	48 8b 45 f0          	mov    -0x10(%rbp),%rax
  40:	0f b6 40 0e          	movzbl 0xe(%rax),%eax
  44:	84 c0                	test   %al,%al
  46:	74 22                	je     6a <ArtNetNode::HandleAddress()+0x6a>
  48:	48 8b 45 f0          	mov    -0x10(%rbp),%rax
  4c:	48 8d 50 0e          	lea    0xe(%rax),%rdx
  50:	48 8b 45 c8          	mov    -0x38(%rbp),%rax
  54:	48 89 d6             	mov    %rdx,%rsi
  57:	48 89 c7             	mov    %rax,%rdi
  5a:	e8 00 00 00 00       	call   5f <ArtNetNode::HandleAddress()+0x5f>
  5f:	48 8b 45 c8          	mov    -0x38(%rbp),%rax
  63:	c6 80 84 00 00 00 06 	movb   $0x6,0x84(%rax)
  6a:	48 8b 45 f0          	mov    -0x10(%rbp),%rax
  6e:	0f b6 40 20          	movzbl 0x20(%rax),%eax
  72:	84 c0                	test   %al,%al
  74:	74 22                	je     98 <ArtNetNode::HandleAddress()+0x98>
  76:	48 8b 45 f0          	mov    -0x10(%rbp),%rax
  7a:	48 8d 50 20          	lea    0x20(%rax),%rdx
  7e:	48 8b 45 c8          	mov    -0x38(%rbp),%rax
  82:	48 89 d6             	mov    %rdx,%rsi
  85:	48 89 c7             	mov    %rax,%rdi
  88:	e8 00 00 00 00       	call   8d <ArtNetNode::HandleAddress()+0x8d>
  8d:	48 8b 45 c8          	mov    -0x38(%rbp),%rax
  91:	c6 80 84 00 00 00 07 	movb   $0x7,0x84(%rax)
  98:	48 8b 45 f0          	mov    -0x10(%rbp),%rax
  9c:	0f b6 40 0d          	movzbl 0xd(%rax),%eax
  a0:	84 c0                	test   %al,%al
  a2:	74 10                	je     b4 <ArtNetNode::HandleAddress()+0xb4>
  a4:	48 8b 45 f0          	mov    -0x10(%rbp),%rax
  a8:	0f b6 40 0d          	movzbl 0xd(%rax),%eax
  ac:	0f b6 c0             	movzbl %al,%eax
  af:	83 e8 01             	sub    $0x1,%eax
  b2:	eb 05                	jmp    b9 <ArtNetNode::HandleAddress()+0xb9>
  b4:	b8 00 00 00 00       	mov    $0x0,%eax
  b9:	89 45 ec             	mov    %eax,-0x14(%rbp)
  bc:	48 8b 45 f0          	mov    -0x10(%rbp),%rax
  c0:	0f b6 40 68          	movzbl 0x68(%rax),%eax
  c4:	84 c0                	test   %al,%al
  c6:	75 16                	jne    de <ArtNetNode::HandleAddress()+0xde>
  c8:	8b 55 ec             	mov    -0x14(%rbp),%edx
  cb:	48 8b 45 c8          	mov    -0x38(%rbp),%rax
  cf:	be 00 00 00 00       	mov    $0x0,%esi
  d4:	48 89 c7             	mov    %rax,%rdi
  d7:	e8 00 00 00 00       	call   dc <ArtNetNode::HandleAddress()+0xdc>
  dc:	eb 2d                	jmp    10b <ArtNetNode::HandleAddress()+0x10b>
  de:	48 8b 45 f0          	mov    -0x10(%rbp),%rax
  e2:	0f b6 40 68          	movzbl 0x68(%rax),%eax
  e6:	84 c0                	test   %al,%al
  e8:	79 21                	jns    10b <ArtNetNode::HandleAddress()+0x10b>
  ea:	48 8b 45 f0          	mov    -0x10(%rbp),%rax
  ee:	0f b6 40 68          	movzbl 0x68(%rax),%eax
  f2:	0f b6 c0             	movzbl %al,%eax
  f5:	83 e0 7f             	and    $0x7f,%eax
  f8:	89 c1                	mov    %eax,%ecx
  fa:	8b 55 ec             	mov    -0x14(%rbp),%edx
  fd:	48 8b 45 c8          	mov    -0x38(%rbp),%rax
 101:	89 ce                	mov    %ecx,%esi
 103:	48 89 c7             	mov    %rax,%rdi
 106:	e8 00 00 00 00       	call   10b <ArtNetNode::HandleAddress()+0x10b>
 10b:	48 8b 45 f0          	mov    -0x10(%rbp),%rax
 10f:	0f b6 40 0c          	movzbl 0xc(%rax),%eax
 113:	84 c0                	test   %al,%al
 115:	75 16                	jne    12d <ArtNetNode::HandleAddress()+0x12d>
 117:	8b 55 ec             	mov    -0x14(%rbp),%edx
 11a:	48 8b 45 c8          	mov    -0x38(%rbp),%rax
 11e:	be 00 00 00 00       	mov    $0x0,%esi
 123:	48 89 c7             	mov    %rax,%rdi
 126:	e8 00 00 00 00       	call   12b <ArtNetNode::HandleAddress()+0x12b>
 12b:	eb 2d                	jmp    15a <ArtNetNode::HandleAddress()+0x15a>
 12d:	48 8b 45 f0          	mov    -0x10(%rbp),%rax
 131:	0f b6 40 0c          	movzbl 0xc(%rax),%eax
 135:	84 c0                	test   %al,%al
 137:	79 21                	jns    15a <ArtNetNode::HandleAddress()+0x15a>
 139:	48 8b 45 f0          	mov    -0x10(%rbp),%rax
 13d:	0f b6 40 0c          	movzbl 0xc(%rax),%eax
 141:	0f b6 c0             	movzbl %al,%eax
 144:	83 e0 7f             	and    $0x7f,%eax
 147:	89 c1                	mov    %eax,%ecx
 149:	8b 55 ec             	mov    -0x14(%rbp),%edx
 14c:	48 8b 45 c8          	mov    -0x38(%rbp),%rax
 150:	89 ce                	mov    %ecx,%esi
 152:	48 89 c7             	mov    %rax,%rdi
 155:	e8 00 00 00 00       	call   15a <ArtNetNode::HandleAddress()+0x15a>
 15a:	c7 45 e4 00 00 00 00 	movl   $0x0,-0x1c(%rbp)
 161:	e9 22 01 00 00       	jmp    288 <ArtNetNode::HandleAddress()+0x288>
 166:	48 8b 55 f0          	mov    -0x10(%rbp),%rdx
 16a:	8b 45 e4             	mov    -0x1c(%rbp),%eax
 16d:	0f b6 44 02 64       	movzbl 0x64(%rdx,%rax,1),%eax
 172:	3c 7f                	cmp    $0x7f,%al
 174:	74 7f                	je     1f5 <ArtNetNode::HandleAddress()+0x1f5>
 176:	48 8d 4d e0          	lea    -0x20(%rbp),%rcx
 17a:	8b 55 e4             	mov    -0x1c(%rbp),%edx
 17d:	8b 75 ec             	mov    -0x14(%rbp),%esi
 180:	48 8b 45 c8          	mov    -0x38(%rbp),%rax
 184:	48 89 c7             	mov    %rax,%rdi
 187:	e8 00 00 00 00       	call   18c <ArtNetNode::HandleAddress()+0x18c>
 18c:	84 c0                	test   %al,%al
 18e:	74 65                	je     1f5 <ArtNetNode::HandleAddress()+0x1f5>
 190:	48 8b 55 f0          	mov    -0x10(%rbp),%rdx
 194:	8b 45 e4             	mov    -0x1c(%rbp),%eax
 197:	0f b6 44 02 64       	movzbl 0x64(%rdx,%rax,1),%eax
 19c:	84 c0                	test   %al,%al
 19e:	75 1b                	jne    1bb <ArtNetNode::HandleAddress()+0x1bb>
 1a0:	8b 75 e0             	mov    -0x20(%rbp),%esi
 1a3:	48 8b 45 c8          	mov    -0x38(%rbp),%rax
 1a7:	b9 01 00 00 00       	mov    $0x1,%ecx
 1ac:	ba 01 00 00 00       	mov    $0x1,%edx
 1b1:	48 89 c7             	mov    %rax,%rdi
 1b4:	e8 00 00 00 00       	call   1b9 <ArtNetNode::HandleAddress()+0x1b9>
 1b9:	eb 3a                	jmp    1f5 <ArtNetNode::HandleAddress()+0x1f5>
 1bb:	48 8b 55 f0          	mov    -0x10(%rbp),%rdx
 1bf:	8b 45 e4             	mov    -0x1c(%rbp),%eax
 1c2:	0f b6 44 02 64       	movzbl 0x64(%rdx,%rax,1),%eax
 1c7:	84 c0                	test   %al,%al
 1c9:	79 2a                	jns    1f5 <ArtNetNode::HandleAddress()+0x1f5>
 1cb:	48 8b 55 f0          	mov    -0x10(%rbp),%rdx
 1cf:	8b 45 e4             	mov    -0x1c(%rbp),%eax
 1d2:	0f b6 44 02 64       	movzbl 0x64(%rdx,%rax,1),%eax
 1d7:	0f b6 c0             	movzbl %al,%eax
 1da:	83 e0 7f             	and    $0x7f,%eax
 1dd:	89 c2                	mov    %eax,%edx
 1df:	8b 75 e0             	mov    -0x20(%rbp),%esi
 1e2:	48 8b 45 c8          	mov    -0x38(%rbp),%rax
 1e6:	89 d1                	mov    %edx,%ecx
 1e8:	ba 01 00 00 00       	mov    $0x1,%edx
 1ed:	48 89 c7             	mov    %rax,%rdi
 1f0:	e8 00 00 00 00       	call   1f5 <ArtNetNode::HandleAddress()+0x1f5>
 1f5:	48 8b 55 f0          	mov    -0x10(%rbp),%rdx
 1f9:	8b 45 e4             	mov    -0x1c(%rbp),%eax
 1fc:	0f b6 44 02 60       	movzbl 0x60(%rdx,%rax,1),%eax
 201:	3c 7f                	cmp    $0x7f,%al
 203:	74 7f                	je     284 <ArtNetNode::HandleAddress()+0x284>
 205:	48 8d 4d e0          	lea    -0x20(%rbp),%rcx
 209:	8b 55 e4             	mov    -0x1c(%rbp),%edx
 20c:	8b 75 ec             	mov    -0x14(%rbp),%esi
 20f:	48 8b 45 c8          	mov    -0x38(%rbp),%rax
 213:	48 89 c7             	mov    %rax,%rdi
 216:	e8 00 00 00 00       	call   21b <ArtNetNode::HandleAddress()+0x21b>
 21b:	84 c0                	test   %al,%al
 21d:	74 65                	je     284 <ArtNetNode::HandleAddress()+0x284>
 21f:	48 8b 55 f0          	mov    -0x10(%rbp),%rdx
 223:	8b 45 e4             	mov    -0x1c(%rbp),%eax
 226:	0f b6 44 02 60       	movzbl 0x60(%rdx,%rax,1),%eax
 22b:	84 c0                	test   %al,%al
 22d:	75 1b                	jne    24a <ArtNetNode::HandleAddress()+0x24a>
 22f:	8b 75 e0             	mov    -0x20(%rbp),%esi
 232:	48 8b 45 c8          	mov    -0x38(%rbp),%rax
 236:	b9 01 00 00 00       	mov    $0x1,%ecx
 23b:	ba 00 00 00 00       	mov    $0x0,%edx
 240:	48 89 c7             	mov    %rax,%rdi
 243:	e8 00 00 00 00       	call   248 <ArtNetNode::HandleAddress()+0x248>
 248:	eb 3a                	jmp    284 <ArtNetNode::HandleAddress()+0x284>
 24a:	48 8b 55 f0          	mov    -0x10(%rbp),%rdx
 24e:	8b 45 e4             	mov    -0x1c(%rbp),%eax
 251:	0f b6 44 02 60       	movzbl 0x60(%rdx,%rax,1),%eax
 256:	84 c0                	test   %al,%al
 258:	79 2a                	jns    284 <ArtNetNode::HandleAddress()+0x284>
 25a:	48 8b 55 f0          	mov    -0x10(%rbp),%rdx
 25e:	8b 45 e4             	mov    -0x1c(%rbp),%eax
 261:	0f b6 44 02 60       	movzbl 0x60(%rdx,%rax,1),%eax
 266:	0f b6 c0             	movzbl %al,%eax
 269:	83 e0 7f             	and    $0x7f,%eax
 26c:	89 c2                	mov    %eax,%edx
 26e:	8b 75 e0             	mov    -0x20(%rbp),%esi
 271:	48 8b 45 c8          	mov    -0x38(%rbp),%rax
 275:	89 d1                	mov    %edx,%ecx
 277:	ba 00 00 00 00       	mov    $0x0,%edx
 27c:	48 89 c7             	mov    %rax,%rdi
 27f:	e8 00 00 00 00       	call   284 <ArtNetNode::HandleAddress()+0x284>
 284:	83 45 e4 01          	addl   $0x1,-0x1c(%rbp)
 288:	48 8d 05 00 00 00 00 	lea    0x0(%rip),%rax        # 28f <ArtNetNode::HandleAddress()+0x28f>
 28f:	48 89 c6             	mov    %rax,%rsi
 292:	48 8d 05 00 00 00 00 	lea    0x0(%rip),%rax        # 299 <ArtNetNode::HandleAddress()+0x299>
 299:	48 89 c7             	mov    %rax,%rdi
 29c:	e8 00 00 00 00       	call   2a1 <ArtNetNode::HandleAddress()+0x2a1>
 2a1:	8b 00                	mov    (%rax),%eax
 2a3:	39 45 e4             	cmp    %eax,-0x1c(%rbp)
 2a6:	0f 92 c0             	setb   %al
 2a9:	84 c0                	test   %al,%al
 2ab:	0f 85 b5 fe ff ff    	jne    166 <ArtNetNode::HandleAddress()+0x166>
 2b1:	48 8b 45 f0          	mov    -0x10(%rbp),%rax
 2b5:	0f b6 40 6a          	movzbl 0x6a(%rax),%eax
 2b9:	0f b6 c0             	movzbl %al,%eax
 2bc:	83 e0 03             	and    $0x3,%eax
 2bf:	89 c7                	mov    %eax,%edi
 2c1:	48 8d 55 e0          	lea    -0x20(%rbp),%rdx
 2c5:	8b 75 ec             	mov    -0x14(%rbp),%esi
 2c8:	48 8b 45 c8          	mov    -0x38(%rbp),%rax
 2cc:	48 89 d1             	mov    %rdx,%rcx
 2cf:	89 fa                	mov    %edi,%edx
 2d1:	48 89 c7             	mov    %rax,%rdi
 2d4:	e8 00 00 00 00       	call   2d9 <ArtNetNode::HandleAddress()+0x2d9>
 2d9:	88 45 df             	mov    %al,-0x21(%rbp)
 2dc:	48 8b 45 f0          	mov    -0x10(%rbp),%rax
 2e0:	0f b6 40 6a          	movzbl 0x6a(%rax),%eax
 2e4:	0f b6 c0             	movzbl %al,%eax
 2e7:	3d d3 00 00 00       	cmp    $0xd3,%eax
 2ec:	0f 8f 69 02 00 00    	jg     55b <ArtNetNode::HandleAddress()+0x55b>
 2f2:	3d d0 00 00 00       	cmp    $0xd0,%eax
 2f7:	0f 8d 46 02 00 00    	jge    543 <ArtNetNode::HandleAddress()+0x543>
 2fd:	3d c3 00 00 00       	cmp    $0xc3,%eax
 302:	0f 8f 53 02 00 00    	jg     55b <ArtNetNode::HandleAddress()+0x55b>
 308:	3d c0 00 00 00       	cmp    $0xc0,%eax
 30d:	0f 8d 18 02 00 00    	jge    52b <ArtNetNode::HandleAddress()+0x52b>
 313:	83 f8 73             	cmp    $0x73,%eax
 316:	7f 34                	jg     34c <ArtNetNode::HandleAddress()+0x34c>
 318:	85 c0                	test   %eax,%eax
 31a:	0f 88 3b 02 00 00    	js     55b <ArtNetNode::HandleAddress()+0x55b>
 320:	83 f8 73             	cmp    $0x73,%eax
 323:	0f 87 32 02 00 00    	ja     55b <ArtNetNode::HandleAddress()+0x55b>
 329:	89 c0                	mov    %eax,%eax
 32b:	48 8d 14 85 00 00 00 	lea    0x0(,%rax,4),%rdx
 332:	00 
 333:	48 8d 05 00 00 00 00 	lea    0x0(%rip),%rax        # 33a <ArtNetNode::HandleAddress()+0x33a>
 33a:	8b 04 02             	mov    (%rdx,%rax,1),%eax
 33d:	48 98                	cltq   
 33f:	48 8d 15 00 00 00 00 	lea    0x0(%rip),%rdx        # 346 <ArtNetNode::HandleAddress()+0x346>
 346:	48 01 d0             	add    %rdx,%rax
 349:	3e ff e0             	notrack jmp *%rax
 34c:	2d 90 00 00 00       	sub    $0x90,%eax
 351:	83 f8 03             	cmp    $0x3,%eax
 354:	0f 87 01 02 00 00    	ja     55b <ArtNetNode::HandleAddress()+0x55b>
 35a:	e9 ab 01 00 00       	jmp    50a <ArtNetNode::HandleAddress()+0x50a>
 35f:	48 8b 45 c8          	mov    -0x38(%rbp),%rax
 363:	c6 80 8a 00 00 00 00 	movb   $0x0,0x8a(%rax)
 36a:	c7 45 e8 00 00 00 00 	movl   $0x0,-0x18(%rbp)
 371:	eb 70                	jmp    3e3 <ArtNetNode::HandleAddress()+0x3e3>
 373:	48 8b 55 c8          	mov    -0x38(%rbp),%rdx
 377:	8b 45 e8             	mov    -0x18(%rbp),%eax
 37a:	48 c1 e0 05          	shl    $0x5,%rax
 37e:	48 01 d0             	add    %rdx,%rax
 381:	48 05 a0 00 00 00    	add    $0xa0,%rax
 387:	c7 00 00 00 00 00    	movl   $0x0,(%rax)
 38d:	48 8b 55 c8          	mov    -0x38(%rbp),%rdx
 391:	8b 45 e8             	mov    -0x18(%rbp),%eax
 394:	48 83 c0 05          	add    $0x5,%rax
 398:	48 c1 e0 05          	shl    $0x5,%rax
 39c:	48 01 d0             	add    %rdx,%rax
 39f:	48 83 c0 08          	add    $0x8,%rax
 3a3:	c7 00 00 00 00 00    	movl   $0x0,(%rax)
 3a9:	48 8b 55 c8          	mov    -0x38(%rbp),%rdx
 3ad:	8b 45 e8             	mov    -0x18(%rbp),%eax
 3b0:	48 83 c0 05          	add    $0x5,%rax
 3b4:	48 c1 e0 05          	shl    $0x5,%rax
 3b8:	48 01 d0             	add    %rdx,%rax
 3bb:	48 83 c0 12          	add    $0x12,%rax
 3bf:	0f b6 00             	movzbl (%rax),%eax
 3c2:	83 e0 f7             	and    $0xfffffff7,%eax
 3c5:	89 c2                	mov    %eax,%edx
 3c7:	48 8b 4d c8          	mov    -0x38(%rbp),%rcx
 3cb:	8b 45 e8             	mov    -0x18(%rbp),%eax
 3ce:	48 83 c0 05          	add    $0x5,%rax
 3d2:	48 c1 e0 05          	shl    $0x5,%rax
 3d6:	48 01 c8             	add    %rcx,%rax
 3d9:	48 83 c0 12          	add    $0x12,%rax
 3dd:	88 10                	mov    %dl,(%rax)
 3df:	83 45 e8 01          	addl   $0x1,-0x18(%rbp)
 3e3:	83 7d e8 03          	cmpl   $0x3,-0x18(%rbp)
 3e7:	76 8a                	jbe    373 <ArtNetNode::HandleAddress()+0x373>
 3e9:	e9 6e 01 00 00       	jmp    55c <ArtNetNode::HandleAddress()+0x55c>
 3ee:	e8 00 00 00 00       	call   3f3 <ArtNetNode::HandleAddress()+0x3f3>
 3f3:	ba 00 00 00 00       	mov    $0x0,%edx
 3f8:	be 02 00 00 00       	mov    $0x2,%esi
 3fd:	48 89 c7             	mov    %rax,%rdi
 400:	e8 00 00 00 00       	call   405 <ArtNetNode::HandleAddress()+0x405>
 405:	48 8b 45 c8          	mov    -0x38(%rbp),%rax
 409:	0f b6 40 67          	movzbl 0x67(%rax),%eax
 40d:	83 c8 c0             	or     $0xffffffc0,%eax
 410:	89 c2                	mov    %eax,%edx
 412:	48 8b 45 c8          	mov    -0x38(%rbp),%rax
 416:	88 50 67             	mov    %dl,0x67(%rax)
 419:	e9 3e 01 00 00       	jmp    55c <ArtNetNode::HandleAddress()+0x55c>
 41e:	e8 00 00 00 00       	call   423 <ArtNetNode::HandleAddress()+0x423>
 423:	ba 01 00 00 00       	mov    $0x1,%edx
 428:	be 00 00 00 00       	mov    $0x0,%esi
 42d:	48 89 c7             	mov    %rax,%rdi
 430:	e8 00 00 00 00       	call   435 <ArtNetNode::HandleAddress()+0x435>
 435:	48 8b 45 c8          	mov    -0x38(%rbp),%rax
 439:	0f b6 40 67          	movzbl 0x67(%rax),%eax
 43d:	83 e0 3f             	and    $0x3f,%eax
 440:	83 c8 80             	or     $0xffffff80,%eax
 443:	89 c2                	mov    %eax,%edx
 445:	48 8b 45 c8          	mov    -0x38(%rbp),%rax
 449:	88 50 67             	mov    %dl,0x67(%rax)
 44c:	e9 0b 01 00 00       	jmp    55c <ArtNetNode::HandleAddress()+0x55c>
 451:	e8 00 00 00 00       	call   456 <ArtNetNode::HandleAddress()+0x456>
 456:	ba 01 00 00 00       	mov    $0x1,%edx
 45b:	be 04 00 00 00       	mov    $0x4,%esi
 460:	48 89 c7             	mov    %rax,%rdi
 463:	e8 00 00 00 00       	call   468 <ArtNetNode::HandleAddress()+0x468>
 468:	48 8b 45 c8          	mov    -0x38(%rbp),%rax
 46c:	0f b6 40 67          	movzbl 0x67(%rax),%eax
 470:	83 e0 3f             	and    $0x3f,%eax
 473:	83 c8 40             	or     $0x40,%eax
 476:	89 c2                	mov    %eax,%edx
 478:	48 8b 45 c8          	mov    -0x38(%rbp),%rax
 47c:	88 50 67             	mov    %dl,0x67(%rax)
 47f:	e9 d8 00 00 00       	jmp    55c <ArtNetNode::HandleAddress()+0x55c>
 484:	48 8b 45 f0          	mov    -0x10(%rbp),%rax
 488:	0f b6 40 6a          	movzbl 0x6a(%rax),%eax
 48c:	83 e0 0f             	and    $0xf,%eax
 48f:	89 c2                	mov    %eax,%edx
 491:	48 8b 45 c8          	mov    -0x38(%rbp),%rax
 495:	89 d6                	mov    %edx,%esi
 497:	48 89 c7             	mov    %rax,%rdi
 49a:	e8 00 00 00 00       	call   49f <ArtNetNode::HandleAddress()+0x49f>
 49f:	e9 b8 00 00 00       	jmp    55c <ArtNetNode::HandleAddress()+0x55c>
 4a4:	8b 4d e0             	mov    -0x20(%rbp),%ecx
 4a7:	48 8b 45 c8          	mov    -0x38(%rbp),%rax
 4ab:	ba 01 00 00 00       	mov    $0x1,%edx
 4b0:	89 ce                	mov    %ecx,%esi
 4b2:	48 89 c7             	mov    %rax,%rdi
 4b5:	e8 00 00 00 00       	call   4ba <ArtNetNode::HandleAddress()+0x4ba>
 4ba:	e9 9d 00 00 00       	jmp    55c <ArtNetNode::HandleAddress()+0x55c>
 4bf:	8b 4d e0             	mov    -0x20(%rbp),%ecx
 4c2:	48 8b 45 c8          	mov    -0x38(%rbp),%rax
 4c6:	ba 00 00 00 00       	mov    $0x0,%edx
 4cb:	89 ce                	mov    %ecx,%esi
 4cd:	48 89 c7             	mov    %rax,%rdi
 4d0:	e8 00 00 00 00       	call   4d5 <ArtNetNode::HandleAddress()+0x4d5>
 4d5:	e9 82 00 00 00       	jmp    55c <ArtNetNode::HandleAddress()+0x55c>
 4da:	8b 4d e0             	mov    -0x20(%rbp),%ecx
 4dd:	48 8b 45 c8          	mov    -0x38(%rbp),%rax
 4e1:	ba 00 00 00 00       	mov    $0x0,%edx
 4e6:	89 ce                	mov    %ecx,%esi
 4e8:	48 89 c7             	mov    %rax,%rdi
 4eb:	e8 00 00 00 00       	call   4f0 <ArtNetNode::HandleAddress()+0x4f0>
 4f0:	eb 6a                	jmp    55c <ArtNetNode::HandleAddress()+0x55c>
 4f2:	8b 4d e0             	mov    -0x20(%rbp),%ecx
 4f5:	48 8b 45 c8          	mov    -0x38(%rbp),%rax
 4f9:	ba 01 00 00 00       	mov    $0x1,%edx
 4fe:	89 ce                	mov    %ecx,%esi
 500:	48 89 c7             	mov    %rax,%rdi
 503:	e8 00 00 00 00       	call   508 <ArtNetNode::HandleAddress()+0x508>
 508:	eb 52                	jmp    55c <ArtNetNode::HandleAddress()+0x55c>
 50a:	8b 45 e0             	mov    -0x20(%rbp),%eax
 50d:	88 45 de             	mov    %al,-0x22(%rbp)
 510:	0f b6 55 de          	movzbl -0x22(%rbp),%edx
 514:	48 8b 45 c8          	mov    -0x38(%rbp),%rax
 518:	48 8b 80 50 0a 00 00 	mov    0xa50(%rax),%rax
 51f:	89 d6                	mov    %edx,%esi
 521:	48 89 c7             	mov    %rax,%rdi
 524:	e8 00 00 00 00       	call   529 <ArtNetNode::HandleAddress()+0x529>
 529:	eb 31                	jmp    55c <ArtNetNode::HandleAddress()+0x55c>
 52b:	8b 4d e0             	mov    -0x20(%rbp),%ecx
 52e:	48 8b 45 c8          	mov    -0x38(%rbp),%rax
 532:	ba 01 00 00 00       	mov    $0x1,%edx
 537:	89 ce                	mov    %ecx,%esi
 539:	48 89 c7             	mov    %rax,%rdi
 53c:	e8 00 00 00 00       	call   541 <ArtNetNode::HandleAddress()+0x541>
 541:	eb 19                	jmp    55c <ArtNetNode::HandleAddress()+0x55c>
 543:	8b 4d e0             	mov    -0x20(%rbp),%ecx
 546:	48 8b 45 c8          	mov    -0x38(%rbp),%rax
 54a:	ba 00 00 00 00       	mov    $0x0,%edx
 54f:	89 ce                	mov    %ecx,%esi
 551:	48 89 c7             	mov    %rax,%rdi
 554:	e8 00 00 00 00       	call   559 <ArtNetNode::HandleAddress()+0x559>
 559:	eb 01                	jmp    55c <ArtNetNode::HandleAddress()+0x55c>
 55b:	90                   	nop
 55c:	80 7d de 03          	cmpb   $0x3,-0x22(%rbp)
 560:	0f 87 cb 00 00 00    	ja     631 <ArtNetNode::HandleAddress()+0x631>
 566:	0f b6 45 de          	movzbl -0x22(%rbp),%eax
 56a:	48 8b 55 c8          	mov    -0x38(%rbp),%rdx
 56e:	48 98                	cltq   
 570:	48 83 c0 05          	add    $0x5,%rax
 574:	48 c1 e0 05          	shl    $0x5,%rax
 578:	48 01 d0             	add    %rdx,%rax
 57b:	48 83 c0 0c          	add    $0xc,%rax
 57f:	8b 00                	mov    (%rax),%eax
 581:	85 c0                	test   %eax,%eax
 583:	0f 85 a8 00 00 00    	jne    631 <ArtNetNode::HandleAddress()+0x631>
 589:	0f b6 45 de          	movzbl -0x22(%rbp),%eax
 58d:	48 8b 55 c8          	mov    -0x38(%rbp),%rdx
 591:	48 98                	cltq   
 593:	48 83 c0 05          	add    $0x5,%rax
 597:	48 c1 e0 05          	shl    $0x5,%rax
 59b:	48 01 d0             	add    %rdx,%rax
 59e:	48 83 c0 11          	add    $0x11,%rax
 5a2:	0f b6 00             	movzbl (%rax),%eax
 5a5:	83 f0 01             	xor    $0x1,%eax
 5a8:	84 c0                	test   %al,%al
 5aa:	0f 84 81 00 00 00    	je     631 <ArtNetNode::HandleAddress()+0x631>
 5b0:	48 8b 45 c8          	mov    -0x38(%rbp),%rax
 5b4:	48 8b 80 50 0a 00 00 	mov    0xa50(%rax),%rax
 5bb:	48 8b 55 c8          	mov    -0x38(%rbp),%rdx
 5bf:	48 8b 92 50 0a 00 00 	mov    0xa50(%rdx),%rdx
 5c6:	48 8b 12             	mov    (%rdx),%rdx
 5c9:	48 83 c2 10          	add    $0x10,%rdx
 5cd:	48 8b 0a             	mov    (%rdx),%rcx
 5d0:	0f b6 55 de          	movzbl -0x22(%rbp),%edx
 5d4:	89 d6                	mov    %edx,%esi
 5d6:	48 89 c7             	mov    %rax,%rdi
 5d9:	ff d1                	call   *%rcx
 5db:	0f b6 45 de          	movzbl -0x22(%rbp),%eax
 5df:	48 8b 55 c8          	mov    -0x38(%rbp),%rdx
 5e3:	48 98                	cltq   
 5e5:	48 83 c0 05          	add    $0x5,%rax
 5e9:	48 c1 e0 05          	shl    $0x5,%rax
 5ed:	48 01 d0             	add    %rdx,%rax
 5f0:	48 83 c0 11          	add    $0x11,%rax
 5f4:	c6 00 01             	movb   $0x1,(%rax)
 5f7:	0f b6 45 de          	movzbl -0x22(%rbp),%eax
 5fb:	48 8b 55 c8          	mov    -0x38(%rbp),%rdx
 5ff:	48 98                	cltq   
 601:	48 83 c0 05          	add    $0x5,%rax
 605:	48 c1 e0 05          	shl    $0x5,%rax
 609:	48 01 d0             	add    %rdx,%rax
 60c:	48 83 c0 12          	add    $0x12,%rax
 610:	0f b6 10             	movzbl (%rax),%edx
 613:	0f b6 45 de          	movzbl -0x22(%rbp),%eax
 617:	83 ca 80             	or     $0xffffff80,%edx
 61a:	48 8b 4d c8          	mov    -0x38(%rbp),%rcx
 61e:	48 98                	cltq   
 620:	48 83 c0 05          	add    $0x5,%rax
 624:	48 c1 e0 05          	shl    $0x5,%rax
 628:	48 01 c8             	add    %rcx,%rax
 62b:	48 83 c0 12          	add    $0x12,%rax
 62f:	88 10                	mov    %dl,(%rax)
 631:	48 8b 45 c8          	mov    -0x38(%rbp),%rax
 635:	48 8b 80 70 0a 00 00 	mov    0xa70(%rax),%rax
 63c:	48 85 c0             	test   %rax,%rax
 63f:	74 32                	je     673 <ArtNetNode::HandleAddress()+0x673>
 641:	48 8b 45 c8          	mov    -0x38(%rbp),%rax
 645:	48 8b 80 70 0a 00 00 	mov    0xa70(%rax),%rax
 64c:	48 8b 55 c8          	mov    -0x38(%rbp),%rdx
 650:	48 8b 92 70 0a 00 00 	mov    0xa70(%rdx),%rdx
 657:	48 8b 12             	mov    (%rdx),%rdx
 65a:	48 83 c2 18          	add    $0x18,%rdx
 65e:	48 8b 0a             	mov    (%rdx),%rcx
 661:	48 8b 55 f0          	mov    -0x10(%rbp),%rdx
 665:	0f b6 52 6a          	movzbl 0x6a(%rdx),%edx
 669:	0f b6 d2             	movzbl %dl,%edx
 66c:	89 d6                	mov    %edx,%esi
 66e:	48 89 c7             	mov    %rax,%rdi
 671:	ff d1                	call   *%rcx
 673:	48 8b 45 c8          	mov    -0x38(%rbp),%rax
 677:	be 01 00 00 00       	mov    $0x1,%esi
 67c:	48 89 c7             	mov    %rax,%rdi
 67f:	e8 00 00 00 00       	call   684 <ArtNetNode::HandleAddress()+0x684>
 684:	90                   	nop
 685:	48 8b 45 f8          	mov    -0x8(%rbp),%rax
 689:	64 48 2b 04 25 28 00 	sub    %fs:0x28,%rax
 690:	00 00 
 692:	74 05                	je     699 <ArtNetNode::HandleAddress()+0x699>
 694:	e8 00 00 00 00       	call   699 <ArtNetNode::HandleAddress()+0x699>
 699:	c9                   	leave  
 69a:	c3                   	ret    

Disassembly of section .text._ZSt3minIjERKT_S2_S2_:

0000000000000000 <unsigned int const& std::min<unsigned int>(unsigned int const&, unsigned int const&)>:
   0:	f3 0f 1e fa          	endbr64 
   4:	55                   	push   %rbp
   5:	48 89 e5             	mov    %rsp,%rbp
   8:	48 89 7d f8          	mov    %rdi,-0x8(%rbp)
   c:	48 89 75 f0          	mov    %rsi,-0x10(%rbp)
  10:	48 8b 45 f0          	mov    -0x10(%rbp),%rax
  14:	8b 10                	mov    (%rax),%edx
  16:	48 8b 45 f8          	mov    -0x8(%rbp),%rax
  1a:	8b 00                	mov    (%rax),%eax
  1c:	39 c2                	cmp    %eax,%edx
  1e:	73 06                	jae    26 <unsigned int const& std::min<unsigned int>(unsigned int const&, unsigned int const&)+0x26>
  20:	48 8b 45 f0          	mov    -0x10(%rbp),%rax
  24:	eb 04                	jmp    2a <unsigned int const& std::min<unsigned int>(unsigned int const&, unsigned int const&)+0x2a>
  26:	48 8b 45 f8          	mov    -0x8(%rbp),%rax
  2a:	5d                   	pop    %rbp
  2b:	c3                   	ret    

artnetnodehandledmx.o:     file format elf64-x86-64


Disassembly of section .text._ZN8lightset4Data3GetEv:

0000000000000000 <lightset::Data::Get()>:
   0:	f3 0f 1e fa          	endbr64 
   4:	55                   	push   %rbp
   5:	48 89 e5             	mov    %rsp,%rbp
   8:	0f b6 05 00 00 00 00 	movzbl 0x0(%rip),%eax        # f <lightset::Data::Get()+0xf>
   f:	84 c0                	test   %al,%al
  11:	0f 94 c0             	sete   %al
  14:	84 c0                	test   %al,%al
  16:	74 36                	je     4e <lightset::Data::Get()+0x4e>
  18:	48 8d 05 00 00 00 00 	lea    0x0(%rip),%rax        # 1f <lightset::Data::Get()+0x1f>
  1f:	48 89 c7             	mov    %rax,%rdi
  22:	e8 00 00 00 00       	call   27 <lightset::Data::Get()+0x27>
  27:	85 c0                	test   %eax,%eax
  29:	0f 95 c0             	setne  %al
  2c:	84 c0                	test   %al,%al
  2e:	74 1e                	je     4e <lightset::Data::Get()+0x4e>
  30:	48 8d 05 00 00 00 00 	lea    0x0(%rip),%rax        # 37 <lightset::Data::Get()+0x37>
  37:	48 89 c7             	mov    %rax,%rdi
  3a:	e8 00 00 00 00       	call   3f <lightset::Data::Get()+0x3f>
  3f:	48 8d 05 00 00 00 00 	lea    0x0(%rip),%rax        # 46 <lightset::Data::Get()+0x46>
  46:	48 89 c7             	mov    %rax,%rdi
  49:	e8 00 00 00 00       	call   4e <lightset::Data::Get()+0x4e>
  4e:	48 8d 05 00 00 00 00 	lea    0x0(%rip),%rax        # 55 <lightset::Data::Get()+0x55>
  55:	5d                   	pop    %rbp
  56:	c3                   	ret    

Disassembly of section .text._ZN8lightset4Data10SetSourceAEjPKhj:

0000000000000000 <lightset::Data::SetSourceA(unsigned int, unsigned char const*, unsigned int)>:
   0:	f3 0f 1e fa          	endbr64 
   4:	55                   	push   %rbp
   5:	48 89 e5             	mov    %rsp,%rbp
   8:	48 83 ec 10          	sub    $0x10,%rsp
   c:	89 7d fc             	mov    %edi,-0x4(%rbp)
   f:	48 89 75 f0          	mov    %rsi,-0x10(%rbp)
  13:	89 55 f8             	mov    %edx,-0x8(%rbp)
  16:	e8 00 00 00 00       	call   1b <lightset::Data::SetSourceA(unsigned int, unsigned char const*, unsigned int)+0x1b>
  1b:	48 89 c7             	mov    %rax,%rdi
  1e:	8b 4d f8             	mov    -0x8(%rbp),%ecx
  21:	48 8b 55 f0          	mov    -0x10(%rbp),%rdx
  25:	8b 45 fc             	mov    -0x4(%rbp),%eax
  28:	41 b8 01 00 00 00    	mov    $0x1,%r8d
  2e:	89 c6                	mov    %eax,%esi
  30:	e8 00 00 00 00       	call   35 <lightset::Data::SetSourceA(unsigned int, unsigned char const*, unsigned int)+0x35>
  35:	90                   	nop
  36:	c9                   	leave  
  37:	c3                   	ret    

Disassembly of section .text._ZN8lightset4Data12MergeSourceAEjPKhjNS_9MergeModeE:

0000000000000000 <lightset::Data::MergeSourceA(unsigned int, unsigned char const*, unsigned int, lightset::MergeMode)>:
   0:	f3 0f 1e fa          	endbr64 
   4:	55                   	push   %rbp
   5:	48 89 e5             	mov    %rsp,%rbp
   8:	48 83 ec 20          	sub    $0x20,%rsp
   c:	89 7d fc             	mov    %edi,-0x4(%rbp)
   f:	48 89 75 f0          	mov    %rsi,-0x10(%rbp)
  13:	89 55 f8             	mov    %edx,-0x8(%rbp)
  16:	89 4d ec             	mov    %ecx,-0x14(%rbp)
  19:	e8 00 00 00 00       	call   1e <lightset::Data::MergeSourceA(unsigned int, unsigned char const*, unsigned int, lightset::MergeMode)+0x1e>
  1e:	48 89 c7             	mov    %rax,%rdi
  21:	8b 75 ec             	mov    -0x14(%rbp),%esi
  24:	8b 4d f8             	mov    -0x8(%rbp),%ecx
  27:	48 8b 55 f0          	mov    -0x10(%rbp),%rdx
  2b:	8b 45 fc             	mov    -0x4(%rbp),%eax
  2e:	41 89 f0             	mov    %esi,%r8d
  31:	89 c6                	mov    %eax,%esi
  33:	e8 00 00 00 00       	call   38 <lightset::Data::MergeSourceA(unsigned int, unsigned char const*, unsigned int, lightset::MergeMode)+0x38>
  38:	90                   	nop
  39:	c9                   	leave  
  3a:	c3                   	ret    

Disassembly of section .text._ZN8lightset4Data10SetSourceBEjPKhj:

0000000000000000 <lightset::Data::SetSourceB(unsigned int, unsigned char const*, unsigned int)>:
   0:	f3 0f 1e fa          	endbr64 
   4:	55                   	push   %rbp
   5:	48 89 e5             	mov    %rsp,%rbp
   8:	48 83 ec 10          	sub    $0x10,%rsp
   c:	89 7d fc             	mov    %edi,-0x4(%rbp)
   f:	48 89 75 f0          	mov    %rsi,-0x10(%rbp)
  13:	89 55 f8             	mov    %edx,-0x8(%rbp)
  16:	e8 00 00 00 00       	call   1b <lightset::Data::SetSourceB(unsigned int, unsigned char const*, unsigned int)+0x1b>
  1b:	48 89 c7             	mov    %rax,%rdi
  1e:	8b 4d f8             	mov    -0x8(%rbp),%ecx
  21:	48 8b 55 f0          	mov    -0x10(%rbp),%rdx
  25:	8b 45 fc             	mov    -0x4(%rbp),%eax
  28:	41 b8 01 00 00 00    	mov    $0x1,%r8d
  2e:	89 c6                	mov    %eax,%esi
  30:	e8 00 00 00 00       	call   35 <lightset::Data::SetSourceB(unsigned int, unsigned char const*, unsigned int)+0x35>
  35:	90                   	nop
  36:	c9                   	leave  
  37:	c3                   	ret    

Disassembly of section .text._ZN8lightset4Data12MergeSourceBEjPKhjNS_9MergeModeE:

0000000000000000 <lightset::Data::MergeSourceB(unsigned int, unsigned char const*, unsigned int, lightset::MergeMode)>:
   0:	f3 0f 1e fa          	endbr64 
   4:	55                   	push   %rbp
   5:	48 89 e5             	mov    %rsp,%rbp
   8:	48 83 ec 20          	sub    $0x20,%rsp
   c:	89 7d fc             	mov    %edi,-0x4(%rbp)
   f:	48 89 75 f0          	mov    %rsi,-0x10(%rbp)
  13:	89 55 f8             	mov    %edx,-0x8(%rbp)
  16:	89 4d ec             	mov    %ecx,-0x14(%rbp)
  19:	e8 00 00 00 00       	call   1e <lightset::Data::MergeSourceB(unsigned int, unsigned char const*, unsigned int, lightset::MergeMode)+0x1e>
  1e:	48 89 c7             	mov    %rax,%rdi
  21:	8b 75 ec             	mov    -0x14(%rbp),%esi
  24:	8b 4d f8             	mov    -0x8(%rbp),%ecx
  27:	48 8b 55 f0          	mov    -0x10(%rbp),%rdx
  2b:	8b 45 fc             	mov    -0x4(%rbp),%eax
  2e:	41 89 f0             	mov    %esi,%r8d
  31:	89 c6                	mov    %eax,%esi
  33:	e8 00 00 00 00       	call   38 <lightset::Data::MergeSourceB(unsigned int, unsigned char const*, unsigned int, lightset::MergeMode)+0x38>
  38:	90                   	nop
  39:	c9                   	leave  
  3a:	c3                   	ret    

Disassembly of section .text._ZN8lightset4Data6OutputEP8LightSetj:

0000000000000000 <lightset::Data::Output(LightSet*, unsigned int)>:
   0:	f3 0f 1e fa          	endbr64 
   4:	55                   	push   %rbp
   5:	48 89 e5             	mov    %rsp,%rbp
   8:	48 83 ec 10          	sub    $0x10,%rsp
   c:	48 89 7d f8          	mov    %rdi,-0x8(%rbp)
  10:	89 75 f4             	mov    %esi,-0xc(%rbp)
  13:	e8 00 00 00 00       	call   18 <lightset::Data::Output(LightSet*, unsigned int)+0x18>
  18:	48 89 c1             	mov    %rax,%rcx
  1b:	8b 55 f4             	mov    -0xc(%rbp),%edx
  1e:	48 8b 45 f8          	mov    -0x8(%rbp),%rax
  22:	48 89 c6             	mov    %rax,%rsi
  25:	48 89 cf             	mov    %rcx,%rdi
  28:	e8 00 00 00 00       	call   2d <lightset::Data::Output(LightSet*, unsigned int)+0x2d>
  2d:	90                   	nop
  2e:	c9                   	leave  
  2f:	c3                   	ret    

Disassembly of section .text._ZN8lightset4DataC2Ev:

0000000000000000 <lightset::Data::Data()>:
   0:	f3 0f 1e fa          	endbr64 
   4:	55                   	push   %rbp
   5:	48 89 e5             	mov    %rsp,%rbp
   8:	48 89 7d f8          	mov    %rdi,-0x8(%rbp)
   c:	90                   	nop
   d:	5d                   	pop    %rbp
   e:	c3                   	ret    

Disassembly of section .text._ZN8lightset4Data13IMergeSourceAEjPKhjNS_9MergeModeE:

0000000000000000 <lightset::Data::IMergeSourceA(unsigned int, unsigned char const*, unsigned int, lightset::MergeMode)>:
   0:	f3 0f 1e fa          	endbr64 
   4:	55                   	push   %rbp
   5:	48 89 e5             	mov    %rsp,%rbp
   8:	48 83 ec 30          	sub    $0x30,%rsp
   c:	48 89 7d e8          	mov    %rdi,-0x18(%rbp)
  10:	89 75 e4             	mov    %esi,-0x1c(%rbp)
  13:	48 89 55 d8          	mov    %rdx,-0x28(%rbp)
  17:	89 4d e0             	mov    %ecx,-0x20(%rbp)
  1a:	44 89 45 d4          	mov    %r8d,-0x2c(%rbp)
  1e:	8b 55 e0             	mov    -0x20(%rbp),%edx
  21:	8b 45 e4             	mov    -0x1c(%rbp),%eax
  24:	48 69 c8 04 06 00 00 	imul   $0x604,%rax,%rcx
  2b:	48 8b 45 e8          	mov    -0x18(%rbp),%rax
  2f:	48 01 c1             	add    %rax,%rcx
  32:	48 8b 45 d8          	mov    -0x28(%rbp),%rax
  36:	48 89 c6             	mov    %rax,%rsi
  39:	48 89 cf             	mov    %rcx,%rdi
  3c:	e8 00 00 00 00       	call   41 <lightset::Data::IMergeSourceA(unsigned int, unsigned char const*, unsigned int, lightset::MergeMode)+0x41>
  41:	48 8b 55 e8          	mov    -0x18(%rbp),%rdx
  45:	8b 45 e4             	mov    -0x1c(%rbp),%eax
  48:	48 69 c0 04 06 00 00 	imul   $0x604,%rax,%rax
  4f:	48 01 d0             	add    %rdx,%rax
  52:	48 8d 90 00 06 00 00 	lea    0x600(%rax),%rdx
  59:	8b 45 e0             	mov    -0x20(%rbp),%eax
  5c:	89 02                	mov    %eax,(%rdx)
  5e:	83 7d d4 00          	cmpl   $0x0,-0x2c(%rbp)
  62:	0f 85 81 00 00 00    	jne    e9 <lightset::Data::IMergeSourceA(unsigned int, unsigned char const*, unsigned int, lightset::MergeMode)+0xe9>
  68:	c7 45 fc 00 00 00 00 	movl   $0x0,-0x4(%rbp)
  6f:	eb 6e                	jmp    df <lightset::Data::IMergeSourceA(unsigned int, unsigned char const*, unsigned int, lightset::MergeMode)+0xdf>
  71:	8b 55 fc             	mov    -0x4(%rbp),%edx
  74:	8b 45 e4             	mov    -0x1c(%rbp),%eax
  77:	48 69 c0 04 06 00 00 	imul   $0x604,%rax,%rax
  7e:	48 01 d0             	add    %rdx,%rax
  81:	48 8d 90 00 02 00 00 	lea    0x200(%rax),%rdx
  88:	48 8b 45 e8          	mov    -0x18(%rbp),%rax
  8c:	48 01 c2             	add    %rax,%rdx
  8f:	8b 4d fc             	mov    -0x4(%rbp),%ecx
  92:	8b 45 e4             	mov    -0x1c(%rbp),%eax
  95:	48 69 c0 04 06 00 00 	imul   $0x604,%rax,%rax
  9c:	48 01 c1             	add    %rax,%rcx
  9f:	48 8b 45 e8          	mov    -0x18(%rbp),%rax
  a3:	48 01 c8             	add    %rcx,%rax
  a6:	48 89 d6             	mov    %rdx,%rsi
  a9:	48 89 c7             	mov    %rax,%rdi
  ac:	e8 00 00 00 00       	call   b1 <lightset::Data::IMergeSourceA(unsigned int, unsigned char const*, unsigned int, lightset::MergeMode)+0xb1>
  b1:	0f b6 00             	movzbl (%rax),%eax
  b4:	88 45 fb             	mov    %al,-0x5(%rbp)
  b7:	48 8b 4d e8          	mov    -0x18(%rbp),%rcx
  bb:	8b 55 fc             	mov    -0x4(%rbp),%edx
  be:	8b 45 e4             	mov    -0x1c(%rbp),%eax
  c1:	48 69 c0 04 06 00 00 	imul   $0x604,%rax,%rax
  c8:	48 01 c8             	add    %rcx,%rax
  cb:	48 01 d0             	add    %rdx,%rax
  ce:	48 8d 90 00 04 00 00 	lea    0x400(%rax),%rdx
  d5:	0f b6 45 fb          	movzbl -0x5(%rbp),%eax
  d9:	88 02                	mov    %al,(%rdx)
  db:	83 45 fc 01          	addl   $0x1,-0x4(%rbp)
  df:	8b 45 fc             	mov    -0x4(%rbp),%eax
  e2:	3b 45 e0             	cmp    -0x20(%rbp),%eax
  e5:	72 8a                	jb     71 <lightset::Data::IMergeSourceA(unsigned int, unsigned char const*, unsigned int, lightset::MergeMode)+0x71>
  e7:	eb 2a                	jmp    113 <lightset::Data::IMergeSourceA(unsigned int, unsigned char const*, unsigned int, lightset::MergeMode)+0x113>
  e9:	8b 55 e0             	mov    -0x20(%rbp),%edx
  ec:	8b 45 e4             	mov    -0x1c(%rbp),%eax
  ef:	48 69 c0 04 06 00 00 	imul   $0x604,%rax,%rax
  f6:	48 8d 88 00 04 00 00 	lea    0x400(%rax),%rcx
  fd:	48 8b 45 e8          	mov    -0x18(%rbp),%rax
 101:	48 01 c1             	add    %rax,%rcx
 104:	48 8b 45 d8          	mov    -0x28(%rbp),%rax
 108:	48 89 c6             	mov    %rax,%rsi
 10b:	48 89 cf             	mov    %rcx,%rdi
 10e:	e8 00 00 00 00       	call   113 <lightset::Data::IMergeSourceA(unsigned int, unsigned char const*, unsigned int, lightset::MergeMode)+0x113>
 113:	c9                   	leave  
 114:	c3                   	ret    

Disassembly of section .text._ZN8lightset4Data13IMergeSourceBEjPKhjNS_9MergeModeE:

0000000000000000 <lightset::Data::IMergeSourceB(unsigned int, unsigned char const*, unsigned int, lightset::MergeMode)>:
   0:	f3 0f 1e fa          	endbr64 
   4:	55                   	push   %rbp
   5:	48 89 e5             	mov    %rsp,%rbp
   8:	48 83 ec 30          	sub    $0x30,%rsp
   c:	48 89 7d e8          	mov    %rdi,-0x18(%rbp)
  10:	89 75 e4             	mov    %esi,-0x1c(%rbp)
  13:	48 89 55 d8          	mov    %rdx,-0x28(%rbp)
  17:	89 4d e0             	mov    %ecx,-0x20(%rbp)
  1a:	44 89 45 d4          	mov    %r8d,-0x2c(%rbp)
  1e:	8b 55 e0             	mov    -0x20(%rbp),%edx
  21:	8b 45 e4             	mov    -0x1c(%rbp),%eax
  24:	48 69 c0 04 06 00 00 	imul   $0x604,%rax,%rax
  2b:	48 8d 88 00 02 00 00 	lea    0x200(%rax),%rcx
  32:	48 8b 45 e8          	mov    -0x18(%rbp),%rax
  36:	48 01 c1             	add    %rax,%rcx
  39:	48 8b 45 d8          	mov    -0x28(%rbp),%rax
  3d:	48 89 c6             	mov    %rax,%rsi
  40:	48 89 cf             	mov    %rcx,%rdi
  43:	e8 00 00 00 00       	call   48 <lightset::Data::IMergeSourceB(unsigned int, unsigned char const*, unsigned int, lightset::MergeMode)+0x48>
  48:	48 8b 55 e8          	mov    -0x18(%rbp),%rdx
  4c:	8b 45 e4             	mov    -0x1c(%rbp),%eax
  4f:	48 69 c0 04 06 00 00 	imul   $0x604,%rax,%rax
  56:	48 01 d0             	add    %rdx,%rax
  59:	48 8d 90 00 06 00 00 	lea    0x600(%rax),%rdx
  60:	8b 45 e0             	mov    -0x20(%rbp),%eax
  63:	89 02                	mov    %eax,(%rdx)
  65:	83 7d d4 00          	cmpl   $0x0,-0x2c(%rbp)
  69:	0f 85 81 00 00 00    	jne    f0 <lightset::Data::IMergeSourceB(unsigned int, unsigned char const*, unsigned int, lightset::MergeMode)+0xf0>
  6f:	c7 45 fc 00 00 00 00 	movl   $0x0,-0x4(%rbp)
  76:	eb 6e                	jmp    e6 <lightset::Data::IMergeSourceB(unsigned int, unsigned char const*, unsigned int, lightset::MergeMode)+0xe6>
  78:	8b 55 fc             	mov    -0x4(%rbp),%edx
  7b:	8b 45 e4             	mov    -0x1c(%rbp),%eax
  7e:	48 69 c0 04 06 00 00 	imul   $0x604,%rax,%rax
  85:	48 01 d0             	add    %rdx,%rax
  88:	48 8d 90 00 02 00 00 	lea    0x200(%rax),%rdx
  8f:	48 8b 45 e8          	mov    -0x18(%rbp),%rax
  93:	48 01 c2             	add    %rax,%rdx
  96:	8b 4d fc             	mov    -0x4(%rbp),%ecx
  99:	8b 45 e4             	mov    -0x1c(%rbp),%eax
  9c:	48 69 c0 04 06 00 00 	imul   $0x604,%rax,%rax
  a3:	48 01 c1             	add    %rax,%rcx
  a6:	48 8b 45 e8          	mov    -0x18(%rbp),%rax
  aa:	48 01 c8             	add    %rcx,%rax
  ad:	48 89 d6             	mov    %rdx,%rsi
  b0:	48 89 c7             	mov    %rax,%rdi
  b3:	e8 00 00 00 00       	call   b8 <lightset::Data::IMergeSourceB(unsigned int, unsigned char const*, unsigned int, lightset::MergeMode)+0xb8>
  b8:	0f b6 00             	movzbl (%rax),%eax
  bb:	88 45 fb             	mov    %al,-0x5(%rbp)
  be:	48 8b 4d e8          	mov    -0x18(%rbp),%rcx
  c2:	8b 55 fc             	mov    -0x4(%rbp),%edx
  c5:	8b 45 e4             	mov    -0x1c(%rbp),%eax
  c8:	48 69 c0 04 06 00 00 	imul   $0x604,%rax,%rax
  cf:	48 01 c8             	add    %rcx,%rax
  d2:	48 01 d0             	add    %rdx,%rax
  d5:	48 8d 90 00 04 00 00 	lea    0x400(%rax),%rdx
  dc:	0f b6 45 fb          	movzbl -0x5(%rbp),%eax
  e0:	88 02                	mov    %al,(%rdx)
  e2:	83 45 fc 01          	addl   $0x1,-0x4(%rbp)
  e6:	8b 45 fc             	mov    -0x4(%rbp),%eax
  e9:	3b 45 e0             	cmp    -0x20(%rbp),%eax
  ec:	72 8a                	jb     78 <lightset::Data::IMergeSourceB(unsigned int, unsigned char const*, unsigned int, lightset::MergeMode)+0x78>
  ee:	eb 2a                	jmp    11a <lightset::Data::IMergeSourceB(unsigned int, unsigned char const*, unsigned int, lightset::MergeMode)+0x11a>
  f0:	8b 55 e0             	mov    -0x20(%rbp),%edx
  f3:	8b 45 e4             	mov    -0x1c(%rbp),%eax
  f6:	48 69 c0 04 06 00 00 	imul   $0x604,%rax,%rax
  fd:	48 8d 88 00 04 00 00 	lea    0x400(%rax),%rcx
 104:	48 8b 45 e8          	mov    -0x18(%rbp),%rax
 108:	48 01 c1             	add    %rax,%rcx
 10b:	48 8b 45 d8          	mov    -0x28(%rbp),%rax
 10f:	48 89 c6             	mov    %rax,%rsi
 112:	48 89 cf             	mov    %rcx,%rdi
 115:	e8 00 00 00 00       	call   11a <lightset::Data::IMergeSourceB(unsigned int, unsigned char const*, unsigned int, lightset::MergeMode)+0x11a>
 11a:	c9                   	leave  
 11b:	c3                   	ret    

Disassembly of section .text._ZNK8lightset4Data7IOutputEP8LightSetj:

0000000000000000 <lightset::Data::IOutput(LightSet*, unsigned int) const>:
   0:	f3 0f 1e fa          	endbr64 
   4:	55                   	push   %rbp
   5:	48 89 e5             	mov    %rsp,%rbp
   8:	48 83 ec 20          	sub    $0x20,%rsp
   c:	48 89 7d f8          	mov    %rdi,-0x8(%rbp)
  10:	48 89 75 f0          	mov    %rsi,-0x10(%rbp)
  14:	89 55 ec             	mov    %edx,-0x14(%rbp)
  17:	48 8b 45 f0          	mov    -0x10(%rbp),%rax
  1b:	48 8b 00             	mov    (%rax),%rax
  1e:	48 83 c0 20          	add    $0x20,%rax
  22:	4c 8b 00             	mov    (%rax),%r8
  25:	48 8b 55 f8          	mov    -0x8(%rbp),%rdx
  29:	8b 45 ec             	mov    -0x14(%rbp),%eax
  2c:	48 69 c0 04 06 00 00 	imul   $0x604,%rax,%rax
  33:	48 01 d0             	add    %rdx,%rax
  36:	48 05 00 06 00 00    	add    $0x600,%rax
  3c:	8b 10                	mov    (%rax),%edx
  3e:	8b 45 ec             	mov    -0x14(%rbp),%eax
  41:	48 69 c0 04 06 00 00 	imul   $0x604,%rax,%rax
  48:	48 8d 88 00 04 00 00 	lea    0x400(%rax),%rcx
  4f:	48 8b 45 f8          	mov    -0x8(%rbp),%rax
  53:	48 8d 3c 01          	lea    (%rcx,%rax,1),%rdi
  57:	8b 75 ec             	mov    -0x14(%rbp),%esi
  5a:	48 8b 45 f0          	mov    -0x10(%rbp),%rax
  5e:	89 d1                	mov    %edx,%ecx
  60:	48 89 fa             	mov    %rdi,%rdx
  63:	48 89 c7             	mov    %rax,%rdi
  66:	41 ff d0             	call   *%r8
  69:	90                   	nop
  6a:	c9                   	leave  
  6b:	c3                   	ret    

Disassembly of section .text._ZN10ArtNetNode17UpdateMergeStatusEj:

0000000000000000 <ArtNetNode::UpdateMergeStatus(unsigned int)>:
   0:	f3 0f 1e fa          	endbr64 
   4:	55                   	push   %rbp
   5:	48 89 e5             	mov    %rsp,%rbp
   8:	48 89 7d f8          	mov    %rdi,-0x8(%rbp)
   c:	89 75 f4             	mov    %esi,-0xc(%rbp)
   f:	48 8b 45 f8          	mov    -0x8(%rbp),%rax
  13:	0f b6 80 8a 00 00 00 	movzbl 0x8a(%rax),%eax
  1a:	83 f0 01             	xor    $0x1,%eax
  1d:	84 c0                	test   %al,%al
  1f:	74 16                	je     37 <ArtNetNode::UpdateMergeStatus(unsigned int)+0x37>
  21:	48 8b 45 f8          	mov    -0x8(%rbp),%rax
  25:	c6 80 8a 00 00 00 01 	movb   $0x1,0x8a(%rax)
  2c:	48 8b 45 f8          	mov    -0x8(%rbp),%rax
  30:	c6 80 8b 00 00 00 01 	movb   $0x1,0x8b(%rax)
  37:	48 8b 55 f8          	mov    -0x8(%rbp),%rdx
  3b:	8b 45 f4             	mov    -0xc(%rbp),%eax
  3e:	48 83 c0 05          	add    $0x5,%rax
  42:	48 c1 e0 05          	shl    $0x5,%rax
  46:	48 01 d0             	add    %rdx,%rax
  49:	48 83 c0 12          	add    $0x12,%rax
  4d:	0f b6 00             	movzbl (%rax),%eax
  50:	83 c8 08             	or     $0x8,%eax
  53:	89 c2                	mov    %eax,%edx
  55:	48 8b 4d f8          	mov    -0x8(%rbp),%rcx
  59:	8b 45 f4             	mov    -0xc(%rbp),%eax
  5c:	48 83 c0 05          	add    $0x5,%rax
  60:	48 c1 e0 05          	shl    $0x5,%rax
  64:	48 01 c8             	add    %rcx,%rax
  67:	48 83 c0 12          	add    $0x12,%rax
  6b:	88 10                	mov    %dl,(%rax)
  6d:	90                   	nop
  6e:	5d                   	pop    %rbp
  6f:	c3                   	ret    

Disassembly of section .text._ZN10ArtNetNode18CheckMergeTimeoutsEj:

0000000000000000 <ArtNetNode::CheckMergeTimeouts(unsigned int)>:
   0:	f3 0f 1e fa          	endbr64 
   4:	55                   	push   %rbp
   5:	48 89 e5             	mov    %rsp,%rbp
   8:	48 89 7d e8          	mov    %rdi,-0x18(%rbp)
   c:	89 75 e4             	mov    %esi,-0x1c(%rbp)
   f:	48 8b 45 e8          	mov    -0x18(%rbp),%rax
  13:	8b 80 44 0a 00 00    	mov    0xa44(%rax),%eax
  19:	48 8b 4d e8          	mov    -0x18(%rbp),%rcx
  1d:	8b 55 e4             	mov    -0x1c(%rbp),%edx
  20:	48 c1 e2 05          	shl    $0x5,%rdx
  24:	48 01 ca             	add    %rcx,%rdx
  27:	48 81 c2 9c 00 00 00 	add    $0x9c,%rdx
  2e:	8b 12                	mov    (%rdx),%edx
  30:	29 d0                	sub    %edx,%eax
  32:	89 45 f8             	mov    %eax,-0x8(%rbp)
  35:	81 7d f8 10 27 00 00 	cmpl   $0x2710,-0x8(%rbp)
  3c:	76 50                	jbe    8e <ArtNetNode::CheckMergeTimeouts(unsigned int)+0x8e>
  3e:	48 8b 55 e8          	mov    -0x18(%rbp),%rdx
  42:	8b 45 e4             	mov    -0x1c(%rbp),%eax
  45:	48 c1 e0 05          	shl    $0x5,%rax
  49:	48 01 d0             	add    %rdx,%rax
  4c:	48 05 a0 00 00 00    	add    $0xa0,%rax
  52:	c7 00 00 00 00 00    	movl   $0x0,(%rax)
  58:	48 8b 55 e8          	mov    -0x18(%rbp),%rdx
  5c:	8b 45 e4             	mov    -0x1c(%rbp),%eax
  5f:	48 83 c0 05          	add    $0x5,%rax
  63:	48 c1 e0 05          	shl    $0x5,%rax
  67:	48 01 d0             	add    %rdx,%rax
  6a:	48 83 c0 12          	add    $0x12,%rax
  6e:	0f b6 00             	movzbl (%rax),%eax
  71:	83 e0 f7             	and    $0xfffffff7,%eax
  74:	89 c2                	mov    %eax,%edx
  76:	48 8b 4d e8          	mov    -0x18(%rbp),%rcx
  7a:	8b 45 e4             	mov    -0x1c(%rbp),%eax
  7d:	48 83 c0 05          	add    $0x5,%rax
  81:	48 c1 e0 05          	shl    $0x5,%rax
  85:	48 01 c8             	add    %rcx,%rax
  88:	48 83 c0 12          	add    $0x12,%rax
  8c:	88 10                	mov    %dl,(%rax)
  8e:	48 8b 45 e8          	mov    -0x18(%rbp),%rax
  92:	8b 80 44 0a 00 00    	mov    0xa44(%rax),%eax
  98:	48 8b 4d e8          	mov    -0x18(%rbp),%rcx
  9c:	8b 55 e4             	mov    -0x1c(%rbp),%edx
  9f:	48 83 c2 05          	add    $0x5,%rdx
  a3:	48 c1 e2 05          	shl    $0x5,%rdx
  a7:	48 01 ca             	add    %rcx,%rdx
  aa:	48 83 c2 04          	add    $0x4,%rdx
  ae:	8b 12                	mov    (%rdx),%edx
  b0:	29 d0                	sub    %edx,%eax
  b2:	89 45 fc             	mov    %eax,-0x4(%rbp)
  b5:	81 7d fc 10 27 00 00 	cmpl   $0x2710,-0x4(%rbp)
  bc:	76 52                	jbe    110 <ArtNetNode::CheckMergeTimeouts(unsigned int)+0x110>
  be:	48 8b 55 e8          	mov    -0x18(%rbp),%rdx
  c2:	8b 45 e4             	mov    -0x1c(%rbp),%eax
  c5:	48 83 c0 05          	add    $0x5,%rax
  c9:	48 c1 e0 05          	shl    $0x5,%rax
  cd:	48 01 d0             	add    %rdx,%rax
  d0:	48 83 c0 08          	add    $0x8,%rax
  d4:	c7 00 00 00 00 00    	movl   $0x0,(%rax)
  da:	48 8b 55 e8          	mov    -0x18(%rbp),%rdx
  de:	8b 45 e4             	mov    -0x1c(%rbp),%eax
  e1:	48 83 c0 05          	add    $0x5,%rax
  e5:	48 c1 e0 05          	shl    $0x5,%rax
  e9:	48 01 d0             	add    %rdx,%rax
  ec:	48 83 c0 12          	add    $0x12,%rax
  f0:	0f b6 00             	movzbl (%rax),%eax
  f3:	83 e0 f7             	and    $0xfffffff7,%eax
  f6:	89 c2                	mov    %eax,%edx
  f8:	48 8b 4d e8          	mov    -0x18(%rbp),%rcx
  fc:	8b 45 e4             	mov    -0x1c(%rbp),%eax
  ff:	48 83 c0 05          	add    $0x5,%rax
 103:	48 c1 e0 05          	shl    $0x5,%rax
 107:	48 01 c8             	add    %rcx,%rax
 10a:	48 83 c0 12          	add    $0x12,%rax
 10e:	88 10                	mov    %dl,(%rax)
 110:	c6 45 f3 00          	movb   $0x0,-0xd(%rbp)
 114:	c7 45 f4 00 00 00 00 	movl   $0x0,-0xc(%rbp)
 11b:	eb 39                	jmp    156 <ArtNetNode::CheckMergeTimeouts(unsigned int)+0x156>
 11d:	0f b6 55 f3          	movzbl -0xd(%rbp),%edx
 121:	48 8b 4d e8          	mov    -0x18(%rbp),%rcx
 125:	8b 45 f4             	mov    -0xc(%rbp),%eax
 128:	48 83 c0 05          	add    $0x5,%rax
 12c:	48 c1 e0 05          	shl    $0x5,%rax
 130:	48 01 c8             	add    %rcx,%rax
 133:	48 83 c0 12          	add    $0x12,%rax
 137:	0f b6 00             	movzbl (%rax),%eax
 13a:	0f b6 c0             	movzbl %al,%eax
 13d:	83 e0 08             	and    $0x8,%eax
 140:	85 c0                	test   %eax,%eax
 142:	0f 95 c0             	setne  %al
 145:	0f b6 c0             	movzbl %al,%eax
 148:	09 d0                	or     %edx,%eax
 14a:	85 c0                	test   %eax,%eax
 14c:	0f 95 c0             	setne  %al
 14f:	88 45 f3             	mov    %al,-0xd(%rbp)
 152:	83 45 f4 01          	addl   $0x1,-0xc(%rbp)
 156:	83 7d f4 03          	cmpl   $0x3,-0xc(%rbp)
 15a:	76 c1                	jbe    11d <ArtNetNode::CheckMergeTimeouts(unsigned int)+0x11d>
 15c:	0f b6 45 f3          	movzbl -0xd(%rbp),%eax
 160:	83 f0 01             	xor    $0x1,%eax
 163:	84 c0                	test   %al,%al
 165:	74 16                	je     17d <ArtNetNode::CheckMergeTimeouts(unsigned int)+0x17d>
 167:	48 8b 45 e8          	mov    -0x18(%rbp),%rax
 16b:	c6 80 8b 00 00 00 01 	movb   $0x1,0x8b(%rax)
 172:	48 8b 45 e8          	mov    -0x18(%rbp),%rax
 176:	c6 80 8a 00 00 00 00 	movb   $0x0,0x8a(%rax)
 17d:	90                   	nop
 17e:	5d                   	pop    %rbp
 17f:	c3                   	ret    

Disassembly of section .text._ZN10ArtNetNode9HandleDmxEv:

0000000000000000 <ArtNetNode::HandleDmx()>:
   0:	f3 0f 1e fa          	endbr64 
   4:	55                   	push   %rbp
   5:	48 89 e5             	mov    %rsp,%rbp
   8:	48 83 ec 40          	sub    $0x40,%rsp
   c:	48 89 7d c8          	mov    %rdi,-0x38(%rbp)
  10:	64 48 8b 04 25 28 00 	mov    %fs:0x28,%rax
  17:	00 00 
  19:	48 89 45 f8          	mov    %rax,-0x8(%rbp)
  1d:	31 c0                	xor    %eax,%eax
  1f:	48 8b 45 c8          	mov    -0x38(%rbp),%rax
  23:	48 05 54 01 00 00    	add    $0x154,%rax
  29:	48 89 45 f0          	mov    %rax,-0x10(%rbp)
  2d:	48 8b 45 f0          	mov    -0x10(%rbp),%rax
  31:	0f b6 40 10          	movzbl 0x10(%rax),%eax
  35:	0f b6 c0             	movzbl %al,%eax
  38:	c1 e0 08             	shl    $0x8,%eax
  3b:	89 c2                	mov    %eax,%edx
  3d:	48 8b 45 f0          	mov    -0x10(%rbp),%rax
  41:	0f b6 40 11          	movzbl 0x11(%rax),%eax
  45:	0f b6 c0             	movzbl %al,%eax
  48:	09 d0                	or     %edx,%eax
  4a:	66 89 45 de          	mov    %ax,-0x22(%rbp)
  4e:	48 8d 45 de          	lea    -0x22(%rbp),%rax
  52:	48 8d 15 00 00 00 00 	lea    0x0(%rip),%rdx        # 59 <ArtNetNode::HandleDmx()+0x59>
  59:	48 89 d6             	mov    %rdx,%rsi
  5c:	48 89 c7             	mov    %rax,%rdi
  5f:	e8 00 00 00 00       	call   64 <ArtNetNode::HandleDmx()+0x64>
  64:	0f b7 00             	movzwl (%rax),%eax
  67:	66 89 45 de          	mov    %ax,-0x22(%rbp)
  6b:	c7 45 e0 00 00 00 00 	movl   $0x0,-0x20(%rbp)
  72:	e9 fe 04 00 00       	jmp    575 <ArtNetNode::HandleDmx()+0x575>
  77:	48 8b 55 c8          	mov    -0x38(%rbp),%rdx
  7b:	8b 45 e0             	mov    -0x20(%rbp),%eax
  7e:	48 c1 e0 05          	shl    $0x5,%rax
  82:	48 01 d0             	add    %rdx,%rax
  85:	48 05 98 00 00 00    	add    $0x98,%rax
  8b:	0f b6 00             	movzbl (%rax),%eax
  8e:	84 c0                	test   %al,%al
  90:	0f 84 db 04 00 00    	je     571 <ArtNetNode::HandleDmx()+0x571>
  96:	48 8b 55 c8          	mov    -0x38(%rbp),%rdx
  9a:	8b 45 e0             	mov    -0x20(%rbp),%eax
  9d:	48 83 c0 05          	add    $0x5,%rax
  a1:	48 c1 e0 05          	shl    $0x5,%rax
  a5:	48 01 d0             	add    %rdx,%rax
  a8:	48 83 c0 0c          	add    $0xc,%rax
  ac:	8b 00                	mov    (%rax),%eax
  ae:	85 c0                	test   %eax,%eax
  b0:	0f 85 bb 04 00 00    	jne    571 <ArtNetNode::HandleDmx()+0x571>
  b6:	48 8b 45 f0          	mov    -0x10(%rbp),%rax
  ba:	0f b7 50 0e          	movzwl 0xe(%rax),%edx
  be:	48 8b 4d c8          	mov    -0x38(%rbp),%rcx
  c2:	8b 45 e0             	mov    -0x20(%rbp),%eax
  c5:	48 c1 e0 05          	shl    $0x5,%rax
  c9:	48 01 c8             	add    %rcx,%rax
  cc:	48 05 94 00 00 00    	add    $0x94,%rax
  d2:	0f b7 00             	movzwl (%rax),%eax
  d5:	66 39 c2             	cmp    %ax,%dx
  d8:	0f 85 93 04 00 00    	jne    571 <ArtNetNode::HandleDmx()+0x571>
  de:	48 8b 55 c8          	mov    -0x38(%rbp),%rdx
  e2:	8b 45 e0             	mov    -0x20(%rbp),%eax
  e5:	48 c1 e0 05          	shl    $0x5,%rax
  e9:	48 01 d0             	add    %rdx,%rax
  ec:	48 05 a0 00 00 00    	add    $0xa0,%rax
  f2:	8b 00                	mov    (%rax),%eax
  f4:	89 45 e4             	mov    %eax,-0x1c(%rbp)
  f7:	48 8b 55 c8          	mov    -0x38(%rbp),%rdx
  fb:	8b 45 e0             	mov    -0x20(%rbp),%eax
  fe:	48 83 c0 05          	add    $0x5,%rax
 102:	48 c1 e0 05          	shl    $0x5,%rax
 106:	48 01 d0             	add    %rdx,%rax
 109:	48 83 c0 08          	add    $0x8,%rax
 10d:	8b 00                	mov    (%rax),%eax
 10f:	89 45 e8             	mov    %eax,-0x18(%rbp)
 112:	48 8b 55 c8          	mov    -0x38(%rbp),%rdx
 116:	8b 45 e0             	mov    -0x20(%rbp),%eax
 119:	48 83 c0 05          	add    $0x5,%rax
 11d:	48 c1 e0 05          	shl    $0x5,%rax
 121:	48 01 d0             	add    %rdx,%rax
 124:	48 83 c0 12          	add    $0x12,%rax
 128:	0f b6 00             	movzbl (%rax),%eax
 12b:	83 c8 80             	or     $0xffffff80,%eax
 12e:	89 c2                	mov    %eax,%edx
 130:	48 8b 4d c8          	mov    -0x38(%rbp),%rcx
 134:	8b 45 e0             	mov    -0x20(%rbp),%eax
 137:	48 83 c0 05          	add    $0x5,%rax
 13b:	48 c1 e0 05          	shl    $0x5,%rax
 13f:	48 01 c8             	add    %rcx,%rax
 142:	48 83 c0 12          	add    $0x12,%rax
 146:	88 10                	mov    %dl,(%rax)
 148:	48 8b 45 c8          	mov    -0x38(%rbp),%rax
 14c:	0f b6 80 8a 00 00 00 	movzbl 0x8a(%rax),%eax
 153:	84 c0                	test   %al,%al
 155:	74 27                	je     17e <ArtNetNode::HandleDmx()+0x17e>
 157:	48 8b 45 c8          	mov    -0x38(%rbp),%rax
 15b:	0f b6 80 8c 00 00 00 	movzbl 0x8c(%rax),%eax
 162:	83 f0 01             	xor    $0x1,%eax
 165:	0f b6 c0             	movzbl %al,%eax
 168:	48 85 c0             	test   %rax,%rax
 16b:	74 11                	je     17e <ArtNetNode::HandleDmx()+0x17e>
 16d:	8b 55 e0             	mov    -0x20(%rbp),%edx
 170:	48 8b 45 c8          	mov    -0x38(%rbp),%rax
 174:	89 d6                	mov    %edx,%esi
 176:	48 89 c7             	mov    %rax,%rdi
 179:	e8 00 00 00 00       	call   17e <ArtNetNode::HandleDmx()+0x17e>
 17e:	48 8b 55 c8          	mov    -0x38(%rbp),%rdx
 182:	8b 45 e0             	mov    -0x20(%rbp),%eax
 185:	48 83 c0 05          	add    $0x5,%rax
 189:	48 c1 e0 05          	shl    $0x5,%rax
 18d:	48 01 d0             	add    %rdx,%rax
 190:	48 83 c0 12          	add    $0x12,%rax
 194:	0f b6 00             	movzbl (%rax),%eax
 197:	0f b6 c0             	movzbl %al,%eax
 19a:	d1 f8                	sar    %eax
 19c:	83 e0 01             	and    $0x1,%eax
 19f:	89 45 ec             	mov    %eax,-0x14(%rbp)
 1a2:	83 7d e4 00          	cmpl   $0x0,-0x1c(%rbp)
 1a6:	75 69                	jne    211 <ArtNetNode::HandleDmx()+0x211>
 1a8:	83 7d e8 00          	cmpl   $0x0,-0x18(%rbp)
 1ac:	75 63                	jne    211 <ArtNetNode::HandleDmx()+0x211>
 1ae:	48 8b 45 c8          	mov    -0x38(%rbp),%rax
 1b2:	8b 80 20 06 00 00    	mov    0x620(%rax),%eax
 1b8:	48 8b 4d c8          	mov    -0x38(%rbp),%rcx
 1bc:	8b 55 e0             	mov    -0x20(%rbp),%edx
 1bf:	48 c1 e2 05          	shl    $0x5,%rdx
 1c3:	48 01 ca             	add    %rcx,%rdx
 1c6:	48 81 c2 a0 00 00 00 	add    $0xa0,%rdx
 1cd:	89 02                	mov    %eax,(%rdx)
 1cf:	48 8b 45 c8          	mov    -0x38(%rbp),%rax
 1d3:	8b 80 44 0a 00 00    	mov    0xa44(%rax),%eax
 1d9:	48 8b 4d c8          	mov    -0x38(%rbp),%rcx
 1dd:	8b 55 e0             	mov    -0x20(%rbp),%edx
 1e0:	48 c1 e2 05          	shl    $0x5,%rdx
 1e4:	48 01 ca             	add    %rcx,%rdx
 1e7:	48 81 c2 9c 00 00 00 	add    $0x9c,%rdx
 1ee:	89 02                	mov    %eax,(%rdx)
 1f0:	0f b7 45 de          	movzwl -0x22(%rbp),%eax
 1f4:	0f b7 d0             	movzwl %ax,%edx
 1f7:	48 8b 45 f0          	mov    -0x10(%rbp),%rax
 1fb:	48 8d 48 12          	lea    0x12(%rax),%rcx
 1ff:	8b 45 e0             	mov    -0x20(%rbp),%eax
 202:	48 89 ce             	mov    %rcx,%rsi
 205:	89 c7                	mov    %eax,%edi
 207:	e8 00 00 00 00       	call   20c <ArtNetNode::HandleDmx()+0x20c>
 20c:	e9 aa 02 00 00       	jmp    4bb <ArtNetNode::HandleDmx()+0x4bb>
 211:	48 8b 45 c8          	mov    -0x38(%rbp),%rax
 215:	8b 80 20 06 00 00    	mov    0x620(%rax),%eax
 21b:	39 45 e4             	cmp    %eax,-0x1c(%rbp)
 21e:	75 48                	jne    268 <ArtNetNode::HandleDmx()+0x268>
 220:	83 7d e8 00          	cmpl   $0x0,-0x18(%rbp)
 224:	75 42                	jne    268 <ArtNetNode::HandleDmx()+0x268>
 226:	48 8b 45 c8          	mov    -0x38(%rbp),%rax
 22a:	8b 80 44 0a 00 00    	mov    0xa44(%rax),%eax
 230:	48 8b 4d c8          	mov    -0x38(%rbp),%rcx
 234:	8b 55 e0             	mov    -0x20(%rbp),%edx
 237:	48 c1 e2 05          	shl    $0x5,%rdx
 23b:	48 01 ca             	add    %rcx,%rdx
 23e:	48 81 c2 9c 00 00 00 	add    $0x9c,%rdx
 245:	89 02                	mov    %eax,(%rdx)
 247:	0f b7 45 de          	movzwl -0x22(%rbp),%eax
 24b:	0f b7 d0             	movzwl %ax,%edx
 24e:	48 8b 45 f0          	mov    -0x10(%rbp),%rax
 252:	48 8d 48 12          	lea    0x12(%rax),%rcx
 256:	8b 45 e0             	mov    -0x20(%rbp),%eax
 259:	48 89 ce             	mov    %rcx,%rsi
 25c:	89 c7                	mov    %eax,%edi
 25e:	e8 00 00 00 00       	call   263 <ArtNetNode::HandleDmx()+0x263>
 263:	e9 53 02 00 00       	jmp    4bb <ArtNetNode::HandleDmx()+0x4bb>
 268:	83 7d e4 00          	cmpl   $0x0,-0x1c(%rbp)
 26c:	75 52                	jne    2c0 <ArtNetNode::HandleDmx()+0x2c0>
 26e:	48 8b 45 c8          	mov    -0x38(%rbp),%rax
 272:	8b 80 20 06 00 00    	mov    0x620(%rax),%eax
 278:	39 45 e8             	cmp    %eax,-0x18(%rbp)
 27b:	75 43                	jne    2c0 <ArtNetNode::HandleDmx()+0x2c0>
 27d:	48 8b 45 c8          	mov    -0x38(%rbp),%rax
 281:	8b 80 44 0a 00 00    	mov    0xa44(%rax),%eax
 287:	48 8b 4d c8          	mov    -0x38(%rbp),%rcx
 28b:	8b 55 e0             	mov    -0x20(%rbp),%edx
 28e:	48 83 c2 05          	add    $0x5,%rdx
 292:	48 c1 e2 05          	shl    $0x5,%rdx
 296:	48 01 ca             	add    %rcx,%rdx
 299:	48 83 c2 04          	add    $0x4,%rdx
 29d:	89 02                	mov    %eax,(%rdx)
 29f:	0f b7 45 de          	movzwl -0x22(%rbp),%eax
 2a3:	0f b7 d0             	movzwl %ax,%edx
 2a6:	48 8b 45 f0          	mov    -0x10(%rbp),%rax
 2aa:	48 8d 48 12          	lea    0x12(%rax),%rcx
 2ae:	8b 45 e0             	mov    -0x20(%rbp),%eax
 2b1:	48 89 ce             	mov    %rcx,%rsi
 2b4:	89 c7                	mov    %eax,%edi
 2b6:	e8 00 00 00 00       	call   2bb <ArtNetNode::HandleDmx()+0x2bb>
 2bb:	e9 fb 01 00 00       	jmp    4bb <ArtNetNode::HandleDmx()+0x4bb>
 2c0:	48 8b 45 c8          	mov    -0x38(%rbp),%rax
 2c4:	8b 80 20 06 00 00    	mov    0x620(%rax),%eax
 2ca:	39 45 e4             	cmp    %eax,-0x1c(%rbp)
 2cd:	74 7c                	je     34b <ArtNetNode::HandleDmx()+0x34b>
 2cf:	83 7d e8 00          	cmpl   $0x0,-0x18(%rbp)
 2d3:	75 76                	jne    34b <ArtNetNode::HandleDmx()+0x34b>
 2d5:	48 8b 45 c8          	mov    -0x38(%rbp),%rax
 2d9:	8b 80 20 06 00 00    	mov    0x620(%rax),%eax
 2df:	48 8b 4d c8          	mov    -0x38(%rbp),%rcx
 2e3:	8b 55 e0             	mov    -0x20(%rbp),%edx
 2e6:	48 83 c2 05          	add    $0x5,%rdx
 2ea:	48 c1 e2 05          	shl    $0x5,%rdx
 2ee:	48 01 ca             	add    %rcx,%rdx
 2f1:	48 83 c2 08          	add    $0x8,%rdx
 2f5:	89 02                	mov    %eax,(%rdx)
 2f7:	48 8b 45 c8          	mov    -0x38(%rbp),%rax
 2fb:	8b 80 44 0a 00 00    	mov    0xa44(%rax),%eax
 301:	48 8b 4d c8          	mov    -0x38(%rbp),%rcx
 305:	8b 55 e0             	mov    -0x20(%rbp),%edx
 308:	48 83 c2 05          	add    $0x5,%rdx
 30c:	48 c1 e2 05          	shl    $0x5,%rdx
 310:	48 01 ca             	add    %rcx,%rdx
 313:	48 83 c2 04          	add    $0x4,%rdx
 317:	89 02                	mov    %eax,(%rdx)
 319:	8b 55 e0             	mov    -0x20(%rbp),%edx
 31c:	48 8b 45 c8          	mov    -0x38(%rbp),%rax
 320:	89 d6                	mov    %edx,%esi
 322:	48 89 c7             	mov    %rax,%rdi
 325:	e8 00 00 00 00       	call   32a <ArtNetNode::HandleDmx()+0x32a>
 32a:	0f b7 45 de          	movzwl -0x22(%rbp),%eax
 32e:	0f b7 d0             	movzwl %ax,%edx
 331:	48 8b 45 f0          	mov    -0x10(%rbp),%rax
 335:	48 8d 70 12          	lea    0x12(%rax),%rsi
 339:	8b 4d ec             	mov    -0x14(%rbp),%ecx
 33c:	8b 45 e0             	mov    -0x20(%rbp),%eax
 33f:	89 c7                	mov    %eax,%edi
 341:	e8 00 00 00 00       	call   346 <ArtNetNode::HandleDmx()+0x346>
 346:	e9 70 01 00 00       	jmp    4bb <ArtNetNode::HandleDmx()+0x4bb>
 34b:	83 7d e4 00          	cmpl   $0x0,-0x1c(%rbp)
 34f:	0f 85 83 00 00 00    	jne    3d8 <ArtNetNode::HandleDmx()+0x3d8>
 355:	48 8b 45 c8          	mov    -0x38(%rbp),%rax
 359:	8b 80 20 06 00 00    	mov    0x620(%rax),%eax
 35f:	39 45 e8             	cmp    %eax,-0x18(%rbp)
 362:	74 74                	je     3d8 <ArtNetNode::HandleDmx()+0x3d8>
 364:	48 8b 45 c8          	mov    -0x38(%rbp),%rax
 368:	8b 80 20 06 00 00    	mov    0x620(%rax),%eax
 36e:	48 8b 4d c8          	mov    -0x38(%rbp),%rcx
 372:	8b 55 e0             	mov    -0x20(%rbp),%edx
 375:	48 c1 e2 05          	shl    $0x5,%rdx
 379:	48 01 ca             	add    %rcx,%rdx
 37c:	48 81 c2 a0 00 00 00 	add    $0xa0,%rdx
 383:	89 02                	mov    %eax,(%rdx)
 385:	48 8b 45 c8          	mov    -0x38(%rbp),%rax
 389:	8b 80 44 0a 00 00    	mov    0xa44(%rax),%eax
 38f:	48 8b 4d c8          	mov    -0x38(%rbp),%rcx
 393:	8b 55 e0             	mov    -0x20(%rbp),%edx
 396:	48 c1 e2 05          	shl    $0x5,%rdx
 39a:	48 01 ca             	add    %rcx,%rdx
 39d:	48 81 c2 9c 00 00 00 	add    $0x9c,%rdx
 3a4:	89 02                	mov    %eax,(%rdx)
 3a6:	8b 55 e0             	mov    -0x20(%rbp),%edx
 3a9:	48 8b 45 c8          	mov    -0x38(%rbp),%rax
 3ad:	89 d6                	mov    %edx,%esi
 3af:	48 89 c7             	mov    %rax,%rdi
 3b2:	e8 00 00 00 00       	call   3b7 <ArtNetNode::HandleDmx()+0x3b7>
 3b7:	0f b7 45 de          	movzwl -0x22(%rbp),%eax
 3bb:	0f b7 d0             	movzwl %ax,%edx
 3be:	48 8b 45 f0          	mov    -0x10(%rbp),%rax
 3c2:	48 8d 70 12          	lea    0x12(%rax),%rsi
 3c6:	8b 4d ec             	mov    -0x14(%rbp),%ecx
 3c9:	8b 45 e0             	mov    -0x20(%rbp),%eax
 3cc:	89 c7                	mov    %eax,%edi
 3ce:	e8 00 00 00 00       	call   3d3 <ArtNetNode::HandleDmx()+0x3d3>
 3d3:	e9 e3 00 00 00       	jmp    4bb <ArtNetNode::HandleDmx()+0x4bb>
 3d8:	48 8b 45 c8          	mov    -0x38(%rbp),%rax
 3dc:	8b 80 20 06 00 00    	mov    0x620(%rax),%eax
 3e2:	39 45 e4             	cmp    %eax,-0x1c(%rbp)
 3e5:	75 5f                	jne    446 <ArtNetNode::HandleDmx()+0x446>
 3e7:	48 8b 45 c8          	mov    -0x38(%rbp),%rax
 3eb:	8b 80 20 06 00 00    	mov    0x620(%rax),%eax
 3f1:	39 45 e8             	cmp    %eax,-0x18(%rbp)
 3f4:	74 50                	je     446 <ArtNetNode::HandleDmx()+0x446>
 3f6:	48 8b 45 c8          	mov    -0x38(%rbp),%rax
 3fa:	8b 80 44 0a 00 00    	mov    0xa44(%rax),%eax
 400:	48 8b 4d c8          	mov    -0x38(%rbp),%rcx
 404:	8b 55 e0             	mov    -0x20(%rbp),%edx
 407:	48 c1 e2 05          	shl    $0x5,%rdx
 40b:	48 01 ca             	add    %rcx,%rdx
 40e:	48 81 c2 9c 00 00 00 	add    $0x9c,%rdx
 415:	89 02                	mov    %eax,(%rdx)
 417:	8b 55 e0             	mov    -0x20(%rbp),%edx
 41a:	48 8b 45 c8          	mov    -0x38(%rbp),%rax
 41e:	89 d6                	mov    %edx,%esi
 420:	48 89 c7             	mov    %rax,%rdi
 423:	e8 00 00 00 00       	call   428 <ArtNetNode::HandleDmx()+0x428>
 428:	0f b7 45 de          	movzwl -0x22(%rbp),%eax
 42c:	0f b7 d0             	movzwl %ax,%edx
 42f:	48 8b 45 f0          	mov    -0x10(%rbp),%rax
 433:	48 8d 70 12          	lea    0x12(%rax),%rsi
 437:	8b 4d ec             	mov    -0x14(%rbp),%ecx
 43a:	8b 45 e0             	mov    -0x20(%rbp),%eax
 43d:	89 c7                	mov    %eax,%edi
 43f:	e8 00 00 00 00       	call   444 <ArtNetNode::HandleDmx()+0x444>
 444:	eb 75                	jmp    4bb <ArtNetNode::HandleDmx()+0x4bb>
 446:	48 8b 45 c8          	mov    -0x38(%rbp),%rax
 44a:	8b 80 20 06 00 00    	mov    0x620(%rax),%eax
 450:	39 45 e4             	cmp    %eax,-0x1c(%rbp)
 453:	0f 84 28 01 00 00    	je     581 <ArtNetNode::HandleDmx()+0x581>
 459:	48 8b 45 c8          	mov    -0x38(%rbp),%rax
 45d:	8b 80 20 06 00 00    	mov    0x620(%rax),%eax
 463:	39 45 e8             	cmp    %eax,-0x18(%rbp)
 466:	0f 85 15 01 00 00    	jne    581 <ArtNetNode::HandleDmx()+0x581>
 46c:	48 8b 45 c8          	mov    -0x38(%rbp),%rax
 470:	8b 80 44 0a 00 00    	mov    0xa44(%rax),%eax
 476:	48 8b 4d c8          	mov    -0x38(%rbp),%rcx
 47a:	8b 55 e0             	mov    -0x20(%rbp),%edx
 47d:	48 83 c2 05          	add    $0x5,%rdx
 481:	48 c1 e2 05          	shl    $0x5,%rdx
 485:	48 01 ca             	add    %rcx,%rdx
 488:	48 83 c2 04          	add    $0x4,%rdx
 48c:	89 02                	mov    %eax,(%rdx)
 48e:	8b 55 e0             	mov    -0x20(%rbp),%edx
 491:	48 8b 45 c8          	mov    -0x38(%rbp),%rax
 495:	89 d6                	mov    %edx,%esi
 497:	48 89 c7             	mov    %rax,%rdi
 49a:	e8 00 00 00 00       	call   49f <ArtNetNode::HandleDmx()+0x49f>
 49f:	0f b7 45 de          	movzwl -0x22(%rbp),%eax
 4a3:	0f b7 d0             	movzwl %ax,%edx
 4a6:	48 8b 45 f0          	mov    -0x10(%rbp),%rax
 4aa:	48 8d 70 12          	lea    0x12(%rax),%rsi
 4ae:	8b 4d ec             	mov    -0x14(%rbp),%ecx
 4b1:	8b 45 e0             	mov    -0x20(%rbp),%eax
 4b4:	89 c7                	mov    %eax,%edi
 4b6:	e8 00 00 00 00       	call   4bb <ArtNetNode::HandleDmx()+0x4bb>
 4bb:	48 8b 45 c8          	mov    -0x38(%rbp),%rax
 4bf:	0f b6 80 89 00 00 00 	movzbl 0x89(%rax),%eax
 4c6:	83 f0 01             	xor    $0x1,%eax
 4c9:	84 c0                	test   %al,%al
 4cb:	0f 84 86 00 00 00    	je     557 <ArtNetNode::HandleDmx()+0x557>
 4d1:	48 8b 45 c8          	mov    -0x38(%rbp),%rax
 4d5:	48 8b 80 50 0a 00 00 	mov    0xa50(%rax),%rax
 4dc:	8b 55 e0             	mov    -0x20(%rbp),%edx
 4df:	89 d6                	mov    %edx,%esi
 4e1:	48 89 c7             	mov    %rax,%rdi
 4e4:	e8 00 00 00 00       	call   4e9 <ArtNetNode::HandleDmx()+0x4e9>
 4e9:	48 8b 55 c8          	mov    -0x38(%rbp),%rdx
 4ed:	8b 45 e0             	mov    -0x20(%rbp),%eax
 4f0:	48 83 c0 05          	add    $0x5,%rax
 4f4:	48 c1 e0 05          	shl    $0x5,%rax
 4f8:	48 01 d0             	add    %rdx,%rax
 4fb:	48 83 c0 11          	add    $0x11,%rax
 4ff:	0f b6 00             	movzbl (%rax),%eax
 502:	83 f0 01             	xor    $0x1,%eax
 505:	84 c0                	test   %al,%al
 507:	74 4e                	je     557 <ArtNetNode::HandleDmx()+0x557>
 509:	48 8b 45 c8          	mov    -0x38(%rbp),%rax
 50d:	48 8b 80 50 0a 00 00 	mov    0xa50(%rax),%rax
 514:	48 8b 55 c8          	mov    -0x38(%rbp),%rdx
 518:	48 8b 92 50 0a 00 00 	mov    0xa50(%rdx),%rdx
 51f:	48 8b 12             	mov    (%rdx),%rdx
 522:	48 83 c2 10          	add    $0x10,%rdx
 526:	48 8b 0a             	mov    (%rdx),%rcx
 529:	8b 55 e0             	mov    -0x20(%rbp),%edx
 52c:	89 d6                	mov    %edx,%esi
 52e:	48 89 c7             	mov    %rax,%rdi
 531:	ff d1                	call   *%rcx
 533:	48 8b 45 c8          	mov    -0x38(%rbp),%rax
 537:	c6 80 8b 00 00 00 01 	movb   $0x1,0x8b(%rax)
 53e:	48 8b 55 c8          	mov    -0x38(%rbp),%rdx
 542:	8b 45 e0             	mov    -0x20(%rbp),%eax
 545:	48 83 c0 05          	add    $0x5,%rax
 549:	48 c1 e0 05          	shl    $0x5,%rax
 54d:	48 01 d0             	add    %rdx,%rax
 550:	48 83 c0 11          	add    $0x11,%rax
 554:	c6 00 01             	movb   $0x1,(%rax)
 557:	48 8b 45 c8          	mov    -0x38(%rbp),%rax
 55b:	0f b6 80 8d 00 00 00 	movzbl 0x8d(%rax),%eax
 562:	83 c8 02             	or     $0x2,%eax
 565:	89 c2                	mov    %eax,%edx
 567:	48 8b 45 c8          	mov    -0x38(%rbp),%rax
 56b:	88 90 8d 00 00 00    	mov    %dl,0x8d(%rax)
 571:	83 45 e0 01          	addl   $0x1,-0x20(%rbp)
 575:	83 7d e0 03          	cmpl   $0x3,-0x20(%rbp)
 579:	0f 86 f8 fa ff ff    	jbe    77 <ArtNetNode::HandleDmx()+0x77>
 57f:	eb 01                	jmp    582 <ArtNetNode::HandleDmx()+0x582>
 581:	90                   	nop
 582:	48 8b 45 f8          	mov    -0x8(%rbp),%rax
 586:	64 48 2b 04 25 28 00 	sub    %fs:0x28,%rax
 58d:	00 00 
 58f:	74 05                	je     596 <ArtNetNode::HandleDmx()+0x596>
 591:	e8 00 00 00 00       	call   596 <ArtNetNode::HandleDmx()+0x596>
 596:	c9                   	leave  
 597:	c3                   	ret    

Disassembly of section .text._ZSt3maxIhERKT_S2_S2_:

0000000000000000 <unsigned char const& std::max<unsigned char>(unsigned char const&, unsigned char const&)>:
   0:	f3 0f 1e fa          	endbr64 
   4:	55                   	push   %rbp
   5:	48 89 e5             	mov    %rsp,%rbp
   8:	48 89 7d f8          	mov    %rdi,-0x8(%rbp)
   c:	48 89 75 f0          	mov    %rsi,-0x10(%rbp)
  10:	48 8b 45 f8          	mov    -0x8(%rbp),%rax
  14:	0f b6 10             	movzbl (%rax),%edx
  17:	48 8b 45 f0          	mov    -0x10(%rbp),%rax
  1b:	0f b6 00             	movzbl (%rax),%eax
  1e:	38 c2                	cmp    %al,%dl
  20:	73 06                	jae    28 <unsigned char const& std::max<unsigned char>(unsigned char const&, unsigned char const&)+0x28>
  22:	48 8b 45 f0          	mov    -0x10(%rbp),%rax
  26:	eb 04                	jmp    2c <unsigned char const& std::max<unsigned char>(unsigned char const&, unsigned char const&)+0x2c>
  28:	48 8b 45 f8          	mov    -0x8(%rbp),%rax
  2c:	5d                   	pop    %rbp
  2d:	c3                   	ret    

Disassembly of section .text._ZSt3minItERKT_S2_S2_:

0000000000000000 <unsigned short const& std::min<unsigned short>(unsigned short const&, unsigned short const&)>:
   0:	f3 0f 1e fa          	endbr64 
   4:	55                   	push   %rbp
   5:	48 89 e5             	mov    %rsp,%rbp
   8:	48 89 7d f8          	mov    %rdi,-0x8(%rbp)
   c:	48 89 75 f0          	mov    %rsi,-0x10(%rbp)
  10:	48 8b 45 f0          	mov    -0x10(%rbp),%rax
  14:	0f b7 10             	movzwl (%rax),%edx
  17:	48 8b 45 f8          	mov    -0x8(%rbp),%rax
  1b:	0f b7 00             	movzwl (%rax),%eax
  1e:	66 39 c2             	cmp    %ax,%dx
  21:	73 06                	jae    29 <unsigned short const& std::min<unsigned short>(unsigned short const&, unsigned short const&)+0x29>
  23:	48 8b 45 f0          	mov    -0x10(%rbp),%rax
  27:	eb 04                	jmp    2d <unsigned short const& std::min<unsigned short>(unsigned short const&, unsigned short const&)+0x2d>
  29:	48 8b 45 f8          	mov    -0x8(%rbp),%rax
  2d:	5d                   	pop    %rbp
  2e:	c3                   	ret    

artnetnodehandledmxin.o:     file format elf64-x86-64


Disassembly of section .text._ZN7Network3GetEv:

0000000000000000 <Network::Get()>:
   0:	f3 0f 1e fa          	endbr64 
   4:	55                   	push   %rbp
   5:	48 89 e5             	mov    %rsp,%rbp
   8:	48 8b 05 00 00 00 00 	mov    0x0(%rip),%rax        # f <Network::Get()+0xf>
   f:	5d                   	pop    %rbp
  10:	c3                   	ret    

Disassembly of section .text._ZN3halL12panel_led_onEj:

0000000000000000 <hal::panel_led_on(unsigned int)>:
   0:	55                   	push   %rbp
   1:	48 89 e5             	mov    %rsp,%rbp
   4:	89 7d fc             	mov    %edi,-0x4(%rbp)
   7:	90                   	nop
   8:	5d                   	pop    %rbp
   9:	c3                   	ret    

Disassembly of section .text._ZN3halL13panel_led_offEj:

0000000000000000 <hal::panel_led_off(unsigned int)>:
   0:	55                   	push   %rbp
   1:	48 89 e5             	mov    %rsp,%rbp
   4:	89 7d fc             	mov    %edi,-0x4(%rbp)
   7:	90                   	nop
   8:	5d                   	pop    %rbp
   9:	c3                   	ret    

Disassembly of section .text._ZN10ArtNetNode11HandleDmxInEv:

0000000000000000 <ArtNetNode::HandleDmxIn()>:
   0:	f3 0f 1e fa          	endbr64 
   4:	55                   	push   %rbp
   5:	48 89 e5             	mov    %rsp,%rbp
   8:	48 83 ec 30          	sub    $0x30,%rsp
   c:	48 89 7d d8          	mov    %rdi,-0x28(%rbp)
  10:	64 48 8b 04 25 28 00 	mov    %fs:0x28,%rax
  17:	00 00 
  19:	48 89 45 f8          	mov    %rax,-0x8(%rbp)
  1d:	31 c0                	xor    %eax,%eax
  1f:	c7 45 ec 00 00 00 00 	movl   $0x0,-0x14(%rbp)
  26:	e9 9d 02 00 00       	jmp    2c8 <ArtNetNode::HandleDmxIn()+0x2c8>
  2b:	48 8b 55 d8          	mov    -0x28(%rbp),%rdx
  2f:	8b 45 ec             	mov    -0x14(%rbp),%eax
  32:	48 83 c0 11          	add    $0x11,%rax
  36:	48 c1 e0 04          	shl    $0x4,%rax
  3a:	48 01 d0             	add    %rdx,%rax
  3d:	48 83 c0 08          	add    $0x8,%rax
  41:	0f b6 00             	movzbl (%rax),%eax
  44:	84 c0                	test   %al,%al
  46:	0f 84 78 02 00 00    	je     2c4 <ArtNetNode::HandleDmxIn()+0x2c4>
  4c:	48 8d 55 e8          	lea    -0x18(%rbp),%rdx
  50:	48 8d 4d e4          	lea    -0x1c(%rbp),%rcx
  54:	8b 45 ec             	mov    -0x14(%rbp),%eax
  57:	48 89 ce             	mov    %rcx,%rsi
  5a:	89 c7                	mov    %eax,%edi
  5c:	e8 00 00 00 00       	call   61 <ArtNetNode::HandleDmxIn()+0x61>
  61:	48 89 45 f0          	mov    %rax,-0x10(%rbp)
  65:	48 83 7d f0 00       	cmpq   $0x0,-0x10(%rbp)
  6a:	0f 84 a4 01 00 00    	je     214 <ArtNetNode::HandleDmxIn()+0x214>
  70:	48 8b 55 d8          	mov    -0x28(%rbp),%rdx
  74:	8b 45 ec             	mov    -0x14(%rbp),%eax
  77:	48 83 c0 11          	add    $0x11,%rax
  7b:	48 c1 e0 04          	shl    $0x4,%rax
  7f:	48 01 d0             	add    %rdx,%rax
  82:	48 83 c0 11          	add    $0x11,%rax
  86:	0f b6 00             	movzbl (%rax),%eax
  89:	8d 50 01             	lea    0x1(%rax),%edx
  8c:	48 8b 75 d8          	mov    -0x28(%rbp),%rsi
  90:	8b 4d ec             	mov    -0x14(%rbp),%ecx
  93:	48 83 c1 11          	add    $0x11,%rcx
  97:	48 c1 e1 04          	shl    $0x4,%rcx
  9b:	48 01 f1             	add    %rsi,%rcx
  9e:	48 83 c1 11          	add    $0x11,%rcx
  a2:	88 11                	mov    %dl,(%rcx)
  a4:	8d 50 01             	lea    0x1(%rax),%edx
  a7:	48 8b 45 d8          	mov    -0x28(%rbp),%rax
  ab:	88 90 27 07 00 00    	mov    %dl,0x727(%rax)
  b1:	8b 45 ec             	mov    -0x14(%rbp),%eax
  b4:	89 c2                	mov    %eax,%edx
  b6:	48 8b 45 d8          	mov    -0x28(%rbp),%rax
  ba:	88 90 28 07 00 00    	mov    %dl,0x728(%rax)
  c0:	48 8b 55 d8          	mov    -0x28(%rbp),%rdx
  c4:	8b 45 ec             	mov    -0x14(%rbp),%eax
  c7:	48 83 c0 11          	add    $0x11,%rax
  cb:	48 c1 e0 04          	shl    $0x4,%rax
  cf:	48 01 d0             	add    %rdx,%rax
  d2:	48 83 c0 04          	add    $0x4,%rax
  d6:	0f b7 10             	movzwl (%rax),%edx
  d9:	48 8b 45 d8          	mov    -0x28(%rbp),%rax
  dd:	66 89 90 29 07 00 00 	mov    %dx,0x729(%rax)
  e4:	8b 45 e4             	mov    -0x1c(%rbp),%eax
  e7:	89 c2                	mov    %eax,%edx
  e9:	48 8b 45 d8          	mov    -0x28(%rbp),%rax
  ed:	48 8d 88 2d 07 00 00 	lea    0x72d(%rax),%rcx
  f4:	48 8b 45 f0          	mov    -0x10(%rbp),%rax
  f8:	48 89 c6             	mov    %rax,%rsi
  fb:	48 89 cf             	mov    %rcx,%rdi
  fe:	e8 00 00 00 00       	call   103 <ArtNetNode::HandleDmxIn()+0x103>
 103:	8b 45 e4             	mov    -0x1c(%rbp),%eax
 106:	83 e0 01             	and    $0x1,%eax
 109:	85 c0                	test   %eax,%eax
 10b:	74 1a                	je     127 <ArtNetNode::HandleDmxIn()+0x127>
 10d:	8b 55 e4             	mov    -0x1c(%rbp),%edx
 110:	48 8b 45 d8          	mov    -0x28(%rbp),%rax
 114:	89 d2                	mov    %edx,%edx
 116:	c6 84 10 2d 07 00 00 	movb   $0x0,0x72d(%rax,%rdx,1)
 11d:	00 
 11e:	8b 45 e4             	mov    -0x1c(%rbp),%eax
 121:	83 c0 01             	add    $0x1,%eax
 124:	89 45 e4             	mov    %eax,-0x1c(%rbp)
 127:	8b 45 e4             	mov    -0x1c(%rbp),%eax
 12a:	c1 e8 08             	shr    $0x8,%eax
 12d:	89 c2                	mov    %eax,%edx
 12f:	48 8b 45 d8          	mov    -0x28(%rbp),%rax
 133:	88 90 2b 07 00 00    	mov    %dl,0x72b(%rax)
 139:	8b 45 e4             	mov    -0x1c(%rbp),%eax
 13c:	89 c2                	mov    %eax,%edx
 13e:	48 8b 45 d8          	mov    -0x28(%rbp),%rax
 142:	88 90 2c 07 00 00    	mov    %dl,0x72c(%rax)
 148:	48 8b 55 d8          	mov    -0x28(%rbp),%rdx
 14c:	8b 45 ec             	mov    -0x14(%rbp),%eax
 14f:	48 83 c0 11          	add    $0x11,%rax
 153:	48 c1 e0 04          	shl    $0x4,%rax
 157:	48 01 d0             	add    %rdx,%rax
 15a:	48 83 c0 10          	add    $0x10,%rax
 15e:	c6 00 80             	movb   $0x80,(%rax)
 161:	e8 00 00 00 00       	call   166 <ArtNetNode::HandleDmxIn()+0x166>
 166:	48 89 c7             	mov    %rax,%rdi
 169:	48 8b 55 d8          	mov    -0x28(%rbp),%rdx
 16d:	8b 45 ec             	mov    -0x14(%rbp),%eax
 170:	48 83 c0 11          	add    $0x11,%rax
 174:	48 c1 e0 04          	shl    $0x4,%rax
 178:	48 01 d0             	add    %rdx,%rax
 17b:	48 83 c0 0c          	add    $0xc,%rax
 17f:	8b 08                	mov    (%rax),%ecx
 181:	48 8b 45 d8          	mov    -0x28(%rbp),%rax
 185:	48 8d 90 1b 07 00 00 	lea    0x71b(%rax),%rdx
 18c:	48 8b 45 d8          	mov    -0x28(%rbp),%rax
 190:	8b 00                	mov    (%rax),%eax
 192:	41 b9 36 19 00 00    	mov    $0x1936,%r9d
 198:	41 89 c8             	mov    %ecx,%r8d
 19b:	b9 12 02 00 00       	mov    $0x212,%ecx
 1a0:	89 c6                	mov    %eax,%esi
 1a2:	e8 00 00 00 00       	call   1a7 <ArtNetNode::HandleDmxIn()+0x1a7>
 1a7:	8b 45 ec             	mov    -0x14(%rbp),%eax
 1aa:	ba 01 00 00 00       	mov    $0x1,%edx
 1af:	89 c1                	mov    %eax,%ecx
 1b1:	d3 e2                	shl    %cl,%edx
 1b3:	8b 05 00 00 00 00    	mov    0x0(%rip),%eax        # 1b9 <ArtNetNode::HandleDmxIn()+0x1b9>
 1b9:	21 c2                	and    %eax,%edx
 1bb:	8b 45 ec             	mov    -0x14(%rbp),%eax
 1be:	be 01 00 00 00       	mov    $0x1,%esi
 1c3:	89 c1                	mov    %eax,%ecx
 1c5:	d3 e6                	shl    %cl,%esi
 1c7:	89 f0                	mov    %esi,%eax
 1c9:	39 c2                	cmp    %eax,%edx
 1cb:	0f 84 f3 00 00 00    	je     2c4 <ArtNetNode::HandleDmxIn()+0x2c4>
 1d1:	8b 45 ec             	mov    -0x14(%rbp),%eax
 1d4:	ba 01 00 00 00       	mov    $0x1,%edx
 1d9:	89 c1                	mov    %eax,%ecx
 1db:	d3 e2                	shl    %cl,%edx
 1dd:	8b 05 00 00 00 00    	mov    0x0(%rip),%eax        # 1e3 <ArtNetNode::HandleDmxIn()+0x1e3>
 1e3:	09 d0                	or     %edx,%eax
 1e5:	89 05 00 00 00 00    	mov    %eax,0x0(%rip)        # 1eb <ArtNetNode::HandleDmxIn()+0x1eb>
 1eb:	48 8b 45 d8          	mov    -0x28(%rbp),%rax
 1ef:	0f b6 80 8d 00 00 00 	movzbl 0x8d(%rax),%eax
 1f6:	83 c8 01             	or     $0x1,%eax
 1f9:	89 c2                	mov    %eax,%edx
 1fb:	48 8b 45 d8          	mov    -0x28(%rbp),%rax
 1ff:	88 90 8d 00 00 00    	mov    %dl,0x8d(%rax)
 205:	bf 00 00 00 00       	mov    $0x0,%edi
 20a:	e8 00 00 00 00       	call   20f <ArtNetNode::HandleDmxIn()+0x20f>
 20f:	e9 b0 00 00 00       	jmp    2c4 <ArtNetNode::HandleDmxIn()+0x2c4>
 214:	48 8b 55 d8          	mov    -0x28(%rbp),%rdx
 218:	8b 45 ec             	mov    -0x14(%rbp),%eax
 21b:	48 83 c0 11          	add    $0x11,%rax
 21f:	48 c1 e0 04          	shl    $0x4,%rax
 223:	48 01 d0             	add    %rdx,%rax
 226:	48 83 c0 10          	add    $0x10,%rax
 22a:	0f b6 00             	movzbl (%rax),%eax
 22d:	84 c0                	test   %al,%al
 22f:	0f 89 8f 00 00 00    	jns    2c4 <ArtNetNode::HandleDmxIn()+0x2c4>
 235:	8b 45 e8             	mov    -0x18(%rbp),%eax
 238:	85 c0                	test   %eax,%eax
 23a:	0f 85 84 00 00 00    	jne    2c4 <ArtNetNode::HandleDmxIn()+0x2c4>
 240:	48 8b 55 d8          	mov    -0x28(%rbp),%rdx
 244:	8b 45 ec             	mov    -0x14(%rbp),%eax
 247:	48 83 c0 11          	add    $0x11,%rax
 24b:	48 c1 e0 04          	shl    $0x4,%rax
 24f:	48 01 d0             	add    %rdx,%rax
 252:	48 83 c0 10          	add    $0x10,%rax
 256:	0f b6 00             	movzbl (%rax),%eax
 259:	83 e0 7f             	and    $0x7f,%eax
 25c:	89 c2                	mov    %eax,%edx
 25e:	48 8b 4d d8          	mov    -0x28(%rbp),%rcx
 262:	8b 45 ec             	mov    -0x14(%rbp),%eax
 265:	48 83 c0 11          	add    $0x11,%rax
 269:	48 c1 e0 04          	shl    $0x4,%rax
 26d:	48 01 c8             	add    %rcx,%rax
 270:	48 83 c0 10          	add    $0x10,%rax
 274:	88 10                	mov    %dl,(%rax)
 276:	8b 45 ec             	mov    -0x14(%rbp),%eax
 279:	ba 01 00 00 00       	mov    $0x1,%edx
 27e:	89 c1                	mov    %eax,%ecx
 280:	d3 e2                	shl    %cl,%edx
 282:	89 d0                	mov    %edx,%eax
 284:	f7 d0                	not    %eax
 286:	89 c2                	mov    %eax,%edx
 288:	8b 05 00 00 00 00    	mov    0x0(%rip),%eax        # 28e <ArtNetNode::HandleDmxIn()+0x28e>
 28e:	21 d0                	and    %edx,%eax
 290:	89 05 00 00 00 00    	mov    %eax,0x0(%rip)        # 296 <ArtNetNode::HandleDmxIn()+0x296>
 296:	bf 00 00 00 00       	mov    $0x0,%edi
 29b:	e8 00 00 00 00       	call   2a0 <ArtNetNode::HandleDmxIn()+0x2a0>
 2a0:	8b 05 00 00 00 00    	mov    0x0(%rip),%eax        # 2a6 <ArtNetNode::HandleDmxIn()+0x2a6>
 2a6:	85 c0                	test   %eax,%eax
 2a8:	75 1a                	jne    2c4 <ArtNetNode::HandleDmxIn()+0x2c4>
 2aa:	48 8b 45 d8          	mov    -0x28(%rbp),%rax
 2ae:	0f b6 80 8d 00 00 00 	movzbl 0x8d(%rax),%eax
 2b5:	83 e0 fe             	and    $0xfffffffe,%eax
 2b8:	89 c2                	mov    %eax,%edx
 2ba:	48 8b 45 d8          	mov    -0x28(%rbp),%rax
 2be:	88 90 8d 00 00 00    	mov    %dl,0x8d(%rax)
 2c4:	83 45 ec 01          	addl   $0x1,-0x14(%rbp)
 2c8:	83 7d ec 03          	cmpl   $0x3,-0x14(%rbp)
 2cc:	0f 86 59 fd ff ff    	jbe    2b <ArtNetNode::HandleDmxIn()+0x2b>
 2d2:	90                   	nop
 2d3:	48 8b 45 f8          	mov    -0x8(%rbp),%rax
 2d7:	64 48 2b 04 25 28 00 	sub    %fs:0x28,%rax
 2de:	00 00 
 2e0:	74 05                	je     2e7 <ArtNetNode::HandleDmxIn()+0x2e7>
 2e2:	e8 00 00 00 00       	call   2e7 <ArtNetNode::HandleDmxIn()+0x2e7>
 2e7:	c9                   	leave  
 2e8:	c3                   	ret    

artnetnodehandleipprog.o:     file format elf64-x86-64


Disassembly of section .text._ZNK7Network5GetIpEv:

0000000000000000 <Network::GetIp() const>:
   0:	f3 0f 1e fa          	endbr64 
   4:	55                   	push   %rbp
   5:	48 89 e5             	mov    %rsp,%rbp
   8:	48 89 7d f8          	mov    %rdi,-0x8(%rbp)
   c:	48 8b 45 f8          	mov    -0x8(%rbp),%rax
  10:	8b 40 10             	mov    0x10(%rax),%eax
  13:	5d                   	pop    %rbp
  14:	c3                   	ret    

Disassembly of section .text._ZN7Network10EnableDhcpEv:

0000000000000000 <Network::EnableDhcp()>:
   0:	f3 0f 1e fa          	endbr64 
   4:	55                   	push   %rbp
   5:	48 89 e5             	mov    %rsp,%rbp
   8:	48 89 7d f8          	mov    %rdi,-0x8(%rbp)
   c:	b8 00 00 00 00       	mov    $0x0,%eax
  11:	5d                   	pop    %rbp
  12:	c3                   	ret    

Disassembly of section .text._ZNK7Network12GetGatewayIpEv:

0000000000000000 <Network::GetGatewayIp() const>:
   0:	f3 0f 1e fa          	endbr64 
   4:	55                   	push   %rbp
   5:	48 89 e5             	mov    %rsp,%rbp
   8:	48 89 7d f8          	mov    %rdi,-0x8(%rbp)
   c:	48 8b 45 f8          	mov    -0x8(%rbp),%rax
  10:	8b 40 14             	mov    0x14(%rax),%eax
  13:	5d                   	pop    %rbp
  14:	c3                   	ret    

Disassembly of section .text._ZNK7Network10GetNetmaskEv:

0000000000000000 <Network::GetNetmask() const>:
   0:	f3 0f 1e fa          	endbr64 
   4:	55                   	push   %rbp
   5:	48 89 e5             	mov    %rsp,%rbp
   8:	48 89 7d f8          	mov    %rdi,-0x8(%rbp)
   c:	48 8b 45 f8          	mov    -0x8(%rbp),%rax
  10:	8b 40 18             	mov    0x18(%rax),%eax
  13:	5d                   	pop    %rbp
  14:	c3                   	ret    

Disassembly of section .text._ZNK7Network10IsDhcpUsedEv:

0000000000000000 <Network::IsDhcpUsed() const>:
   0:	f3 0f 1e fa          	endbr64 
   4:	55                   	push   %rbp
   5:	48 89 e5             	mov    %rsp,%rbp
   8:	48 89 7d f8          	mov    %rdi,-0x8(%rbp)
   c:	48 8b 45 f8          	mov    -0x8(%rbp),%rax
  10:	0f b6 40 01          	movzbl 0x1(%rax),%eax
  14:	5d                   	pop    %rbp
  15:	c3                   	ret    

Disassembly of section .text._ZN7Network3GetEv:

0000000000000000 <Network::Get()>:
   0:	f3 0f 1e fa          	endbr64 
   4:	55                   	push   %rbp
   5:	48 89 e5             	mov    %rsp,%rbp
   8:	48 8b 05 00 00 00 00 	mov    0x0(%rip),%rax        # f <Network::Get()+0xf>
   f:	5d                   	pop    %rbp
  10:	c3                   	ret    

Disassembly of section .text._ZN10ArtNetNode12HandleIpProgEv:

0000000000000000 <ArtNetNode::HandleIpProg()>:
   0:	f3 0f 1e fa          	endbr64 
   4:	55                   	push   %rbp
   5:	48 89 e5             	mov    %rsp,%rbp
   8:	53                   	push   %rbx
   9:	48 83 ec 38          	sub    $0x38,%rsp
   d:	48 89 7d c8          	mov    %rdi,-0x38(%rbp)
  11:	e8 00 00 00 00       	call   16 <ArtNetNode::HandleIpProg()+0x16>
  16:	85 c0                	test   %eax,%eax
  18:	0f 95 c0             	setne  %al
  1b:	84 c0                	test   %al,%al
  1d:	0f 85 48 03 00 00    	jne    36b <ArtNetNode::HandleIpProg()+0x36b>
  23:	48 8b 45 c8          	mov    -0x38(%rbp),%rax
  27:	48 05 54 01 00 00    	add    $0x154,%rax
  2d:	48 89 45 e0          	mov    %rax,-0x20(%rbp)
  31:	48 8b 45 e0          	mov    -0x20(%rbp),%rax
  35:	0f b6 40 0e          	movzbl 0xe(%rax),%eax
  39:	88 45 dd             	mov    %al,-0x23(%rbp)
  3c:	48 8b 45 c8          	mov    -0x38(%rbp),%rax
  40:	48 05 54 01 00 00    	add    $0x154,%rax
  46:	48 89 45 e8          	mov    %rax,-0x18(%rbp)
  4a:	e8 00 00 00 00       	call   4f <ArtNetNode::HandleIpProg()+0x4f>
  4f:	48 89 c7             	mov    %rax,%rdi
  52:	e8 00 00 00 00       	call   57 <ArtNetNode::HandleIpProg()+0x57>
  57:	88 45 de             	mov    %al,-0x22(%rbp)
  5a:	48 8b 45 e8          	mov    -0x18(%rbp),%rax
  5e:	66 c7 40 08 00 f9    	movw   $0xf900,0x8(%rax)
  64:	0f b6 45 dd          	movzbl -0x23(%rbp),%eax
  68:	25 c0 00 00 00       	and    $0xc0,%eax
  6d:	3d c0 00 00 00       	cmp    $0xc0,%eax
  72:	75 0d                	jne    81 <ArtNetNode::HandleIpProg()+0x81>
  74:	e8 00 00 00 00       	call   79 <ArtNetNode::HandleIpProg()+0x79>
  79:	48 89 c7             	mov    %rax,%rdi
  7c:	e8 00 00 00 00       	call   81 <ArtNetNode::HandleIpProg()+0x81>
  81:	0f b6 45 dd          	movzbl -0x23(%rbp),%eax
  85:	25 88 00 00 00       	and    $0x88,%eax
  8a:	3d 88 00 00 00       	cmp    $0x88,%eax
  8f:	75 12                	jne    a3 <ArtNetNode::HandleIpProg()+0xa3>
  91:	e8 00 00 00 00       	call   96 <ArtNetNode::HandleIpProg()+0x96>
  96:	be 00 00 00 00       	mov    $0x0,%esi
  9b:	48 89 c7             	mov    %rax,%rdi
  9e:	e8 00 00 00 00       	call   a3 <ArtNetNode::HandleIpProg()+0xa3>
  a3:	0f b6 45 dd          	movzbl -0x23(%rbp),%eax
  a7:	25 84 00 00 00       	and    $0x84,%eax
  ac:	3d 84 00 00 00       	cmp    $0x84,%eax
  b1:	75 28                	jne    db <ArtNetNode::HandleIpProg()+0xdb>
  b3:	48 8b 45 e0          	mov    -0x20(%rbp),%rax
  b7:	48 83 c0 10          	add    $0x10,%rax
  bb:	8b 00                	mov    (%rax),%eax
  bd:	89 05 00 00 00 00    	mov    %eax,0x0(%rip)        # c3 <ArtNetNode::HandleIpProg()+0xc3>
  c3:	e8 00 00 00 00       	call   c8 <ArtNetNode::HandleIpProg()+0xc8>
  c8:	48 89 c2             	mov    %rax,%rdx
  cb:	8b 05 00 00 00 00    	mov    0x0(%rip),%eax        # d1 <ArtNetNode::HandleIpProg()+0xd1>
  d1:	89 c6                	mov    %eax,%esi
  d3:	48 89 d7             	mov    %rdx,%rdi
  d6:	e8 00 00 00 00       	call   db <ArtNetNode::HandleIpProg()+0xdb>
  db:	0f b6 45 dd          	movzbl -0x23(%rbp),%eax
  df:	25 82 00 00 00       	and    $0x82,%eax
  e4:	3d 82 00 00 00       	cmp    $0x82,%eax
  e9:	75 28                	jne    113 <ArtNetNode::HandleIpProg()+0x113>
  eb:	48 8b 45 e0          	mov    -0x20(%rbp),%rax
  ef:	48 83 c0 14          	add    $0x14,%rax
  f3:	8b 00                	mov    (%rax),%eax
  f5:	89 05 00 00 00 00    	mov    %eax,0x0(%rip)        # fb <ArtNetNode::HandleIpProg()+0xfb>
  fb:	e8 00 00 00 00       	call   100 <ArtNetNode::HandleIpProg()+0x100>
 100:	48 89 c2             	mov    %rax,%rdx
 103:	8b 05 00 00 00 00    	mov    0x0(%rip),%eax        # 109 <ArtNetNode::HandleIpProg()+0x109>
 109:	89 c6                	mov    %eax,%esi
 10b:	48 89 d7             	mov    %rdx,%rdi
 10e:	e8 00 00 00 00       	call   113 <ArtNetNode::HandleIpProg()+0x113>
 113:	0f b6 45 dd          	movzbl -0x23(%rbp),%eax
 117:	25 90 00 00 00       	and    $0x90,%eax
 11c:	3d 90 00 00 00       	cmp    $0x90,%eax
 121:	75 28                	jne    14b <ArtNetNode::HandleIpProg()+0x14b>
 123:	48 8b 45 e0          	mov    -0x20(%rbp),%rax
 127:	48 83 c0 1a          	add    $0x1a,%rax
 12b:	8b 00                	mov    (%rax),%eax
 12d:	89 05 00 00 00 00    	mov    %eax,0x0(%rip)        # 133 <ArtNetNode::HandleIpProg()+0x133>
 133:	e8 00 00 00 00       	call   138 <ArtNetNode::HandleIpProg()+0x138>
 138:	48 89 c2             	mov    %rax,%rdx
 13b:	8b 05 00 00 00 00    	mov    0x0(%rip),%eax        # 141 <ArtNetNode::HandleIpProg()+0x141>
 141:	89 c6                	mov    %eax,%esi
 143:	48 89 d7             	mov    %rdx,%rdi
 146:	e8 00 00 00 00       	call   14b <ArtNetNode::HandleIpProg()+0x14b>
 14b:	e8 00 00 00 00       	call   150 <ArtNetNode::HandleIpProg()+0x150>
 150:	48 89 c7             	mov    %rax,%rdi
 153:	e8 00 00 00 00       	call   158 <ArtNetNode::HandleIpProg()+0x158>
 158:	84 c0                	test   %al,%al
 15a:	74 0a                	je     166 <ArtNetNode::HandleIpProg()+0x166>
 15c:	48 8b 45 e8          	mov    -0x18(%rbp),%rax
 160:	c6 40 1a 40          	movb   $0x40,0x1a(%rax)
 164:	eb 08                	jmp    16e <ArtNetNode::HandleIpProg()+0x16e>
 166:	48 8b 45 e8          	mov    -0x18(%rbp),%rax
 16a:	c6 40 1a 00          	movb   $0x0,0x1a(%rax)
 16e:	48 8b 45 e8          	mov    -0x18(%rbp),%rax
 172:	c6 40 1b 00          	movb   $0x0,0x1b(%rax)
 176:	e8 00 00 00 00       	call   17b <ArtNetNode::HandleIpProg()+0x17b>
 17b:	48 89 c7             	mov    %rax,%rdi
 17e:	e8 00 00 00 00       	call   183 <ArtNetNode::HandleIpProg()+0x183>
 183:	38 45 de             	cmp    %al,-0x22(%rbp)
 186:	0f 95 c0             	setne  %al
 189:	88 45 df             	mov    %al,-0x21(%rbp)
 18c:	e8 00 00 00 00       	call   191 <ArtNetNode::HandleIpProg()+0x191>
 191:	48 89 c7             	mov    %rax,%rdi
 194:	e8 00 00 00 00       	call   199 <ArtNetNode::HandleIpProg()+0x199>
 199:	89 05 00 00 00 00    	mov    %eax,0x0(%rip)        # 19f <ArtNetNode::HandleIpProg()+0x19f>
 19f:	0f b6 5d df          	movzbl -0x21(%rbp),%ebx
 1a3:	48 8b 45 e0          	mov    -0x20(%rbp),%rax
 1a7:	48 83 c0 10          	add    $0x10,%rax
 1ab:	ba 04 00 00 00       	mov    $0x4,%edx
 1b0:	48 8d 0d 00 00 00 00 	lea    0x0(%rip),%rcx        # 1b7 <ArtNetNode::HandleIpProg()+0x1b7>
 1b7:	48 89 ce             	mov    %rcx,%rsi
 1ba:	48 89 c7             	mov    %rax,%rdi
 1bd:	e8 00 00 00 00       	call   1c2 <ArtNetNode::HandleIpProg()+0x1c2>
 1c2:	85 c0                	test   %eax,%eax
 1c4:	0f 95 c0             	setne  %al
 1c7:	0f b6 c0             	movzbl %al,%eax
 1ca:	09 d8                	or     %ebx,%eax
 1cc:	85 c0                	test   %eax,%eax
 1ce:	0f 95 c0             	setne  %al
 1d1:	88 45 df             	mov    %al,-0x21(%rbp)
 1d4:	48 8b 45 e8          	mov    -0x18(%rbp),%rax
 1d8:	48 8d 50 10          	lea    0x10(%rax),%rdx
 1dc:	8b 05 00 00 00 00    	mov    0x0(%rip),%eax        # 1e2 <ArtNetNode::HandleIpProg()+0x1e2>
 1e2:	89 02                	mov    %eax,(%rdx)
 1e4:	e8 00 00 00 00       	call   1e9 <ArtNetNode::HandleIpProg()+0x1e9>
 1e9:	48 89 c7             	mov    %rax,%rdi
 1ec:	e8 00 00 00 00       	call   1f1 <ArtNetNode::HandleIpProg()+0x1f1>
 1f1:	89 05 00 00 00 00    	mov    %eax,0x0(%rip)        # 1f7 <ArtNetNode::HandleIpProg()+0x1f7>
 1f7:	0f b6 5d df          	movzbl -0x21(%rbp),%ebx
 1fb:	48 8b 45 e0          	mov    -0x20(%rbp),%rax
 1ff:	48 83 c0 14          	add    $0x14,%rax
 203:	ba 04 00 00 00       	mov    $0x4,%edx
 208:	48 8d 0d 00 00 00 00 	lea    0x0(%rip),%rcx        # 20f <ArtNetNode::HandleIpProg()+0x20f>
 20f:	48 89 ce             	mov    %rcx,%rsi
 212:	48 89 c7             	mov    %rax,%rdi
 215:	e8 00 00 00 00       	call   21a <ArtNetNode::HandleIpProg()+0x21a>
 21a:	85 c0                	test   %eax,%eax
 21c:	0f 95 c0             	setne  %al
 21f:	0f b6 c0             	movzbl %al,%eax
 222:	09 d8                	or     %ebx,%eax
 224:	85 c0                	test   %eax,%eax
 226:	0f 95 c0             	setne  %al
 229:	88 45 df             	mov    %al,-0x21(%rbp)
 22c:	48 8b 45 e8          	mov    -0x18(%rbp),%rax
 230:	48 8d 50 14          	lea    0x14(%rax),%rdx
 234:	8b 05 00 00 00 00    	mov    0x0(%rip),%eax        # 23a <ArtNetNode::HandleIpProg()+0x23a>
 23a:	89 02                	mov    %eax,(%rdx)
 23c:	e8 00 00 00 00       	call   241 <ArtNetNode::HandleIpProg()+0x241>
 241:	48 89 c7             	mov    %rax,%rdi
 244:	e8 00 00 00 00       	call   249 <ArtNetNode::HandleIpProg()+0x249>
 249:	89 05 00 00 00 00    	mov    %eax,0x0(%rip)        # 24f <ArtNetNode::HandleIpProg()+0x24f>
 24f:	0f b6 5d df          	movzbl -0x21(%rbp),%ebx
 253:	48 8b 45 e0          	mov    -0x20(%rbp),%rax
 257:	48 83 c0 1a          	add    $0x1a,%rax
 25b:	ba 04 00 00 00       	mov    $0x4,%edx
 260:	48 8d 0d 00 00 00 00 	lea    0x0(%rip),%rcx        # 267 <ArtNetNode::HandleIpProg()+0x267>
 267:	48 89 ce             	mov    %rcx,%rsi
 26a:	48 89 c7             	mov    %rax,%rdi
 26d:	e8 00 00 00 00       	call   272 <ArtNetNode::HandleIpProg()+0x272>
 272:	85 c0                	test   %eax,%eax
 274:	0f 95 c0             	setne  %al
 277:	0f b6 c0             	movzbl %al,%eax
 27a:	09 d8                	or     %ebx,%eax
 27c:	85 c0                	test   %eax,%eax
 27e:	0f 95 c0             	setne  %al
 281:	88 45 df             	mov    %al,-0x21(%rbp)
 284:	48 8b 45 e8          	mov    -0x18(%rbp),%rax
 288:	48 8d 50 1c          	lea    0x1c(%rax),%rdx
 28c:	8b 05 00 00 00 00    	mov    0x0(%rip),%eax        # 292 <ArtNetNode::HandleIpProg()+0x292>
 292:	89 02                	mov    %eax,(%rdx)
 294:	48 8b 45 e8          	mov    -0x18(%rbp),%rax
 298:	c6 40 20 00          	movb   $0x0,0x20(%rax)
 29c:	48 8b 45 e8          	mov    -0x18(%rbp),%rax
 2a0:	c6 40 21 00          	movb   $0x0,0x21(%rax)
 2a4:	e8 00 00 00 00       	call   2a9 <ArtNetNode::HandleIpProg()+0x2a9>
 2a9:	48 89 c7             	mov    %rax,%rdi
 2ac:	48 8b 45 c8          	mov    -0x38(%rbp),%rax
 2b0:	8b 88 20 06 00 00    	mov    0x620(%rax),%ecx
 2b6:	48 8b 45 c8          	mov    -0x38(%rbp),%rax
 2ba:	48 8d 90 54 01 00 00 	lea    0x154(%rax),%rdx
 2c1:	48 8b 45 c8          	mov    -0x38(%rbp),%rax
 2c5:	8b 00                	mov    (%rax),%eax
 2c7:	41 b9 36 19 00 00    	mov    $0x1936,%r9d
 2cd:	41 89 c8             	mov    %ecx,%r8d
 2d0:	b9 22 00 00 00       	mov    $0x22,%ecx
 2d5:	89 c6                	mov    %eax,%esi
 2d7:	e8 00 00 00 00       	call   2dc <ArtNetNode::HandleIpProg()+0x2dc>
 2dc:	80 7d df 00          	cmpb   $0x0,-0x21(%rbp)
 2e0:	0f 84 86 00 00 00    	je     36c <ArtNetNode::HandleIpProg()+0x36c>
 2e6:	48 8b 45 c8          	mov    -0x38(%rbp),%rax
 2ea:	0f b6 40 68          	movzbl 0x68(%rax),%eax
 2ee:	83 e0 fd             	and    $0xfffffffd,%eax
 2f1:	89 c3                	mov    %eax,%ebx
 2f3:	e8 00 00 00 00       	call   2f8 <ArtNetNode::HandleIpProg()+0x2f8>
 2f8:	48 89 c7             	mov    %rax,%rdi
 2fb:	e8 00 00 00 00       	call   300 <ArtNetNode::HandleIpProg()+0x300>
 300:	84 c0                	test   %al,%al
 302:	74 07                	je     30b <ArtNetNode::HandleIpProg()+0x30b>
 304:	b8 02 00 00 00       	mov    $0x2,%eax
 309:	eb 05                	jmp    310 <ArtNetNode::HandleIpProg()+0x310>
 30b:	b8 00 00 00 00       	mov    $0x0,%eax
 310:	09 d8                	or     %ebx,%eax
 312:	89 c2                	mov    %eax,%edx
 314:	48 8b 45 c8          	mov    -0x38(%rbp),%rax
 318:	88 50 68             	mov    %dl,0x68(%rax)
 31b:	48 8b 45 e8          	mov    -0x18(%rbp),%rax
 31f:	48 83 c0 10          	add    $0x10,%rax
 323:	48 8b 55 c8          	mov    -0x38(%rbp),%rdx
 327:	48 81 c2 36 06 00 00 	add    $0x636,%rdx
 32e:	8b 00                	mov    (%rax),%eax
 330:	89 02                	mov    %eax,(%rdx)
 332:	48 8b 45 e8          	mov    -0x18(%rbp),%rax
 336:	48 83 c0 10          	add    $0x10,%rax
 33a:	48 8b 55 c8          	mov    -0x38(%rbp),%rdx
 33e:	48 81 c2 fb 06 00 00 	add    $0x6fb,%rdx
 345:	8b 00                	mov    (%rax),%eax
 347:	89 02                	mov    %eax,(%rdx)
 349:	48 8b 45 c8          	mov    -0x38(%rbp),%rax
 34d:	0f b6 80 86 00 00 00 	movzbl 0x86(%rax),%eax
 354:	84 c0                	test   %al,%al
 356:	74 14                	je     36c <ArtNetNode::HandleIpProg()+0x36c>
 358:	48 8b 45 c8          	mov    -0x38(%rbp),%rax
 35c:	be 01 00 00 00       	mov    $0x1,%esi
 361:	48 89 c7             	mov    %rax,%rdi
 364:	e8 00 00 00 00       	call   369 <ArtNetNode::HandleIpProg()+0x369>
 369:	eb 01                	jmp    36c <ArtNetNode::HandleIpProg()+0x36c>
 36b:	90                   	nop
 36c:	48 8b 5d f8          	mov    -0x8(%rbp),%rbx
 370:	c9                   	leave  
 371:	c3                   	ret    

artnetnodehandlepoll.o:     file format elf64-x86-64


Disassembly of section .text._ZN8Hardware3GetEv:

0000000000000000 <Hardware::Get()>:
   0:	f3 0f 1e fa          	endbr64 
   4:	55                   	push   %rbp
   5:	48 89 e5             	mov    %rsp,%rbp
   8:	48 8b 05 00 00 00 00 	mov    0x0(%rip),%rax        # f <Hardware::Get()+0xf>
   f:	5d                   	pop    %rbp
  10:	c3                   	ret    

Disassembly of section .text._ZNK7Network5GetIpEv:

0000000000000000 <Network::GetIp() const>:
   0:	f3 0f 1e fa          	endbr64 
   4:	55                   	push   %rbp
   5:	48 89 e5             	mov    %rsp,%rbp
   8:	48 89 7d f8          	mov    %rdi,-0x8(%rbp)
   c:	48 8b 45 f8          	mov    -0x8(%rbp),%rax
  10:	8b 40 10             	mov    0x10(%rax),%eax
  13:	5d                   	pop    %rbp
  14:	c3                   	ret    

Disassembly of section .text._ZN7Network3GetEv:

0000000000000000 <Network::Get()>:
   0:	f3 0f 1e fa          	endbr64 
   4:	55                   	push   %rbp
   5:	48 89 e5             	mov    %rsp,%rbp
   8:	48 8b 05 00 00 00 00 	mov    0x0(%rip),%rax        # f <Network::Get()+0xf>
   f:	5d                   	pop    %rbp
  10:	c3                   	ret    

Disassembly of section .text._ZN10ArtNetNode13FillPollReplyEv:

0000000000000000 <ArtNetNode::FillPollReply()>:
   0:	f3 0f 1e fa          	endbr64 
   4:	55                   	push   %rbp
   5:	48 89 e5             	mov    %rsp,%rbp
   8:	48 83 ec 10          	sub    $0x10,%rsp
   c:	48 89 7d f8          	mov    %rdi,-0x8(%rbp)
  10:	48 8b 45 f8          	mov    -0x8(%rbp),%rax
  14:	48 05 2c 06 00 00    	add    $0x62c,%rax
  1a:	ba ef 00 00 00       	mov    $0xef,%edx
  1f:	be 00 00 00 00       	mov    $0x0,%esi
  24:	48 89 c7             	mov    %rax,%rdi
  27:	e8 00 00 00 00       	call   2c <ArtNetNode::FillPollReply()+0x2c>
  2c:	48 8b 45 f8          	mov    -0x8(%rbp),%rax
  30:	48 8d 90 2c 06 00 00 	lea    0x62c(%rax),%rdx
  37:	48 8b 05 00 00 00 00 	mov    0x0(%rip),%rax        # 3e <ArtNetNode::FillPollReply()+0x3e>
  3e:	48 89 02             	mov    %rax,(%rdx)
  41:	48 8b 45 f8          	mov    -0x8(%rbp),%rax
  45:	66 c7 80 34 06 00 00 	movw   $0x2100,0x634(%rax)
  4c:	00 21 
  4e:	e8 00 00 00 00       	call   53 <ArtNetNode::FillPollReply()+0x53>
  53:	48 89 c7             	mov    %rax,%rdi
  56:	e8 00 00 00 00       	call   5b <ArtNetNode::FillPollReply()+0x5b>
  5b:	89 05 00 00 00 00    	mov    %eax,0x0(%rip)        # 61 <ArtNetNode::FillPollReply()+0x61>
  61:	48 8b 45 f8          	mov    -0x8(%rbp),%rax
  65:	48 8d 90 36 06 00 00 	lea    0x636(%rax),%rdx
  6c:	8b 05 00 00 00 00    	mov    0x0(%rip),%eax        # 72 <ArtNetNode::FillPollReply()+0x72>
  72:	89 02                	mov    %eax,(%rdx)
  74:	48 8b 45 f8          	mov    -0x8(%rbp),%rax
  78:	66 c7 80 3a 06 00 00 	movw   $0x1936,0x63a(%rax)
  7f:	36 19 
  81:	0f b6 15 00 00 00 00 	movzbl 0x0(%rip),%edx        # 88 <ArtNetNode::FillPollReply()+0x88>
  88:	48 8b 45 f8          	mov    -0x8(%rbp),%rax
  8c:	88 90 3c 06 00 00    	mov    %dl,0x63c(%rax)
  92:	0f b6 15 00 00 00 00 	movzbl 0x0(%rip),%edx        # 99 <ArtNetNode::FillPollReply()+0x99>
  99:	48 8b 45 f8          	mov    -0x8(%rbp),%rax
  9d:	88 90 3d 06 00 00    	mov    %dl,0x63d(%rax)
  a3:	0f b6 15 00 00 00 00 	movzbl 0x0(%rip),%edx        # aa <ArtNetNode::FillPollReply()+0xaa>
  aa:	48 8b 45 f8          	mov    -0x8(%rbp),%rax
  ae:	88 90 40 06 00 00    	mov    %dl,0x640(%rax)
  b4:	0f b6 15 00 00 00 00 	movzbl 0x0(%rip),%edx        # bb <ArtNetNode::FillPollReply()+0xbb>
  bb:	48 8b 45 f8          	mov    -0x8(%rbp),%rax
  bf:	88 90 41 06 00 00    	mov    %dl,0x641(%rax)
  c5:	0f b6 15 00 00 00 00 	movzbl 0x0(%rip),%edx        # cc <ArtNetNode::FillPollReply()+0xcc>
  cc:	48 8b 45 f8          	mov    -0x8(%rbp),%rax
  d0:	88 90 44 06 00 00    	mov    %dl,0x644(%rax)
  d6:	0f b6 15 00 00 00 00 	movzbl 0x0(%rip),%edx        # dd <ArtNetNode::FillPollReply()+0xdd>
  dd:	48 8b 45 f8          	mov    -0x8(%rbp),%rax
  e1:	88 90 45 06 00 00    	mov    %dl,0x645(%rax)
  e7:	48 8b 45 f8          	mov    -0x8(%rbp),%rax
  eb:	48 8d 48 14          	lea    0x14(%rax),%rcx
  ef:	48 8b 45 f8          	mov    -0x8(%rbp),%rax
  f3:	48 05 46 06 00 00    	add    $0x646,%rax
  f9:	ba 12 00 00 00       	mov    $0x12,%edx
  fe:	48 89 ce             	mov    %rcx,%rsi
 101:	48 89 c7             	mov    %rax,%rdi
 104:	e8 00 00 00 00       	call   109 <ArtNetNode::FillPollReply()+0x109>
 109:	48 8b 45 f8          	mov    -0x8(%rbp),%rax
 10d:	48 8d 48 26          	lea    0x26(%rax),%rcx
 111:	48 8b 45 f8          	mov    -0x8(%rbp),%rax
 115:	48 05 58 06 00 00    	add    $0x658,%rax
 11b:	ba 40 00 00 00       	mov    $0x40,%edx
 120:	48 89 ce             	mov    %rcx,%rsi
 123:	48 89 c7             	mov    %rax,%rdi
 126:	e8 00 00 00 00       	call   12b <ArtNetNode::FillPollReply()+0x12b>
 12b:	48 8b 45 f8          	mov    -0x8(%rbp),%rax
 12f:	c6 80 f4 06 00 00 00 	movb   $0x0,0x6f4(%rax)
 136:	48 8b 45 f8          	mov    -0x8(%rbp),%rax
 13a:	48 8d 48 0c          	lea    0xc(%rax),%rcx
 13e:	48 8b 45 f8          	mov    -0x8(%rbp),%rax
 142:	48 05 f5 06 00 00    	add    $0x6f5,%rax
 148:	ba 06 00 00 00       	mov    $0x6,%edx
 14d:	48 89 ce             	mov    %rcx,%rsi
 150:	48 89 c7             	mov    %rax,%rdi
 153:	e8 00 00 00 00       	call   158 <ArtNetNode::FillPollReply()+0x158>
 158:	48 8b 45 f8          	mov    -0x8(%rbp),%rax
 15c:	48 8d 90 fb 06 00 00 	lea    0x6fb(%rax),%rdx
 163:	8b 05 00 00 00 00    	mov    0x0(%rip),%eax        # 169 <ArtNetNode::FillPollReply()+0x169>
 169:	89 02                	mov    %eax,(%rdx)
 16b:	48 8b 45 f8          	mov    -0x8(%rbp),%rax
 16f:	48 8d 48 6a          	lea    0x6a(%rax),%rcx
 173:	48 8b 45 f8          	mov    -0x8(%rbp),%rax
 177:	48 05 06 07 00 00    	add    $0x706,%rax
 17d:	ba 06 00 00 00       	mov    $0x6,%edx
 182:	48 89 ce             	mov    %rcx,%rsi
 185:	48 89 c7             	mov    %rax,%rdi
 188:	e8 00 00 00 00       	call   18d <ArtNetNode::FillPollReply()+0x18d>
 18d:	90                   	nop
 18e:	c9                   	leave  
 18f:	c3                   	ret    

Disassembly of section .text._ZN10ArtNetNode17ProcessPollRelplyEjRjS0_:

0000000000000000 <ArtNetNode::ProcessPollRelply(unsigned int, unsigned int&, unsigned int&)>:
   0:	f3 0f 1e fa          	endbr64 
   4:	55                   	push   %rbp
   5:	48 89 e5             	mov    %rsp,%rbp
   8:	48 83 ec 30          	sub    $0x30,%rsp
   c:	48 89 7d e8          	mov    %rdi,-0x18(%rbp)
  10:	89 75 e4             	mov    %esi,-0x1c(%rbp)
  13:	48 89 55 d8          	mov    %rdx,-0x28(%rbp)
  17:	48 89 4d d0          	mov    %rcx,-0x30(%rbp)
  1b:	48 8b 55 e8          	mov    -0x18(%rbp),%rdx
  1f:	8b 45 e4             	mov    -0x1c(%rbp),%eax
  22:	48 83 c0 05          	add    $0x5,%rax
  26:	48 c1 e0 05          	shl    $0x5,%rax
  2a:	48 01 d0             	add    %rdx,%rax
  2d:	48 83 c0 0c          	add    $0xc,%rax
  31:	8b 00                	mov    (%rax),%eax
  33:	83 f8 01             	cmp    $0x1,%eax
  36:	0f 85 a2 00 00 00    	jne    de <ArtNetNode::ProcessPollRelply(unsigned int, unsigned int&, unsigned int&)+0xde>
  3c:	c7 45 fc 89 00 00 00 	movl   $0x89,-0x4(%rbp)
  43:	48 8b 55 e8          	mov    -0x18(%rbp),%rdx
  47:	8b 45 e4             	mov    -0x1c(%rbp),%eax
  4a:	48 83 c0 05          	add    $0x5,%rax
  4e:	48 c1 e0 05          	shl    $0x5,%rax
  52:	48 01 d0             	add    %rdx,%rax
  55:	48 83 c0 12          	add    $0x12,%rax
  59:	0f b6 00             	movzbl (%rax),%eax
  5c:	88 45 fa             	mov    %al,-0x6(%rbp)
  5f:	80 65 fa 76          	andb   $0x76,-0x6(%rbp)
  63:	48 8b 45 e8          	mov    -0x18(%rbp),%rax
  67:	48 8b 80 70 0a 00 00 	mov    0xa70(%rax),%rax
  6e:	48 8b 55 e8          	mov    -0x18(%rbp),%rdx
  72:	48 8b 92 70 0a 00 00 	mov    0xa70(%rdx),%rdx
  79:	48 8b 12             	mov    (%rdx),%rdx
  7c:	48 83 c2 20          	add    $0x20,%rdx
  80:	48 8b 0a             	mov    (%rdx),%rcx
  83:	8b 55 e4             	mov    -0x1c(%rbp),%edx
  86:	89 d6                	mov    %edx,%esi
  88:	48 89 c7             	mov    %rax,%rdi
  8b:	ff d1                	call   *%rcx
  8d:	83 e0 89             	and    $0xffffff89,%eax
  90:	89 c2                	mov    %eax,%edx
  92:	0f b6 45 fa          	movzbl -0x6(%rbp),%eax
  96:	09 d0                	or     %edx,%eax
  98:	88 45 fa             	mov    %al,-0x6(%rbp)
  9b:	0f b6 45 fa          	movzbl -0x6(%rbp),%eax
  9f:	83 e0 01             	and    $0x1,%eax
  a2:	85 c0                	test   %eax,%eax
  a4:	75 1c                	jne    c2 <ArtNetNode::ProcessPollRelply(unsigned int, unsigned int&, unsigned int&)+0xc2>
  a6:	48 8b 55 e8          	mov    -0x18(%rbp),%rdx
  aa:	8b 45 e4             	mov    -0x1c(%rbp),%eax
  ad:	48 83 c0 05          	add    $0x5,%rax
  b1:	48 c1 e0 05          	shl    $0x5,%rax
  b5:	48 01 d0             	add    %rdx,%rax
  b8:	48 83 c0 0c          	add    $0xc,%rax
  bc:	c7 00 00 00 00 00    	movl   $0x0,(%rax)
  c2:	48 8b 55 e8          	mov    -0x18(%rbp),%rdx
  c6:	8b 45 e4             	mov    -0x1c(%rbp),%eax
  c9:	48 83 c0 05          	add    $0x5,%rax
  cd:	48 c1 e0 05          	shl    $0x5,%rax
  d1:	48 01 d0             	add    %rdx,%rax
  d4:	48 8d 50 12          	lea    0x12(%rax),%rdx
  d8:	0f b6 45 fa          	movzbl -0x6(%rbp),%eax
  dc:	88 02                	mov    %al,(%rdx)
  de:	48 8b 55 e8          	mov    -0x18(%rbp),%rdx
  e2:	8b 45 e4             	mov    -0x1c(%rbp),%eax
  e5:	48 c1 e0 05          	shl    $0x5,%rax
  e9:	48 01 d0             	add    %rdx,%rax
  ec:	48 05 98 00 00 00    	add    $0x98,%rax
  f2:	0f b6 00             	movzbl (%rax),%eax
  f5:	84 c0                	test   %al,%al
  f7:	0f 84 cf 00 00 00    	je     1cc <ArtNetNode::ProcessPollRelply(unsigned int, unsigned int&, unsigned int&)+0x1cc>
  fd:	48 8b 55 e8          	mov    -0x18(%rbp),%rdx
 101:	8b 45 e4             	mov    -0x1c(%rbp),%eax
 104:	48 c1 e0 05          	shl    $0x5,%rax
 108:	48 01 d0             	add    %rdx,%rax
 10b:	48 05 97 00 00 00    	add    $0x97,%rax
 111:	0f b6 00             	movzbl (%rax),%eax
 114:	88 45 fb             	mov    %al,-0x5(%rbp)
 117:	0f b6 45 fb          	movzbl -0x5(%rbp),%eax
 11b:	48 8b 55 e8          	mov    -0x18(%rbp),%rdx
 11f:	48 98                	cltq   
 121:	0f b6 94 02 da 06 00 	movzbl 0x6da(%rdx,%rax,1),%edx
 128:	00 
 129:	0f b6 45 fb          	movzbl -0x5(%rbp),%eax
 12d:	89 d1                	mov    %edx,%ecx
 12f:	83 c9 80             	or     $0xffffff80,%ecx
 132:	48 8b 55 e8          	mov    -0x18(%rbp),%rdx
 136:	48 98                	cltq   
 138:	88 8c 02 da 06 00 00 	mov    %cl,0x6da(%rdx,%rax,1)
 13f:	0f b6 45 fb          	movzbl -0x5(%rbp),%eax
 143:	48 8b 4d e8          	mov    -0x18(%rbp),%rcx
 147:	8b 55 e4             	mov    -0x1c(%rbp),%edx
 14a:	48 83 c2 05          	add    $0x5,%rdx
 14e:	48 c1 e2 05          	shl    $0x5,%rdx
 152:	48 01 ca             	add    %rcx,%rdx
 155:	48 83 c2 12          	add    $0x12,%rdx
 159:	0f b6 0a             	movzbl (%rdx),%ecx
 15c:	48 8b 55 e8          	mov    -0x18(%rbp),%rdx
 160:	48 98                	cltq   
 162:	88 8c 02 e2 06 00 00 	mov    %cl,0x6e2(%rdx,%rax,1)
 169:	0f b6 45 fb          	movzbl -0x5(%rbp),%eax
 16d:	48 8b 4d e8          	mov    -0x18(%rbp),%rcx
 171:	8b 55 e4             	mov    -0x1c(%rbp),%edx
 174:	48 83 c2 05          	add    $0x5,%rdx
 178:	48 c1 e2 05          	shl    $0x5,%rdx
 17c:	48 01 ca             	add    %rcx,%rdx
 17f:	48 83 c2 13          	add    $0x13,%rdx
 183:	0f b6 0a             	movzbl (%rdx),%ecx
 186:	48 8b 55 e8          	mov    -0x18(%rbp),%rdx
 18a:	48 98                	cltq   
 18c:	88 8c 02 01 07 00 00 	mov    %cl,0x701(%rdx,%rax,1)
 193:	0f b6 45 fb          	movzbl -0x5(%rbp),%eax
 197:	48 8b 4d e8          	mov    -0x18(%rbp),%rcx
 19b:	8b 55 e4             	mov    -0x1c(%rbp),%edx
 19e:	48 c1 e2 05          	shl    $0x5,%rdx
 1a2:	48 01 ca             	add    %rcx,%rdx
 1a5:	48 81 c2 96 00 00 00 	add    $0x96,%rdx
 1ac:	0f b6 0a             	movzbl (%rdx),%ecx
 1af:	48 8b 55 e8          	mov    -0x18(%rbp),%rdx
 1b3:	48 98                	cltq   
 1b5:	88 8c 02 ea 06 00 00 	mov    %cl,0x6ea(%rdx,%rax,1)
 1bc:	48 8b 45 d0          	mov    -0x30(%rbp),%rax
 1c0:	8b 00                	mov    (%rax),%eax
 1c2:	8d 50 01             	lea    0x1(%rax),%edx
 1c5:	48 8b 45 d0          	mov    -0x30(%rbp),%rax
 1c9:	89 10                	mov    %edx,(%rax)
 1cb:	90                   	nop
 1cc:	c9                   	leave  
 1cd:	c3                   	ret    

Disassembly of section .text._ZN10ArtNetNode14SendPollRelplyEb:

0000000000000000 <ArtNetNode::SendPollRelply(bool)>:
   0:	f3 0f 1e fa          	endbr64 
   4:	55                   	push   %rbp
   5:	48 89 e5             	mov    %rsp,%rbp
   8:	48 83 ec 40          	sub    $0x40,%rsp
   c:	48 89 7d c8          	mov    %rdi,-0x38(%rbp)
  10:	89 f0                	mov    %esi,%eax
  12:	88 45 c4             	mov    %al,-0x3c(%rbp)
  15:	64 48 8b 04 25 28 00 	mov    %fs:0x28,%rax
  1c:	00 00 
  1e:	48 89 45 f8          	mov    %rax,-0x8(%rbp)
  22:	31 c0                	xor    %eax,%eax
  24:	0f b6 45 c4          	movzbl -0x3c(%rbp),%eax
  28:	83 f0 01             	xor    $0x1,%eax
  2b:	84 c0                	test   %al,%al
  2d:	74 20                	je     4f <ArtNetNode::SendPollRelply(bool)+0x4f>
  2f:	48 8b 45 c8          	mov    -0x38(%rbp),%rax
  33:	0f b6 80 85 00 00 00 	movzbl 0x85(%rax),%eax
  3a:	3c 02                	cmp    $0x2,%al
  3c:	75 11                	jne    4f <ArtNetNode::SendPollRelply(bool)+0x4f>
  3e:	48 8b 45 c8          	mov    -0x38(%rbp),%rax
  42:	8b 40 74             	mov    0x74(%rax),%eax
  45:	8d 50 01             	lea    0x1(%rax),%edx
  48:	48 8b 45 c8          	mov    -0x38(%rbp),%rax
  4c:	89 50 74             	mov    %edx,0x74(%rax)
  4f:	48 8b 45 c8          	mov    -0x38(%rbp),%rax
  53:	0f b6 50 67          	movzbl 0x67(%rax),%edx
  57:	48 8b 45 c8          	mov    -0x38(%rbp),%rax
  5b:	88 90 43 06 00 00    	mov    %dl,0x643(%rax)
  61:	48 8b 45 c8          	mov    -0x38(%rbp),%rax
  65:	0f b6 50 68          	movzbl 0x68(%rax),%edx
  69:	48 8b 45 c8          	mov    -0x38(%rbp),%rax
  6d:	88 90 00 07 00 00    	mov    %dl,0x700(%rax)
  73:	48 8b 45 c8          	mov    -0x38(%rbp),%rax
  77:	0f b6 50 69          	movzbl 0x69(%rax),%edx
  7b:	48 8b 45 c8          	mov    -0x38(%rbp),%rax
  7f:	88 90 05 07 00 00    	mov    %dl,0x705(%rax)
  85:	c7 45 dc 00 00 00 00 	movl   $0x0,-0x24(%rbp)
  8c:	e9 c9 01 00 00       	jmp    25a <ArtNetNode::SendPollRelply(bool)+0x25a>
  91:	c7 45 e0 00 00 00 00 	movl   $0x0,-0x20(%rbp)
  98:	eb 31                	jmp    cb <ArtNetNode::SendPollRelply(bool)+0xcb>
  9a:	48 8b 55 c8          	mov    -0x38(%rbp),%rdx
  9e:	8b 45 e0             	mov    -0x20(%rbp),%eax
  a1:	c6 84 02 da 06 00 00 	movb   $0x0,0x6da(%rdx,%rax,1)
  a8:	00 
  a9:	48 8b 55 c8          	mov    -0x38(%rbp),%rdx
  ad:	8b 45 e0             	mov    -0x20(%rbp),%eax
  b0:	c6 84 02 e6 06 00 00 	movb   $0x0,0x6e6(%rdx,%rax,1)
  b7:	00 
  b8:	48 8b 55 c8          	mov    -0x38(%rbp),%rdx
  bc:	8b 45 e0             	mov    -0x20(%rbp),%eax
  bf:	c6 84 02 ea 06 00 00 	movb   $0x0,0x6ea(%rdx,%rax,1)
  c6:	00 
  c7:	83 45 e0 01          	addl   $0x1,-0x20(%rbp)
  cb:	83 7d e0 03          	cmpl   $0x3,-0x20(%rbp)
  cf:	76 c9                	jbe    9a <ArtNetNode::SendPollRelply(bool)+0x9a>
  d1:	48 8b 55 c8          	mov    -0x38(%rbp),%rdx
  d5:	8b 45 dc             	mov    -0x24(%rbp),%eax
  d8:	0f b6 54 02 12       	movzbl 0x12(%rdx,%rax,1),%edx
  dd:	48 8b 45 c8          	mov    -0x38(%rbp),%rax
  e1:	88 90 3e 06 00 00    	mov    %dl,0x63e(%rax)
  e7:	48 8b 55 c8          	mov    -0x38(%rbp),%rdx
  eb:	8b 45 dc             	mov    -0x24(%rbp),%eax
  ee:	0f b6 54 02 13       	movzbl 0x13(%rdx,%rax,1),%edx
  f3:	48 8b 45 c8          	mov    -0x38(%rbp),%rax
  f7:	88 90 3f 06 00 00    	mov    %dl,0x63f(%rax)
  fd:	8b 45 dc             	mov    -0x24(%rbp),%eax
 100:	8d 50 01             	lea    0x1(%rax),%edx
 103:	48 8b 45 c8          	mov    -0x38(%rbp),%rax
 107:	88 90 ff 06 00 00    	mov    %dl,0x6ff(%rax)
 10d:	8b 45 dc             	mov    -0x24(%rbp),%eax
 110:	c1 e0 02             	shl    $0x2,%eax
 113:	89 45 e8             	mov    %eax,-0x18(%rbp)
 116:	c7 45 d4 00 00 00 00 	movl   $0x0,-0x2c(%rbp)
 11d:	c7 45 d8 00 00 00 00 	movl   $0x0,-0x28(%rbp)
 124:	8b 45 e8             	mov    -0x18(%rbp),%eax
 127:	89 45 e4             	mov    %eax,-0x1c(%rbp)
 12a:	eb 59                	jmp    185 <ArtNetNode::SendPollRelply(bool)+0x185>
 12c:	83 7d e4 03          	cmpl   $0x3,-0x1c(%rbp)
 130:	76 38                	jbe    16a <ArtNetNode::SendPollRelply(bool)+0x16a>
 132:	8b 45 e4             	mov    -0x1c(%rbp),%eax
 135:	2b 45 e8             	sub    -0x18(%rbp),%eax
 138:	89 45 ec             	mov    %eax,-0x14(%rbp)
 13b:	48 8b 55 c8          	mov    -0x38(%rbp),%rdx
 13f:	8b 45 ec             	mov    -0x14(%rbp),%eax
 142:	c6 84 02 e2 06 00 00 	movb   $0x0,0x6e2(%rdx,%rax,1)
 149:	00 
 14a:	48 8b 55 c8          	mov    -0x38(%rbp),%rdx
 14e:	8b 45 ec             	mov    -0x14(%rbp),%eax
 151:	c6 84 02 01 07 00 00 	movb   $0x0,0x701(%rdx,%rax,1)
 158:	00 
 159:	48 8b 55 c8          	mov    -0x38(%rbp),%rdx
 15d:	8b 45 ec             	mov    -0x14(%rbp),%eax
 160:	c6 84 02 de 06 00 00 	movb   $0x0,0x6de(%rdx,%rax,1)
 167:	00 
 168:	eb 17                	jmp    181 <ArtNetNode::SendPollRelply(bool)+0x181>
 16a:	48 8d 4d d4          	lea    -0x2c(%rbp),%rcx
 16e:	48 8d 55 d8          	lea    -0x28(%rbp),%rdx
 172:	8b 75 e4             	mov    -0x1c(%rbp),%esi
 175:	48 8b 45 c8          	mov    -0x38(%rbp),%rax
 179:	48 89 c7             	mov    %rax,%rdi
 17c:	e8 00 00 00 00       	call   181 <ArtNetNode::SendPollRelply(bool)+0x181>
 181:	83 45 e4 01          	addl   $0x1,-0x1c(%rbp)
 185:	8b 45 e8             	mov    -0x18(%rbp),%eax
 188:	83 c0 04             	add    $0x4,%eax
 18b:	39 45 e4             	cmp    %eax,-0x1c(%rbp)
 18e:	72 9c                	jb     12c <ArtNetNode::SendPollRelply(bool)+0x12c>
 190:	48 8d 55 d4          	lea    -0x2c(%rbp),%rdx
 194:	48 8d 45 d8          	lea    -0x28(%rbp),%rax
 198:	48 89 d6             	mov    %rdx,%rsi
 19b:	48 89 c7             	mov    %rax,%rdi
 19e:	e8 00 00 00 00       	call   1a3 <ArtNetNode::SendPollRelply(bool)+0x1a3>
 1a3:	8b 00                	mov    (%rax),%eax
 1a5:	89 c2                	mov    %eax,%edx
 1a7:	48 8b 45 c8          	mov    -0x38(%rbp),%rax
 1ab:	88 90 d9 06 00 00    	mov    %dl,0x6d9(%rax)
 1b1:	e8 00 00 00 00       	call   1b6 <ArtNetNode::SendPollRelply(bool)+0x1b6>
 1b6:	48 89 c2             	mov    %rax,%rdx
 1b9:	48 8d 45 d3          	lea    -0x2d(%rbp),%rax
 1bd:	48 89 c6             	mov    %rax,%rsi
 1c0:	48 89 d7             	mov    %rdx,%rdi
 1c3:	e8 00 00 00 00       	call   1c8 <ArtNetNode::SendPollRelply(bool)+0x1c8>
 1c8:	48 89 45 f0          	mov    %rax,-0x10(%rbp)
 1cc:	0f b6 45 d3          	movzbl -0x2d(%rbp),%eax
 1d0:	0f b6 c8             	movzbl %al,%ecx
 1d3:	48 8b 45 c8          	mov    -0x38(%rbp),%rax
 1d7:	8b 40 74             	mov    0x74(%rax),%eax
 1da:	89 c6                	mov    %eax,%esi
 1dc:	48 8b 45 c8          	mov    -0x38(%rbp),%rax
 1e0:	0f b6 80 84 00 00 00 	movzbl 0x84(%rax),%eax
 1e7:	0f b6 c0             	movzbl %al,%eax
 1ea:	48 8b 55 c8          	mov    -0x38(%rbp),%rdx
 1ee:	48 8d ba 98 06 00 00 	lea    0x698(%rdx),%rdi
 1f5:	48 83 ec 08          	sub    $0x8,%rsp
 1f9:	ff 75 f0             	push   -0x10(%rbp)
 1fc:	41 89 c9             	mov    %ecx,%r9d
 1ff:	41 89 f0             	mov    %esi,%r8d
 202:	89 c1                	mov    %eax,%ecx
 204:	48 8d 05 00 00 00 00 	lea    0x0(%rip),%rax        # 20b <ArtNetNode::SendPollRelply(bool)+0x20b>
 20b:	48 89 c2             	mov    %rax,%rdx
 20e:	be 40 00 00 00       	mov    $0x40,%esi
 213:	b8 00 00 00 00       	mov    $0x0,%eax
 218:	e8 00 00 00 00       	call   21d <ArtNetNode::SendPollRelply(bool)+0x21d>
 21d:	48 83 c4 10          	add    $0x10,%rsp
 221:	e8 00 00 00 00       	call   226 <ArtNetNode::SendPollRelply(bool)+0x226>
 226:	48 89 c7             	mov    %rax,%rdi
 229:	48 8b 45 c8          	mov    -0x38(%rbp),%rax
 22d:	8b 48 04             	mov    0x4(%rax),%ecx
 230:	48 8b 45 c8          	mov    -0x38(%rbp),%rax
 234:	48 8d 90 2c 06 00 00 	lea    0x62c(%rax),%rdx
 23b:	48 8b 45 c8          	mov    -0x38(%rbp),%rax
 23f:	8b 00                	mov    (%rax),%eax
 241:	41 b9 36 19 00 00    	mov    $0x1936,%r9d
 247:	41 89 c8             	mov    %ecx,%r8d
 24a:	b9 ef 00 00 00       	mov    $0xef,%ecx
 24f:	89 c6                	mov    %eax,%esi
 251:	e8 00 00 00 00       	call   256 <ArtNetNode::SendPollRelply(bool)+0x256>
 256:	83 45 dc 01          	addl   $0x1,-0x24(%rbp)
 25a:	83 7d dc 00          	cmpl   $0x0,-0x24(%rbp)
 25e:	0f 84 2d fe ff ff    	je     91 <ArtNetNode::SendPollRelply(bool)+0x91>
 264:	48 8b 45 c8          	mov    -0x38(%rbp),%rax
 268:	c6 80 8b 00 00 00 00 	movb   $0x0,0x8b(%rax)
 26f:	90                   	nop
 270:	48 8b 45 f8          	mov    -0x8(%rbp),%rax
 274:	64 48 2b 04 25 28 00 	sub    %fs:0x28,%rax
 27b:	00 00 
 27d:	74 05                	je     284 <ArtNetNode::SendPollRelply(bool)+0x284>
 27f:	e8 00 00 00 00       	call   284 <ArtNetNode::SendPollRelply(bool)+0x284>
 284:	c9                   	leave  
 285:	c3                   	ret    

Disassembly of section .text._ZN10ArtNetNode10HandlePollEv:

0000000000000000 <ArtNetNode::HandlePoll()>:
   0:	f3 0f 1e fa          	endbr64 
   4:	55                   	push   %rbp
   5:	48 89 e5             	mov    %rsp,%rbp
   8:	48 83 ec 20          	sub    $0x20,%rsp
   c:	48 89 7d e8          	mov    %rdi,-0x18(%rbp)
  10:	48 8b 45 e8          	mov    -0x18(%rbp),%rax
  14:	48 05 54 01 00 00    	add    $0x154,%rax
  1a:	48 89 45 f8          	mov    %rax,-0x8(%rbp)
  1e:	48 8b 45 f8          	mov    -0x8(%rbp),%rax
  22:	0f b6 40 0c          	movzbl 0xc(%rax),%eax
  26:	0f b6 c0             	movzbl %al,%eax
  29:	83 e0 02             	and    $0x2,%eax
  2c:	85 c0                	test   %eax,%eax
  2e:	74 0d                	je     3d <ArtNetNode::HandlePoll()+0x3d>
  30:	48 8b 45 e8          	mov    -0x18(%rbp),%rax
  34:	c6 80 86 00 00 00 01 	movb   $0x1,0x86(%rax)
  3b:	eb 0b                	jmp    48 <ArtNetNode::HandlePoll()+0x48>
  3d:	48 8b 45 e8          	mov    -0x18(%rbp),%rax
  41:	c6 80 86 00 00 00 00 	movb   $0x0,0x86(%rax)
  48:	48 8b 45 f8          	mov    -0x8(%rbp),%rax
  4c:	0f b6 40 0c          	movzbl 0xc(%rax),%eax
  50:	0f b6 c0             	movzbl %al,%eax
  53:	83 e0 04             	and    $0x4,%eax
  56:	85 c0                	test   %eax,%eax
  58:	0f 84 fd 00 00 00    	je     15b <ArtNetNode::HandlePoll()+0x15b>
  5e:	48 8b 45 e8          	mov    -0x18(%rbp),%rax
  62:	c6 80 87 00 00 00 01 	movb   $0x1,0x87(%rax)
  69:	48 8b 45 e8          	mov    -0x18(%rbp),%rax
  6d:	8b 40 7c             	mov    0x7c(%rax),%eax
  70:	85 c0                	test   %eax,%eax
  72:	75 13                	jne    87 <ArtNetNode::HandlePoll()+0x87>
  74:	48 8b 45 e8          	mov    -0x18(%rbp),%rax
  78:	8b 90 20 06 00 00    	mov    0x620(%rax),%edx
  7e:	48 8b 45 e8          	mov    -0x18(%rbp),%rax
  82:	89 50 7c             	mov    %edx,0x7c(%rax)
  85:	eb 40                	jmp    c7 <ArtNetNode::HandlePoll()+0xc7>
  87:	48 8b 45 e8          	mov    -0x18(%rbp),%rax
  8b:	0f b6 80 88 00 00 00 	movzbl 0x88(%rax),%eax
  92:	83 f0 01             	xor    $0x1,%eax
  95:	84 c0                	test   %al,%al
  97:	74 2e                	je     c7 <ArtNetNode::HandlePoll()+0xc7>
  99:	48 8b 45 e8          	mov    -0x18(%rbp),%rax
  9d:	8b 50 7c             	mov    0x7c(%rax),%edx
  a0:	48 8b 45 e8          	mov    -0x18(%rbp),%rax
  a4:	8b 80 20 06 00 00    	mov    0x620(%rax),%eax
  aa:	39 c2                	cmp    %eax,%edx
  ac:	74 19                	je     c7 <ArtNetNode::HandlePoll()+0xc7>
  ae:	48 8b 45 e8          	mov    -0x18(%rbp),%rax
  b2:	8b 50 04             	mov    0x4(%rax),%edx
  b5:	48 8b 45 e8          	mov    -0x18(%rbp),%rax
  b9:	89 50 78             	mov    %edx,0x78(%rax)
  bc:	48 8b 45 e8          	mov    -0x18(%rbp),%rax
  c0:	c6 80 88 00 00 00 01 	movb   $0x1,0x88(%rax)
  c7:	48 8b 45 e8          	mov    -0x18(%rbp),%rax
  cb:	0f b6 80 88 00 00 00 	movzbl 0x88(%rax),%eax
  d2:	84 c0                	test   %al,%al
  d4:	74 2c                	je     102 <ArtNetNode::HandlePoll()+0x102>
  d6:	48 8b 45 f8          	mov    -0x8(%rbp),%rax
  da:	48 8d 50 0d          	lea    0xd(%rax),%rdx
  de:	48 8b 45 e8          	mov    -0x18(%rbp),%rax
  e2:	48 05 90 00 00 00    	add    $0x90,%rax
  e8:	48 89 d6             	mov    %rdx,%rsi
  eb:	48 89 c7             	mov    %rax,%rdi
  ee:	e8 00 00 00 00       	call   f3 <ArtNetNode::HandlePoll()+0xf3>
  f3:	0f b6 10             	movzbl (%rax),%edx
  f6:	48 8b 45 e8          	mov    -0x18(%rbp),%rax
  fa:	88 90 90 00 00 00    	mov    %dl,0x90(%rax)
 100:	eb 12                	jmp    114 <ArtNetNode::HandlePoll()+0x114>
 102:	48 8b 45 f8          	mov    -0x8(%rbp),%rax
 106:	0f b6 50 0d          	movzbl 0xd(%rax),%edx
 10a:	48 8b 45 e8          	mov    -0x18(%rbp),%rax
 10e:	88 90 90 00 00 00    	mov    %dl,0x90(%rax)
 114:	48 8b 45 e8          	mov    -0x18(%rbp),%rax
 118:	0f b6 80 88 00 00 00 	movzbl 0x88(%rax),%eax
 11f:	83 f0 01             	xor    $0x1,%eax
 122:	84 c0                	test   %al,%al
 124:	74 25                	je     14b <ArtNetNode::HandlePoll()+0x14b>
 126:	48 8b 45 f8          	mov    -0x8(%rbp),%rax
 12a:	0f b6 40 0c          	movzbl 0xc(%rax),%eax
 12e:	0f b6 c0             	movzbl %al,%eax
 131:	83 e0 08             	and    $0x8,%eax
 134:	85 c0                	test   %eax,%eax
 136:	74 13                	je     14b <ArtNetNode::HandlePoll()+0x14b>
 138:	48 8b 45 e8          	mov    -0x18(%rbp),%rax
 13c:	8b 90 20 06 00 00    	mov    0x620(%rax),%edx
 142:	48 8b 45 e8          	mov    -0x18(%rbp),%rax
 146:	89 50 78             	mov    %edx,0x78(%rax)
 149:	eb 26                	jmp    171 <ArtNetNode::HandlePoll()+0x171>
 14b:	48 8b 45 e8          	mov    -0x18(%rbp),%rax
 14f:	8b 50 04             	mov    0x4(%rax),%edx
 152:	48 8b 45 e8          	mov    -0x18(%rbp),%rax
 156:	89 50 78             	mov    %edx,0x78(%rax)
 159:	eb 16                	jmp    171 <ArtNetNode::HandlePoll()+0x171>
 15b:	48 8b 45 e8          	mov    -0x18(%rbp),%rax
 15f:	c6 80 87 00 00 00 00 	movb   $0x0,0x87(%rax)
 166:	48 8b 45 e8          	mov    -0x18(%rbp),%rax
 16a:	c7 40 78 00 00 00 00 	movl   $0x0,0x78(%rax)
 171:	48 8b 45 e8          	mov    -0x18(%rbp),%rax
 175:	be 01 00 00 00       	mov    $0x1,%esi
 17a:	48 89 c7             	mov    %rax,%rdi
 17d:	e8 00 00 00 00       	call   182 <ArtNetNode::HandlePoll()+0x182>
 182:	90                   	nop
 183:	c9                   	leave  
 184:	c3                   	ret    

Disassembly of section .text._ZSt3maxIjERKT_S2_S2_:

0000000000000000 <unsigned int const& std::max<unsigned int>(unsigned int const&, unsigned int const&)>:
   0:	f3 0f 1e fa          	endbr64 
   4:	55                   	push   %rbp
   5:	48 89 e5             	mov    %rsp,%rbp
   8:	48 89 7d f8          	mov    %rdi,-0x8(%rbp)
   c:	48 89 75 f0          	mov    %rsi,-0x10(%rbp)
  10:	48 8b 45 f8          	mov    -0x8(%rbp),%rax
  14:	8b 10                	mov    (%rax),%edx
  16:	48 8b 45 f0          	mov    -0x10(%rbp),%rax
  1a:	8b 00                	mov    (%rax),%eax
  1c:	39 c2                	cmp    %eax,%edx
  1e:	73 06                	jae    26 <unsigned int const& std::max<unsigned int>(unsigned int const&, unsigned int const&)+0x26>
  20:	48 8b 45 f0          	mov    -0x10(%rbp),%rax
  24:	eb 04                	jmp    2a <unsigned int const& std::max<unsigned int>(unsigned int const&, unsigned int const&)+0x2a>
  26:	48 8b 45 f8          	mov    -0x8(%rbp),%rax
  2a:	5d                   	pop    %rbp
  2b:	c3                   	ret    

Disassembly of section .text._ZSt3minIhERKT_S2_S2_:

0000000000000000 <unsigned char const& std::min<unsigned char>(unsigned char const&, unsigned char const&)>:
   0:	f3 0f 1e fa          	endbr64 
   4:	55                   	push   %rbp
   5:	48 89 e5             	mov    %rsp,%rbp
   8:	48 89 7d f8          	mov    %rdi,-0x8(%rbp)
   c:	48 89 75 f0          	mov    %rsi,-0x10(%rbp)
  10:	48 8b 45 f0          	mov    -0x10(%rbp),%rax
  14:	0f b6 10             	movzbl (%rax),%edx
  17:	48 8b 45 f8          	mov    -0x8(%rbp),%rax
  1b:	0f b6 00             	movzbl (%rax),%eax
  1e:	38 c2                	cmp    %al,%dl
  20:	73 06                	jae    28 <unsigned char const& std::min<unsigned char>(unsigned char const&, unsigned char const&)+0x28>
  22:	48 8b 45 f0          	mov    -0x10(%rbp),%rax
  26:	eb 04                	jmp    2c <unsigned char const& std::min<unsigned char>(unsigned char const&, unsigned char const&)+0x2c>
  28:	48 8b 45 f8          	mov    -0x8(%rbp),%rax
  2c:	5d                   	pop    %rbp
  2d:	c3                   	ret    

artnetnodehandlerdm.o:     file format elf64-x86-64


Disassembly of section .text._ZN7Network3GetEv:

0000000000000000 <Network::Get()>:
   0:	f3 0f 1e fa          	endbr64 
   4:	55                   	push   %rbp
   5:	48 89 e5             	mov    %rsp,%rbp
   8:	48 8b 05 00 00 00 00 	mov    0x0(%rip),%rax        # f <Network::Get()+0xf>
   f:	5d                   	pop    %rbp
  10:	c3                   	ret    

Disassembly of section .text._ZN10ArtNetNode6SetRmdEjb:

0000000000000000 <ArtNetNode::SetRmd(unsigned int, bool)>:
   0:	f3 0f 1e fa          	endbr64 
   4:	55                   	push   %rbp
   5:	48 89 e5             	mov    %rsp,%rbp
   8:	48 83 ec 20          	sub    $0x20,%rsp
   c:	48 89 7d e8          	mov    %rdi,-0x18(%rbp)
  10:	89 75 e4             	mov    %esi,-0x1c(%rbp)
  13:	89 d0                	mov    %edx,%eax
  15:	88 45 e0             	mov    %al,-0x20(%rbp)
  18:	48 8b 55 e8          	mov    -0x18(%rbp),%rdx
  1c:	8b 45 e4             	mov    -0x1c(%rbp),%eax
  1f:	48 83 c0 05          	add    $0x5,%rax
  23:	48 c1 e0 05          	shl    $0x5,%rax
  27:	48 01 d0             	add    %rdx,%rax
  2a:	48 83 c0 13          	add    $0x13,%rax
  2e:	0f b6 00             	movzbl (%rax),%eax
  31:	f7 d0                	not    %eax
  33:	c0 e8 07             	shr    $0x7,%al
  36:	88 45 ff             	mov    %al,-0x1(%rbp)
  39:	0f b6 45 e0          	movzbl -0x20(%rbp),%eax
  3d:	83 f0 01             	xor    $0x1,%eax
  40:	84 c0                	test   %al,%al
  42:	74 38                	je     7c <ArtNetNode::SetRmd(unsigned int, bool)+0x7c>
  44:	48 8b 55 e8          	mov    -0x18(%rbp),%rdx
  48:	8b 45 e4             	mov    -0x1c(%rbp),%eax
  4b:	48 83 c0 05          	add    $0x5,%rax
  4f:	48 c1 e0 05          	shl    $0x5,%rax
  53:	48 01 d0             	add    %rdx,%rax
  56:	48 83 c0 13          	add    $0x13,%rax
  5a:	0f b6 00             	movzbl (%rax),%eax
  5d:	83 c8 80             	or     $0xffffff80,%eax
  60:	89 c2                	mov    %eax,%edx
  62:	48 8b 4d e8          	mov    -0x18(%rbp),%rcx
  66:	8b 45 e4             	mov    -0x1c(%rbp),%eax
  69:	48 83 c0 05          	add    $0x5,%rax
  6d:	48 c1 e0 05          	shl    $0x5,%rax
  71:	48 01 c8             	add    %rcx,%rax
  74:	48 83 c0 13          	add    $0x13,%rax
  78:	88 10                	mov    %dl,(%rax)
  7a:	eb 36                	jmp    b2 <ArtNetNode::SetRmd(unsigned int, bool)+0xb2>
  7c:	48 8b 55 e8          	mov    -0x18(%rbp),%rdx
  80:	8b 45 e4             	mov    -0x1c(%rbp),%eax
  83:	48 83 c0 05          	add    $0x5,%rax
  87:	48 c1 e0 05          	shl    $0x5,%rax
  8b:	48 01 d0             	add    %rdx,%rax
  8e:	48 83 c0 13          	add    $0x13,%rax
  92:	0f b6 00             	movzbl (%rax),%eax
  95:	83 e0 7f             	and    $0x7f,%eax
  98:	89 c2                	mov    %eax,%edx
  9a:	48 8b 4d e8          	mov    -0x18(%rbp),%rcx
  9e:	8b 45 e4             	mov    -0x1c(%rbp),%eax
  a1:	48 83 c0 05          	add    $0x5,%rax
  a5:	48 c1 e0 05          	shl    $0x5,%rax
  a9:	48 01 c8             	add    %rcx,%rax
  ac:	48 83 c0 13          	add    $0x13,%rax
  b0:	88 10                	mov    %dl,(%rax)
  b2:	0f b6 45 ff          	movzbl -0x1(%rbp),%eax
  b6:	3a 45 e0             	cmp    -0x20(%rbp),%al
  b9:	74 5e                	je     119 <ArtNetNode::SetRmd(unsigned int, bool)+0x119>
  bb:	48 8b 45 e8          	mov    -0x18(%rbp),%rax
  bf:	0f b6 80 85 00 00 00 	movzbl 0x85(%rax),%eax
  c6:	3c 02                	cmp    $0x2,%al
  c8:	75 4f                	jne    119 <ArtNetNode::SetRmd(unsigned int, bool)+0x119>
  ca:	48 8b 45 e8          	mov    -0x18(%rbp),%rax
  ce:	48 8b 80 78 0a 00 00 	mov    0xa78(%rax),%rax
  d5:	48 85 c0             	test   %rax,%rax
  d8:	74 2f                	je     109 <ArtNetNode::SetRmd(unsigned int, bool)+0x109>
  da:	48 8b 45 e8          	mov    -0x18(%rbp),%rax
  de:	48 8b 80 78 0a 00 00 	mov    0xa78(%rax),%rax
  e5:	48 8b 55 e8          	mov    -0x18(%rbp),%rdx
  e9:	48 8b 92 78 0a 00 00 	mov    0xa78(%rdx),%rdx
  f0:	48 8b 12             	mov    (%rdx),%rdx
  f3:	48 83 c2 58          	add    $0x58,%rdx
  f7:	4c 8b 02             	mov    (%rdx),%r8
  fa:	0f b6 55 e0          	movzbl -0x20(%rbp),%edx
  fe:	8b 4d e4             	mov    -0x1c(%rbp),%ecx
 101:	89 ce                	mov    %ecx,%esi
 103:	48 89 c7             	mov    %rax,%rdi
 106:	41 ff d0             	call   *%r8
 109:	0f b6 55 e0          	movzbl -0x20(%rbp),%edx
 10d:	8b 45 e4             	mov    -0x1c(%rbp),%eax
 110:	89 d6                	mov    %edx,%esi
 112:	89 c7                	mov    %eax,%edi
 114:	e8 00 00 00 00       	call   119 <ArtNetNode::SetRmd(unsigned int, bool)+0x119>
 119:	90                   	nop
 11a:	c9                   	leave  
 11b:	c3                   	ret    

Disassembly of section .text._ZN10ArtNetNode16HandleTodControlEv:

0000000000000000 <ArtNetNode::HandleTodControl()>:
   0:	f3 0f 1e fa          	endbr64 
   4:	55                   	push   %rbp
   5:	48 89 e5             	mov    %rsp,%rbp
   8:	48 83 ec 20          	sub    $0x20,%rsp
   c:	48 89 7d e8          	mov    %rdi,-0x18(%rbp)
  10:	48 8b 45 e8          	mov    -0x18(%rbp),%rax
  14:	48 05 54 01 00 00    	add    $0x154,%rax
  1a:	48 89 45 f8          	mov    %rax,-0x8(%rbp)
  1e:	48 8b 45 f8          	mov    -0x8(%rbp),%rax
  22:	0f b6 40 15          	movzbl 0x15(%rax),%eax
  26:	0f b6 c0             	movzbl %al,%eax
  29:	c1 e0 08             	shl    $0x8,%eax
  2c:	0f b7 d0             	movzwl %ax,%edx
  2f:	48 8b 45 f8          	mov    -0x8(%rbp),%rax
  33:	0f b6 40 17          	movzbl 0x17(%rax),%eax
  37:	0f b6 c0             	movzbl %al,%eax
  3a:	09 d0                	or     %edx,%eax
  3c:	89 45 f4             	mov    %eax,-0xc(%rbp)
  3f:	c7 45 f0 00 00 00 00 	movl   $0x0,-0x10(%rbp)
  46:	e9 3f 01 00 00       	jmp    18a <ArtNetNode::HandleTodControl()+0x18a>
  4b:	48 8b 55 e8          	mov    -0x18(%rbp),%rdx
  4f:	8b 45 f0             	mov    -0x10(%rbp),%eax
  52:	48 c1 e0 05          	shl    $0x5,%rax
  56:	48 01 d0             	add    %rdx,%rax
  59:	48 05 94 00 00 00    	add    $0x94,%rax
  5f:	0f b7 00             	movzwl (%rax),%eax
  62:	0f b7 c0             	movzwl %ax,%eax
  65:	39 45 f4             	cmp    %eax,-0xc(%rbp)
  68:	0f 85 18 01 00 00    	jne    186 <ArtNetNode::HandleTodControl()+0x186>
  6e:	48 8b 55 e8          	mov    -0x18(%rbp),%rdx
  72:	8b 45 f0             	mov    -0x10(%rbp),%eax
  75:	48 c1 e0 05          	shl    $0x5,%rax
  79:	48 01 d0             	add    %rdx,%rax
  7c:	48 05 98 00 00 00    	add    $0x98,%rax
  82:	0f b6 00             	movzbl (%rax),%eax
  85:	84 c0                	test   %al,%al
  87:	0f 84 f9 00 00 00    	je     186 <ArtNetNode::HandleTodControl()+0x186>
  8d:	48 8b 55 e8          	mov    -0x18(%rbp),%rdx
  91:	8b 45 f0             	mov    -0x10(%rbp),%eax
  94:	48 83 c0 05          	add    $0x5,%rax
  98:	48 c1 e0 05          	shl    $0x5,%rax
  9c:	48 01 d0             	add    %rdx,%rax
  9f:	48 83 c0 11          	add    $0x11,%rax
  a3:	0f b6 00             	movzbl (%rax),%eax
  a6:	84 c0                	test   %al,%al
  a8:	74 3c                	je     e6 <ArtNetNode::HandleTodControl()+0xe6>
  aa:	48 8b 45 e8          	mov    -0x18(%rbp),%rax
  ae:	0f b6 80 4c 0a 00 00 	movzbl 0xa4c(%rax),%eax
  b5:	83 f0 01             	xor    $0x1,%eax
  b8:	84 c0                	test   %al,%al
  ba:	74 2a                	je     e6 <ArtNetNode::HandleTodControl()+0xe6>
  bc:	48 8b 45 e8          	mov    -0x18(%rbp),%rax
  c0:	48 8b 80 50 0a 00 00 	mov    0xa50(%rax),%rax
  c7:	48 8b 55 e8          	mov    -0x18(%rbp),%rdx
  cb:	48 8b 92 50 0a 00 00 	mov    0xa50(%rdx),%rdx
  d2:	48 8b 12             	mov    (%rdx),%rdx
  d5:	48 83 c2 18          	add    $0x18,%rdx
  d9:	48 8b 0a             	mov    (%rdx),%rcx
  dc:	8b 55 f0             	mov    -0x10(%rbp),%edx
  df:	89 d6                	mov    %edx,%esi
  e1:	48 89 c7             	mov    %rax,%rdi
  e4:	ff d1                	call   *%rcx
  e6:	48 8b 45 f8          	mov    -0x8(%rbp),%rax
  ea:	0f b6 40 16          	movzbl 0x16(%rax),%eax
  ee:	3c 01                	cmp    $0x1,%al
  f0:	75 2a                	jne    11c <ArtNetNode::HandleTodControl()+0x11c>
  f2:	48 8b 45 e8          	mov    -0x18(%rbp),%rax
  f6:	48 8b 80 60 0a 00 00 	mov    0xa60(%rax),%rax
  fd:	48 8b 55 e8          	mov    -0x18(%rbp),%rdx
 101:	48 8b 92 60 0a 00 00 	mov    0xa60(%rdx),%rdx
 108:	48 8b 12             	mov    (%rdx),%rdx
 10b:	48 83 c2 10          	add    $0x10,%rdx
 10f:	48 8b 0a             	mov    (%rdx),%rcx
 112:	8b 55 f0             	mov    -0x10(%rbp),%edx
 115:	89 d6                	mov    %edx,%esi
 117:	48 89 c7             	mov    %rax,%rdi
 11a:	ff d1                	call   *%rcx
 11c:	8b 55 f0             	mov    -0x10(%rbp),%edx
 11f:	48 8b 45 e8          	mov    -0x18(%rbp),%rax
 123:	89 d6                	mov    %edx,%esi
 125:	48 89 c7             	mov    %rax,%rdi
 128:	e8 00 00 00 00       	call   12d <ArtNetNode::HandleTodControl()+0x12d>
 12d:	48 8b 55 e8          	mov    -0x18(%rbp),%rdx
 131:	8b 45 f0             	mov    -0x10(%rbp),%eax
 134:	48 83 c0 05          	add    $0x5,%rax
 138:	48 c1 e0 05          	shl    $0x5,%rax
 13c:	48 01 d0             	add    %rdx,%rax
 13f:	48 83 c0 11          	add    $0x11,%rax
 143:	0f b6 00             	movzbl (%rax),%eax
 146:	84 c0                	test   %al,%al
 148:	74 3c                	je     186 <ArtNetNode::HandleTodControl()+0x186>
 14a:	48 8b 45 e8          	mov    -0x18(%rbp),%rax
 14e:	0f b6 80 4c 0a 00 00 	movzbl 0xa4c(%rax),%eax
 155:	83 f0 01             	xor    $0x1,%eax
 158:	84 c0                	test   %al,%al
 15a:	74 2a                	je     186 <ArtNetNode::HandleTodControl()+0x186>
 15c:	48 8b 45 e8          	mov    -0x18(%rbp),%rax
 160:	48 8b 80 50 0a 00 00 	mov    0xa50(%rax),%rax
 167:	48 8b 55 e8          	mov    -0x18(%rbp),%rdx
 16b:	48 8b 92 50 0a 00 00 	mov    0xa50(%rdx),%rdx
 172:	48 8b 12             	mov    (%rdx),%rdx
 175:	48 83 c2 10          	add    $0x10,%rdx
 179:	48 8b 0a             	mov    (%rdx),%rcx
 17c:	8b 55 f0             	mov    -0x10(%rbp),%edx
 17f:	89 d6                	mov    %edx,%esi
 181:	48 89 c7             	mov    %rax,%rdi
 184:	ff d1                	call   *%rcx
 186:	83 45 f0 01          	addl   $0x1,-0x10(%rbp)
 18a:	83 7d f0 03          	cmpl   $0x3,-0x10(%rbp)
 18e:	0f 86 b7 fe ff ff    	jbe    4b <ArtNetNode::HandleTodControl()+0x4b>
 194:	90                   	nop
 195:	90                   	nop
 196:	c9                   	leave  
 197:	c3                   	ret    

Disassembly of section .text._ZN10ArtNetNode16HandleTodRequestEv:

0000000000000000 <ArtNetNode::HandleTodRequest()>:
   0:	f3 0f 1e fa          	endbr64 
   4:	55                   	push   %rbp
   5:	48 89 e5             	mov    %rsp,%rbp
   8:	48 83 ec 30          	sub    $0x30,%rsp
   c:	48 89 7d d8          	mov    %rdi,-0x28(%rbp)
  10:	48 8b 45 d8          	mov    -0x28(%rbp),%rax
  14:	48 05 54 01 00 00    	add    $0x154,%rax
  1a:	48 89 45 f8          	mov    %rax,-0x8(%rbp)
  1e:	48 8b 45 f8          	mov    -0x8(%rbp),%rax
  22:	0f b6 40 17          	movzbl 0x17(%rax),%eax
  26:	0f b6 c0             	movzbl %al,%eax
  29:	83 e0 1f             	and    $0x1f,%eax
  2c:	89 45 f0             	mov    %eax,-0x10(%rbp)
  2f:	c7 45 e8 00 00 00 00 	movl   $0x0,-0x18(%rbp)
  36:	e9 89 00 00 00       	jmp    c4 <ArtNetNode::HandleTodRequest()+0xc4>
  3b:	48 8b 45 f8          	mov    -0x8(%rbp),%rax
  3f:	0f b6 40 15          	movzbl 0x15(%rax),%eax
  43:	0f b6 c0             	movzbl %al,%eax
  46:	c1 e0 08             	shl    $0x8,%eax
  49:	0f b7 c8             	movzwl %ax,%ecx
  4c:	48 8b 55 f8          	mov    -0x8(%rbp),%rdx
  50:	8b 45 e8             	mov    -0x18(%rbp),%eax
  53:	48 98                	cltq   
  55:	0f b6 44 02 18       	movzbl 0x18(%rdx,%rax,1),%eax
  5a:	0f b6 c0             	movzbl %al,%eax
  5d:	09 c8                	or     %ecx,%eax
  5f:	89 45 f4             	mov    %eax,-0xc(%rbp)
  62:	c7 45 ec 00 00 00 00 	movl   $0x0,-0x14(%rbp)
  69:	eb 4f                	jmp    ba <ArtNetNode::HandleTodRequest()+0xba>
  6b:	48 8b 55 d8          	mov    -0x28(%rbp),%rdx
  6f:	8b 45 ec             	mov    -0x14(%rbp),%eax
  72:	48 c1 e0 05          	shl    $0x5,%rax
  76:	48 01 d0             	add    %rdx,%rax
  79:	48 05 94 00 00 00    	add    $0x94,%rax
  7f:	0f b7 00             	movzwl (%rax),%eax
  82:	0f b7 c0             	movzwl %ax,%eax
  85:	39 45 f4             	cmp    %eax,-0xc(%rbp)
  88:	75 2c                	jne    b6 <ArtNetNode::HandleTodRequest()+0xb6>
  8a:	48 8b 55 d8          	mov    -0x28(%rbp),%rdx
  8e:	8b 45 ec             	mov    -0x14(%rbp),%eax
  91:	48 c1 e0 05          	shl    $0x5,%rax
  95:	48 01 d0             	add    %rdx,%rax
  98:	48 05 98 00 00 00    	add    $0x98,%rax
  9e:	0f b6 00             	movzbl (%rax),%eax
  a1:	84 c0                	test   %al,%al
  a3:	74 11                	je     b6 <ArtNetNode::HandleTodRequest()+0xb6>
  a5:	8b 55 ec             	mov    -0x14(%rbp),%edx
  a8:	48 8b 45 d8          	mov    -0x28(%rbp),%rax
  ac:	89 d6                	mov    %edx,%esi
  ae:	48 89 c7             	mov    %rax,%rdi
  b1:	e8 00 00 00 00       	call   b6 <ArtNetNode::HandleTodRequest()+0xb6>
  b6:	83 45 ec 01          	addl   $0x1,-0x14(%rbp)
  ba:	83 7d ec 03          	cmpl   $0x3,-0x14(%rbp)
  be:	76 ab                	jbe    6b <ArtNetNode::HandleTodRequest()+0x6b>
  c0:	83 45 e8 01          	addl   $0x1,-0x18(%rbp)
  c4:	8b 45 e8             	mov    -0x18(%rbp),%eax
  c7:	3b 45 f0             	cmp    -0x10(%rbp),%eax
  ca:	0f 8c 6b ff ff ff    	jl     3b <ArtNetNode::HandleTodRequest()+0x3b>
  d0:	90                   	nop
  d1:	90                   	nop
  d2:	c9                   	leave  
  d3:	c3                   	ret    

Disassembly of section .text._ZN10ArtNetNode13HandleTodDataEv:

0000000000000000 <ArtNetNode::HandleTodData()>:
   0:	f3 0f 1e fa          	endbr64 
   4:	55                   	push   %rbp
   5:	48 89 e5             	mov    %rsp,%rbp
   8:	48 83 ec 30          	sub    $0x30,%rsp
   c:	48 89 7d d8          	mov    %rdi,-0x28(%rbp)
  10:	48 8b 45 d8          	mov    -0x28(%rbp),%rax
  14:	48 05 54 01 00 00    	add    $0x154,%rax
  1a:	48 89 45 f0          	mov    %rax,-0x10(%rbp)
  1e:	48 8b 45 f0          	mov    -0x10(%rbp),%rax
  22:	0f b6 40 0c          	movzbl 0xc(%rax),%eax
  26:	3c 01                	cmp    $0x1,%al
  28:	0f 85 f3 00 00 00    	jne    121 <ArtNetNode::HandleTodData()+0x121>
  2e:	48 8b 45 f0          	mov    -0x10(%rbp),%rax
  32:	0f b6 40 15          	movzbl 0x15(%rax),%eax
  36:	0f b6 c0             	movzbl %al,%eax
  39:	c1 e0 08             	shl    $0x8,%eax
  3c:	0f b7 d0             	movzwl %ax,%edx
  3f:	48 8b 45 f0          	mov    -0x10(%rbp),%rax
  43:	0f b6 40 17          	movzbl 0x17(%rax),%eax
  47:	0f b6 c0             	movzbl %al,%eax
  4a:	09 d0                	or     %edx,%eax
  4c:	89 45 ec             	mov    %eax,-0x14(%rbp)
  4f:	c7 45 e4 00 00 00 00 	movl   $0x0,-0x1c(%rbp)
  56:	e9 ba 00 00 00       	jmp    115 <ArtNetNode::HandleTodData()+0x115>
  5b:	48 8b 55 d8          	mov    -0x28(%rbp),%rdx
  5f:	8b 45 e4             	mov    -0x1c(%rbp),%eax
  62:	48 83 c0 11          	add    $0x11,%rax
  66:	48 c1 e0 04          	shl    $0x4,%rax
  6a:	48 01 d0             	add    %rdx,%rax
  6d:	48 83 c0 08          	add    $0x8,%rax
  71:	0f b6 00             	movzbl (%rax),%eax
  74:	83 f0 01             	xor    $0x1,%eax
  77:	84 c0                	test   %al,%al
  79:	0f 85 91 00 00 00    	jne    110 <ArtNetNode::HandleTodData()+0x110>
  7f:	48 8b 55 d8          	mov    -0x28(%rbp),%rdx
  83:	8b 45 e4             	mov    -0x1c(%rbp),%eax
  86:	48 83 c0 11          	add    $0x11,%rax
  8a:	48 c1 e0 04          	shl    $0x4,%rax
  8e:	48 01 d0             	add    %rdx,%rax
  91:	48 83 c0 04          	add    $0x4,%rax
  95:	0f b7 00             	movzwl (%rax),%eax
  98:	0f b7 c0             	movzwl %ax,%eax
  9b:	39 45 ec             	cmp    %eax,-0x14(%rbp)
  9e:	75 71                	jne    111 <ArtNetNode::HandleTodData()+0x111>
  a0:	c7 45 e8 00 00 00 00 	movl   $0x0,-0x18(%rbp)
  a7:	eb 55                	jmp    fe <ArtNetNode::HandleTodData()+0xfe>
  a9:	8b 55 e8             	mov    -0x18(%rbp),%edx
  ac:	48 89 d0             	mov    %rdx,%rax
  af:	48 01 c0             	add    %rax,%rax
  b2:	48 01 d0             	add    %rdx,%rax
  b5:	48 01 c0             	add    %rax,%rax
  b8:	48 8d 50 10          	lea    0x10(%rax),%rdx
  bc:	48 8b 45 f0          	mov    -0x10(%rbp),%rax
  c0:	48 01 d0             	add    %rdx,%rax
  c3:	48 83 c0 0c          	add    $0xc,%rax
  c7:	48 89 45 f8          	mov    %rax,-0x8(%rbp)
  cb:	48 8b 45 d8          	mov    -0x28(%rbp),%rax
  cf:	48 8b 80 60 0a 00 00 	mov    0xa60(%rax),%rax
  d6:	48 8b 55 d8          	mov    -0x28(%rbp),%rdx
  da:	48 8b 92 60 0a 00 00 	mov    0xa60(%rdx),%rdx
  e1:	48 8b 12             	mov    (%rdx),%rdx
  e4:	48 83 c2 30          	add    $0x30,%rdx
  e8:	4c 8b 02             	mov    (%rdx),%r8
  eb:	48 8b 55 f8          	mov    -0x8(%rbp),%rdx
  ef:	8b 4d e4             	mov    -0x1c(%rbp),%ecx
  f2:	89 ce                	mov    %ecx,%esi
  f4:	48 89 c7             	mov    %rax,%rdi
  f7:	41 ff d0             	call   *%r8
  fa:	83 45 e8 01          	addl   $0x1,-0x18(%rbp)
  fe:	48 8b 45 f0          	mov    -0x10(%rbp),%rax
 102:	0f b6 40 1b          	movzbl 0x1b(%rax),%eax
 106:	0f b6 c0             	movzbl %al,%eax
 109:	39 45 e8             	cmp    %eax,-0x18(%rbp)
 10c:	72 9b                	jb     a9 <ArtNetNode::HandleTodData()+0xa9>
 10e:	eb 01                	jmp    111 <ArtNetNode::HandleTodData()+0x111>
 110:	90                   	nop
 111:	83 45 e4 01          	addl   $0x1,-0x1c(%rbp)
 115:	83 7d e4 03          	cmpl   $0x3,-0x1c(%rbp)
 119:	0f 86 3c ff ff ff    	jbe    5b <ArtNetNode::HandleTodData()+0x5b>
 11f:	eb 01                	jmp    122 <ArtNetNode::HandleTodData()+0x122>
 121:	90                   	nop
 122:	c9                   	leave  
 123:	c3                   	ret    

Disassembly of section .text._ZN10ArtNetNode7SendTodEj:

0000000000000000 <ArtNetNode::SendTod(unsigned int)>:
   0:	f3 0f 1e fa          	endbr64 
   4:	55                   	push   %rbp
   5:	48 89 e5             	mov    %rsp,%rbp
   8:	48 83 ec 30          	sub    $0x30,%rsp
   c:	48 89 7d d8          	mov    %rdi,-0x28(%rbp)
  10:	89 75 d4             	mov    %esi,-0x2c(%rbp)
  13:	48 8b 45 d8          	mov    -0x28(%rbp),%rax
  17:	48 05 54 01 00 00    	add    $0x154,%rax
  1d:	48 89 45 f0          	mov    %rax,-0x10(%rbp)
  21:	8b 45 d4             	mov    -0x2c(%rbp),%eax
  24:	c1 e8 02             	shr    $0x2,%eax
  27:	89 45 ec             	mov    %eax,-0x14(%rbp)
  2a:	48 8b 45 f0          	mov    -0x10(%rbp),%rax
  2e:	48 8b 15 00 00 00 00 	mov    0x0(%rip),%rdx        # 35 <ArtNetNode::SendTod(unsigned int)+0x35>
  35:	48 89 10             	mov    %rdx,(%rax)
  38:	48 8b 45 f0          	mov    -0x10(%rbp),%rax
  3c:	66 c7 40 08 00 81    	movw   $0x8100,0x8(%rax)
  42:	48 8b 45 f0          	mov    -0x10(%rbp),%rax
  46:	c6 40 0a 00          	movb   $0x0,0xa(%rax)
  4a:	48 8b 45 f0          	mov    -0x10(%rbp),%rax
  4e:	c6 40 0b 0e          	movb   $0xe,0xb(%rax)
  52:	48 8b 45 f0          	mov    -0x10(%rbp),%rax
  56:	c6 40 0c 01          	movb   $0x1,0xc(%rax)
  5a:	48 8b 45 d8          	mov    -0x28(%rbp),%rax
  5e:	48 8b 80 60 0a 00 00 	mov    0xa60(%rax),%rax
  65:	48 8b 55 d8          	mov    -0x28(%rbp),%rdx
  69:	48 8b 92 60 0a 00 00 	mov    0xa60(%rdx),%rdx
  70:	48 8b 12             	mov    (%rdx),%rdx
  73:	48 83 c2 18          	add    $0x18,%rdx
  77:	48 8b 0a             	mov    (%rdx),%rcx
  7a:	8b 55 d4             	mov    -0x2c(%rbp),%edx
  7d:	89 d6                	mov    %edx,%esi
  7f:	48 89 c7             	mov    %rax,%rdi
  82:	ff d1                	call   *%rcx
  84:	88 45 eb             	mov    %al,-0x15(%rbp)
  87:	8b 45 d4             	mov    -0x2c(%rbp),%eax
  8a:	83 e0 03             	and    $0x3,%eax
  8d:	8d 50 01             	lea    0x1(%rax),%edx
  90:	48 8b 45 f0          	mov    -0x10(%rbp),%rax
  94:	88 50 0d             	mov    %dl,0xd(%rax)
  97:	48 8b 45 f0          	mov    -0x10(%rbp),%rax
  9b:	c6 40 0e 00          	movb   $0x0,0xe(%rax)
  9f:	48 8b 45 f0          	mov    -0x10(%rbp),%rax
  a3:	c6 40 0f 00          	movb   $0x0,0xf(%rax)
  a7:	48 8b 45 f0          	mov    -0x10(%rbp),%rax
  ab:	c6 40 10 00          	movb   $0x0,0x10(%rax)
  af:	48 8b 45 f0          	mov    -0x10(%rbp),%rax
  b3:	c6 40 11 00          	movb   $0x0,0x11(%rax)
  b7:	48 8b 45 f0          	mov    -0x10(%rbp),%rax
  bb:	c6 40 12 00          	movb   $0x0,0x12(%rax)
  bf:	48 8b 45 f0          	mov    -0x10(%rbp),%rax
  c3:	c6 40 13 00          	movb   $0x0,0x13(%rax)
  c7:	8b 45 ec             	mov    -0x14(%rbp),%eax
  ca:	8d 50 01             	lea    0x1(%rax),%edx
  cd:	48 8b 45 f0          	mov    -0x10(%rbp),%rax
  d1:	88 50 14             	mov    %dl,0x14(%rax)
  d4:	48 8b 55 d8          	mov    -0x28(%rbp),%rdx
  d8:	8b 45 ec             	mov    -0x14(%rbp),%eax
  db:	0f b6 54 02 12       	movzbl 0x12(%rdx,%rax,1),%edx
  e0:	48 8b 45 f0          	mov    -0x10(%rbp),%rax
  e4:	88 50 15             	mov    %dl,0x15(%rax)
  e7:	48 8b 45 f0          	mov    -0x10(%rbp),%rax
  eb:	c6 40 16 00          	movb   $0x0,0x16(%rax)
  ef:	48 8b 55 d8          	mov    -0x28(%rbp),%rdx
  f3:	8b 45 d4             	mov    -0x2c(%rbp),%eax
  f6:	48 c1 e0 05          	shl    $0x5,%rax
  fa:	48 01 d0             	add    %rdx,%rax
  fd:	48 05 96 00 00 00    	add    $0x96,%rax
 103:	0f b6 10             	movzbl (%rax),%edx
 106:	48 8b 45 f0          	mov    -0x10(%rbp),%rax
 10a:	88 50 17             	mov    %dl,0x17(%rax)
 10d:	48 8b 45 f0          	mov    -0x10(%rbp),%rax
 111:	c6 40 18 00          	movb   $0x0,0x18(%rax)
 115:	48 8b 45 f0          	mov    -0x10(%rbp),%rax
 119:	0f b6 55 eb          	movzbl -0x15(%rbp),%edx
 11d:	88 50 19             	mov    %dl,0x19(%rax)
 120:	48 8b 45 f0          	mov    -0x10(%rbp),%rax
 124:	c6 40 1a 00          	movb   $0x0,0x1a(%rax)
 128:	48 8b 45 f0          	mov    -0x10(%rbp),%rax
 12c:	0f b6 55 eb          	movzbl -0x15(%rbp),%edx
 130:	88 50 1b             	mov    %dl,0x1b(%rax)
 133:	48 8b 45 d8          	mov    -0x28(%rbp),%rax
 137:	48 8b 80 60 0a 00 00 	mov    0xa60(%rax),%rax
 13e:	48 8b 55 d8          	mov    -0x28(%rbp),%rdx
 142:	48 8b 92 60 0a 00 00 	mov    0xa60(%rdx),%rdx
 149:	48 8b 12             	mov    (%rdx),%rdx
 14c:	48 83 c2 20          	add    $0x20,%rdx
 150:	4c 8b 02             	mov    (%rdx),%r8
 153:	48 8b 55 f0          	mov    -0x10(%rbp),%rdx
 157:	48 83 c2 1c          	add    $0x1c,%rdx
 15b:	8b 4d d4             	mov    -0x2c(%rbp),%ecx
 15e:	89 ce                	mov    %ecx,%esi
 160:	48 89 c7             	mov    %rax,%rdi
 163:	41 ff d0             	call   *%r8
 166:	0f b6 55 eb          	movzbl -0x15(%rbp),%edx
 16a:	89 d0                	mov    %edx,%eax
 16c:	01 c0                	add    %eax,%eax
 16e:	01 d0                	add    %edx,%eax
 170:	01 c0                	add    %eax,%eax
 172:	89 c0                	mov    %eax,%eax
 174:	48 83 c0 1c          	add    $0x1c,%rax
 178:	48 89 45 f8          	mov    %rax,-0x8(%rbp)
 17c:	e8 00 00 00 00       	call   181 <ArtNetNode::SendTod(unsigned int)+0x181>
 181:	48 89 c7             	mov    %rax,%rdi
 184:	48 8b 45 d8          	mov    -0x28(%rbp),%rax
 188:	8b 70 04             	mov    0x4(%rax),%esi
 18b:	48 8b 45 f8          	mov    -0x8(%rbp),%rax
 18f:	0f b7 c8             	movzwl %ax,%ecx
 192:	48 8b 45 d8          	mov    -0x28(%rbp),%rax
 196:	8b 00                	mov    (%rax),%eax
 198:	48 8b 55 f0          	mov    -0x10(%rbp),%rdx
 19c:	41 b9 36 19 00 00    	mov    $0x1936,%r9d
 1a2:	41 89 f0             	mov    %esi,%r8d
 1a5:	89 c6                	mov    %eax,%esi
 1a7:	e8 00 00 00 00       	call   1ac <ArtNetNode::SendTod(unsigned int)+0x1ac>
 1ac:	90                   	nop
 1ad:	c9                   	leave  
 1ae:	c3                   	ret    

Disassembly of section .text._ZN10ArtNetNode14SendTodRequestEj:

0000000000000000 <ArtNetNode::SendTodRequest(unsigned int)>:
   0:	f3 0f 1e fa          	endbr64 
   4:	55                   	push   %rbp
   5:	48 89 e5             	mov    %rsp,%rbp
   8:	48 83 ec 30          	sub    $0x30,%rsp
   c:	48 89 7d d8          	mov    %rdi,-0x28(%rbp)
  10:	89 75 d4             	mov    %esi,-0x2c(%rbp)
  13:	48 8b 45 d8          	mov    -0x28(%rbp),%rax
  17:	48 8b 80 60 0a 00 00 	mov    0xa60(%rax),%rax
  1e:	48 8b 55 d8          	mov    -0x28(%rbp),%rdx
  22:	48 8b 92 60 0a 00 00 	mov    0xa60(%rdx),%rdx
  29:	48 8b 12             	mov    (%rdx),%rdx
  2c:	48 83 c2 28          	add    $0x28,%rdx
  30:	48 8b 0a             	mov    (%rdx),%rcx
  33:	8b 55 d4             	mov    -0x2c(%rbp),%edx
  36:	89 d6                	mov    %edx,%esi
  38:	48 89 c7             	mov    %rax,%rdi
  3b:	ff d1                	call   *%rcx
  3d:	48 8b 45 d8          	mov    -0x28(%rbp),%rax
  41:	48 05 54 01 00 00    	add    $0x154,%rax
  47:	48 89 45 f0          	mov    %rax,-0x10(%rbp)
  4b:	8b 45 d4             	mov    -0x2c(%rbp),%eax
  4e:	c1 e8 02             	shr    $0x2,%eax
  51:	89 45 ec             	mov    %eax,-0x14(%rbp)
  54:	48 8b 45 f0          	mov    -0x10(%rbp),%rax
  58:	48 8b 15 00 00 00 00 	mov    0x0(%rip),%rdx        # 5f <ArtNetNode::SendTodRequest(unsigned int)+0x5f>
  5f:	48 89 10             	mov    %rdx,(%rax)
  62:	48 8b 45 f0          	mov    -0x10(%rbp),%rax
  66:	66 c7 40 08 00 80    	movw   $0x8000,0x8(%rax)
  6c:	48 8b 45 f0          	mov    -0x10(%rbp),%rax
  70:	c6 40 0a 00          	movb   $0x0,0xa(%rax)
  74:	48 8b 45 f0          	mov    -0x10(%rbp),%rax
  78:	c6 40 0b 0e          	movb   $0xe,0xb(%rax)
  7c:	48 8b 45 f0          	mov    -0x10(%rbp),%rax
  80:	c6 40 0e 00          	movb   $0x0,0xe(%rax)
  84:	48 8b 45 f0          	mov    -0x10(%rbp),%rax
  88:	c6 40 0f 00          	movb   $0x0,0xf(%rax)
  8c:	48 8b 45 f0          	mov    -0x10(%rbp),%rax
  90:	c6 40 10 00          	movb   $0x0,0x10(%rax)
  94:	48 8b 45 f0          	mov    -0x10(%rbp),%rax
  98:	c6 40 11 00          	movb   $0x0,0x11(%rax)
  9c:	48 8b 45 f0          	mov    -0x10(%rbp),%rax
  a0:	c6 40 12 00          	movb   $0x0,0x12(%rax)
  a4:	48 8b 45 f0          	mov    -0x10(%rbp),%rax
  a8:	c6 40 13 00          	movb   $0x0,0x13(%rax)
  ac:	48 8b 45 f0          	mov    -0x10(%rbp),%rax
  b0:	c6 40 14 00          	movb   $0x0,0x14(%rax)
  b4:	48 8b 55 d8          	mov    -0x28(%rbp),%rdx
  b8:	8b 45 ec             	mov    -0x14(%rbp),%eax
  bb:	0f b6 54 02 12       	movzbl 0x12(%rdx,%rax,1),%edx
  c0:	48 8b 45 f0          	mov    -0x10(%rbp),%rax
  c4:	88 50 15             	mov    %dl,0x15(%rax)
  c7:	48 8b 45 f0          	mov    -0x10(%rbp),%rax
  cb:	c6 40 16 00          	movb   $0x0,0x16(%rax)
  cf:	48 8b 45 f0          	mov    -0x10(%rbp),%rax
  d3:	c6 40 17 01          	movb   $0x1,0x17(%rax)
  d7:	48 8b 55 d8          	mov    -0x28(%rbp),%rdx
  db:	8b 45 d4             	mov    -0x2c(%rbp),%eax
  de:	48 83 c0 11          	add    $0x11,%rax
  e2:	48 c1 e0 04          	shl    $0x4,%rax
  e6:	48 01 d0             	add    %rdx,%rax
  e9:	48 83 c0 06          	add    $0x6,%rax
  ed:	0f b6 10             	movzbl (%rax),%edx
  f0:	48 8b 45 f0          	mov    -0x10(%rbp),%rax
  f4:	88 50 18             	mov    %dl,0x18(%rax)
  f7:	48 8b 45 f0          	mov    -0x10(%rbp),%rax
  fb:	0f b6 40 17          	movzbl 0x17(%rax),%eax
  ff:	0f b6 c0             	movzbl %al,%eax
 102:	48 83 c0 18          	add    $0x18,%rax
 106:	48 89 45 f8          	mov    %rax,-0x8(%rbp)
 10a:	e8 00 00 00 00       	call   10f <ArtNetNode::SendTodRequest(unsigned int)+0x10f>
 10f:	48 89 c7             	mov    %rax,%rdi
 112:	48 8b 45 d8          	mov    -0x28(%rbp),%rax
 116:	8b 70 04             	mov    0x4(%rax),%esi
 119:	48 8b 45 f8          	mov    -0x8(%rbp),%rax
 11d:	0f b7 c8             	movzwl %ax,%ecx
 120:	48 8b 45 d8          	mov    -0x28(%rbp),%rax
 124:	8b 00                	mov    (%rax),%eax
 126:	48 8b 55 f0          	mov    -0x10(%rbp),%rdx
 12a:	41 b9 36 19 00 00    	mov    $0x1936,%r9d
 130:	41 89 f0             	mov    %esi,%r8d
 133:	89 c6                	mov    %eax,%esi
 135:	e8 00 00 00 00       	call   13a <ArtNetNode::SendTodRequest(unsigned int)+0x13a>
 13a:	90                   	nop
 13b:	c9                   	leave  
 13c:	c3                   	ret    

Disassembly of section .text._ZN10ArtNetNode13SetRdmHandlerEP9ArtNetRdmb:

0000000000000000 <ArtNetNode::SetRdmHandler(ArtNetRdm*, bool)>:
   0:	f3 0f 1e fa          	endbr64 
   4:	55                   	push   %rbp
   5:	48 89 e5             	mov    %rsp,%rbp
   8:	48 89 7d f8          	mov    %rdi,-0x8(%rbp)
   c:	48 89 75 f0          	mov    %rsi,-0x10(%rbp)
  10:	89 d0                	mov    %edx,%eax
  12:	88 45 ec             	mov    %al,-0x14(%rbp)
  15:	48 8b 45 f8          	mov    -0x8(%rbp),%rax
  19:	48 8b 55 f0          	mov    -0x10(%rbp),%rdx
  1d:	48 89 90 60 0a 00 00 	mov    %rdx,0xa60(%rax)
  24:	48 8b 45 f8          	mov    -0x8(%rbp),%rax
  28:	48 8b 80 60 0a 00 00 	mov    0xa60(%rax),%rax
  2f:	48 85 c0             	test   %rax,%rax
  32:	74 24                	je     58 <ArtNetNode::SetRdmHandler(ArtNetRdm*, bool)+0x58>
  34:	48 8b 45 f8          	mov    -0x8(%rbp),%rax
  38:	0f b6 55 ec          	movzbl -0x14(%rbp),%edx
  3c:	88 90 4c 0a 00 00    	mov    %dl,0xa4c(%rax)
  42:	48 8b 45 f8          	mov    -0x8(%rbp),%rax
  46:	0f b6 40 67          	movzbl 0x67(%rax),%eax
  4a:	83 c8 02             	or     $0x2,%eax
  4d:	89 c2                	mov    %eax,%edx
  4f:	48 8b 45 f8          	mov    -0x8(%rbp),%rax
  53:	88 50 67             	mov    %dl,0x67(%rax)
  56:	eb 14                	jmp    6c <ArtNetNode::SetRdmHandler(ArtNetRdm*, bool)+0x6c>
  58:	48 8b 45 f8          	mov    -0x8(%rbp),%rax
  5c:	0f b6 40 67          	movzbl 0x67(%rax),%eax
  60:	83 e0 fd             	and    $0xfffffffd,%eax
  63:	89 c2                	mov    %eax,%edx
  65:	48 8b 45 f8          	mov    -0x8(%rbp),%rax
  69:	88 50 67             	mov    %dl,0x67(%rax)
  6c:	90                   	nop
  6d:	5d                   	pop    %rbp
  6e:	c3                   	ret    

Disassembly of section .text._ZN10ArtNetNode9HandleRdmEv:

0000000000000000 <ArtNetNode::HandleRdm()>:
   0:	f3 0f 1e fa          	endbr64 
   4:	55                   	push   %rbp
   5:	48 89 e5             	mov    %rsp,%rbp
   8:	48 83 ec 40          	sub    $0x40,%rsp
   c:	48 89 7d c8          	mov    %rdi,-0x38(%rbp)
  10:	48 8b 45 c8          	mov    -0x38(%rbp),%rax
  14:	48 05 54 01 00 00    	add    $0x154,%rax
  1a:	48 89 45 e8          	mov    %rax,-0x18(%rbp)
  1e:	48 8b 45 e8          	mov    -0x18(%rbp),%rax
  22:	0f b6 40 0c          	movzbl 0xc(%rax),%eax
  26:	3c 01                	cmp    $0x1,%al
  28:	0f 85 38 01 00 00    	jne    166 <ArtNetNode::HandleRdm()+0x166>
  2e:	48 8b 45 e8          	mov    -0x18(%rbp),%rax
  32:	0f b6 40 15          	movzbl 0x15(%rax),%eax
  36:	0f b6 c0             	movzbl %al,%eax
  39:	c1 e0 08             	shl    $0x8,%eax
  3c:	0f b7 d0             	movzwl %ax,%edx
  3f:	48 8b 45 e8          	mov    -0x18(%rbp),%rax
  43:	0f b6 40 17          	movzbl 0x17(%rax),%eax
  47:	0f b6 c0             	movzbl %al,%eax
  4a:	09 d0                	or     %edx,%eax
  4c:	89 45 e4             	mov    %eax,-0x1c(%rbp)
  4f:	c7 45 e0 00 00 00 00 	movl   $0x0,-0x20(%rbp)
  56:	e9 ff 00 00 00       	jmp    15a <ArtNetNode::HandleRdm()+0x15a>
  5b:	48 8b 55 c8          	mov    -0x38(%rbp),%rdx
  5f:	8b 45 e0             	mov    -0x20(%rbp),%eax
  62:	48 c1 e0 05          	shl    $0x5,%rax
  66:	48 01 d0             	add    %rdx,%rax
  69:	48 05 94 00 00 00    	add    $0x94,%rax
  6f:	0f b7 00             	movzwl (%rax),%eax
  72:	0f b7 c0             	movzwl %ax,%eax
  75:	39 45 e4             	cmp    %eax,-0x1c(%rbp)
  78:	0f 85 d8 00 00 00    	jne    156 <ArtNetNode::HandleRdm()+0x156>
  7e:	48 8b 55 c8          	mov    -0x38(%rbp),%rdx
  82:	8b 45 e0             	mov    -0x20(%rbp),%eax
  85:	48 c1 e0 05          	shl    $0x5,%rax
  89:	48 01 d0             	add    %rdx,%rax
  8c:	48 05 98 00 00 00    	add    $0x98,%rax
  92:	0f b6 00             	movzbl (%rax),%eax
  95:	84 c0                	test   %al,%al
  97:	0f 84 b9 00 00 00    	je     156 <ArtNetNode::HandleRdm()+0x156>
  9d:	48 8b 45 c8          	mov    -0x38(%rbp),%rax
  a1:	48 8b 80 60 0a 00 00 	mov    0xa60(%rax),%rax
  a8:	48 8b 55 c8          	mov    -0x38(%rbp),%rdx
  ac:	48 8b 92 60 0a 00 00 	mov    0xa60(%rdx),%rdx
  b3:	48 8b 12             	mov    (%rdx),%rdx
  b6:	48 83 c2 38          	add    $0x38,%rdx
  ba:	4c 8b 02             	mov    (%rdx),%r8
  bd:	48 8b 55 e8          	mov    -0x18(%rbp),%rdx
  c1:	48 83 c2 18          	add    $0x18,%rdx
  c5:	8b 4d e0             	mov    -0x20(%rbp),%ecx
  c8:	89 ce                	mov    %ecx,%esi
  ca:	48 89 c7             	mov    %rax,%rdi
  cd:	41 ff d0             	call   *%r8
  d0:	48 89 45 f0          	mov    %rax,-0x10(%rbp)
  d4:	48 83 7d f0 00       	cmpq   $0x0,-0x10(%rbp)
  d9:	74 7b                	je     156 <ArtNetNode::HandleRdm()+0x156>
  db:	48 8b 45 e8          	mov    -0x18(%rbp),%rax
  df:	c6 40 0c 01          	movb   $0x1,0xc(%rax)
  e3:	48 8b 45 f0          	mov    -0x10(%rbp),%rax
  e7:	48 83 c0 02          	add    $0x2,%rax
  eb:	0f b6 00             	movzbl (%rax),%eax
  ee:	0f b6 c0             	movzbl %al,%eax
  f1:	83 c0 01             	add    $0x1,%eax
  f4:	66 89 45 de          	mov    %ax,-0x22(%rbp)
  f8:	0f b7 45 de          	movzwl -0x22(%rbp),%eax
  fc:	48 8b 55 f0          	mov    -0x10(%rbp),%rdx
 100:	48 8d 72 01          	lea    0x1(%rdx),%rsi
 104:	48 8b 55 e8          	mov    -0x18(%rbp),%rdx
 108:	48 8d 4a 18          	lea    0x18(%rdx),%rcx
 10c:	48 89 c2             	mov    %rax,%rdx
 10f:	48 89 cf             	mov    %rcx,%rdi
 112:	e8 00 00 00 00       	call   117 <ArtNetNode::HandleRdm()+0x117>
 117:	0f b7 45 de          	movzwl -0x22(%rbp),%eax
 11b:	48 83 c0 18          	add    $0x18,%rax
 11f:	48 89 45 f8          	mov    %rax,-0x8(%rbp)
 123:	e8 00 00 00 00       	call   128 <ArtNetNode::HandleRdm()+0x128>
 128:	48 89 c7             	mov    %rax,%rdi
 12b:	48 8b 45 c8          	mov    -0x38(%rbp),%rax
 12f:	8b b0 20 06 00 00    	mov    0x620(%rax),%esi
 135:	48 8b 45 f8          	mov    -0x8(%rbp),%rax
 139:	0f b7 c8             	movzwl %ax,%ecx
 13c:	48 8b 45 c8          	mov    -0x38(%rbp),%rax
 140:	8b 00                	mov    (%rax),%eax
 142:	48 8b 55 e8          	mov    -0x18(%rbp),%rdx
 146:	41 b9 36 19 00 00    	mov    $0x1936,%r9d
 14c:	41 89 f0             	mov    %esi,%r8d
 14f:	89 c6                	mov    %eax,%esi
 151:	e8 00 00 00 00       	call   156 <ArtNetNode::HandleRdm()+0x156>
 156:	83 45 e0 01          	addl   $0x1,-0x20(%rbp)
 15a:	83 7d e0 03          	cmpl   $0x3,-0x20(%rbp)
 15e:	0f 86 f7 fe ff ff    	jbe    5b <ArtNetNode::HandleRdm()+0x5b>
 164:	eb 01                	jmp    167 <ArtNetNode::HandleRdm()+0x167>
 166:	90                   	nop
 167:	c9                   	leave  
 168:	c3                   	ret    

Disassembly of section .text._ZN10ArtNetNode9SetRdmUIDEPKhb:

0000000000000000 <ArtNetNode::SetRdmUID(unsigned char const*, bool)>:
   0:	f3 0f 1e fa          	endbr64 
   4:	55                   	push   %rbp
   5:	48 89 e5             	mov    %rsp,%rbp
   8:	48 83 ec 20          	sub    $0x20,%rsp
   c:	48 89 7d f8          	mov    %rdi,-0x8(%rbp)
  10:	48 89 75 f0          	mov    %rsi,-0x10(%rbp)
  14:	89 d0                	mov    %edx,%eax
  16:	88 45 ec             	mov    %al,-0x14(%rbp)
  19:	48 8b 45 f8          	mov    -0x8(%rbp),%rax
  1d:	48 8d 48 6a          	lea    0x6a(%rax),%rcx
  21:	48 8b 45 f0          	mov    -0x10(%rbp),%rax
  25:	ba 06 00 00 00       	mov    $0x6,%edx
  2a:	48 89 c6             	mov    %rax,%rsi
  2d:	48 89 cf             	mov    %rcx,%rdi
  30:	e8 00 00 00 00       	call   35 <ArtNetNode::SetRdmUID(unsigned char const*, bool)+0x35>
  35:	80 7d ec 00          	cmpb   $0x0,-0x14(%rbp)
  39:	74 16                	je     51 <ArtNetNode::SetRdmUID(unsigned char const*, bool)+0x51>
  3b:	48 8b 45 f8          	mov    -0x8(%rbp),%rax
  3f:	0f b6 40 69          	movzbl 0x69(%rax),%eax
  43:	83 c8 10             	or     $0x10,%eax
  46:	89 c2                	mov    %eax,%edx
  48:	48 8b 45 f8          	mov    -0x8(%rbp),%rax
  4c:	88 50 69             	mov    %dl,0x69(%rax)
  4f:	eb 14                	jmp    65 <ArtNetNode::SetRdmUID(unsigned char const*, bool)+0x65>
  51:	48 8b 45 f8          	mov    -0x8(%rbp),%rax
  55:	0f b6 40 69          	movzbl 0x69(%rax),%eax
  59:	83 e0 ef             	and    $0xffffffef,%eax
  5c:	89 c2                	mov    %eax,%edx
  5e:	48 8b 45 f8          	mov    -0x8(%rbp),%rax
  62:	88 50 69             	mov    %dl,0x69(%rax)
  65:	90                   	nop
  66:	c9                   	leave  
  67:	c3                   	ret    

artnetnodehandlerdmin.o:     file format elf64-x86-64


Disassembly of section .text._ZN7Network3GetEv:

0000000000000000 <Network::Get()>:
   0:	f3 0f 1e fa          	endbr64 
   4:	55                   	push   %rbp
   5:	48 89 e5             	mov    %rsp,%rbp
   8:	48 8b 05 00 00 00 00 	mov    0x0(%rip),%rax        # f <Network::Get()+0xf>
   f:	5d                   	pop    %rbp
  10:	c3                   	ret    

Disassembly of section .text._ZN10ArtNetNode11HandleRdmInEv:

0000000000000000 <ArtNetNode::HandleRdmIn()>:
   0:	f3 0f 1e fa          	endbr64 
   4:	55                   	push   %rbp
   5:	48 89 e5             	mov    %rsp,%rbp
   8:	48 83 ec 20          	sub    $0x20,%rsp
   c:	48 89 7d e8          	mov    %rdi,-0x18(%rbp)
  10:	48 8b 45 e8          	mov    -0x18(%rbp),%rax
  14:	48 05 54 01 00 00    	add    $0x154,%rax
  1a:	48 89 45 f8          	mov    %rax,-0x8(%rbp)
  1e:	c7 45 f0 00 00 00 00 	movl   $0x0,-0x10(%rbp)
  25:	e9 19 01 00 00       	jmp    143 <ArtNetNode::HandleRdmIn()+0x143>
  2a:	48 8b 55 e8          	mov    -0x18(%rbp),%rdx
  2e:	8b 45 f0             	mov    -0x10(%rbp),%eax
  31:	48 83 c0 11          	add    $0x11,%rax
  35:	48 c1 e0 04          	shl    $0x4,%rax
  39:	48 01 d0             	add    %rdx,%rax
  3c:	48 83 c0 08          	add    $0x8,%rax
  40:	0f b6 00             	movzbl (%rax),%eax
  43:	83 f0 01             	xor    $0x1,%eax
  46:	84 c0                	test   %al,%al
  48:	0f 85 f0 00 00 00    	jne    13e <ArtNetNode::HandleRdmIn()+0x13e>
  4e:	8b 45 f0             	mov    -0x10(%rbp),%eax
  51:	c1 e8 02             	shr    $0x2,%eax
  54:	89 45 f4             	mov    %eax,-0xc(%rbp)
  57:	48 8b 45 e8          	mov    -0x18(%rbp),%rax
  5b:	48 8b 80 60 0a 00 00 	mov    0xa60(%rax),%rax
  62:	48 8b 55 e8          	mov    -0x18(%rbp),%rdx
  66:	48 8b 92 60 0a 00 00 	mov    0xa60(%rdx),%rdx
  6d:	48 8b 12             	mov    (%rdx),%rdx
  70:	48 83 c2 40          	add    $0x40,%rdx
  74:	4c 8b 02             	mov    (%rdx),%r8
  77:	48 8b 55 f8          	mov    -0x8(%rbp),%rdx
  7b:	48 83 c2 18          	add    $0x18,%rdx
  7f:	8b 4d f0             	mov    -0x10(%rbp),%ecx
  82:	89 ce                	mov    %ecx,%esi
  84:	48 89 c7             	mov    %rax,%rdi
  87:	41 ff d0             	call   *%r8
  8a:	84 c0                	test   %al,%al
  8c:	0f 84 ad 00 00 00    	je     13f <ArtNetNode::HandleRdmIn()+0x13f>
  92:	48 8b 45 f8          	mov    -0x8(%rbp),%rax
  96:	48 8b 15 00 00 00 00 	mov    0x0(%rip),%rdx        # 9d <ArtNetNode::HandleRdmIn()+0x9d>
  9d:	48 89 10             	mov    %rdx,(%rax)
  a0:	48 8b 45 f8          	mov    -0x8(%rbp),%rax
  a4:	66 c7 40 08 00 83    	movw   $0x8300,0x8(%rax)
  aa:	48 8b 45 f8          	mov    -0x8(%rbp),%rax
  ae:	c6 40 0a 00          	movb   $0x0,0xa(%rax)
  b2:	48 8b 45 f8          	mov    -0x8(%rbp),%rax
  b6:	c6 40 0b 0e          	movb   $0xe,0xb(%rax)
  ba:	48 8b 45 f8          	mov    -0x8(%rbp),%rax
  be:	c6 40 0c 01          	movb   $0x1,0xc(%rax)
  c2:	48 8b 55 e8          	mov    -0x18(%rbp),%rdx
  c6:	8b 45 f4             	mov    -0xc(%rbp),%eax
  c9:	0f b6 54 02 12       	movzbl 0x12(%rdx,%rax,1),%edx
  ce:	48 8b 45 f8          	mov    -0x8(%rbp),%rax
  d2:	88 50 15             	mov    %dl,0x15(%rax)
  d5:	48 8b 45 f8          	mov    -0x8(%rbp),%rax
  d9:	c6 40 16 00          	movb   $0x0,0x16(%rax)
  dd:	48 8b 55 e8          	mov    -0x18(%rbp),%rdx
  e1:	8b 45 f0             	mov    -0x10(%rbp),%eax
  e4:	48 83 c0 11          	add    $0x11,%rax
  e8:	48 c1 e0 04          	shl    $0x4,%rax
  ec:	48 01 d0             	add    %rdx,%rax
  ef:	48 83 c0 06          	add    $0x6,%rax
  f3:	0f b6 10             	movzbl (%rax),%edx
  f6:	48 8b 45 f8          	mov    -0x8(%rbp),%rax
  fa:	88 50 17             	mov    %dl,0x17(%rax)
  fd:	e8 00 00 00 00       	call   102 <ArtNetNode::HandleRdmIn()+0x102>
 102:	48 89 c7             	mov    %rax,%rdi
 105:	48 8b 55 e8          	mov    -0x18(%rbp),%rdx
 109:	8b 45 f0             	mov    -0x10(%rbp),%eax
 10c:	48 83 c0 11          	add    $0x11,%rax
 110:	48 c1 e0 04          	shl    $0x4,%rax
 114:	48 01 d0             	add    %rdx,%rax
 117:	48 83 c0 0c          	add    $0xc,%rax
 11b:	8b 08                	mov    (%rax),%ecx
 11d:	48 8b 45 e8          	mov    -0x18(%rbp),%rax
 121:	8b 00                	mov    (%rax),%eax
 123:	48 8b 55 f8          	mov    -0x8(%rbp),%rdx
 127:	41 b9 36 19 00 00    	mov    $0x1936,%r9d
 12d:	41 89 c8             	mov    %ecx,%r8d
 130:	b9 17 01 00 00       	mov    $0x117,%ecx
 135:	89 c6                	mov    %eax,%esi
 137:	e8 00 00 00 00       	call   13c <ArtNetNode::HandleRdmIn()+0x13c>
 13c:	eb 01                	jmp    13f <ArtNetNode::HandleRdmIn()+0x13f>
 13e:	90                   	nop
 13f:	83 45 f0 01          	addl   $0x1,-0x10(%rbp)
 143:	83 7d f0 03          	cmpl   $0x3,-0x10(%rbp)
 147:	0f 86 dd fe ff ff    	jbe    2a <ArtNetNode::HandleRdmIn()+0x2a>
 14d:	90                   	nop
 14e:	90                   	nop
 14f:	c9                   	leave  
 150:	c3                   	ret    

artnetnodehandlesync.o:     file format elf64-x86-64


Disassembly of section .text._ZN8Hardware3GetEv:

0000000000000000 <Hardware::Get()>:
   0:	f3 0f 1e fa          	endbr64 
   4:	55                   	push   %rbp
   5:	48 89 e5             	mov    %rsp,%rbp
   8:	48 8b 05 00 00 00 00 	mov    0x0(%rip),%rax        # f <Hardware::Get()+0xf>
   f:	5d                   	pop    %rbp
  10:	c3                   	ret    

Disassembly of section .text._ZN8lightset4Data3GetEv:

0000000000000000 <lightset::Data::Get()>:
   0:	f3 0f 1e fa          	endbr64 
   4:	55                   	push   %rbp
   5:	48 89 e5             	mov    %rsp,%rbp
   8:	0f b6 05 00 00 00 00 	movzbl 0x0(%rip),%eax        # f <lightset::Data::Get()+0xf>
   f:	84 c0                	test   %al,%al
  11:	0f 94 c0             	sete   %al
  14:	84 c0                	test   %al,%al
  16:	74 36                	je     4e <lightset::Data::Get()+0x4e>
  18:	48 8d 05 00 00 00 00 	lea    0x0(%rip),%rax        # 1f <lightset::Data::Get()+0x1f>
  1f:	48 89 c7             	mov    %rax,%rdi
  22:	e8 00 00 00 00       	call   27 <lightset::Data::Get()+0x27>
  27:	85 c0                	test   %eax,%eax
  29:	0f 95 c0             	setne  %al
  2c:	84 c0                	test   %al,%al
  2e:	74 1e                	je     4e <lightset::Data::Get()+0x4e>
  30:	48 8d 05 00 00 00 00 	lea    0x0(%rip),%rax        # 37 <lightset::Data::Get()+0x37>
  37:	48 89 c7             	mov    %rax,%rdi
  3a:	e8 00 00 00 00       	call   3f <lightset::Data::Get()+0x3f>
  3f:	48 8d 05 00 00 00 00 	lea    0x0(%rip),%rax        # 46 <lightset::Data::Get()+0x46>
  46:	48 89 c7             	mov    %rax,%rdi
  49:	e8 00 00 00 00       	call   4e <lightset::Data::Get()+0x4e>
  4e:	48 8d 05 00 00 00 00 	lea    0x0(%rip),%rax        # 55 <lightset::Data::Get()+0x55>
  55:	5d                   	pop    %rbp
  56:	c3                   	ret    

Disassembly of section .text._ZN8lightset4Data6OutputEP8LightSetj:

0000000000000000 <lightset::Data::Output(LightSet*, unsigned int)>:
   0:	f3 0f 1e fa          	endbr64 
   4:	55                   	push   %rbp
   5:	48 89 e5             	mov    %rsp,%rbp
   8:	48 83 ec 10          	sub    $0x10,%rsp
   c:	48 89 7d f8          	mov    %rdi,-0x8(%rbp)
  10:	89 75 f4             	mov    %esi,-0xc(%rbp)
  13:	e8 00 00 00 00       	call   18 <lightset::Data::Output(LightSet*, unsigned int)+0x18>
  18:	48 89 c1             	mov    %rax,%rcx
  1b:	8b 55 f4             	mov    -0xc(%rbp),%edx
  1e:	48 8b 45 f8          	mov    -0x8(%rbp),%rax
  22:	48 89 c6             	mov    %rax,%rsi
  25:	48 89 cf             	mov    %rcx,%rdi
  28:	e8 00 00 00 00       	call   2d <lightset::Data::Output(LightSet*, unsigned int)+0x2d>
  2d:	90                   	nop
  2e:	c9                   	leave  
  2f:	c3                   	ret    

Disassembly of section .text._ZN8lightset4Data11ClearLengthEj:

0000000000000000 <lightset::Data::ClearLength(unsigned int)>:
   0:	f3 0f 1e fa          	endbr64 
   4:	55                   	push   %rbp
   5:	48 89 e5             	mov    %rsp,%rbp
   8:	48 83 ec 10          	sub    $0x10,%rsp
   c:	89 7d fc             	mov    %edi,-0x4(%rbp)
   f:	e8 00 00 00 00       	call   14 <lightset::Data::ClearLength(unsigned int)+0x14>
  14:	48 89 c2             	mov    %rax,%rdx
  17:	8b 45 fc             	mov    -0x4(%rbp),%eax
  1a:	89 c6                	mov    %eax,%esi
  1c:	48 89 d7             	mov    %rdx,%rdi
  1f:	e8 00 00 00 00       	call   24 <lightset::Data::ClearLength(unsigned int)+0x24>
  24:	90                   	nop
  25:	c9                   	leave  
  26:	c3                   	ret    

Disassembly of section .text._ZN8lightset4DataC2Ev:

0000000000000000 <lightset::Data::Data()>:
   0:	f3 0f 1e fa          	endbr64 
   4:	55                   	push   %rbp
   5:	48 89 e5             	mov    %rsp,%rbp
   8:	48 89 7d f8          	mov    %rdi,-0x8(%rbp)
   c:	90                   	nop
   d:	5d                   	pop    %rbp
   e:	c3                   	ret    

Disassembly of section .text._ZNK8lightset4Data7IOutputEP8LightSetj:

0000000000000000 <lightset::Data::IOutput(LightSet*, unsigned int) const>:
   0:	f3 0f 1e fa          	endbr64 
   4:	55                   	push   %rbp
   5:	48 89 e5             	mov    %rsp,%rbp
   8:	48 83 ec 20          	sub    $0x20,%rsp
   c:	48 89 7d f8          	mov    %rdi,-0x8(%rbp)
  10:	48 89 75 f0          	mov    %rsi,-0x10(%rbp)
  14:	89 55 ec             	mov    %edx,-0x14(%rbp)
  17:	48 8b 45 f0          	mov    -0x10(%rbp),%rax
  1b:	48 8b 00             	mov    (%rax),%rax
  1e:	48 83 c0 20          	add    $0x20,%rax
  22:	4c 8b 00             	mov    (%rax),%r8
  25:	48 8b 55 f8          	mov    -0x8(%rbp),%rdx
  29:	8b 45 ec             	mov    -0x14(%rbp),%eax
  2c:	48 69 c0 04 06 00 00 	imul   $0x604,%rax,%rax
  33:	48 01 d0             	add    %rdx,%rax
  36:	48 05 00 06 00 00    	add    $0x600,%rax
  3c:	8b 10                	mov    (%rax),%edx
  3e:	8b 45 ec             	mov    -0x14(%rbp),%eax
  41:	48 69 c0 04 06 00 00 	imul   $0x604,%rax,%rax
  48:	48 8d 88 00 04 00 00 	lea    0x400(%rax),%rcx
  4f:	48 8b 45 f8          	mov    -0x8(%rbp),%rax
  53:	48 8d 3c 01          	lea    (%rcx,%rax,1),%rdi
  57:	8b 75 ec             	mov    -0x14(%rbp),%esi
  5a:	48 8b 45 f0          	mov    -0x10(%rbp),%rax
  5e:	89 d1                	mov    %edx,%ecx
  60:	48 89 fa             	mov    %rdi,%rdx
  63:	48 89 c7             	mov    %rax,%rdi
  66:	41 ff d0             	call   *%r8
  69:	90                   	nop
  6a:	c9                   	leave  
  6b:	c3                   	ret    

Disassembly of section .text._ZN8lightset4Data12IClearLengthEj:

0000000000000000 <lightset::Data::IClearLength(unsigned int)>:
   0:	f3 0f 1e fa          	endbr64 
   4:	55                   	push   %rbp
   5:	48 89 e5             	mov    %rsp,%rbp
   8:	48 89 7d f8          	mov    %rdi,-0x8(%rbp)
   c:	89 75 f4             	mov    %esi,-0xc(%rbp)
   f:	48 8b 55 f8          	mov    -0x8(%rbp),%rdx
  13:	8b 45 f4             	mov    -0xc(%rbp),%eax
  16:	48 69 c0 04 06 00 00 	imul   $0x604,%rax,%rax
  1d:	48 01 d0             	add    %rdx,%rax
  20:	48 05 00 06 00 00    	add    $0x600,%rax
  26:	c7 00 00 00 00 00    	movl   $0x0,(%rax)
  2c:	90                   	nop
  2d:	5d                   	pop    %rbp
  2e:	c3                   	ret    

Disassembly of section .text._ZN10ArtNetNode10HandleSyncEv:

0000000000000000 <ArtNetNode::HandleSync()>:
   0:	f3 0f 1e fa          	endbr64 
   4:	55                   	push   %rbp
   5:	48 89 e5             	mov    %rsp,%rbp
   8:	48 83 ec 20          	sub    $0x20,%rsp
   c:	48 89 7d e8          	mov    %rdi,-0x18(%rbp)
  10:	48 8b 45 e8          	mov    -0x18(%rbp),%rax
  14:	c6 80 89 00 00 00 01 	movb   $0x1,0x89(%rax)
  1b:	e8 00 00 00 00       	call   20 <ArtNetNode::HandleSync()+0x20>
  20:	48 89 c7             	mov    %rax,%rdi
  23:	e8 00 00 00 00       	call   28 <ArtNetNode::HandleSync()+0x28>
  28:	48 8b 55 e8          	mov    -0x18(%rbp),%rdx
  2c:	89 82 80 00 00 00    	mov    %eax,0x80(%rdx)
  32:	c7 45 fc 00 00 00 00 	movl   $0x0,-0x4(%rbp)
  39:	e9 c8 00 00 00       	jmp    106 <ArtNetNode::HandleSync()+0x106>
  3e:	48 8b 55 e8          	mov    -0x18(%rbp),%rdx
  42:	8b 45 fc             	mov    -0x4(%rbp),%eax
  45:	48 83 c0 05          	add    $0x5,%rax
  49:	48 c1 e0 05          	shl    $0x5,%rax
  4d:	48 01 d0             	add    %rdx,%rax
  50:	48 83 c0 0c          	add    $0xc,%rax
  54:	8b 00                	mov    (%rax),%eax
  56:	85 c0                	test   %eax,%eax
  58:	0f 85 a4 00 00 00    	jne    102 <ArtNetNode::HandleSync()+0x102>
  5e:	48 8b 55 e8          	mov    -0x18(%rbp),%rdx
  62:	8b 45 fc             	mov    -0x4(%rbp),%eax
  65:	48 c1 e0 05          	shl    $0x5,%rax
  69:	48 01 d0             	add    %rdx,%rax
  6c:	48 05 98 00 00 00    	add    $0x98,%rax
  72:	0f b6 00             	movzbl (%rax),%eax
  75:	84 c0                	test   %al,%al
  77:	0f 84 85 00 00 00    	je     102 <ArtNetNode::HandleSync()+0x102>
  7d:	48 8b 45 e8          	mov    -0x18(%rbp),%rax
  81:	48 8b 80 50 0a 00 00 	mov    0xa50(%rax),%rax
  88:	8b 55 fc             	mov    -0x4(%rbp),%edx
  8b:	89 d6                	mov    %edx,%esi
  8d:	48 89 c7             	mov    %rax,%rdi
  90:	e8 00 00 00 00       	call   95 <ArtNetNode::HandleSync()+0x95>
  95:	48 8b 55 e8          	mov    -0x18(%rbp),%rdx
  99:	8b 45 fc             	mov    -0x4(%rbp),%eax
  9c:	48 83 c0 05          	add    $0x5,%rax
  a0:	48 c1 e0 05          	shl    $0x5,%rax
  a4:	48 01 d0             	add    %rdx,%rax
  a7:	48 83 c0 11          	add    $0x11,%rax
  ab:	0f b6 00             	movzbl (%rax),%eax
  ae:	83 f0 01             	xor    $0x1,%eax
  b1:	84 c0                	test   %al,%al
  b3:	74 43                	je     f8 <ArtNetNode::HandleSync()+0xf8>
  b5:	48 8b 45 e8          	mov    -0x18(%rbp),%rax
  b9:	48 8b 80 50 0a 00 00 	mov    0xa50(%rax),%rax
  c0:	48 8b 55 e8          	mov    -0x18(%rbp),%rdx
  c4:	48 8b 92 50 0a 00 00 	mov    0xa50(%rdx),%rdx
  cb:	48 8b 12             	mov    (%rdx),%rdx
  ce:	48 83 c2 10          	add    $0x10,%rdx
  d2:	48 8b 0a             	mov    (%rdx),%rcx
  d5:	8b 55 fc             	mov    -0x4(%rbp),%edx
  d8:	89 d6                	mov    %edx,%esi
  da:	48 89 c7             	mov    %rax,%rdi
  dd:	ff d1                	call   *%rcx
  df:	48 8b 55 e8          	mov    -0x18(%rbp),%rdx
  e3:	8b 45 fc             	mov    -0x4(%rbp),%eax
  e6:	48 83 c0 05          	add    $0x5,%rax
  ea:	48 c1 e0 05          	shl    $0x5,%rax
  ee:	48 01 d0             	add    %rdx,%rax
  f1:	48 83 c0 11          	add    $0x11,%rax
  f5:	c6 00 01             	movb   $0x1,(%rax)
  f8:	8b 45 fc             	mov    -0x4(%rbp),%eax
  fb:	89 c7                	mov    %eax,%edi
  fd:	e8 00 00 00 00       	call   102 <ArtNetNode::HandleSync()+0x102>
 102:	83 45 fc 01          	addl   $0x1,-0x4(%rbp)
 106:	83 7d fc 03          	cmpl   $0x3,-0x4(%rbp)
 10a:	0f 86 2e ff ff ff    	jbe    3e <ArtNetNode::HandleSync()+0x3e>
 110:	90                   	nop
 111:	90                   	nop
 112:	c9                   	leave  
 113:	c3                   	ret    

artnetnodehandletimecode.o:     file format elf64-x86-64


Disassembly of section .text._ZN7Network9IsValidIpEj:

0000000000000000 <Network::IsValidIp(unsigned int)>:
   0:	f3 0f 1e fa          	endbr64 
   4:	55                   	push   %rbp
   5:	48 89 e5             	mov    %rsp,%rbp
   8:	48 89 7d f8          	mov    %rdi,-0x8(%rbp)
   c:	89 75 f4             	mov    %esi,-0xc(%rbp)
   f:	48 8b 45 f8          	mov    -0x8(%rbp),%rax
  13:	8b 40 10             	mov    0x10(%rax),%eax
  16:	33 45 f4             	xor    -0xc(%rbp),%eax
  19:	89 c2                	mov    %eax,%edx
  1b:	48 8b 45 f8          	mov    -0x8(%rbp),%rax
  1f:	8b 40 18             	mov    0x18(%rax),%eax
  22:	21 d0                	and    %edx,%eax
  24:	85 c0                	test   %eax,%eax
  26:	0f 94 c0             	sete   %al
  29:	5d                   	pop    %rbp
  2a:	c3                   	ret    

Disassembly of section .text._ZN7Network3GetEv:

0000000000000000 <Network::Get()>:
   0:	f3 0f 1e fa          	endbr64 
   4:	55                   	push   %rbp
   5:	48 89 e5             	mov    %rsp,%rbp
   8:	48 8b 05 00 00 00 00 	mov    0x0(%rip),%rax        # f <Network::Get()+0xf>
   f:	5d                   	pop    %rbp
  10:	c3                   	ret    

Disassembly of section .text._ZN10ArtNetNode14HandleTimeCodeEv:

0000000000000000 <ArtNetNode::HandleTimeCode()>:
   0:	f3 0f 1e fa          	endbr64 
   4:	55                   	push   %rbp
   5:	48 89 e5             	mov    %rsp,%rbp
   8:	48 83 ec 20          	sub    $0x20,%rsp
   c:	48 89 7d e8          	mov    %rdi,-0x18(%rbp)
  10:	48 8b 45 e8          	mov    -0x18(%rbp),%rax
  14:	48 05 54 01 00 00    	add    $0x154,%rax
  1a:	48 89 45 f8          	mov    %rax,-0x8(%rbp)
  1e:	48 8b 45 e8          	mov    -0x18(%rbp),%rax
  22:	48 8b 80 58 0a 00 00 	mov    0xa58(%rax),%rax
  29:	48 8b 55 e8          	mov    -0x18(%rbp),%rdx
  2d:	48 8b 92 58 0a 00 00 	mov    0xa58(%rdx),%rdx
  34:	48 8b 12             	mov    (%rdx),%rdx
  37:	48 83 c2 20          	add    $0x20,%rdx
  3b:	48 8b 12             	mov    (%rdx),%rdx
  3e:	48 8b 4d f8          	mov    -0x8(%rbp),%rcx
  42:	48 83 c1 0e          	add    $0xe,%rcx
  46:	48 89 ce             	mov    %rcx,%rsi
  49:	48 89 c7             	mov    %rax,%rdi
  4c:	ff d2                	call   *%rdx
  4e:	90                   	nop
  4f:	c9                   	leave  
  50:	c3                   	ret    

Disassembly of section .text._ZN10ArtNetNode13SetTimeCodeIpEj:

0000000000000000 <ArtNetNode::SetTimeCodeIp(unsigned int)>:
   0:	f3 0f 1e fa          	endbr64 
   4:	55                   	push   %rbp
   5:	48 89 e5             	mov    %rsp,%rbp
   8:	48 83 ec 10          	sub    $0x10,%rsp
   c:	48 89 7d f8          	mov    %rdi,-0x8(%rbp)
  10:	89 75 f4             	mov    %esi,-0xc(%rbp)
  13:	e8 00 00 00 00       	call   18 <ArtNetNode::SetTimeCodeIp(unsigned int)+0x18>
  18:	48 89 c2             	mov    %rax,%rdx
  1b:	8b 45 f4             	mov    -0xc(%rbp),%eax
  1e:	89 c6                	mov    %eax,%esi
  20:	48 89 d7             	mov    %rdx,%rdi
  23:	e8 00 00 00 00       	call   28 <ArtNetNode::SetTimeCodeIp(unsigned int)+0x28>
  28:	84 c0                	test   %al,%al
  2a:	74 0c                	je     38 <ArtNetNode::SetTimeCodeIp(unsigned int)+0x38>
  2c:	48 8b 45 f8          	mov    -0x8(%rbp),%rax
  30:	8b 55 f4             	mov    -0xc(%rbp),%edx
  33:	89 50 08             	mov    %edx,0x8(%rax)
  36:	eb 0e                	jmp    46 <ArtNetNode::SetTimeCodeIp(unsigned int)+0x46>
  38:	48 8b 45 f8          	mov    -0x8(%rbp),%rax
  3c:	8b 50 04             	mov    0x4(%rax),%edx
  3f:	48 8b 45 f8          	mov    -0x8(%rbp),%rax
  43:	89 50 08             	mov    %edx,0x8(%rax)
  46:	90                   	nop
  47:	c9                   	leave  
  48:	c3                   	ret    

Disassembly of section .text._ZN10ArtNetNode12SendTimeCodeEPK15TArtNetTimeCode:

0000000000000000 <ArtNetNode::SendTimeCode(TArtNetTimeCode const*)>:
   0:	f3 0f 1e fa          	endbr64 
   4:	55                   	push   %rbp
   5:	48 89 e5             	mov    %rsp,%rbp
   8:	48 83 ec 20          	sub    $0x20,%rsp
   c:	48 89 7d e8          	mov    %rdi,-0x18(%rbp)
  10:	48 89 75 e0          	mov    %rsi,-0x20(%rbp)
  14:	48 8b 45 e8          	mov    -0x18(%rbp),%rax
  18:	48 05 54 01 00 00    	add    $0x154,%rax
  1e:	48 89 45 f8          	mov    %rax,-0x8(%rbp)
  22:	48 8b 45 f8          	mov    -0x8(%rbp),%rax
  26:	48 8b 15 00 00 00 00 	mov    0x0(%rip),%rdx        # 2d <ArtNetNode::SendTimeCode(TArtNetTimeCode const*)+0x2d>
  2d:	48 89 10             	mov    %rdx,(%rax)
  30:	48 8b 45 f8          	mov    -0x8(%rbp),%rax
  34:	66 c7 40 08 00 97    	movw   $0x9700,0x8(%rax)
  3a:	48 8b 45 f8          	mov    -0x8(%rbp),%rax
  3e:	c6 40 0a 00          	movb   $0x0,0xa(%rax)
  42:	48 8b 45 f8          	mov    -0x8(%rbp),%rax
  46:	c6 40 0b 0e          	movb   $0xe,0xb(%rax)
  4a:	48 8b 45 f8          	mov    -0x8(%rbp),%rax
  4e:	c6 40 0c 00          	movb   $0x0,0xc(%rax)
  52:	48 8b 45 f8          	mov    -0x8(%rbp),%rax
  56:	c6 40 0d 00          	movb   $0x0,0xd(%rax)
  5a:	48 8b 45 f8          	mov    -0x8(%rbp),%rax
  5e:	48 8d 48 0e          	lea    0xe(%rax),%rcx
  62:	48 8b 45 e0          	mov    -0x20(%rbp),%rax
  66:	ba 05 00 00 00       	mov    $0x5,%edx
  6b:	48 89 c6             	mov    %rax,%rsi
  6e:	48 89 cf             	mov    %rcx,%rdi
  71:	e8 00 00 00 00       	call   76 <ArtNetNode::SendTimeCode(TArtNetTimeCode const*)+0x76>
  76:	e8 00 00 00 00       	call   7b <ArtNetNode::SendTimeCode(TArtNetTimeCode const*)+0x7b>
  7b:	48 89 c7             	mov    %rax,%rdi
  7e:	48 8b 45 e8          	mov    -0x18(%rbp),%rax
  82:	8b 48 08             	mov    0x8(%rax),%ecx
  85:	48 8b 45 e8          	mov    -0x18(%rbp),%rax
  89:	8b 00                	mov    (%rax),%eax
  8b:	48 8b 55 f8          	mov    -0x8(%rbp),%rdx
  8f:	41 b9 36 19 00 00    	mov    $0x1936,%r9d
  95:	41 89 c8             	mov    %ecx,%r8d
  98:	b9 13 00 00 00       	mov    $0x13,%ecx
  9d:	89 c6                	mov    %eax,%esi
  9f:	e8 00 00 00 00       	call   a4 <ArtNetNode::SendTimeCode(TArtNetTimeCode const*)+0xa4>
  a4:	90                   	nop
  a5:	c9                   	leave  
  a6:	c3                   	ret    

artnetnodehandletimesync.o:     file format elf64-x86-64


Disassembly of section .text._ZN8Hardware3GetEv:

0000000000000000 <Hardware::Get()>:
   0:	f3 0f 1e fa          	endbr64 
   4:	55                   	push   %rbp
   5:	48 89 e5             	mov    %rsp,%rbp
   8:	48 8b 05 00 00 00 00 	mov    0x0(%rip),%rax        # f <Hardware::Get()+0xf>
   f:	5d                   	pop    %rbp
  10:	c3                   	ret    

Disassembly of section .text._ZN10ArtNetNode14HandleTimeSyncEv:

0000000000000000 <ArtNetNode::HandleTimeSync()>:
   0:	f3 0f 1e fa          	endbr64 
   4:	55                   	push   %rbp
   5:	48 89 e5             	mov    %rsp,%rbp
   8:	48 83 ec 60          	sub    $0x60,%rsp
   c:	48 89 7d a8          	mov    %rdi,-0x58(%rbp)
  10:	64 48 8b 04 25 28 00 	mov    %fs:0x28,%rax
  17:	00 00 
  19:	48 89 45 f8          	mov    %rax,-0x8(%rbp)
  1d:	31 c0                	xor    %eax,%eax
  1f:	48 8b 45 a8          	mov    -0x58(%rbp),%rax
  23:	48 05 54 01 00 00    	add    $0x154,%rax
  29:	48 89 45 b8          	mov    %rax,-0x48(%rbp)
  2d:	48 8b 45 b8          	mov    -0x48(%rbp),%rax
  31:	0f b6 40 0f          	movzbl 0xf(%rax),%eax
  35:	0f b6 c0             	movzbl %al,%eax
  38:	89 45 c0             	mov    %eax,-0x40(%rbp)
  3b:	48 8b 45 b8          	mov    -0x48(%rbp),%rax
  3f:	0f b6 40 10          	movzbl 0x10(%rax),%eax
  43:	0f b6 c0             	movzbl %al,%eax
  46:	89 45 c4             	mov    %eax,-0x3c(%rbp)
  49:	48 8b 45 b8          	mov    -0x48(%rbp),%rax
  4d:	0f b6 40 11          	movzbl 0x11(%rax),%eax
  51:	0f b6 c0             	movzbl %al,%eax
  54:	89 45 c8             	mov    %eax,-0x38(%rbp)
  57:	48 8b 45 b8          	mov    -0x48(%rbp),%rax
  5b:	0f b6 40 12          	movzbl 0x12(%rax),%eax
  5f:	0f b6 c0             	movzbl %al,%eax
  62:	89 45 cc             	mov    %eax,-0x34(%rbp)
  65:	48 8b 45 b8          	mov    -0x48(%rbp),%rax
  69:	0f b6 40 13          	movzbl 0x13(%rax),%eax
  6d:	0f b6 c0             	movzbl %al,%eax
  70:	89 45 d0             	mov    %eax,-0x30(%rbp)
  73:	48 8b 45 b8          	mov    -0x48(%rbp),%rax
  77:	0f b6 40 14          	movzbl 0x14(%rax),%eax
  7b:	0f b6 c0             	movzbl %al,%eax
  7e:	c1 e0 08             	shl    $0x8,%eax
  81:	89 c2                	mov    %eax,%edx
  83:	48 8b 45 b8          	mov    -0x48(%rbp),%rax
  87:	0f b6 40 15          	movzbl 0x15(%rax),%eax
  8b:	0f b6 c0             	movzbl %al,%eax
  8e:	01 d0                	add    %edx,%eax
  90:	89 45 d4             	mov    %eax,-0x2c(%rbp)
  93:	e8 00 00 00 00       	call   98 <ArtNetNode::HandleTimeSync()+0x98>
  98:	48 89 c2             	mov    %rax,%rdx
  9b:	48 8d 45 c0          	lea    -0x40(%rbp),%rax
  9f:	48 89 c6             	mov    %rax,%rsi
  a2:	48 89 d7             	mov    %rdx,%rdi
  a5:	e8 00 00 00 00       	call   aa <ArtNetNode::HandleTimeSync()+0xaa>
  aa:	90                   	nop
  ab:	48 8b 45 f8          	mov    -0x8(%rbp),%rax
  af:	64 48 2b 04 25 28 00 	sub    %fs:0x28,%rax
  b6:	00 00 
  b8:	74 05                	je     bf <ArtNetNode::HandleTimeSync()+0xbf>
  ba:	e8 00 00 00 00       	call   bf <ArtNetNode::HandleTimeSync()+0xbf>
  bf:	c9                   	leave  
  c0:	c3                   	ret    

artnetnodeprint.o:     file format elf64-x86-64


Disassembly of section .text._ZN6artnetL17get_protocol_modeENS_12PortProtocolEb:

0000000000000000 <artnet::get_protocol_mode(artnet::PortProtocol, bool)>:
   0:	40 84 f6             	test   %sil,%sil
   3:	74 12                	je     17 <artnet::get_protocol_mode(artnet::PortProtocol, bool)+0x17>
   5:	85 ff                	test   %edi,%edi
   7:	48 8d 05 00 00 00 00 	lea    0x0(%rip),%rax        # e <artnet::get_protocol_mode(artnet::PortProtocol, bool)+0xe>
   e:	48 8d 15 00 00 00 00 	lea    0x0(%rip),%rdx        # 15 <artnet::get_protocol_mode(artnet::PortProtocol, bool)+0x15>
  15:	eb 10                	jmp    27 <artnet::get_protocol_mode(artnet::PortProtocol, bool)+0x27>
  17:	85 ff                	test   %edi,%edi
  19:	48 8d 05 00 00 00 00 	lea    0x0(%rip),%rax        # 20 <artnet::get_protocol_mode(artnet::PortProtocol, bool)+0x20>
  20:	48 8d 15 00 00 00 00 	lea    0x0(%rip),%rdx        # 27 <artnet::get_protocol_mode(artnet::PortProtocol, bool)+0x27>
  27:	48 0f 45 c2          	cmovne %rdx,%rax
  2b:	c3                   	ret    

Disassembly of section .text._ZN8lightsetL14get_merge_modeENS_9MergeModeEb:

0000000000000000 <lightset::get_merge_mode(lightset::MergeMode, bool)>:
   0:	40 84 f6             	test   %sil,%sil
   3:	74 12                	je     17 <lightset::get_merge_mode(lightset::MergeMode, bool)+0x17>
   5:	85 ff                	test   %edi,%edi
   7:	48 8d 05 00 00 00 00 	lea    0x0(%rip),%rax        # e <lightset::get_merge_mode(lightset::MergeMode, bool)+0xe>
   e:	48 8d 15 00 00 00 00 	lea    0x0(%rip),%rdx        # 15 <lightset::get_merge_mode(lightset::MergeMode, bool)+0x15>
  15:	eb 10                	jmp    27 <lightset::get_merge_mode(lightset::MergeMode, bool)+0x27>
  17:	85 ff                	test   %edi,%edi
  19:	48 8d 05 00 00 00 00 	lea    0x0(%rip),%rax        # 20 <lightset::get_merge_mode(lightset::MergeMode, bool)+0x20>
  20:	48 8d 15 00 00 00 00 	lea    0x0(%rip),%rdx        # 27 <lightset::get_merge_mode(lightset::MergeMode, bool)+0x27>
  27:	48 0f 45 c2          	cmovne %rdx,%rax
  2b:	c3                   	ret    

Disassembly of section .text._ZNK10ArtNetNode6GetRdmEj:

0000000000000000 <ArtNetNode::GetRdm(unsigned int) const>:
   0:	f3 0f 1e fa          	endbr64 
   4:	89 f6                	mov    %esi,%esi
   6:	48 c1 e6 05          	shl    $0x5,%rsi
   a:	8a 84 3e b3 00 00 00 	mov    0xb3(%rsi,%rdi,1),%al
  11:	f7 d0                	not    %eax
  13:	c0 e8 07             	shr    $0x7,%al
  16:	c3                   	ret    

Disassembly of section .text._ZN10ArtNetNode5PrintEv:

0000000000000000 <ArtNetNode::Print()>:
   0:	f3 0f 1e fa          	endbr64 
   4:	41 57                	push   %r15
   6:	ba 01 00 00 00       	mov    $0x1,%edx
   b:	be 04 00 00 00       	mov    $0x4,%esi
  10:	41 56                	push   %r14
  12:	41 55                	push   %r13
  14:	41 54                	push   %r12
  16:	55                   	push   %rbp
  17:	53                   	push   %rbx
  18:	48 89 fb             	mov    %rdi,%rbx
  1b:	48 8d 3d 00 00 00 00 	lea    0x0(%rip),%rdi        # 22 <ArtNetNode::Print()+0x22>
  22:	48 83 ec 18          	sub    $0x18,%rsp
  26:	64 48 8b 04 25 28 00 	mov    %fs:0x28,%rax
  2d:	00 00 
  2f:	48 89 44 24 08       	mov    %rax,0x8(%rsp)
  34:	31 c0                	xor    %eax,%eax
  36:	e8 00 00 00 00       	call   3b <ArtNetNode::Print()+0x3b>
  3b:	0f b6 15 00 00 00 00 	movzbl 0x0(%rip),%edx        # 42 <ArtNetNode::Print()+0x42>
  42:	0f b6 35 00 00 00 00 	movzbl 0x0(%rip),%esi        # 49 <ArtNetNode::Print()+0x49>
  49:	31 c0                	xor    %eax,%eax
  4b:	48 8d 3d 00 00 00 00 	lea    0x0(%rip),%rdi        # 52 <ArtNetNode::Print()+0x52>
  52:	e8 00 00 00 00       	call   57 <ArtNetNode::Print()+0x57>
  57:	48 8d 73 14          	lea    0x14(%rbx),%rsi
  5b:	48 8d 3d 00 00 00 00 	lea    0x0(%rip),%rdi        # 62 <ArtNetNode::Print()+0x62>
  62:	31 c0                	xor    %eax,%eax
  64:	e8 00 00 00 00       	call   69 <ArtNetNode::Print()+0x69>
  69:	31 c0                	xor    %eax,%eax
  6b:	48 8d 73 26          	lea    0x26(%rbx),%rsi
  6f:	48 8d 3d 00 00 00 00 	lea    0x0(%rip),%rdi        # 76 <ArtNetNode::Print()+0x76>
  76:	e8 00 00 00 00       	call   7b <ArtNetNode::Print()+0x7b>
  7b:	80 bb 8e 00 00 00 00 	cmpb   $0x0,0x8e(%rbx)
  82:	0f 84 b0 00 00 00    	je     138 <ArtNetNode::Print()+0x138>
  88:	48 8d 3d 00 00 00 00 	lea    0x0(%rip),%rdi        # 8f <ArtNetNode::Print()+0x8f>
  8f:	31 ed                	xor    %ebp,%ebp
  91:	4c 8d 2d 00 00 00 00 	lea    0x0(%rip),%r13        # 98 <ArtNetNode::Print()+0x98>
  98:	e8 00 00 00 00       	call   9d <ArtNetNode::Print()+0x9d>
  9d:	48 8d 54 24 06       	lea    0x6(%rsp),%rdx
  a2:	b9 01 00 00 00       	mov    $0x1,%ecx
  a7:	89 ee                	mov    %ebp,%esi
  a9:	48 89 df             	mov    %rbx,%rdi
  ac:	e8 00 00 00 00       	call   b1 <ArtNetNode::Print()+0xb1>
  b1:	84 c0                	test   %al,%al
  b3:	74 76                	je     12b <ArtNetNode::Print()+0x12b>
  b5:	49 89 ee             	mov    %rbp,%r14
  b8:	31 f6                	xor    %esi,%esi
  ba:	48 89 df             	mov    %rbx,%rdi
  bd:	e8 00 00 00 00       	call   c2 <ArtNetNode::Print()+0xc2>
  c2:	49 c1 e6 05          	shl    $0x5,%r14
  c6:	be 01 00 00 00       	mov    $0x1,%esi
  cb:	4c 8d 05 00 00 00 00 	lea    0x0(%rip),%r8        # d2 <ArtNetNode::Print()+0xd2>
  d2:	46 0f b6 a4 33 b2 00 	movzbl 0xb2(%rbx,%r14,1),%r12d
  d9:	00 00 
  db:	41 d1 fc             	sar    %r12d
  de:	41 83 e4 01          	and    $0x1,%r12d
  e2:	84 c0                	test   %al,%al
  e4:	44 89 e7             	mov    %r12d,%edi
  e7:	4d 0f 45 c5          	cmovne %r13,%r8
  eb:	e8 00 00 00 00       	call   f0 <ArtNetNode::Print()+0xf0>
  f0:	0f b7 54 24 06       	movzwl 0x6(%rsp),%edx
  f5:	89 ee                	mov    %ebp,%esi
  f7:	48 8d 3d 00 00 00 00 	lea    0x0(%rip),%rdi        # fe <ArtNetNode::Print()+0xfe>
  fe:	48 89 c1             	mov    %rax,%rcx
 101:	31 c0                	xor    %eax,%eax
 103:	e8 00 00 00 00       	call   108 <ArtNetNode::Print()+0x108>
 108:	42 8b bc 33 ac 00 00 	mov    0xac(%rbx,%r14,1),%edi
 10f:	00 
 110:	be 01 00 00 00       	mov    $0x1,%esi
 115:	e8 00 00 00 00       	call   11a <ArtNetNode::Print()+0x11a>
 11a:	48 8d 3d 00 00 00 00 	lea    0x0(%rip),%rdi        # 121 <ArtNetNode::Print()+0x121>
 121:	48 89 c6             	mov    %rax,%rsi
 124:	31 c0                	xor    %eax,%eax
 126:	e8 00 00 00 00       	call   12b <ArtNetNode::Print()+0x12b>
 12b:	48 ff c5             	inc    %rbp
 12e:	48 83 fd 04          	cmp    $0x4,%rbp
 132:	0f 85 65 ff ff ff    	jne    9d <ArtNetNode::Print()+0x9d>
 138:	48 8b 44 24 08       	mov    0x8(%rsp),%rax
 13d:	64 48 2b 04 25 28 00 	sub    %fs:0x28,%rax
 144:	00 00 
 146:	74 05                	je     14d <ArtNetNode::Print()+0x14d>
 148:	e8 00 00 00 00       	call   14d <ArtNetNode::Print()+0x14d>
 14d:	48 83 c4 18          	add    $0x18,%rsp
 151:	5b                   	pop    %rbx
 152:	5d                   	pop    %rbp
 153:	41 5c                	pop    %r12
 155:	41 5d                	pop    %r13
 157:	41 5e                	pop    %r14
 159:	41 5f                	pop    %r15
 15b:	c3                   	ret    

artnetparamsconst.o:     file format elf64-x86-64


artnetparams.o:     file format elf64-x86-64


Disassembly of section .text._ZN6artnetL17get_protocol_modeENS_12PortProtocolEb:

0000000000000000 <artnet::get_protocol_mode(artnet::PortProtocol, bool)>:
   0:	40 84 f6             	test   %sil,%sil
   3:	74 12                	je     17 <artnet::get_protocol_mode(artnet::PortProtocol, bool)+0x17>
   5:	85 ff                	test   %edi,%edi
   7:	48 8d 05 00 00 00 00 	lea    0x0(%rip),%rax        # e <artnet::get_protocol_mode(artnet::PortProtocol, bool)+0xe>
   e:	48 8d 15 00 00 00 00 	lea    0x0(%rip),%rdx        # 15 <artnet::get_protocol_mode(artnet::PortProtocol, bool)+0x15>
  15:	eb 10                	jmp    27 <artnet::get_protocol_mode(artnet::PortProtocol, bool)+0x27>
  17:	85 ff                	test   %edi,%edi
  19:	48 8d 05 00 00 00 00 	lea    0x0(%rip),%rax        # 20 <artnet::get_protocol_mode(artnet::PortProtocol, bool)+0x20>
  20:	48 8d 15 00 00 00 00 	lea    0x0(%rip),%rdx        # 27 <artnet::get_protocol_mode(artnet::PortProtocol, bool)+0x27>
  27:	48 0f 45 c2          	cmovne %rdx,%rax
  2b:	c3                   	ret    

Disassembly of section .text._ZN6artnetL17get_protocol_modeEjb:

0000000000000000 <artnet::get_protocol_mode(unsigned int, bool)>:
   0:	40 0f b6 f6          	movzbl %sil,%esi
   4:	e9 00 00 00 00       	jmp    9 <.LC13>

Disassembly of section .text._ZN8lightsetL14get_merge_modeEPKc:

0000000000000000 <lightset::get_merge_mode(char const*)>:
   0:	31 c0                	xor    %eax,%eax
   2:	48 85 ff             	test   %rdi,%rdi
   5:	74 23                	je     2a <lightset::get_merge_mode(char const*)+0x2a>
   7:	8a 17                	mov    (%rdi),%dl
   9:	83 ca 20             	or     $0x20,%edx
   c:	80 fa 6c             	cmp    $0x6c,%dl
   f:	75 19                	jne    2a <lightset::get_merge_mode(char const*)+0x2a>
  11:	8a 57 01             	mov    0x1(%rdi),%dl
  14:	83 ca 20             	or     $0x20,%edx
  17:	80 fa 74             	cmp    $0x74,%dl
  1a:	75 0e                	jne    2a <lightset::get_merge_mode(char const*)+0x2a>
  1c:	8a 47 02             	mov    0x2(%rdi),%al
  1f:	83 c8 20             	or     $0x20,%eax
  22:	3c 70                	cmp    $0x70,%al
  24:	0f 94 c0             	sete   %al
  27:	0f b6 c0             	movzbl %al,%eax
  2a:	c3                   	ret    

Disassembly of section .text._ZN8lightsetL14get_merge_modeENS_9MergeModeEb:

0000000000000000 <lightset::get_merge_mode(lightset::MergeMode, bool)>:
   0:	40 84 f6             	test   %sil,%sil
   3:	74 12                	je     17 <lightset::get_merge_mode(lightset::MergeMode, bool)+0x17>
   5:	85 ff                	test   %edi,%edi
   7:	48 8d 05 00 00 00 00 	lea    0x0(%rip),%rax        # e <lightset::get_merge_mode(lightset::MergeMode, bool)+0xe>
   e:	48 8d 15 00 00 00 00 	lea    0x0(%rip),%rdx        # 15 <lightset::get_merge_mode(lightset::MergeMode, bool)+0x15>
  15:	eb 10                	jmp    27 <lightset::get_merge_mode(lightset::MergeMode, bool)+0x27>
  17:	85 ff                	test   %edi,%edi
  19:	48 8d 05 00 00 00 00 	lea    0x0(%rip),%rax        # 20 <lightset::get_merge_mode(lightset::MergeMode, bool)+0x20>
  20:	48 8d 15 00 00 00 00 	lea    0x0(%rip),%rdx        # 27 <lightset::get_merge_mode(lightset::MergeMode, bool)+0x27>
  27:	48 0f 45 c2          	cmovne %rdx,%rax
  2b:	c3                   	ret    

Disassembly of section .text._ZN8lightsetL14get_merge_modeEjb:

0000000000000000 <lightset::get_merge_mode(unsigned int, bool)>:
   0:	40 0f b6 f6          	movzbl %sil,%esi
   4:	e9 00 00 00 00       	jmp    9 <.LC13>

Disassembly of section .text._ZN8lightsetL13get_directionEPKc:

0000000000000000 <lightset::get_direction(char const*)>:
   0:	b8 01 00 00 00       	mov    $0x1,%eax
   5:	48 85 ff             	test   %rdi,%rdi
   8:	0f 84 8b 00 00 00    	je     99 <lightset::get_direction(char const*)+0x99>
   e:	8a 17                	mov    (%rdi),%dl
  10:	83 ca 20             	or     $0x20,%edx
  13:	80 fa 69             	cmp    $0x69,%dl
  16:	75 30                	jne    48 <lightset::get_direction(char const*)+0x48>
  18:	8a 57 01             	mov    0x1(%rdi),%dl
  1b:	83 ca 20             	or     $0x20,%edx
  1e:	80 fa 6e             	cmp    $0x6e,%dl
  21:	75 76                	jne    99 <lightset::get_direction(char const*)+0x99>
  23:	8a 57 02             	mov    0x2(%rdi),%dl
  26:	83 ca 20             	or     $0x20,%edx
  29:	80 fa 70             	cmp    $0x70,%dl
  2c:	75 6b                	jne    99 <lightset::get_direction(char const*)+0x99>
  2e:	8a 57 03             	mov    0x3(%rdi),%dl
  31:	83 ca 20             	or     $0x20,%edx
  34:	80 fa 75             	cmp    $0x75,%dl
  37:	75 60                	jne    99 <lightset::get_direction(char const*)+0x99>
  39:	8a 47 04             	mov    0x4(%rdi),%al
  3c:	83 c8 20             	or     $0x20,%eax
  3f:	3c 74                	cmp    $0x74,%al
  41:	0f 95 c0             	setne  %al
  44:	0f b6 c0             	movzbl %al,%eax
  47:	c3                   	ret    
  48:	b8 01 00 00 00       	mov    $0x1,%eax
  4d:	80 fa 64             	cmp    $0x64,%dl
  50:	75 47                	jne    99 <lightset::get_direction(char const*)+0x99>
  52:	8a 57 01             	mov    0x1(%rdi),%dl
  55:	83 ca 20             	or     $0x20,%edx
  58:	80 fa 69             	cmp    $0x69,%dl
  5b:	75 3c                	jne    99 <lightset::get_direction(char const*)+0x99>
  5d:	8a 57 02             	mov    0x2(%rdi),%dl
  60:	83 ca 20             	or     $0x20,%edx
  63:	80 fa 73             	cmp    $0x73,%dl
  66:	75 31                	jne    99 <lightset::get_direction(char const*)+0x99>
  68:	8a 57 03             	mov    0x3(%rdi),%dl
  6b:	83 ca 20             	or     $0x20,%edx
  6e:	80 fa 61             	cmp    $0x61,%dl
  71:	75 26                	jne    99 <lightset::get_direction(char const*)+0x99>
  73:	8a 57 04             	mov    0x4(%rdi),%dl
  76:	83 ca 20             	or     $0x20,%edx
  79:	80 fa 62             	cmp    $0x62,%dl
  7c:	75 1b                	jne    99 <lightset::get_direction(char const*)+0x99>
  7e:	8a 57 05             	mov    0x5(%rdi),%dl
  81:	83 ca 20             	or     $0x20,%edx
  84:	80 fa 6c             	cmp    $0x6c,%dl
  87:	75 10                	jne    99 <lightset::get_direction(char const*)+0x99>
  89:	8a 47 06             	mov    0x6(%rdi),%al
  8c:	83 c8 20             	or     $0x20,%eax
  8f:	3c 65                	cmp    $0x65,%al
  91:	0f 94 c0             	sete   %al
  94:	0f b6 c0             	movzbl %al,%eax
  97:	ff c0                	inc    %eax
  99:	c3                   	ret    

Disassembly of section .text._ZN8lightsetL13get_directionENS_7PortDirE:

0000000000000000 <lightset::get_direction(lightset::PortDir)>:
   0:	48 8d 05 00 00 00 00 	lea    0x0(%rip),%rax        # 7 <lightset::get_direction(lightset::PortDir)+0x7>
   7:	85 ff                	test   %edi,%edi
   9:	74 15                	je     20 <lightset::get_direction(lightset::PortDir)+0x20>
   b:	83 ff 02             	cmp    $0x2,%edi
   e:	48 8d 05 00 00 00 00 	lea    0x0(%rip),%rax        # 15 <lightset::get_direction(lightset::PortDir)+0x15>
  15:	48 8d 15 00 00 00 00 	lea    0x0(%rip),%rdx        # 1c <lightset::get_direction(lightset::PortDir)+0x1c>
  1c:	48 0f 44 c2          	cmove  %rdx,%rax
  20:	c3                   	ret    

Disassembly of section .text._ZN8lightsetL12get_failsafeEPKc:

0000000000000000 <lightset::get_failsafe(char const*)>:
   0:	55                   	push   %rbp
   1:	ba 04 00 00 00       	mov    $0x4,%edx
   6:	48 8d 35 00 00 00 00 	lea    0x0(%rip),%rsi        # d <lightset::get_failsafe(char const*)+0xd>
   d:	48 89 fd             	mov    %rdi,%rbp
  10:	e8 00 00 00 00       	call   15 <lightset::get_failsafe(char const*)+0x15>
  15:	85 c0                	test   %eax,%eax
  17:	74 5e                	je     77 <lightset::get_failsafe(char const*)+0x77>
  19:	ba 03 00 00 00       	mov    $0x3,%edx
  1e:	48 8d 35 00 00 00 00 	lea    0x0(%rip),%rsi        # 25 <lightset::get_failsafe(char const*)+0x25>
  25:	48 89 ef             	mov    %rbp,%rdi
  28:	e8 00 00 00 00       	call   2d <lightset::get_failsafe(char const*)+0x2d>
  2d:	41 89 c0             	mov    %eax,%r8d
  30:	b8 01 00 00 00       	mov    $0x1,%eax
  35:	45 85 c0             	test   %r8d,%r8d
  38:	74 3d                	je     77 <lightset::get_failsafe(char const*)+0x77>
  3a:	ba 02 00 00 00       	mov    $0x2,%edx
  3f:	48 8d 35 00 00 00 00 	lea    0x0(%rip),%rsi        # 46 <lightset::get_failsafe(char const*)+0x46>
  46:	48 89 ef             	mov    %rbp,%rdi
  49:	e8 00 00 00 00       	call   4e <lightset::get_failsafe(char const*)+0x4e>
  4e:	41 89 c0             	mov    %eax,%r8d
  51:	b8 02 00 00 00       	mov    $0x2,%eax
  56:	45 85 c0             	test   %r8d,%r8d
  59:	74 1c                	je     77 <lightset::get_failsafe(char const*)+0x77>
  5b:	ba 08 00 00 00       	mov    $0x8,%edx
  60:	48 8d 35 00 00 00 00 	lea    0x0(%rip),%rsi        # 67 <lightset::get_failsafe(char const*)+0x67>
  67:	48 89 ef             	mov    %rbp,%rdi
  6a:	e8 00 00 00 00       	call   6f <lightset::get_failsafe(char const*)+0x6f>
  6f:	83 f8 01             	cmp    $0x1,%eax
  72:	19 c0                	sbb    %eax,%eax
  74:	83 e0 03             	and    $0x3,%eax
  77:	5d                   	pop    %rbp
  78:	c3                   	ret    

Disassembly of section .text._ZN8lightsetL12get_failsafeENS_8FailSafeE:

0000000000000000 <lightset::get_failsafe(lightset::FailSafe)>:
   0:	48 8d 05 00 00 00 00 	lea    0x0(%rip),%rax        # 7 <lightset::get_failsafe(lightset::FailSafe)+0x7>
   7:	83 ff 02             	cmp    $0x2,%edi
   a:	74 1d                	je     29 <lightset::get_failsafe(lightset::FailSafe)+0x29>
   c:	48 8d 05 00 00 00 00 	lea    0x0(%rip),%rax        # 13 <lightset::get_failsafe(lightset::FailSafe)+0x13>
  13:	7f 14                	jg     29 <lightset::get_failsafe(lightset::FailSafe)+0x29>
  15:	85 ff                	test   %edi,%edi
  17:	48 8d 05 00 00 00 00 	lea    0x0(%rip),%rax        # 1e <lightset::get_failsafe(lightset::FailSafe)+0x1e>
  1e:	48 8d 15 00 00 00 00 	lea    0x0(%rip),%rdx        # 25 <lightset::get_failsafe(lightset::FailSafe)+0x25>
  25:	48 0f 44 c2          	cmove  %rdx,%rax
  29:	c3                   	ret    

Disassembly of section .text._ZN12artnetparamsL18portdir_shif_rightEjj:

0000000000000000 <artnetparams::portdir_shif_right(unsigned int, unsigned int)>:
   0:	8d 0c 36             	lea    (%rsi,%rsi,1),%ecx
   3:	d3 ef                	shr    %cl,%edi
   5:	89 f8                	mov    %edi,%eax
   7:	83 e0 03             	and    $0x3,%eax
   a:	c3                   	ret    

Disassembly of section .text._ZNK12ArtNetParams9isMaskSetEj:

0000000000000000 <ArtNetParams::isMaskSet(unsigned int) const>:
   0:	f3 0f 1e fa          	endbr64 
   4:	8b 47 08             	mov    0x8(%rdi),%eax
   7:	21 f0                	and    %esi,%eax
   9:	39 f0                	cmp    %esi,%eax
   b:	0f 94 c0             	sete   %al
   e:	c3                   	ret    

Disassembly of section .text._ZN10artnetnodeL16convert_failsafeEN8lightset8FailSafeE:

0000000000000000 <artnetnode::convert_failsafe(lightset::FailSafe)>:
   0:	8d 47 08             	lea    0x8(%rdi),%eax
   3:	c3                   	ret    

Disassembly of section .text._ZN10ArtNetNode22SetDisableMergeTimeoutEb:

0000000000000000 <ArtNetNode::SetDisableMergeTimeout(bool)>:
   0:	f3 0f 1e fa          	endbr64 
   4:	40 88 b7 8c 00 00 00 	mov    %sil,0x8c(%rdi)
   b:	c3                   	ret    

Disassembly of section .text._ZN10ArtNetNode15SetMapUniverse0Eb:

0000000000000000 <ArtNetNode::SetMapUniverse0(bool)>:
   0:	f3 0f 1e fa          	endbr64 
   4:	40 88 77 70          	mov    %sil,0x70(%rdi)
   8:	c3                   	ret    

Disassembly of section .text._ZN10ArtNetNode3GetEv:

0000000000000000 <ArtNetNode::Get()>:
   0:	f3 0f 1e fa          	endbr64 
   4:	48 8b 05 00 00 00 00 	mov    0x0(%rip),%rax        # b <ArtNetNode::Get()+0xb>
   b:	c3                   	ret    

Disassembly of section .text._ZN17PropertiesBuilder3AddEPKcb:

0000000000000000 <PropertiesBuilder::Add(char const*, bool)>:
   0:	f3 0f 1e fa          	endbr64 
   4:	0f b6 d2             	movzbl %dl,%edx
   7:	41 b8 01 00 00 00    	mov    $0x1,%r8d
   d:	89 d1                	mov    %edx,%ecx
   f:	e9 00 00 00 00       	jmp    14 <.LC17+0x2>

Disassembly of section .text._ZN17PropertiesBuilder7GetSizeEv:

0000000000000000 <PropertiesBuilder::GetSize()>:
   0:	f3 0f 1e fa          	endbr64 
   4:	80 7f 0c 00          	cmpb   $0x0,0xc(%rdi)
   8:	74 1b                	je     25 <PropertiesBuilder::GetSize()+0x25>
   a:	0f b7 47 0a          	movzwl 0xa(%rdi),%eax
   e:	48 8b 17             	mov    (%rdi),%rdx
  11:	c6 44 02 ff 7d       	movb   $0x7d,-0x1(%rdx,%rax,1)
  16:	0f b7 47 0a          	movzwl 0xa(%rdi),%eax
  1a:	48 8b 17             	mov    (%rdi),%rdx
  1d:	c6 04 02 7d          	movb   $0x7d,(%rdx,%rax,1)
  21:	66 ff 47 0a          	incw   0xa(%rdi)
  25:	66 8b 47 0a          	mov    0xa(%rdi),%ax
  29:	c3                   	ret    

Disassembly of section .text._ZN17PropertiesBuilder8add_partIPcEEiS1_jPKcT_bj:

0000000000000000 <int PropertiesBuilder::add_part<char*>(char*, unsigned int, char const*, char*, bool, unsigned int)>:
   0:	f3 0f 1e fa          	endbr64 
   4:	49 89 fa             	mov    %rdi,%r10
   7:	48 89 f7             	mov    %rsi,%rdi
   a:	89 d6                	mov    %edx,%esi
   c:	41 8a 42 0c          	mov    0xc(%r10),%al
  10:	45 84 c9             	test   %r9b,%r9b
  13:	75 06                	jne    1b <int PropertiesBuilder::add_part<char*>(char*, unsigned int, char const*, char*, bool, unsigned int)+0x1b>
  15:	84 c0                	test   %al,%al
  17:	75 0d                	jne    26 <int PropertiesBuilder::add_part<char*>(char*, unsigned int, char const*, char*, bool, unsigned int)+0x26>
  19:	eb 14                	jmp    2f <int PropertiesBuilder::add_part<char*>(char*, unsigned int, char const*, char*, bool, unsigned int)+0x2f>
  1b:	48 8d 15 00 00 00 00 	lea    0x0(%rip),%rdx        # 22 <int PropertiesBuilder::add_part<char*>(char*, unsigned int, char const*, char*, bool, unsigned int)+0x22>
  22:	84 c0                	test   %al,%al
  24:	74 10                	je     36 <int PropertiesBuilder::add_part<char*>(char*, unsigned int, char const*, char*, bool, unsigned int)+0x36>
  26:	48 8d 15 00 00 00 00 	lea    0x0(%rip),%rdx        # 2d <int PropertiesBuilder::add_part<char*>(char*, unsigned int, char const*, char*, bool, unsigned int)+0x2d>
  2d:	eb 07                	jmp    36 <int PropertiesBuilder::add_part<char*>(char*, unsigned int, char const*, char*, bool, unsigned int)+0x36>
  2f:	48 8d 15 00 00 00 00 	lea    0x0(%rip),%rdx        # 36 <int PropertiesBuilder::add_part<char*>(char*, unsigned int, char const*, char*, bool, unsigned int)+0x36>
  36:	31 c0                	xor    %eax,%eax
  38:	e9 00 00 00 00       	jmp    3d <.LC20+0x28>

Disassembly of section .text._ZN17PropertiesBuilder8add_partIPKcEEiPcjS2_T_bj:

0000000000000000 <int PropertiesBuilder::add_part<char const*>(char*, unsigned int, char const*, char const*, bool, unsigned int)>:
   0:	f3 0f 1e fa          	endbr64 
   4:	45 0f b6 c9          	movzbl %r9b,%r9d
   8:	e9 00 00 00 00       	jmp    d <.LC14+0x1>

Disassembly of section .text._ZN12artnetparamsL18portdir_shift_leftEN8lightset7PortDirEj:

0000000000000000 <artnetparams::portdir_shift_left(lightset::PortDir, unsigned int)>:
   0:	89 f8                	mov    %edi,%eax
   2:	8d 0c 36             	lea    (%rsi,%rsi,1),%ecx
   5:	83 e0 03             	and    $0x3,%eax
   8:	d3 e0                	shl    %cl,%eax
   a:	c3                   	ret    

Disassembly of section .text._ZN12artnetparamsL13portdir_clearEj:

0000000000000000 <artnetparams::portdir_clear(unsigned int)>:
   0:	8d 0c 3f             	lea    (%rdi,%rdi,1),%ecx
   3:	b8 03 00 00 00       	mov    $0x3,%eax
   8:	d3 e0                	shl    %cl,%eax
   a:	f7 d0                	not    %eax
   c:	c3                   	ret    

Disassembly of section .text._ZN12ArtNetParamsC2EP17ArtNetParamsStore:

0000000000000000 <ArtNetParams::ArtNetParams(ArtNetParamsStore*)>:
   0:	f3 0f 1e fa          	endbr64 
   4:	48 8d 57 08          	lea    0x8(%rdi),%rdx
   8:	55                   	push   %rbp
   9:	b9 87 00 00 00       	mov    $0x87,%ecx
   e:	53                   	push   %rbx
   f:	48 89 fb             	mov    %rdi,%rbx
  12:	50                   	push   %rax
  13:	31 c0                	xor    %eax,%eax
  15:	48 89 37             	mov    %rsi,(%rdi)
  18:	48 89 d7             	mov    %rdx,%rdi
  1b:	f3 aa                	rep stos %al,%es:(%rdi)
  1d:	c7 43 6f 01 02 03 04 	movl   $0x4030201,0x6f(%rbx)
  24:	66 c7 43 7d 55 00    	movw   $0x55,0x7d(%rbx)
  2a:	e8 00 00 00 00       	call   2f <ArtNetParams::ArtNetParams(ArtNetParamsStore*)+0x2f>
  2f:	48 8d 73 14          	lea    0x14(%rbx),%rsi
  33:	48 89 c5             	mov    %rax,%rbp
  36:	48 89 c7             	mov    %rax,%rdi
  39:	e8 00 00 00 00       	call   3e <ArtNetParams::ArtNetParams(ArtNetParamsStore*)+0x3e>
  3e:	48 8d 73 26          	lea    0x26(%rbx),%rsi
  42:	48 89 ef             	mov    %rbp,%rdi
  45:	e8 00 00 00 00       	call   4a <ArtNetParams::ArtNetParams(ArtNetParamsStore*)+0x4a>
  4a:	c6 43 0e 00          	movb   $0x0,0xe(%rbx)
  4e:	5a                   	pop    %rdx
  4f:	5b                   	pop    %rbx
  50:	5d                   	pop    %rbp
  51:	c3                   	ret    

Disassembly of section .text._ZN12ArtNetParams4LoadEv:

0000000000000000 <ArtNetParams::Load()>:
   0:	f3 0f 1e fa          	endbr64 
   4:	41 54                	push   %r12
   6:	48 89 fa             	mov    %rdi,%rdx
   9:	48 8d 35 00 00 00 00 	lea    0x0(%rip),%rsi        # 10 <ArtNetParams::Load()+0x10>
  10:	55                   	push   %rbp
  11:	53                   	push   %rbx
  12:	48 89 fb             	mov    %rdi,%rbx
  15:	48 83 ec 20          	sub    $0x20,%rsp
  19:	64 48 8b 04 25 28 00 	mov    %fs:0x28,%rax
  20:	00 00 
  22:	48 89 44 24 18       	mov    %rax,0x18(%rsp)
  27:	31 c0                	xor    %eax,%eax
  29:	c7 47 08 00 00 00 00 	movl   $0x0,0x8(%rdi)
  30:	48 8d 6c 24 08       	lea    0x8(%rsp),%rbp
  35:	66 c7 47 66 00 00    	movw   $0x0,0x66(%rdi)
  3b:	48 89 ef             	mov    %rbp,%rdi
  3e:	e8 00 00 00 00       	call   43 <ArtNetParams::Load()+0x43>
  43:	48 89 ef             	mov    %rbp,%rdi
  46:	48 8d 35 00 00 00 00 	lea    0x0(%rip),%rsi        # 4d <ArtNetParams::Load()+0x4d>
  4d:	e8 00 00 00 00       	call   52 <ArtNetParams::Load()+0x52>
  52:	48 8b 3b             	mov    (%rbx),%rdi
  55:	84 c0                	test   %al,%al
  57:	41 89 c4             	mov    %eax,%r12d
  5a:	74 11                	je     6d <ArtNetParams::Load()+0x6d>
  5c:	48 85 ff             	test   %rdi,%rdi
  5f:	74 1e                	je     7f <ArtNetParams::Load()+0x7f>
  61:	48 8b 07             	mov    (%rdi),%rax
  64:	48 8d 73 08          	lea    0x8(%rbx),%rsi
  68:	ff 50 10             	call   *0x10(%rax)
  6b:	eb 12                	jmp    7f <ArtNetParams::Load()+0x7f>
  6d:	48 85 ff             	test   %rdi,%rdi
  70:	74 0d                	je     7f <ArtNetParams::Load()+0x7f>
  72:	48 8b 07             	mov    (%rdi),%rax
  75:	48 8d 73 08          	lea    0x8(%rbx),%rsi
  79:	41 b4 01             	mov    $0x1,%r12b
  7c:	ff 50 18             	call   *0x18(%rax)
  7f:	48 89 ef             	mov    %rbp,%rdi
  82:	e8 00 00 00 00       	call   87 <ArtNetParams::Load()+0x87>
  87:	48 8b 44 24 18       	mov    0x18(%rsp),%rax
  8c:	64 48 2b 04 25 28 00 	sub    %fs:0x28,%rax
  93:	00 00 
  95:	74 05                	je     9c <ArtNetParams::Load()+0x9c>
  97:	e8 00 00 00 00       	call   9c <ArtNetParams::Load()+0x9c>
  9c:	48 83 c4 20          	add    $0x20,%rsp
  a0:	44 89 e0             	mov    %r12d,%eax
  a3:	5b                   	pop    %rbx
  a4:	5d                   	pop    %rbp
  a5:	41 5c                	pop    %r12
  a7:	c3                   	ret    

Disassembly of section .text._ZN12ArtNetParams4LoadEPKcj:

0000000000000000 <ArtNetParams::Load(char const*, unsigned int)>:
   0:	f3 0f 1e fa          	endbr64 
   4:	41 55                	push   %r13
   6:	41 54                	push   %r12
   8:	55                   	push   %rbp
   9:	53                   	push   %rbx
   a:	48 83 ec 28          	sub    $0x28,%rsp
   e:	64 48 8b 04 25 28 00 	mov    %fs:0x28,%rax
  15:	00 00 
  17:	48 89 44 24 18       	mov    %rax,0x18(%rsp)
  1c:	31 c0                	xor    %eax,%eax
  1e:	48 83 3f 00          	cmpq   $0x0,(%rdi)
  22:	74 50                	je     74 <ArtNetParams::Load(char const*, unsigned int)+0x74>
  24:	c7 47 08 00 00 00 00 	movl   $0x0,0x8(%rdi)
  2b:	48 89 fb             	mov    %rdi,%rbx
  2e:	49 89 f4             	mov    %rsi,%r12
  31:	41 89 d5             	mov    %edx,%r13d
  34:	66 c7 47 66 00 00    	movw   $0x0,0x66(%rdi)
  3a:	48 8d 6c 24 08       	lea    0x8(%rsp),%rbp
  3f:	48 89 fa             	mov    %rdi,%rdx
  42:	48 8d 35 00 00 00 00 	lea    0x0(%rip),%rsi        # 49 <ArtNetParams::Load(char const*, unsigned int)+0x49>
  49:	48 89 ef             	mov    %rbp,%rdi
  4c:	e8 00 00 00 00       	call   51 <ArtNetParams::Load(char const*, unsigned int)+0x51>
  51:	44 89 ea             	mov    %r13d,%edx
  54:	4c 89 e6             	mov    %r12,%rsi
  57:	48 89 ef             	mov    %rbp,%rdi
  5a:	e8 00 00 00 00       	call   5f <ArtNetParams::Load(char const*, unsigned int)+0x5f>
  5f:	48 8b 3b             	mov    (%rbx),%rdi
  62:	48 8d 73 08          	lea    0x8(%rbx),%rsi
  66:	48 8b 07             	mov    (%rdi),%rax
  69:	ff 50 10             	call   *0x10(%rax)
  6c:	48 89 ef             	mov    %rbp,%rdi
  6f:	e8 00 00 00 00       	call   74 <ArtNetParams::Load(char const*, unsigned int)+0x74>
  74:	48 8b 44 24 18       	mov    0x18(%rsp),%rax
  79:	64 48 2b 04 25 28 00 	sub    %fs:0x28,%rax
  80:	00 00 
  82:	74 05                	je     89 <ArtNetParams::Load(char const*, unsigned int)+0x89>
  84:	e8 00 00 00 00       	call   89 <ArtNetParams::Load(char const*, unsigned int)+0x89>
  89:	48 83 c4 28          	add    $0x28,%rsp
  8d:	5b                   	pop    %rbx
  8e:	5d                   	pop    %rbp
  8f:	41 5c                	pop    %r12
  91:	41 5d                	pop    %r13
  93:	c3                   	ret    

Disassembly of section .text._ZN12ArtNetParams7SetBoolEhj:

0000000000000000 <ArtNetParams::SetBool(unsigned char, unsigned int)>:
   0:	f3 0f 1e fa          	endbr64 
   4:	8b 47 08             	mov    0x8(%rdi),%eax
   7:	40 84 f6             	test   %sil,%sil
   a:	74 04                	je     10 <ArtNetParams::SetBool(unsigned char, unsigned int)+0x10>
   c:	09 d0                	or     %edx,%eax
   e:	eb 04                	jmp    14 <ArtNetParams::SetBool(unsigned char, unsigned int)+0x14>
  10:	f7 d2                	not    %edx
  12:	21 d0                	and    %edx,%eax
  14:	89 47 08             	mov    %eax,0x8(%rdi)
  17:	c3                   	ret    

Disassembly of section .text._ZN12ArtNetParams16callbackFunctionEPKc:

0000000000000000 <ArtNetParams::callbackFunction(char const*)>:
   0:	f3 0f 1e fa          	endbr64 
   4:	41 57                	push   %r15
   6:	49 89 ff             	mov    %rdi,%r15
   9:	41 56                	push   %r14
   b:	41 55                	push   %r13
   d:	41 54                	push   %r12
   f:	55                   	push   %rbp
  10:	48 89 f5             	mov    %rsi,%rbp
  13:	48 8d 35 00 00 00 00 	lea    0x0(%rip),%rsi        # 1a <ArtNetParams::callbackFunction(char const*)+0x1a>
  1a:	53                   	push   %rbx
  1b:	48 89 ef             	mov    %rbp,%rdi
  1e:	48 83 ec 78          	sub    $0x78,%rsp
  22:	64 48 8b 04 25 28 00 	mov    %fs:0x28,%rax
  29:	00 00 
  2b:	48 89 44 24 68       	mov    %rax,0x68(%rsp)
  30:	31 c0                	xor    %eax,%eax
  32:	4c 8d 74 24 24       	lea    0x24(%rsp),%r14
  37:	4c 8d 6c 24 28       	lea    0x28(%rsp),%r13
  3c:	c7 44 24 24 08 00 00 	movl   $0x8,0x24(%rsp)
  43:	00 
  44:	4c 89 f1             	mov    %r14,%rcx
  47:	4c 89 ea             	mov    %r13,%rdx
  4a:	e8 00 00 00 00       	call   4f <ArtNetParams::callbackFunction(char const*)+0x4f>
  4f:	85 c0                	test   %eax,%eax
  51:	75 25                	jne    78 <ArtNetParams::callbackFunction(char const*)+0x78>
  53:	4c 89 ef             	mov    %r13,%rdi
  56:	e8 00 00 00 00       	call   5b <ArtNetParams::callbackFunction(char const*)+0x5b>
  5b:	41 8b 57 08          	mov    0x8(%r15),%edx
  5f:	85 c0                	test   %eax,%eax
  61:	75 05                	jne    68 <ArtNetParams::callbackFunction(char const*)+0x68>
  63:	83 e2 ef             	and    $0xffffffef,%edx
  66:	eb 03                	jmp    6b <ArtNetParams::callbackFunction(char const*)+0x6b>
  68:	83 ca 10             	or     $0x10,%edx
  6b:	41 89 57 08          	mov    %edx,0x8(%r15)
  6f:	41 88 47 0e          	mov    %al,0xe(%r15)
  73:	e9 5d 03 00 00       	jmp    3d5 <ArtNetParams::callbackFunction(char const*)+0x3d5>
  78:	4d 8d 67 14          	lea    0x14(%r15),%r12
  7c:	4c 89 f1             	mov    %r14,%rcx
  7f:	48 8d 35 00 00 00 00 	lea    0x0(%rip),%rsi        # 86 <ArtNetParams::callbackFunction(char const*)+0x86>
  86:	48 89 ef             	mov    %rbp,%rdi
  89:	4c 89 e2             	mov    %r12,%rdx
  8c:	c7 44 24 24 11 00 00 	movl   $0x11,0x24(%rsp)
  93:	00 
  94:	e8 00 00 00 00       	call   99 <ArtNetParams::callbackFunction(char const*)+0x99>
  99:	85 c0                	test   %eax,%eax
  9b:	75 3d                	jne    da <ArtNetParams::callbackFunction(char const*)+0xda>
  9d:	8b 44 24 24          	mov    0x24(%rsp),%eax
  a1:	41 c6 44 07 14 00    	movb   $0x0,0x14(%r15,%rax,1)
  a7:	e8 00 00 00 00       	call   ac <ArtNetParams::callbackFunction(char const*)+0xac>
  ac:	4c 89 ee             	mov    %r13,%rsi
  af:	48 89 c7             	mov    %rax,%rdi
  b2:	e8 00 00 00 00       	call   b7 <ArtNetParams::callbackFunction(char const*)+0xb7>
  b7:	4c 89 ee             	mov    %r13,%rsi
  ba:	4c 89 e7             	mov    %r12,%rdi
  bd:	e8 00 00 00 00       	call   c2 <ArtNetParams::callbackFunction(char const*)+0xc2>
  c2:	85 c0                	test   %eax,%eax
  c4:	75 0a                	jne    d0 <ArtNetParams::callbackFunction(char const*)+0xd0>
  c6:	41 83 67 08 fd       	andl   $0xfffffffd,0x8(%r15)
  cb:	e9 05 03 00 00       	jmp    3d5 <ArtNetParams::callbackFunction(char const*)+0x3d5>
  d0:	41 83 4f 08 02       	orl    $0x2,0x8(%r15)
  d5:	e9 fb 02 00 00       	jmp    3d5 <ArtNetParams::callbackFunction(char const*)+0x3d5>
  da:	4d 8d 67 26          	lea    0x26(%r15),%r12
  de:	4c 89 f1             	mov    %r14,%rcx
  e1:	48 8d 35 00 00 00 00 	lea    0x0(%rip),%rsi        # e8 <ArtNetParams::callbackFunction(char const*)+0xe8>
  e8:	48 89 ef             	mov    %rbp,%rdi
  eb:	4c 89 e2             	mov    %r12,%rdx
  ee:	c7 44 24 24 3f 00 00 	movl   $0x3f,0x24(%rsp)
  f5:	00 
  f6:	e8 00 00 00 00       	call   fb <ArtNetParams::callbackFunction(char const*)+0xfb>
  fb:	85 c0                	test   %eax,%eax
  fd:	75 3d                	jne    13c <ArtNetParams::callbackFunction(char const*)+0x13c>
  ff:	8b 44 24 24          	mov    0x24(%rsp),%eax
 103:	41 c6 44 07 26 00    	movb   $0x0,0x26(%r15,%rax,1)
 109:	e8 00 00 00 00       	call   10e <ArtNetParams::callbackFunction(char const*)+0x10e>
 10e:	4c 89 ee             	mov    %r13,%rsi
 111:	48 89 c7             	mov    %rax,%rdi
 114:	e8 00 00 00 00       	call   119 <ArtNetParams::callbackFunction(char const*)+0x119>
 119:	4c 89 ee             	mov    %r13,%rsi
 11c:	4c 89 e7             	mov    %r12,%rdi
 11f:	e8 00 00 00 00       	call   124 <ArtNetParams::callbackFunction(char const*)+0x124>
 124:	85 c0                	test   %eax,%eax
 126:	75 0a                	jne    132 <ArtNetParams::callbackFunction(char const*)+0x132>
 128:	41 83 67 08 fe       	andl   $0xfffffffe,0x8(%r15)
 12d:	e9 a3 02 00 00       	jmp    3d5 <ArtNetParams::callbackFunction(char const*)+0x3d5>
 132:	41 83 4f 08 01       	orl    $0x1,0x8(%r15)
 137:	e9 99 02 00 00       	jmp    3d5 <ArtNetParams::callbackFunction(char const*)+0x3d5>
 13c:	4c 8d 64 24 23       	lea    0x23(%rsp),%r12
 141:	48 8d 35 00 00 00 00 	lea    0x0(%rip),%rsi        # 148 <ArtNetParams::callbackFunction(char const*)+0x148>
 148:	48 89 ef             	mov    %rbp,%rdi
 14b:	4c 89 e2             	mov    %r12,%rdx
 14e:	e8 00 00 00 00       	call   153 <ArtNetParams::callbackFunction(char const*)+0x153>
 153:	85 c0                	test   %eax,%eax
 155:	75 16                	jne    16d <ArtNetParams::callbackFunction(char const*)+0x16d>
 157:	41 8b 47 08          	mov    0x8(%r15),%eax
 15b:	8a 54 24 23          	mov    0x23(%rsp),%dl
 15f:	89 c1                	mov    %eax,%ecx
 161:	41 88 57 0c          	mov    %dl,0xc(%r15)
 165:	83 c8 04             	or     $0x4,%eax
 168:	83 e1 fb             	and    $0xfffffffb,%ecx
 16b:	eb 30                	jmp    19d <ArtNetParams::callbackFunction(char const*)+0x19d>
 16d:	4c 89 e2             	mov    %r12,%rdx
 170:	48 8d 35 00 00 00 00 	lea    0x0(%rip),%rsi        # 177 <ArtNetParams::callbackFunction(char const*)+0x177>
 177:	48 89 ef             	mov    %rbp,%rdi
 17a:	31 db                	xor    %ebx,%ebx
 17c:	e8 00 00 00 00       	call   181 <ArtNetParams::callbackFunction(char const*)+0x181>
 181:	85 c0                	test   %eax,%eax
 183:	0f 85 ba 00 00 00    	jne    243 <ArtNetParams::callbackFunction(char const*)+0x243>
 189:	8a 54 24 23          	mov    0x23(%rsp),%dl
 18d:	41 8b 47 08          	mov    0x8(%r15),%eax
 191:	41 88 57 0d          	mov    %dl,0xd(%r15)
 195:	89 c1                	mov    %eax,%ecx
 197:	83 c8 08             	or     $0x8,%eax
 19a:	83 e1 f7             	and    $0xfffffff7,%ecx
 19d:	84 d2                	test   %dl,%dl
 19f:	0f 44 c1             	cmove  %ecx,%eax
 1a2:	41 89 47 08          	mov    %eax,0x8(%r15)
 1a6:	e9 2a 02 00 00       	jmp    3d5 <ArtNetParams::callbackFunction(char const*)+0x3d5>
 1ab:	48 6b c3 12          	imul   $0x12,%rbx,%rax
 1af:	4c 89 f1             	mov    %r14,%rcx
 1b2:	4c 89 ea             	mov    %r13,%rdx
 1b5:	48 89 ef             	mov    %rbp,%rdi
 1b8:	48 8d 35 00 00 00 00 	lea    0x0(%rip),%rsi        # 1bf <ArtNetParams::callbackFunction(char const*)+0x1bf>
 1bf:	c7 44 24 24 03 00 00 	movl   $0x3,0x24(%rsp)
 1c6:	00 
 1c7:	48 01 c6             	add    %rax,%rsi
 1ca:	48 89 44 24 10       	mov    %rax,0x10(%rsp)
 1cf:	e8 00 00 00 00       	call   1d4 <ArtNetParams::callbackFunction(char const*)+0x1d4>
 1d4:	85 c0                	test   %eax,%eax
 1d6:	0f 84 d4 00 00 00    	je     2b0 <ArtNetParams::callbackFunction(char const*)+0x2b0>
 1dc:	48 8b 74 24 18       	mov    0x18(%rsp),%rsi
 1e1:	4c 89 f1             	mov    %r14,%rcx
 1e4:	4c 89 ea             	mov    %r13,%rdx
 1e7:	48 89 ef             	mov    %rbp,%rdi
 1ea:	48 8d 05 00 00 00 00 	lea    0x0(%rip),%rax        # 1f1 <ArtNetParams::callbackFunction(char const*)+0x1f1>
 1f1:	c7 44 24 24 04 00 00 	movl   $0x4,0x24(%rsp)
 1f8:	00 
 1f9:	48 01 c6             	add    %rax,%rsi
 1fc:	e8 00 00 00 00       	call   201 <ArtNetParams::callbackFunction(char const*)+0x201>
 201:	85 c0                	test   %eax,%eax
 203:	0f 84 d1 00 00 00    	je     2da <ArtNetParams::callbackFunction(char const*)+0x2da>
 209:	48 8b 74 24 10       	mov    0x10(%rsp),%rsi
 20e:	4c 89 f1             	mov    %r14,%rcx
 211:	4c 89 ea             	mov    %r13,%rdx
 214:	48 89 ef             	mov    %rbp,%rdi
 217:	48 8d 05 00 00 00 00 	lea    0x0(%rip),%rax        # 21e <ArtNetParams::callbackFunction(char const*)+0x21e>
 21e:	c7 44 24 24 07 00 00 	movl   $0x7,0x24(%rsp)
 225:	00 
 226:	48 01 c6             	add    %rax,%rsi
 229:	e8 00 00 00 00       	call   22e <ArtNetParams::callbackFunction(char const*)+0x22e>
 22e:	85 c0                	test   %eax,%eax
 230:	0f 84 ea 00 00 00    	je     320 <ArtNetParams::callbackFunction(char const*)+0x320>
 236:	48 ff c3             	inc    %rbx
 239:	48 83 fb 04          	cmp    $0x4,%rbx
 23d:	0f 84 16 01 00 00    	je     359 <ArtNetParams::callbackFunction(char const*)+0x359>
 243:	48 89 d8             	mov    %rbx,%rax
 246:	48 8d 35 00 00 00 00 	lea    0x0(%rip),%rsi        # 24d <ArtNetParams::callbackFunction(char const*)+0x24d>
 24d:	48 89 ef             	mov    %rbp,%rdi
 250:	41 89 dc             	mov    %ebx,%r12d
 253:	48 c1 e0 04          	shl    $0x4,%rax
 257:	48 89 44 24 18       	mov    %rax,0x18(%rsp)
 25c:	48 8d 44 24 23       	lea    0x23(%rsp),%rax
 261:	48 03 74 24 18       	add    0x18(%rsp),%rsi
 266:	48 89 c2             	mov    %rax,%rdx
 269:	48 89 44 24 08       	mov    %rax,0x8(%rsp)
 26e:	e8 00 00 00 00       	call   273 <ArtNetParams::callbackFunction(char const*)+0x273>
 273:	85 c0                	test   %eax,%eax
 275:	0f 85 30 ff ff ff    	jne    1ab <ArtNetParams::callbackFunction(char const*)+0x1ab>
 27b:	40 8a 74 24 23       	mov    0x23(%rsp),%sil
 280:	b8 00 20 00 00       	mov    $0x2000,%eax
 285:	44 89 e1             	mov    %r12d,%ecx
 288:	41 8b 57 08          	mov    0x8(%r15),%edx
 28c:	d3 e0                	shl    %cl,%eax
 28e:	40 80 fe 0f          	cmp    $0xf,%sil
 292:	77 0c                	ja     2a0 <ArtNetParams::callbackFunction(char const*)+0x2a0>
 294:	43 88 74 27 6f       	mov    %sil,0x6f(%r15,%r12,1)
 299:	09 d0                	or     %edx,%eax
 29b:	e9 02 ff ff ff       	jmp    1a2 <ArtNetParams::callbackFunction(char const*)+0x1a2>
 2a0:	ff c3                	inc    %ebx
 2a2:	f7 d0                	not    %eax
 2a4:	43 88 5c 27 6f       	mov    %bl,0x6f(%r15,%r12,1)
 2a9:	21 d0                	and    %edx,%eax
 2ab:	e9 f2 fe ff ff       	jmp    1a2 <ArtNetParams::callbackFunction(char const*)+0x1a2>
 2b0:	4c 89 ef             	mov    %r13,%rdi
 2b3:	44 89 e1             	mov    %r12d,%ecx
 2b6:	e8 00 00 00 00       	call   2bb <ArtNetParams::callbackFunction(char const*)+0x2bb>
 2bb:	41 89 c1             	mov    %eax,%r9d
 2be:	b8 00 00 04 00       	mov    $0x40000,%eax
 2c3:	d3 e0                	shl    %cl,%eax
 2c5:	41 ff c9             	dec    %r9d
 2c8:	75 08                	jne    2d2 <ArtNetParams::callbackFunction(char const*)+0x2d2>
 2ca:	43 c6 44 27 74 01    	movb   $0x1,0x74(%r15,%r12,1)
 2d0:	eb 34                	jmp    306 <ArtNetParams::callbackFunction(char const*)+0x306>
 2d2:	43 c6 44 27 74 00    	movb   $0x0,0x74(%r15,%r12,1)
 2d8:	eb 3b                	jmp    315 <ArtNetParams::callbackFunction(char const*)+0x315>
 2da:	ba 04 00 00 00       	mov    $0x4,%edx
 2df:	48 8d 35 00 00 00 00 	lea    0x0(%rip),%rsi        # 2e6 <ArtNetParams::callbackFunction(char const*)+0x2e6>
 2e6:	4c 89 ef             	mov    %r13,%rdi
 2e9:	e8 00 00 00 00       	call   2ee <ArtNetParams::callbackFunction(char const*)+0x2ee>
 2ee:	44 89 e1             	mov    %r12d,%ecx
 2f1:	41 89 c1             	mov    %eax,%r9d
 2f4:	b8 00 00 80 00       	mov    $0x800000,%eax
 2f9:	d3 e0                	shl    %cl,%eax
 2fb:	45 85 c9             	test   %r9d,%r9d
 2fe:	75 0f                	jne    30f <ArtNetParams::callbackFunction(char const*)+0x30f>
 300:	43 c6 44 27 79 01    	movb   $0x1,0x79(%r15,%r12,1)
 306:	41 09 47 08          	or     %eax,0x8(%r15)
 30a:	e9 c6 00 00 00       	jmp    3d5 <ArtNetParams::callbackFunction(char const*)+0x3d5>
 30f:	43 c6 44 27 79 00    	movb   $0x0,0x79(%r15,%r12,1)
 315:	f7 d0                	not    %eax
 317:	41 21 47 08          	and    %eax,0x8(%r15)
 31b:	e9 b5 00 00 00       	jmp    3d5 <ArtNetParams::callbackFunction(char const*)+0x3d5>
 320:	4c 89 ef             	mov    %r13,%rdi
 323:	e8 00 00 00 00       	call   328 <ArtNetParams::callbackFunction(char const*)+0x328>
 328:	44 89 e7             	mov    %r12d,%edi
 32b:	89 c6                	mov    %eax,%esi
 32d:	e8 00 00 00 00       	call   332 <ArtNetParams::callbackFunction(char const*)+0x332>
 332:	66 41 23 47 7d       	and    0x7d(%r15),%ax
 337:	83 fe 02             	cmp    $0x2,%esi
 33a:	bf 02 00 00 00       	mov    $0x2,%edi
 33f:	89 c2                	mov    %eax,%edx
 341:	44 89 e6             	mov    %r12d,%esi
 344:	74 05                	je     34b <ArtNetParams::callbackFunction(char const*)+0x34b>
 346:	bf 01 00 00 00       	mov    $0x1,%edi
 34b:	e8 00 00 00 00       	call   350 <ArtNetParams::callbackFunction(char const*)+0x350>
 350:	09 c2                	or     %eax,%edx
 352:	66 41 89 57 7d       	mov    %dx,0x7d(%r15)
 357:	eb 7c                	jmp    3d5 <ArtNetParams::callbackFunction(char const*)+0x3d5>
 359:	48 8b 54 24 08       	mov    0x8(%rsp),%rdx
 35e:	48 8d 35 00 00 00 00 	lea    0x0(%rip),%rsi        # 365 <ArtNetParams::callbackFunction(char const*)+0x365>
 365:	48 89 ef             	mov    %rbp,%rdi
 368:	e8 00 00 00 00       	call   36d <ArtNetParams::callbackFunction(char const*)+0x36d>
 36d:	85 c0                	test   %eax,%eax
 36f:	75 1c                	jne    38d <ArtNetParams::callbackFunction(char const*)+0x38d>
 371:	48 8b 44 24 68       	mov    0x68(%rsp),%rax
 376:	64 48 2b 04 25 28 00 	sub    %fs:0x28,%rax
 37d:	00 00 
 37f:	75 64                	jne    3e5 <ArtNetParams::callbackFunction(char const*)+0x3e5>
 381:	0f b6 74 24 23       	movzbl 0x23(%rsp),%esi
 386:	ba 00 00 00 08       	mov    $0x8000000,%edx
 38b:	eb 32                	jmp    3bf <ArtNetParams::callbackFunction(char const*)+0x3bf>
 38d:	48 8b 54 24 08       	mov    0x8(%rsp),%rdx
 392:	48 8d 35 00 00 00 00 	lea    0x0(%rip),%rsi        # 399 <ArtNetParams::callbackFunction(char const*)+0x399>
 399:	48 89 ef             	mov    %rbp,%rdi
 39c:	e8 00 00 00 00       	call   3a1 <ArtNetParams::callbackFunction(char const*)+0x3a1>
 3a1:	85 c0                	test   %eax,%eax
 3a3:	75 30                	jne    3d5 <ArtNetParams::callbackFunction(char const*)+0x3d5>
 3a5:	48 8b 44 24 68       	mov    0x68(%rsp),%rax
 3aa:	64 48 2b 04 25 28 00 	sub    %fs:0x28,%rax
 3b1:	00 00 
 3b3:	75 30                	jne    3e5 <ArtNetParams::callbackFunction(char const*)+0x3e5>
 3b5:	0f b6 74 24 23       	movzbl 0x23(%rsp),%esi
 3ba:	ba 00 10 00 00       	mov    $0x1000,%edx
 3bf:	48 83 c4 78          	add    $0x78,%rsp
 3c3:	4c 89 ff             	mov    %r15,%rdi
 3c6:	5b                   	pop    %rbx
 3c7:	5d                   	pop    %rbp
 3c8:	41 5c                	pop    %r12
 3ca:	41 5d                	pop    %r13
 3cc:	41 5e                	pop    %r14
 3ce:	41 5f                	pop    %r15
 3d0:	e9 00 00 00 00       	jmp    3d5 <ArtNetParams::callbackFunction(char const*)+0x3d5>
 3d5:	48 8b 44 24 68       	mov    0x68(%rsp),%rax
 3da:	64 48 2b 04 25 28 00 	sub    %fs:0x28,%rax
 3e1:	00 00 
 3e3:	74 05                	je     3ea <ArtNetParams::callbackFunction(char const*)+0x3ea>
 3e5:	e8 00 00 00 00       	call   3ea <ArtNetParams::callbackFunction(char const*)+0x3ea>
 3ea:	48 83 c4 78          	add    $0x78,%rsp
 3ee:	5b                   	pop    %rbx
 3ef:	5d                   	pop    %rbp
 3f0:	41 5c                	pop    %r12
 3f2:	41 5d                	pop    %r13
 3f4:	41 5e                	pop    %r14
 3f6:	41 5f                	pop    %r15
 3f8:	c3                   	ret    

Disassembly of section .text._ZN12ArtNetParams22staticCallbackFunctionEPvPKc:

0000000000000000 <ArtNetParams::staticCallbackFunction(void*, char const*)>:
   0:	f3 0f 1e fa          	endbr64 
   4:	e9 00 00 00 00       	jmp    9 <.LC13>

Disassembly of section .text._ZN12ArtNetParams7BuilderEPKN12artnetparams6ParamsEPcjRj:

0000000000000000 <ArtNetParams::Builder(artnetparams::Params const*, char*, unsigned int, unsigned int&)>:
   0:	f3 0f 1e fa          	endbr64 
   4:	41 57                	push   %r15
   6:	41 89 cf             	mov    %ecx,%r15d
   9:	41 56                	push   %r14
   b:	49 89 d6             	mov    %rdx,%r14
   e:	41 55                	push   %r13
  10:	4d 89 c5             	mov    %r8,%r13
  13:	4c 8d 47 08          	lea    0x8(%rdi),%r8
  17:	41 54                	push   %r12
  19:	55                   	push   %rbp
  1a:	48 89 fd             	mov    %rdi,%rbp
  1d:	53                   	push   %rbx
  1e:	48 83 ec 28          	sub    $0x28,%rsp
  22:	64 48 8b 04 25 28 00 	mov    %fs:0x28,%rax
  29:	00 00 
  2b:	48 89 44 24 18       	mov    %rax,0x18(%rsp)
  30:	31 c0                	xor    %eax,%eax
  32:	48 85 f6             	test   %rsi,%rsi
  35:	74 0c                	je     43 <ArtNetParams::Builder(artnetparams::Params const*, char*, unsigned int, unsigned int&)+0x43>
  37:	b9 87 00 00 00       	mov    $0x87,%ecx
  3c:	4c 89 c7             	mov    %r8,%rdi
  3f:	f3 a4                	rep movsb %ds:(%rsi),%es:(%rdi)
  41:	eb 0c                	jmp    4f <ArtNetParams::Builder(artnetparams::Params const*, char*, unsigned int, unsigned int&)+0x4f>
  43:	48 8b 3f             	mov    (%rdi),%rdi
  46:	4c 89 c6             	mov    %r8,%rsi
  49:	48 8b 07             	mov    (%rdi),%rax
  4c:	ff 50 18             	call   *0x18(%rax)
  4f:	4c 8d 64 24 08       	lea    0x8(%rsp),%r12
  54:	4c 89 f2             	mov    %r14,%rdx
  57:	44 89 f9             	mov    %r15d,%ecx
  5a:	31 db                	xor    %ebx,%ebx
  5c:	48 8d 35 00 00 00 00 	lea    0x0(%rip),%rsi        # 63 <ArtNetParams::Builder(artnetparams::Params const*, char*, unsigned int, unsigned int&)+0x63>
  63:	4c 89 e7             	mov    %r12,%rdi
  66:	4c 8d 35 00 00 00 00 	lea    0x0(%rip),%r14        # 6d <ArtNetParams::Builder(artnetparams::Params const*, char*, unsigned int, unsigned int&)+0x6d>
  6d:	e8 00 00 00 00       	call   72 <ArtNetParams::Builder(artnetparams::Params const*, char*, unsigned int, unsigned int&)+0x72>
  72:	be 01 00 00 00       	mov    $0x1,%esi
  77:	48 89 ef             	mov    %rbp,%rdi
  7a:	e8 00 00 00 00       	call   7f <ArtNetParams::Builder(artnetparams::Params const*, char*, unsigned int, unsigned int&)+0x7f>
  7f:	48 8d 55 26          	lea    0x26(%rbp),%rdx
  83:	41 b8 01 00 00 00    	mov    $0x1,%r8d
  89:	4c 89 e7             	mov    %r12,%rdi
  8c:	0f b6 c8             	movzbl %al,%ecx
  8f:	48 8d 35 00 00 00 00 	lea    0x0(%rip),%rsi        # 96 <ArtNetParams::Builder(artnetparams::Params const*, char*, unsigned int, unsigned int&)+0x96>
  96:	e8 00 00 00 00       	call   9b <ArtNetParams::Builder(artnetparams::Params const*, char*, unsigned int, unsigned int&)+0x9b>
  9b:	be 02 00 00 00       	mov    $0x2,%esi
  a0:	48 89 ef             	mov    %rbp,%rdi
  a3:	e8 00 00 00 00       	call   a8 <ArtNetParams::Builder(artnetparams::Params const*, char*, unsigned int, unsigned int&)+0xa8>
  a8:	48 8d 55 14          	lea    0x14(%rbp),%rdx
  ac:	41 b8 01 00 00 00    	mov    $0x1,%r8d
  b2:	4c 89 e7             	mov    %r12,%rdi
  b5:	0f b6 c8             	movzbl %al,%ecx
  b8:	48 8d 35 00 00 00 00 	lea    0x0(%rip),%rsi        # bf <ArtNetParams::Builder(artnetparams::Params const*, char*, unsigned int, unsigned int&)+0xbf>
  bf:	e8 00 00 00 00       	call   c4 <ArtNetParams::Builder(artnetparams::Params const*, char*, unsigned int, unsigned int&)+0xc4>
  c4:	be 04 00 00 00       	mov    $0x4,%esi
  c9:	48 89 ef             	mov    %rbp,%rdi
  cc:	e8 00 00 00 00       	call   d1 <ArtNetParams::Builder(artnetparams::Params const*, char*, unsigned int, unsigned int&)+0xd1>
  d1:	0f b6 55 0c          	movzbl 0xc(%rbp),%edx
  d5:	41 b8 01 00 00 00    	mov    $0x1,%r8d
  db:	4c 89 e7             	mov    %r12,%rdi
  de:	0f b6 c8             	movzbl %al,%ecx
  e1:	48 8d 35 00 00 00 00 	lea    0x0(%rip),%rsi        # e8 <ArtNetParams::Builder(artnetparams::Params const*, char*, unsigned int, unsigned int&)+0xe8>
  e8:	e8 00 00 00 00       	call   ed <ArtNetParams::Builder(artnetparams::Params const*, char*, unsigned int, unsigned int&)+0xed>
  ed:	be 08 00 00 00       	mov    $0x8,%esi
  f2:	48 89 ef             	mov    %rbp,%rdi
  f5:	e8 00 00 00 00       	call   fa <ArtNetParams::Builder(artnetparams::Params const*, char*, unsigned int, unsigned int&)+0xfa>
  fa:	0f b6 55 0d          	movzbl 0xd(%rbp),%edx
  fe:	41 b8 01 00 00 00    	mov    $0x1,%r8d
 104:	4c 89 e7             	mov    %r12,%rdi
 107:	0f b6 c8             	movzbl %al,%ecx
 10a:	48 8d 35 00 00 00 00 	lea    0x0(%rip),%rsi        # 111 <ArtNetParams::Builder(artnetparams::Params const*, char*, unsigned int, unsigned int&)+0x111>
 111:	e8 00 00 00 00       	call   116 <ArtNetParams::Builder(artnetparams::Params const*, char*, unsigned int, unsigned int&)+0x116>
 116:	be 10 00 00 00       	mov    $0x10,%esi
 11b:	48 89 ef             	mov    %rbp,%rdi
 11e:	e8 00 00 00 00       	call   123 <ArtNetParams::Builder(artnetparams::Params const*, char*, unsigned int, unsigned int&)+0x123>
 123:	0f b6 7d 0e          	movzbl 0xe(%rbp),%edi
 127:	41 b8 01 00 00 00    	mov    $0x1,%r8d
 12d:	48 8d 35 00 00 00 00 	lea    0x0(%rip),%rsi        # 134 <ArtNetParams::Builder(artnetparams::Params const*, char*, unsigned int, unsigned int&)+0x134>
 134:	0f b6 c8             	movzbl %al,%ecx
 137:	e8 00 00 00 00       	call   13c <ArtNetParams::Builder(artnetparams::Params const*, char*, unsigned int, unsigned int&)+0x13c>
 13c:	4c 89 e7             	mov    %r12,%rdi
 13f:	48 89 c2             	mov    %rax,%rdx
 142:	e8 00 00 00 00       	call   147 <ArtNetParams::Builder(artnetparams::Params const*, char*, unsigned int, unsigned int&)+0x147>
 147:	39 1d 00 00 00 00    	cmp    %ebx,0x0(%rip)        # 14d <ArtNetParams::Builder(artnetparams::Params const*, char*, unsigned int, unsigned int&)+0x14d>
 14d:	41 89 df             	mov    %ebx,%r15d
 150:	76 73                	jbe    1c5 <ArtNetParams::Builder(artnetparams::Params const*, char*, unsigned int, unsigned int&)+0x1c5>
 152:	89 d9                	mov    %ebx,%ecx
 154:	be 00 20 00 00       	mov    $0x2000,%esi
 159:	48 89 ef             	mov    %rbp,%rdi
 15c:	d3 e6                	shl    %cl,%esi
 15e:	e8 00 00 00 00       	call   163 <ArtNetParams::Builder(artnetparams::Params const*, char*, unsigned int, unsigned int&)+0x163>
 163:	48 89 de             	mov    %rbx,%rsi
 166:	0f b6 54 1d 6f       	movzbl 0x6f(%rbp,%rbx,1),%edx
 16b:	4c 89 e7             	mov    %r12,%rdi
 16e:	48 c1 e6 04          	shl    $0x4,%rsi
 172:	0f b6 c8             	movzbl %al,%ecx
 175:	41 b8 01 00 00 00    	mov    $0x1,%r8d
 17b:	4c 01 f6             	add    %r14,%rsi
 17e:	e8 00 00 00 00       	call   183 <ArtNetParams::Builder(artnetparams::Params const*, char*, unsigned int, unsigned int&)+0x183>
 183:	0f b7 7d 7d          	movzwl 0x7d(%rbp),%edi
 187:	44 89 fe             	mov    %r15d,%esi
 18a:	41 b8 01 00 00 00    	mov    $0x1,%r8d
 190:	e8 00 00 00 00       	call   195 <ArtNetParams::Builder(artnetparams::Params const*, char*, unsigned int, unsigned int&)+0x195>
 195:	0f b7 c8             	movzwl %ax,%ecx
 198:	89 cf                	mov    %ecx,%edi
 19a:	e8 00 00 00 00       	call   19f <ArtNetParams::Builder(artnetparams::Params const*, char*, unsigned int, unsigned int&)+0x19f>
 19f:	ff c9                	dec    %ecx
 1a1:	4c 89 e7             	mov    %r12,%rdi
 1a4:	0f 95 c1             	setne  %cl
 1a7:	48 6b f3 12          	imul   $0x12,%rbx,%rsi
 1ab:	48 89 c2             	mov    %rax,%rdx
 1ae:	48 ff c3             	inc    %rbx
 1b1:	48 8d 05 00 00 00 00 	lea    0x0(%rip),%rax        # 1b8 <ArtNetParams::Builder(artnetparams::Params const*, char*, unsigned int, unsigned int&)+0x1b8>
 1b8:	0f b6 c9             	movzbl %cl,%ecx
 1bb:	48 01 c6             	add    %rax,%rsi
 1be:	e8 00 00 00 00       	call   1c3 <ArtNetParams::Builder(artnetparams::Params const*, char*, unsigned int, unsigned int&)+0x1c3>
 1c3:	eb 82                	jmp    147 <ArtNetParams::Builder(artnetparams::Params const*, char*, unsigned int, unsigned int&)+0x147>
 1c5:	48 8d 35 00 00 00 00 	lea    0x0(%rip),%rsi        # 1cc <ArtNetParams::Builder(artnetparams::Params const*, char*, unsigned int, unsigned int&)+0x1cc>
 1cc:	4c 89 e7             	mov    %r12,%rdi
 1cf:	31 db                	xor    %ebx,%ebx
 1d1:	e8 00 00 00 00       	call   1d6 <ArtNetParams::Builder(artnetparams::Params const*, char*, unsigned int, unsigned int&)+0x1d6>
 1d6:	4c 8d 35 00 00 00 00 	lea    0x0(%rip),%r14        # 1dd <ArtNetParams::Builder(artnetparams::Params const*, char*, unsigned int, unsigned int&)+0x1dd>
 1dd:	39 1d 00 00 00 00    	cmp    %ebx,0x0(%rip)        # 1e3 <ArtNetParams::Builder(artnetparams::Params const*, char*, unsigned int, unsigned int&)+0x1e3>
 1e3:	76 3d                	jbe    222 <ArtNetParams::Builder(artnetparams::Params const*, char*, unsigned int, unsigned int&)+0x222>
 1e5:	89 d9                	mov    %ebx,%ecx
 1e7:	be 00 00 04 00       	mov    $0x40000,%esi
 1ec:	48 89 ef             	mov    %rbp,%rdi
 1ef:	d3 e6                	shl    %cl,%esi
 1f1:	e8 00 00 00 00       	call   1f6 <ArtNetParams::Builder(artnetparams::Params const*, char*, unsigned int, unsigned int&)+0x1f6>
 1f6:	0f b6 7c 1d 74       	movzbl 0x74(%rbp,%rbx,1),%edi
 1fb:	31 f6                	xor    %esi,%esi
 1fd:	41 b8 01 00 00 00    	mov    $0x1,%r8d
 203:	0f b6 c8             	movzbl %al,%ecx
 206:	e8 00 00 00 00       	call   20b <ArtNetParams::Builder(artnetparams::Params const*, char*, unsigned int, unsigned int&)+0x20b>
 20b:	48 6b f3 12          	imul   $0x12,%rbx,%rsi
 20f:	4c 89 e7             	mov    %r12,%rdi
 212:	48 ff c3             	inc    %rbx
 215:	48 89 c2             	mov    %rax,%rdx
 218:	4c 01 f6             	add    %r14,%rsi
 21b:	e8 00 00 00 00       	call   220 <ArtNetParams::Builder(artnetparams::Params const*, char*, unsigned int, unsigned int&)+0x220>
 220:	eb bb                	jmp    1dd <ArtNetParams::Builder(artnetparams::Params const*, char*, unsigned int, unsigned int&)+0x1dd>
 222:	48 8d 35 00 00 00 00 	lea    0x0(%rip),%rsi        # 229 <ArtNetParams::Builder(artnetparams::Params const*, char*, unsigned int, unsigned int&)+0x229>
 229:	4c 89 e7             	mov    %r12,%rdi
 22c:	31 db                	xor    %ebx,%ebx
 22e:	e8 00 00 00 00       	call   233 <ArtNetParams::Builder(artnetparams::Params const*, char*, unsigned int, unsigned int&)+0x233>
 233:	4c 8d 35 00 00 00 00 	lea    0x0(%rip),%r14        # 23a <ArtNetParams::Builder(artnetparams::Params const*, char*, unsigned int, unsigned int&)+0x23a>
 23a:	3b 1d 00 00 00 00    	cmp    0x0(%rip),%ebx        # 240 <ArtNetParams::Builder(artnetparams::Params const*, char*, unsigned int, unsigned int&)+0x240>
 240:	73 40                	jae    282 <ArtNetParams::Builder(artnetparams::Params const*, char*, unsigned int, unsigned int&)+0x282>
 242:	89 d9                	mov    %ebx,%ecx
 244:	be 00 00 80 00       	mov    $0x800000,%esi
 249:	48 89 ef             	mov    %rbp,%rdi
 24c:	d3 e6                	shl    %cl,%esi
 24e:	e8 00 00 00 00       	call   253 <ArtNetParams::Builder(artnetparams::Params const*, char*, unsigned int, unsigned int&)+0x253>
 253:	0f b6 7c 1d 79       	movzbl 0x79(%rbp,%rbx,1),%edi
 258:	31 f6                	xor    %esi,%esi
 25a:	41 b8 01 00 00 00    	mov    $0x1,%r8d
 260:	0f b6 c8             	movzbl %al,%ecx
 263:	e8 00 00 00 00       	call   268 <ArtNetParams::Builder(artnetparams::Params const*, char*, unsigned int, unsigned int&)+0x268>
 268:	48 89 de             	mov    %rbx,%rsi
 26b:	4c 89 e7             	mov    %r12,%rdi
 26e:	48 ff c3             	inc    %rbx
 271:	48 c1 e6 04          	shl    $0x4,%rsi
 275:	48 89 c2             	mov    %rax,%rdx
 278:	4c 01 f6             	add    %r14,%rsi
 27b:	e8 00 00 00 00       	call   280 <ArtNetParams::Builder(artnetparams::Params const*, char*, unsigned int, unsigned int&)+0x280>
 280:	eb b8                	jmp    23a <ArtNetParams::Builder(artnetparams::Params const*, char*, unsigned int, unsigned int&)+0x23a>
 282:	be 00 00 00 08       	mov    $0x8000000,%esi
 287:	48 89 ef             	mov    %rbp,%rdi
 28a:	e8 00 00 00 00       	call   28f <ArtNetParams::Builder(artnetparams::Params const*, char*, unsigned int, unsigned int&)+0x28f>
 28f:	48 8d 35 00 00 00 00 	lea    0x0(%rip),%rsi        # 296 <ArtNetParams::Builder(artnetparams::Params const*, char*, unsigned int, unsigned int&)+0x296>
 296:	4c 89 e7             	mov    %r12,%rdi
 299:	0f b6 d0             	movzbl %al,%edx
 29c:	e8 00 00 00 00       	call   2a1 <ArtNetParams::Builder(artnetparams::Params const*, char*, unsigned int, unsigned int&)+0x2a1>
 2a1:	48 8d 35 00 00 00 00 	lea    0x0(%rip),%rsi        # 2a8 <ArtNetParams::Builder(artnetparams::Params const*, char*, unsigned int, unsigned int&)+0x2a8>
 2a8:	4c 89 e7             	mov    %r12,%rdi
 2ab:	e8 00 00 00 00       	call   2b0 <ArtNetParams::Builder(artnetparams::Params const*, char*, unsigned int, unsigned int&)+0x2b0>
 2b0:	be 00 10 00 00       	mov    $0x1000,%esi
 2b5:	48 89 ef             	mov    %rbp,%rdi
 2b8:	e8 00 00 00 00       	call   2bd <ArtNetParams::Builder(artnetparams::Params const*, char*, unsigned int, unsigned int&)+0x2bd>
 2bd:	48 8d 35 00 00 00 00 	lea    0x0(%rip),%rsi        # 2c4 <ArtNetParams::Builder(artnetparams::Params const*, char*, unsigned int, unsigned int&)+0x2c4>
 2c4:	4c 89 e7             	mov    %r12,%rdi
 2c7:	0f b6 d0             	movzbl %al,%edx
 2ca:	e8 00 00 00 00       	call   2cf <ArtNetParams::Builder(artnetparams::Params const*, char*, unsigned int, unsigned int&)+0x2cf>
 2cf:	4c 89 e7             	mov    %r12,%rdi
 2d2:	e8 00 00 00 00       	call   2d7 <ArtNetParams::Builder(artnetparams::Params const*, char*, unsigned int, unsigned int&)+0x2d7>
 2d7:	0f b7 c0             	movzwl %ax,%eax
 2da:	41 89 45 00          	mov    %eax,0x0(%r13)
 2de:	48 8b 44 24 18       	mov    0x18(%rsp),%rax
 2e3:	64 48 2b 04 25 28 00 	sub    %fs:0x28,%rax
 2ea:	00 00 
 2ec:	74 05                	je     2f3 <ArtNetParams::Builder(artnetparams::Params const*, char*, unsigned int, unsigned int&)+0x2f3>
 2ee:	e8 00 00 00 00       	call   2f3 <ArtNetParams::Builder(artnetparams::Params const*, char*, unsigned int, unsigned int&)+0x2f3>
 2f3:	48 83 c4 28          	add    $0x28,%rsp
 2f7:	5b                   	pop    %rbx
 2f8:	5d                   	pop    %rbp
 2f9:	41 5c                	pop    %r12
 2fb:	41 5d                	pop    %r13
 2fd:	41 5e                	pop    %r14
 2ff:	41 5f                	pop    %r15
 301:	c3                   	ret    

Disassembly of section .text._ZN12ArtNetParams4SaveEPcjRj:

0000000000000000 <ArtNetParams::Save(char*, unsigned int, unsigned int&)>:
   0:	f3 0f 1e fa          	endbr64 
   4:	48 83 3f 00          	cmpq   $0x0,(%rdi)
   8:	49 89 c8             	mov    %rcx,%r8
   b:	75 07                	jne    14 <ArtNetParams::Save(char*, unsigned int, unsigned int&)+0x14>
   d:	c7 01 00 00 00 00    	movl   $0x0,(%rcx)
  13:	c3                   	ret    
  14:	89 d1                	mov    %edx,%ecx
  16:	48 89 f2             	mov    %rsi,%rdx
  19:	31 f6                	xor    %esi,%esi
  1b:	e9 00 00 00 00       	jmp    20 <.LC20+0xb>

Disassembly of section .text._ZN12ArtNetParams3SetEj:

0000000000000000 <ArtNetParams::Set(unsigned int)>:
   0:	f3 0f 1e fa          	endbr64 
   4:	41 57                	push   %r15
   6:	41 56                	push   %r14
   8:	41 55                	push   %r13
   a:	41 89 f5             	mov    %esi,%r13d
   d:	41 54                	push   %r12
   f:	55                   	push   %rbp
  10:	48 89 fd             	mov    %rdi,%rbp
  13:	53                   	push   %rbx
  14:	48 83 ec 18          	sub    $0x18,%rsp
  18:	64 48 8b 04 25 28 00 	mov    %fs:0x28,%rax
  1f:	00 00 
  21:	48 89 44 24 08       	mov    %rax,0x8(%rsp)
  26:	31 c0                	xor    %eax,%eax
  28:	83 fe 04             	cmp    $0x4,%esi
  2b:	77 24                	ja     51 <ArtNetParams::Set(unsigned int)+0x51>
  2d:	b8 04 00 00 00       	mov    $0x4,%eax
  32:	48 8d 3d 00 00 00 00 	lea    0x0(%rip),%rdi        # 39 <ArtNetParams::Set(unsigned int)+0x39>
  39:	29 f0                	sub    %esi,%eax
  3b:	48 8d 74 24 04       	lea    0x4(%rsp),%rsi
  40:	89 44 24 04          	mov    %eax,0x4(%rsp)
  44:	e8 00 00 00 00       	call   49 <ArtNetParams::Set(unsigned int)+0x49>
  49:	8b 00                	mov    (%rax),%eax
  4b:	89 05 00 00 00 00    	mov    %eax,0x0(%rip)        # 51 <ArtNetParams::Set(unsigned int)+0x51>
  51:	83 7d 08 00          	cmpl   $0x0,0x8(%rbp)
  55:	0f 84 56 01 00 00    	je     1b1 <ArtNetParams::Set(unsigned int)+0x1b1>
  5b:	e8 00 00 00 00       	call   60 <ArtNetParams::Set(unsigned int)+0x60>
  60:	be 02 00 00 00       	mov    $0x2,%esi
  65:	48 89 ef             	mov    %rbp,%rdi
  68:	49 89 c4             	mov    %rax,%r12
  6b:	e8 00 00 00 00       	call   70 <ArtNetParams::Set(unsigned int)+0x70>
  70:	84 c0                	test   %al,%al
  72:	74 0c                	je     80 <ArtNetParams::Set(unsigned int)+0x80>
  74:	48 8d 75 14          	lea    0x14(%rbp),%rsi
  78:	4c 89 e7             	mov    %r12,%rdi
  7b:	e8 00 00 00 00       	call   80 <ArtNetParams::Set(unsigned int)+0x80>
  80:	be 01 00 00 00       	mov    $0x1,%esi
  85:	48 89 ef             	mov    %rbp,%rdi
  88:	e8 00 00 00 00       	call   8d <ArtNetParams::Set(unsigned int)+0x8d>
  8d:	84 c0                	test   %al,%al
  8f:	74 0c                	je     9d <ArtNetParams::Set(unsigned int)+0x9d>
  91:	48 8d 75 26          	lea    0x26(%rbp),%rsi
  95:	4c 89 e7             	mov    %r12,%rdi
  98:	e8 00 00 00 00       	call   9d <ArtNetParams::Set(unsigned int)+0x9d>
  9d:	be 04 00 00 00       	mov    $0x4,%esi
  a2:	48 89 ef             	mov    %rbp,%rdi
  a5:	e8 00 00 00 00       	call   aa <ArtNetParams::Set(unsigned int)+0xaa>
  aa:	84 c0                	test   %al,%al
  ac:	74 0e                	je     bc <ArtNetParams::Set(unsigned int)+0xbc>
  ae:	0f b6 75 0c          	movzbl 0xc(%rbp),%esi
  b2:	31 d2                	xor    %edx,%edx
  b4:	4c 89 e7             	mov    %r12,%rdi
  b7:	e8 00 00 00 00       	call   bc <ArtNetParams::Set(unsigned int)+0xbc>
  bc:	be 08 00 00 00       	mov    $0x8,%esi
  c1:	48 89 ef             	mov    %rbp,%rdi
  c4:	e8 00 00 00 00       	call   c9 <ArtNetParams::Set(unsigned int)+0xc9>
  c9:	84 c0                	test   %al,%al
  cb:	74 0e                	je     db <ArtNetParams::Set(unsigned int)+0xdb>
  cd:	0f b6 75 0d          	movzbl 0xd(%rbp),%esi
  d1:	31 d2                	xor    %edx,%edx
  d3:	4c 89 e7             	mov    %r12,%rdi
  d6:	e8 00 00 00 00       	call   db <ArtNetParams::Set(unsigned int)+0xdb>
  db:	31 db                	xor    %ebx,%ebx
  dd:	39 1d 00 00 00 00    	cmp    %ebx,0x0(%rip)        # e3 <ArtNetParams::Set(unsigned int)+0xe3>
  e3:	41 89 df             	mov    %ebx,%r15d
  e6:	76 5c                	jbe    144 <ArtNetParams::Set(unsigned int)+0x144>
  e8:	45 8d 74 1d 00       	lea    0x0(%r13,%rbx,1),%r14d
  ed:	41 83 fe 03          	cmp    $0x3,%r14d
  f1:	77 51                	ja     144 <ArtNetParams::Set(unsigned int)+0x144>
  f3:	be 00 00 80 00       	mov    $0x800000,%esi
  f8:	44 89 f9             	mov    %r15d,%ecx
  fb:	48 89 ef             	mov    %rbp,%rdi
  fe:	d3 e6                	shl    %cl,%esi
 100:	e8 00 00 00 00       	call   105 <ArtNetParams::Set(unsigned int)+0x105>
 105:	84 c0                	test   %al,%al
 107:	74 10                	je     119 <ArtNetParams::Set(unsigned int)+0x119>
 109:	0f b6 54 1d 79       	movzbl 0x79(%rbp,%rbx,1),%edx
 10e:	44 89 f6             	mov    %r14d,%esi
 111:	4c 89 e7             	mov    %r12,%rdi
 114:	e8 00 00 00 00       	call   119 <ArtNetParams::Set(unsigned int)+0x119>
 119:	be 00 00 04 00       	mov    $0x40000,%esi
 11e:	44 89 f9             	mov    %r15d,%ecx
 121:	48 89 ef             	mov    %rbp,%rdi
 124:	d3 e6                	shl    %cl,%esi
 126:	e8 00 00 00 00       	call   12b <ArtNetParams::Set(unsigned int)+0x12b>
 12b:	84 c0                	test   %al,%al
 12d:	74 10                	je     13f <ArtNetParams::Set(unsigned int)+0x13f>
 12f:	0f b6 54 1d 74       	movzbl 0x74(%rbp,%rbx,1),%edx
 134:	44 89 f6             	mov    %r14d,%esi
 137:	4c 89 e7             	mov    %r12,%rdi
 13a:	e8 00 00 00 00       	call   13f <ArtNetParams::Set(unsigned int)+0x13f>
 13f:	48 ff c3             	inc    %rbx
 142:	eb 99                	jmp    dd <ArtNetParams::Set(unsigned int)+0xdd>
 144:	0f b6 7d 0e          	movzbl 0xe(%rbp),%edi
 148:	e8 00 00 00 00       	call   14d <ArtNetParams::Set(unsigned int)+0x14d>
 14d:	4c 89 e7             	mov    %r12,%rdi
 150:	89 c6                	mov    %eax,%esi
 152:	e8 00 00 00 00       	call   157 <ArtNetParams::Set(unsigned int)+0x157>
 157:	be 00 00 00 08       	mov    $0x8000000,%esi
 15c:	48 89 ef             	mov    %rbp,%rdi
 15f:	e8 00 00 00 00       	call   164 <ArtNetParams::Set(unsigned int)+0x164>
 164:	84 c0                	test   %al,%al
 166:	74 0d                	je     175 <ArtNetParams::Set(unsigned int)+0x175>
 168:	be 01 00 00 00       	mov    $0x1,%esi
 16d:	4c 89 e7             	mov    %r12,%rdi
 170:	e8 00 00 00 00       	call   175 <ArtNetParams::Set(unsigned int)+0x175>
 175:	be 00 10 00 00       	mov    $0x1000,%esi
 17a:	48 89 ef             	mov    %rbp,%rdi
 17d:	e8 00 00 00 00       	call   182 <ArtNetParams::Set(unsigned int)+0x182>
 182:	84 c0                	test   %al,%al
 184:	74 2b                	je     1b1 <ArtNetParams::Set(unsigned int)+0x1b1>
 186:	48 8b 44 24 08       	mov    0x8(%rsp),%rax
 18b:	64 48 2b 04 25 28 00 	sub    %fs:0x28,%rax
 192:	00 00 
 194:	75 2b                	jne    1c1 <ArtNetParams::Set(unsigned int)+0x1c1>
 196:	48 83 c4 18          	add    $0x18,%rsp
 19a:	4c 89 e7             	mov    %r12,%rdi
 19d:	be 01 00 00 00       	mov    $0x1,%esi
 1a2:	5b                   	pop    %rbx
 1a3:	5d                   	pop    %rbp
 1a4:	41 5c                	pop    %r12
 1a6:	41 5d                	pop    %r13
 1a8:	41 5e                	pop    %r14
 1aa:	41 5f                	pop    %r15
 1ac:	e9 00 00 00 00       	jmp    1b1 <ArtNetParams::Set(unsigned int)+0x1b1>
 1b1:	48 8b 44 24 08       	mov    0x8(%rsp),%rax
 1b6:	64 48 2b 04 25 28 00 	sub    %fs:0x28,%rax
 1bd:	00 00 
 1bf:	74 05                	je     1c6 <ArtNetParams::Set(unsigned int)+0x1c6>
 1c1:	e8 00 00 00 00       	call   1c6 <ArtNetParams::Set(unsigned int)+0x1c6>
 1c6:	48 83 c4 18          	add    $0x18,%rsp
 1ca:	5b                   	pop    %rbx
 1cb:	5d                   	pop    %rbp
 1cc:	41 5c                	pop    %r12
 1ce:	41 5d                	pop    %r13
 1d0:	41 5e                	pop    %r14
 1d2:	41 5f                	pop    %r15
 1d4:	c3                   	ret    

Disassembly of section .text._ZN17PropertiesBuilder3AddIbEEbPKcT_bj:

0000000000000000 <bool PropertiesBuilder::Add<bool>(char const*, bool, bool, unsigned int)>:
   0:	f3 0f 1e fa          	endbr64 
   4:	55                   	push   %rbp
   5:	53                   	push   %rbx
   6:	41 52                	push   %r10
   8:	49 89 f2             	mov    %rsi,%r10
   b:	0f b7 6f 08          	movzwl 0x8(%rdi),%ebp
   f:	0f b7 77 0a          	movzwl 0xa(%rdi),%esi
  13:	66 39 ee             	cmp    %bp,%si
  16:	72 04                	jb     1c <bool PropertiesBuilder::Add<bool>(char const*, bool, bool, unsigned int)+0x1c>
  18:	31 c0                	xor    %eax,%eax
  1a:	eb 33                	jmp    4f <bool PropertiesBuilder::Add<bool>(char const*, bool, bool, unsigned int)+0x4f>
  1c:	89 d0                	mov    %edx,%eax
  1e:	48 89 fb             	mov    %rdi,%rbx
  21:	0f b7 d6             	movzwl %si,%edx
  24:	48 03 37             	add    (%rdi),%rsi
  27:	57                   	push   %rdi
  28:	29 d5                	sub    %edx,%ebp
  2a:	44 0f b6 c9          	movzbl %cl,%r9d
  2e:	48 89 df             	mov    %rbx,%rdi
  31:	41 50                	push   %r8
  33:	4c 89 d1             	mov    %r10,%rcx
  36:	44 0f b6 c0          	movzbl %al,%r8d
  3a:	89 ea                	mov    %ebp,%edx
  3c:	e8 00 00 00 00       	call   41 <bool PropertiesBuilder::Add<bool>(char const*, bool, bool, unsigned int)+0x41>
  41:	41 58                	pop    %r8
  43:	41 59                	pop    %r9
  45:	39 c5                	cmp    %eax,%ebp
  47:	7c cf                	jl     18 <bool PropertiesBuilder::Add<bool>(char const*, bool, bool, unsigned int)+0x18>
  49:	66 01 43 0a          	add    %ax,0xa(%rbx)
  4d:	b0 01                	mov    $0x1,%al
  4f:	5a                   	pop    %rdx
  50:	5b                   	pop    %rbx
  51:	5d                   	pop    %rbp
  52:	c3                   	ret    

Disassembly of section .text._ZN17PropertiesBuilder3AddIPKcEEbS2_T_bj:

0000000000000000 <bool PropertiesBuilder::Add<char const*>(char const*, char const*, bool, unsigned int)>:
   0:	f3 0f 1e fa          	endbr64 
   4:	55                   	push   %rbp
   5:	53                   	push   %rbx
   6:	41 52                	push   %r10
   8:	49 89 f2             	mov    %rsi,%r10
   b:	0f b7 6f 08          	movzwl 0x8(%rdi),%ebp
   f:	0f b7 77 0a          	movzwl 0xa(%rdi),%esi
  13:	66 39 ee             	cmp    %bp,%si
  16:	72 04                	jb     1c <bool PropertiesBuilder::Add<char const*>(char const*, char const*, bool, unsigned int)+0x1c>
  18:	31 c0                	xor    %eax,%eax
  1a:	eb 33                	jmp    4f <bool PropertiesBuilder::Add<char const*>(char const*, char const*, bool, unsigned int)+0x4f>
  1c:	48 89 d0             	mov    %rdx,%rax
  1f:	48 89 fb             	mov    %rdi,%rbx
  22:	0f b7 d6             	movzwl %si,%edx
  25:	48 03 37             	add    (%rdi),%rsi
  28:	57                   	push   %rdi
  29:	29 d5                	sub    %edx,%ebp
  2b:	44 0f b6 c9          	movzbl %cl,%r9d
  2f:	48 89 df             	mov    %rbx,%rdi
  32:	41 50                	push   %r8
  34:	4c 89 d1             	mov    %r10,%rcx
  37:	49 89 c0             	mov    %rax,%r8
  3a:	89 ea                	mov    %ebp,%edx
  3c:	e8 00 00 00 00       	call   41 <bool PropertiesBuilder::Add<char const*>(char const*, char const*, bool, unsigned int)+0x41>
  41:	41 58                	pop    %r8
  43:	41 59                	pop    %r9
  45:	39 c5                	cmp    %eax,%ebp
  47:	7c cf                	jl     18 <bool PropertiesBuilder::Add<char const*>(char const*, char const*, bool, unsigned int)+0x18>
  49:	66 01 43 0a          	add    %ax,0xa(%rbx)
  4d:	b0 01                	mov    $0x1,%al
  4f:	5a                   	pop    %rdx
  50:	5b                   	pop    %rbx
  51:	5d                   	pop    %rbp
  52:	c3                   	ret    

Disassembly of section .text._ZN17PropertiesBuilder3AddIhEEbPKcT_bj:

0000000000000000 <bool PropertiesBuilder::Add<unsigned char>(char const*, unsigned char, bool, unsigned int)>:
   0:	f3 0f 1e fa          	endbr64 
   4:	55                   	push   %rbp
   5:	53                   	push   %rbx
   6:	41 52                	push   %r10
   8:	49 89 f2             	mov    %rsi,%r10
   b:	0f b7 6f 08          	movzwl 0x8(%rdi),%ebp
   f:	0f b7 77 0a          	movzwl 0xa(%rdi),%esi
  13:	66 39 ee             	cmp    %bp,%si
  16:	72 04                	jb     1c <bool PropertiesBuilder::Add<unsigned char>(char const*, unsigned char, bool, unsigned int)+0x1c>
  18:	31 c0                	xor    %eax,%eax
  1a:	eb 33                	jmp    4f <bool PropertiesBuilder::Add<unsigned char>(char const*, unsigned char, bool, unsigned int)+0x4f>
  1c:	89 d0                	mov    %edx,%eax
  1e:	48 89 fb             	mov    %rdi,%rbx
  21:	0f b7 d6             	movzwl %si,%edx
  24:	48 03 37             	add    (%rdi),%rsi
  27:	57                   	push   %rdi
  28:	29 d5                	sub    %edx,%ebp
  2a:	44 0f b6 c9          	movzbl %cl,%r9d
  2e:	48 89 df             	mov    %rbx,%rdi
  31:	41 50                	push   %r8
  33:	4c 89 d1             	mov    %r10,%rcx
  36:	44 0f b6 c0          	movzbl %al,%r8d
  3a:	89 ea                	mov    %ebp,%edx
  3c:	e8 00 00 00 00       	call   41 <bool PropertiesBuilder::Add<unsigned char>(char const*, unsigned char, bool, unsigned int)+0x41>
  41:	41 58                	pop    %r8
  43:	41 59                	pop    %r9
  45:	39 c5                	cmp    %eax,%ebp
  47:	7c cf                	jl     18 <bool PropertiesBuilder::Add<unsigned char>(char const*, unsigned char, bool, unsigned int)+0x18>
  49:	66 01 43 0a          	add    %ax,0xa(%rbx)
  4d:	b0 01                	mov    $0x1,%al
  4f:	5a                   	pop    %rdx
  50:	5b                   	pop    %rbx
  51:	5d                   	pop    %rbp
  52:	c3                   	ret    

Disassembly of section .text._ZSt3minIjERKT_S2_S2_:

0000000000000000 <unsigned int const& std::min<unsigned int>(unsigned int const&, unsigned int const&)>:
   0:	f3 0f 1e fa          	endbr64 
   4:	8b 17                	mov    (%rdi),%edx
   6:	48 89 f8             	mov    %rdi,%rax
   9:	39 16                	cmp    %edx,(%rsi)
   b:	73 03                	jae    10 <unsigned int const& std::min<unsigned int>(unsigned int const&, unsigned int const&)+0x10>
   d:	48 89 f0             	mov    %rsi,%rax
  10:	c3                   	ret    

Disassembly of section .text._ZN17PropertiesBuilder8add_partIbEEiPcjPKcT_bj:

0000000000000000 <int PropertiesBuilder::add_part<bool>(char*, unsigned int, char const*, bool, bool, unsigned int)>:
   0:	f3 0f 1e fa          	endbr64 
   4:	49 89 fa             	mov    %rdi,%r10
   7:	45 0f b6 c0          	movzbl %r8b,%r8d
   b:	48 89 f7             	mov    %rsi,%rdi
   e:	89 d6                	mov    %edx,%esi
  10:	41 8a 42 0c          	mov    0xc(%r10),%al
  14:	45 84 c9             	test   %r9b,%r9b
  17:	75 06                	jne    1f <int PropertiesBuilder::add_part<bool>(char*, unsigned int, char const*, bool, bool, unsigned int)+0x1f>
  19:	84 c0                	test   %al,%al
  1b:	75 0d                	jne    2a <int PropertiesBuilder::add_part<bool>(char*, unsigned int, char const*, bool, bool, unsigned int)+0x2a>
  1d:	eb 14                	jmp    33 <int PropertiesBuilder::add_part<bool>(char*, unsigned int, char const*, bool, bool, unsigned int)+0x33>
  1f:	48 8d 15 00 00 00 00 	lea    0x0(%rip),%rdx        # 26 <int PropertiesBuilder::add_part<bool>(char*, unsigned int, char const*, bool, bool, unsigned int)+0x26>
  26:	84 c0                	test   %al,%al
  28:	74 10                	je     3a <int PropertiesBuilder::add_part<bool>(char*, unsigned int, char const*, bool, bool, unsigned int)+0x3a>
  2a:	48 8d 15 00 00 00 00 	lea    0x0(%rip),%rdx        # 31 <int PropertiesBuilder::add_part<bool>(char*, unsigned int, char const*, bool, bool, unsigned int)+0x31>
  31:	eb 07                	jmp    3a <int PropertiesBuilder::add_part<bool>(char*, unsigned int, char const*, bool, bool, unsigned int)+0x3a>
  33:	48 8d 15 00 00 00 00 	lea    0x0(%rip),%rdx        # 3a <int PropertiesBuilder::add_part<bool>(char*, unsigned int, char const*, bool, bool, unsigned int)+0x3a>
  3a:	31 c0                	xor    %eax,%eax
  3c:	e9 00 00 00 00       	jmp    41 <.LC20+0x2c>

Disassembly of section .text._ZN17PropertiesBuilder8add_partIhEEiPcjPKcT_bj:

0000000000000000 <int PropertiesBuilder::add_part<unsigned char>(char*, unsigned int, char const*, unsigned char, bool, unsigned int)>:
   0:	f3 0f 1e fa          	endbr64 
   4:	49 89 fa             	mov    %rdi,%r10
   7:	45 0f b6 c0          	movzbl %r8b,%r8d
   b:	48 89 f7             	mov    %rsi,%rdi
   e:	89 d6                	mov    %edx,%esi
  10:	41 8a 42 0c          	mov    0xc(%r10),%al
  14:	45 84 c9             	test   %r9b,%r9b
  17:	75 06                	jne    1f <int PropertiesBuilder::add_part<unsigned char>(char*, unsigned int, char const*, unsigned char, bool, unsigned int)+0x1f>
  19:	84 c0                	test   %al,%al
  1b:	75 0d                	jne    2a <int PropertiesBuilder::add_part<unsigned char>(char*, unsigned int, char const*, unsigned char, bool, unsigned int)+0x2a>
  1d:	eb 14                	jmp    33 <int PropertiesBuilder::add_part<unsigned char>(char*, unsigned int, char const*, unsigned char, bool, unsigned int)+0x33>
  1f:	48 8d 15 00 00 00 00 	lea    0x0(%rip),%rdx        # 26 <int PropertiesBuilder::add_part<unsigned char>(char*, unsigned int, char const*, unsigned char, bool, unsigned int)+0x26>
  26:	84 c0                	test   %al,%al
  28:	74 10                	je     3a <int PropertiesBuilder::add_part<unsigned char>(char*, unsigned int, char const*, unsigned char, bool, unsigned int)+0x3a>
  2a:	48 8d 15 00 00 00 00 	lea    0x0(%rip),%rdx        # 31 <int PropertiesBuilder::add_part<unsigned char>(char*, unsigned int, char const*, unsigned char, bool, unsigned int)+0x31>
  31:	eb 07                	jmp    3a <int PropertiesBuilder::add_part<unsigned char>(char*, unsigned int, char const*, unsigned char, bool, unsigned int)+0x3a>
  33:	48 8d 15 00 00 00 00 	lea    0x0(%rip),%rdx        # 3a <int PropertiesBuilder::add_part<unsigned char>(char*, unsigned int, char const*, unsigned char, bool, unsigned int)+0x3a>
  3a:	31 c0                	xor    %eax,%eax
  3c:	e9 00 00 00 00       	jmp    41 <.LC20+0x2c>

artnetparamsdump.o:     file format elf64-x86-64


Disassembly of section .text._ZN12ArtNetParams4DumpEv:

0000000000000000 <ArtNetParams::Dump()>:
   0:	f3 0f 1e fa          	endbr64 
   4:	c3                   	ret    

artnettrigger.o:     file format elf64-x86-64


Disassembly of section .text._ZN10ArtNetNode13HandleTriggerEv:

0000000000000000 <ArtNetNode::HandleTrigger()>:
   0:	f3 0f 1e fa          	endbr64 
   4:	55                   	push   %rbp
   5:	48 89 e5             	mov    %rsp,%rbp
   8:	48 83 ec 20          	sub    $0x20,%rsp
   c:	48 89 7d e8          	mov    %rdi,-0x18(%rbp)
  10:	48 8b 45 e8          	mov    -0x18(%rbp),%rax
  14:	48 05 54 01 00 00    	add    $0x154,%rax
  1a:	48 89 45 f8          	mov    %rax,-0x8(%rbp)
  1e:	48 8b 45 f8          	mov    -0x8(%rbp),%rax
  22:	0f b6 40 0e          	movzbl 0xe(%rax),%eax
  26:	3c ff                	cmp    $0xff,%al
  28:	75 0c                	jne    36 <ArtNetNode::HandleTrigger()+0x36>
  2a:	48 8b 45 f8          	mov    -0x8(%rbp),%rax
  2e:	0f b6 40 0f          	movzbl 0xf(%rax),%eax
  32:	3c ff                	cmp    $0xff,%al
  34:	74 26                	je     5c <ArtNetNode::HandleTrigger()+0x5c>
  36:	48 8b 45 f8          	mov    -0x8(%rbp),%rax
  3a:	0f b6 50 0e          	movzbl 0xe(%rax),%edx
  3e:	0f b6 05 00 00 00 00 	movzbl 0x0(%rip),%eax        # 45 <ArtNetNode::HandleTrigger()+0x45>
  45:	38 c2                	cmp    %al,%dl
  47:	75 43                	jne    8c <ArtNetNode::HandleTrigger()+0x8c>
  49:	48 8b 45 f8          	mov    -0x8(%rbp),%rax
  4d:	0f b6 50 0f          	movzbl 0xf(%rax),%edx
  51:	0f b6 05 00 00 00 00 	movzbl 0x0(%rip),%eax        # 58 <ArtNetNode::HandleTrigger()+0x58>
  58:	38 c2                	cmp    %al,%dl
  5a:	75 30                	jne    8c <ArtNetNode::HandleTrigger()+0x8c>
  5c:	48 8b 45 e8          	mov    -0x18(%rbp),%rax
  60:	48 8b 80 68 0a 00 00 	mov    0xa68(%rax),%rax
  67:	48 8b 55 e8          	mov    -0x18(%rbp),%rdx
  6b:	48 8b 92 68 0a 00 00 	mov    0xa68(%rdx),%rdx
  72:	48 8b 12             	mov    (%rdx),%rdx
  75:	48 83 c2 10          	add    $0x10,%rdx
  79:	48 8b 12             	mov    (%rdx),%rdx
  7c:	48 8b 4d f8          	mov    -0x8(%rbp),%rcx
  80:	48 83 c1 10          	add    $0x10,%rcx
  84:	48 89 ce             	mov    %rcx,%rsi
  87:	48 89 c7             	mov    %rax,%rdi
  8a:	ff d2                	call   *%rdx
  8c:	90                   	nop
  8d:	c9                   	leave  
  8e:	c3                   	ret    

artnetcontroller.o:     file format elf64-x86-64


Disassembly of section .text._ZN8Hardware3GetEv:

0000000000000000 <Hardware::Get()>:
   0:	f3 0f 1e fa          	endbr64 
   4:	55                   	push   %rbp
   5:	48 89 e5             	mov    %rsp,%rbp
   8:	48 8b 05 00 00 00 00 	mov    0x0(%rip),%rax        # f <Hardware::Get()+0xf>
   f:	5d                   	pop    %rbp
  10:	c3                   	ret    

Disassembly of section .text._ZNK7Network5GetIpEv:

0000000000000000 <Network::GetIp() const>:
   0:	f3 0f 1e fa          	endbr64 
   4:	55                   	push   %rbp
   5:	48 89 e5             	mov    %rsp,%rbp
   8:	48 89 7d f8          	mov    %rdi,-0x8(%rbp)
   c:	48 8b 45 f8          	mov    -0x8(%rbp),%rax
  10:	8b 40 10             	mov    0x10(%rax),%eax
  13:	5d                   	pop    %rbp
  14:	c3                   	ret    

Disassembly of section .text._ZNK7Network14GetBroadcastIpEv:

0000000000000000 <Network::GetBroadcastIp() const>:
   0:	f3 0f 1e fa          	endbr64 
   4:	55                   	push   %rbp
   5:	48 89 e5             	mov    %rsp,%rbp
   8:	48 89 7d f8          	mov    %rdi,-0x8(%rbp)
   c:	48 8b 45 f8          	mov    -0x8(%rbp),%rax
  10:	8b 50 10             	mov    0x10(%rax),%edx
  13:	48 8b 45 f8          	mov    -0x8(%rbp),%rax
  17:	8b 40 18             	mov    0x18(%rax),%eax
  1a:	f7 d0                	not    %eax
  1c:	09 d0                	or     %edx,%eax
  1e:	5d                   	pop    %rbp
  1f:	c3                   	ret    

Disassembly of section .text._ZN7Network3GetEv:

0000000000000000 <Network::Get()>:
   0:	f3 0f 1e fa          	endbr64 
   4:	55                   	push   %rbp
   5:	48 89 e5             	mov    %rsp,%rbp
   8:	48 8b 05 00 00 00 00 	mov    0x0(%rip),%rax        # f <Network::Get()+0xf>
   f:	5d                   	pop    %rbp
  10:	c3                   	ret    

Disassembly of section .text._ZN16ArtNetControllerC2Ev:

0000000000000000 <ArtNetController::ArtNetController()>:
   0:	f3 0f 1e fa          	endbr64 
   4:	55                   	push   %rbp
   5:	48 89 e5             	mov    %rsp,%rbp
   8:	48 83 ec 10          	sub    $0x10,%rsp
   c:	48 89 7d f8          	mov    %rdi,-0x8(%rbp)
  10:	48 8b 45 f8          	mov    -0x8(%rbp),%rax
  14:	48 89 c7             	mov    %rax,%rdi
  17:	e8 00 00 00 00       	call   1c <ArtNetController::ArtNetController()+0x1c>
  1c:	48 8b 45 f8          	mov    -0x8(%rbp),%rax
  20:	c6 40 30 01          	movb   $0x1,0x30(%rax)
  24:	48 8b 45 f8          	mov    -0x8(%rbp),%rax
  28:	c6 40 31 01          	movb   $0x1,0x31(%rax)
  2c:	48 8b 45 f8          	mov    -0x8(%rbp),%rax
  30:	c7 40 34 ff ff ff ff 	movl   $0xffffffff,0x34(%rax)
  37:	48 8b 45 f8          	mov    -0x8(%rbp),%rax
  3b:	48 c7 40 60 00 00 00 	movq   $0x0,0x60(%rax)
  42:	00 
  43:	48 8b 45 f8          	mov    -0x8(%rbp),%rax
  47:	c7 40 68 00 00 00 00 	movl   $0x0,0x68(%rax)
  4e:	48 8b 45 f8          	mov    -0x8(%rbp),%rax
  52:	c6 40 6c 01          	movb   $0x1,0x6c(%rax)
  56:	48 8b 45 f8          	mov    -0x8(%rbp),%rax
  5a:	c6 40 6d 00          	movb   $0x0,0x6d(%rax)
  5e:	48 8b 45 f8          	mov    -0x8(%rbp),%rax
  62:	c7 40 70 00 00 00 00 	movl   $0x0,0x70(%rax)
  69:	48 8b 45 f8          	mov    -0x8(%rbp),%rax
  6d:	c7 40 74 ff 00 00 00 	movl   $0xff,0x74(%rax)
  74:	48 8b 45 f8          	mov    -0x8(%rbp),%rax
  78:	48 89 05 00 00 00 00 	mov    %rax,0x0(%rip)        # 7f <ArtNetController::ArtNetController()+0x7f>
  7f:	bf d8 04 00 00       	mov    $0x4d8,%edi
  84:	e8 00 00 00 00       	call   89 <ArtNetController::ArtNetController()+0x89>
  89:	48 89 c2             	mov    %rax,%rdx
  8c:	48 8b 45 f8          	mov    -0x8(%rbp),%rax
  90:	48 89 50 38          	mov    %rdx,0x38(%rax)
  94:	48 8b 45 f8          	mov    -0x8(%rbp),%rax
  98:	48 83 c0 40          	add    $0x40,%rax
  9c:	ba 0e 00 00 00       	mov    $0xe,%edx
  a1:	be 00 00 00 00       	mov    $0x0,%esi
  a6:	48 89 c7             	mov    %rax,%rdi
  a9:	e8 00 00 00 00       	call   ae <ArtNetController::ArtNetController()+0xae>
  ae:	48 8b 45 f8          	mov    -0x8(%rbp),%rax
  b2:	48 8d 50 40          	lea    0x40(%rax),%rdx
  b6:	48 8b 05 00 00 00 00 	mov    0x0(%rip),%rax        # bd <ArtNetController::ArtNetController()+0xbd>
  bd:	48 89 02             	mov    %rax,(%rdx)
  c0:	48 8b 45 f8          	mov    -0x8(%rbp),%rax
  c4:	66 c7 40 48 00 20    	movw   $0x2000,0x48(%rax)
  ca:	48 8b 45 f8          	mov    -0x8(%rbp),%rax
  ce:	c6 40 4b 0e          	movb   $0xe,0x4b(%rax)
  d2:	48 8b 45 f8          	mov    -0x8(%rbp),%rax
  d6:	c6 40 4c 02          	movb   $0x2,0x4c(%rax)
  da:	bf 12 02 00 00       	mov    $0x212,%edi
  df:	e8 00 00 00 00       	call   e4 <ArtNetController::ArtNetController()+0xe4>
  e4:	48 89 c2             	mov    %rax,%rdx
  e7:	48 8b 45 f8          	mov    -0x8(%rbp),%rax
  eb:	48 89 50 50          	mov    %rdx,0x50(%rax)
  ef:	48 8b 45 f8          	mov    -0x8(%rbp),%rax
  f3:	48 8b 40 50          	mov    0x50(%rax),%rax
  f7:	ba 12 02 00 00       	mov    $0x212,%edx
  fc:	be 00 00 00 00       	mov    $0x0,%esi
 101:	48 89 c7             	mov    %rax,%rdi
 104:	e8 00 00 00 00       	call   109 <ArtNetController::ArtNetController()+0x109>
 109:	48 8b 45 f8          	mov    -0x8(%rbp),%rax
 10d:	48 8b 40 50          	mov    0x50(%rax),%rax
 111:	48 8b 15 00 00 00 00 	mov    0x0(%rip),%rdx        # 118 <ArtNetController::ArtNetController()+0x118>
 118:	48 89 10             	mov    %rdx,(%rax)
 11b:	48 8b 45 f8          	mov    -0x8(%rbp),%rax
 11f:	48 8b 40 50          	mov    0x50(%rax),%rax
 123:	66 c7 40 08 00 50    	movw   $0x5000,0x8(%rax)
 129:	48 8b 45 f8          	mov    -0x8(%rbp),%rax
 12d:	48 8b 40 50          	mov    0x50(%rax),%rax
 131:	c6 40 0b 0e          	movb   $0xe,0xb(%rax)
 135:	bf 0e 00 00 00       	mov    $0xe,%edi
 13a:	e8 00 00 00 00       	call   13f <ArtNetController::ArtNetController()+0x13f>
 13f:	48 89 c2             	mov    %rax,%rdx
 142:	48 8b 45 f8          	mov    -0x8(%rbp),%rax
 146:	48 89 50 58          	mov    %rdx,0x58(%rax)
 14a:	48 8b 45 f8          	mov    -0x8(%rbp),%rax
 14e:	48 8b 40 58          	mov    0x58(%rax),%rax
 152:	ba 0e 00 00 00       	mov    $0xe,%edx
 157:	be 00 00 00 00       	mov    $0x0,%esi
 15c:	48 89 c7             	mov    %rax,%rdi
 15f:	e8 00 00 00 00       	call   164 <ArtNetController::ArtNetController()+0x164>
 164:	48 8b 45 f8          	mov    -0x8(%rbp),%rax
 168:	48 8b 40 58          	mov    0x58(%rax),%rax
 16c:	48 8b 15 00 00 00 00 	mov    0x0(%rip),%rdx        # 173 <ArtNetController::ArtNetController()+0x173>
 173:	48 89 10             	mov    %rdx,(%rax)
 176:	48 8b 45 f8          	mov    -0x8(%rbp),%rax
 17a:	48 8b 40 58          	mov    0x58(%rax),%rax
 17e:	66 c7 40 08 00 52    	movw   $0x5200,0x8(%rax)
 184:	48 8b 45 f8          	mov    -0x8(%rbp),%rax
 188:	48 8b 40 58          	mov    0x58(%rax),%rax
 18c:	c6 40 0b 0e          	movb   $0xe,0xb(%rax)
 190:	0f b6 15 00 00 00 00 	movzbl 0x0(%rip),%edx        # 197 <ArtNetController::ArtNetController()+0x197>
 197:	48 8b 45 f8          	mov    -0x8(%rbp),%rax
 19b:	88 50 2c             	mov    %dl,0x2c(%rax)
 19e:	0f b6 15 00 00 00 00 	movzbl 0x0(%rip),%edx        # 1a5 <ArtNetController::ArtNetController()+0x1a5>
 1a5:	48 8b 45 f8          	mov    -0x8(%rbp),%rax
 1a9:	88 50 2d             	mov    %dl,0x2d(%rax)
 1ac:	48 8b 45 f8          	mov    -0x8(%rbp),%rax
 1b0:	48 89 c7             	mov    %rax,%rdi
 1b3:	e8 00 00 00 00       	call   1b8 <ArtNetController::ArtNetController()+0x1b8>
 1b8:	90                   	nop
 1b9:	c9                   	leave  
 1ba:	c3                   	ret    

Disassembly of section .text._ZN16ArtNetControllerD2Ev:

0000000000000000 <ArtNetController::~ArtNetController()>:
   0:	f3 0f 1e fa          	endbr64 
   4:	55                   	push   %rbp
   5:	48 89 e5             	mov    %rsp,%rbp
   8:	48 83 ec 10          	sub    $0x10,%rsp
   c:	48 89 7d f8          	mov    %rdi,-0x8(%rbp)
  10:	48 8b 45 f8          	mov    -0x8(%rbp),%rax
  14:	48 8b 40 38          	mov    0x38(%rax),%rax
  18:	48 85 c0             	test   %rax,%rax
  1b:	74 08                	je     25 <ArtNetController::~ArtNetController()+0x25>
  1d:	48 89 c7             	mov    %rax,%rdi
  20:	e8 00 00 00 00       	call   25 <ArtNetController::~ArtNetController()+0x25>
  25:	48 8b 45 f8          	mov    -0x8(%rbp),%rax
  29:	48 c7 40 38 00 00 00 	movq   $0x0,0x38(%rax)
  30:	00 
  31:	48 8b 45 f8          	mov    -0x8(%rbp),%rax
  35:	48 89 c7             	mov    %rax,%rdi
  38:	e8 00 00 00 00       	call   3d <ArtNetController::~ArtNetController()+0x3d>
  3d:	90                   	nop
  3e:	c9                   	leave  
  3f:	c3                   	ret    

Disassembly of section .text._ZN16ArtNetController5StartEv:

0000000000000000 <ArtNetController::Start()>:
   0:	f3 0f 1e fa          	endbr64 
   4:	55                   	push   %rbp
   5:	48 89 e5             	mov    %rsp,%rbp
   8:	48 83 ec 10          	sub    $0x10,%rsp
   c:	48 89 7d f8          	mov    %rdi,-0x8(%rbp)
  10:	e8 00 00 00 00       	call   15 <ArtNetController::Start()+0x15>
  15:	48 89 c7             	mov    %rax,%rdi
  18:	e8 00 00 00 00       	call   1d <ArtNetController::Start()+0x1d>
  1d:	48 8b 55 f8          	mov    -0x8(%rbp),%rdx
  21:	89 42 24             	mov    %eax,0x24(%rdx)
  24:	e8 00 00 00 00       	call   29 <ArtNetController::Start()+0x29>
  29:	48 89 c7             	mov    %rax,%rdi
  2c:	e8 00 00 00 00       	call   31 <ArtNetController::Start()+0x31>
  31:	48 8b 55 f8          	mov    -0x8(%rbp),%rdx
  35:	89 42 28             	mov    %eax,0x28(%rdx)
  38:	e8 00 00 00 00       	call   3d <ArtNetController::Start()+0x3d>
  3d:	be 36 19 00 00       	mov    $0x1936,%esi
  42:	48 89 c7             	mov    %rax,%rdi
  45:	e8 00 00 00 00       	call   4a <ArtNetController::Start()+0x4a>
  4a:	48 8b 55 f8          	mov    -0x8(%rbp),%rdx
  4e:	89 42 34             	mov    %eax,0x34(%rdx)
  51:	e8 00 00 00 00       	call   56 <ArtNetController::Start()+0x56>
  56:	48 89 c7             	mov    %rax,%rdi
  59:	48 8b 45 f8          	mov    -0x8(%rbp),%rax
  5d:	8b 48 28             	mov    0x28(%rax),%ecx
  60:	48 8b 45 f8          	mov    -0x8(%rbp),%rax
  64:	48 8d 50 40          	lea    0x40(%rax),%rdx
  68:	48 8b 45 f8          	mov    -0x8(%rbp),%rax
  6c:	8b 40 34             	mov    0x34(%rax),%eax
  6f:	41 b9 36 19 00 00    	mov    $0x1936,%r9d
  75:	41 89 c8             	mov    %ecx,%r8d
  78:	b9 0e 00 00 00       	mov    $0xe,%ecx
  7d:	89 c6                	mov    %eax,%esi
  7f:	e8 00 00 00 00       	call   84 <ArtNetController::Start()+0x84>
  84:	90                   	nop
  85:	c9                   	leave  
  86:	c3                   	ret    

Disassembly of section .text._ZN16ArtNetController4StopEv:

0000000000000000 <ArtNetController::Stop()>:
   0:	f3 0f 1e fa          	endbr64 
   4:	55                   	push   %rbp
   5:	48 89 e5             	mov    %rsp,%rbp
   8:	48 89 7d f8          	mov    %rdi,-0x8(%rbp)
   c:	90                   	nop
   d:	5d                   	pop    %rbp
   e:	c3                   	ret    

Disassembly of section .text._ZN16ArtNetController12HandleDmxOutEtPKhjh:

0000000000000000 <ArtNetController::HandleDmxOut(unsigned short, unsigned char const*, unsigned int, unsigned char)>:
   0:	f3 0f 1e fa          	endbr64 
   4:	55                   	push   %rbp
   5:	48 89 e5             	mov    %rsp,%rbp
   8:	48 83 ec 40          	sub    $0x40,%rsp
   c:	48 89 7d d8          	mov    %rdi,-0x28(%rbp)
  10:	89 f0                	mov    %esi,%eax
  12:	48 89 55 c8          	mov    %rdx,-0x38(%rbp)
  16:	89 4d d0             	mov    %ecx,-0x30(%rbp)
  19:	44 89 c2             	mov    %r8d,%edx
  1c:	66 89 45 d4          	mov    %ax,-0x2c(%rbp)
  20:	89 d0                	mov    %edx,%eax
  22:	88 45 c4             	mov    %al,-0x3c(%rbp)
  25:	0f b7 55 d4          	movzwl -0x2c(%rbp),%edx
  29:	48 8b 45 d8          	mov    -0x28(%rbp),%rax
  2d:	89 d6                	mov    %edx,%esi
  2f:	48 89 c7             	mov    %rax,%rdi
  32:	e8 00 00 00 00       	call   37 <ArtNetController::HandleDmxOut(unsigned short, unsigned char const*, unsigned int, unsigned char)+0x37>
  37:	48 8b 45 d8          	mov    -0x28(%rbp),%rax
  3b:	48 8b 40 50          	mov    0x50(%rax),%rax
  3f:	0f b6 55 c4          	movzbl -0x3c(%rbp),%edx
  43:	88 50 0d             	mov    %dl,0xd(%rax)
  46:	48 8b 45 d8          	mov    -0x28(%rbp),%rax
  4a:	48 8b 40 50          	mov    0x50(%rax),%rax
  4e:	0f b7 55 d4          	movzwl -0x2c(%rbp),%edx
  52:	66 89 50 0e          	mov    %dx,0xe(%rax)
  56:	8b 45 d0             	mov    -0x30(%rbp),%eax
  59:	c1 e8 08             	shr    $0x8,%eax
  5c:	89 c2                	mov    %eax,%edx
  5e:	48 8b 45 d8          	mov    -0x28(%rbp),%rax
  62:	48 8b 40 50          	mov    0x50(%rax),%rax
  66:	88 50 10             	mov    %dl,0x10(%rax)
  69:	48 8b 45 d8          	mov    -0x28(%rbp),%rax
  6d:	48 8b 40 50          	mov    0x50(%rax),%rax
  71:	8b 55 d0             	mov    -0x30(%rbp),%edx
  74:	88 50 11             	mov    %dl,0x11(%rax)
  77:	48 8b 45 d8          	mov    -0x28(%rbp),%rax
  7b:	48 8b 40 50          	mov    0x50(%rax),%rax
  7f:	0f b6 50 0c          	movzbl 0xc(%rax),%edx
  83:	83 c2 01             	add    $0x1,%edx
  86:	88 50 0c             	mov    %dl,0xc(%rax)
  89:	48 8b 45 d8          	mov    -0x28(%rbp),%rax
  8d:	48 8b 40 50          	mov    0x50(%rax),%rax
  91:	0f b6 40 0c          	movzbl 0xc(%rax),%eax
  95:	84 c0                	test   %al,%al
  97:	75 0c                	jne    a5 <ArtNetController::HandleDmxOut(unsigned short, unsigned char const*, unsigned int, unsigned char)+0xa5>
  99:	48 8b 45 d8          	mov    -0x28(%rbp),%rax
  9d:	48 8b 40 50          	mov    0x50(%rax),%rax
  a1:	c6 40 0c 01          	movb   $0x1,0xc(%rax)
  a5:	48 8b 45 d8          	mov    -0x28(%rbp),%rax
  a9:	8b 40 74             	mov    0x74(%rax),%eax
  ac:	3d ff 00 00 00       	cmp    $0xff,%eax
  b1:	0f 94 c0             	sete   %al
  b4:	0f b6 c0             	movzbl %al,%eax
  b7:	48 85 c0             	test   %rax,%rax
  ba:	74 20                	je     dc <ArtNetController::HandleDmxOut(unsigned short, unsigned char const*, unsigned int, unsigned char)+0xdc>
  bc:	8b 55 d0             	mov    -0x30(%rbp),%edx
  bf:	48 8b 45 d8          	mov    -0x28(%rbp),%rax
  c3:	48 8b 40 50          	mov    0x50(%rax),%rax
  c7:	48 8d 48 12          	lea    0x12(%rax),%rcx
  cb:	48 8b 45 c8          	mov    -0x38(%rbp),%rax
  cf:	48 89 c6             	mov    %rax,%rsi
  d2:	48 89 cf             	mov    %rcx,%rdi
  d5:	e8 00 00 00 00       	call   da <ArtNetController::HandleDmxOut(unsigned short, unsigned char const*, unsigned int, unsigned char)+0xda>
  da:	eb 7e                	jmp    15a <ArtNetController::HandleDmxOut(unsigned short, unsigned char const*, unsigned int, unsigned char)+0x15a>
  dc:	48 8b 45 d8          	mov    -0x28(%rbp),%rax
  e0:	8b 40 74             	mov    0x74(%rax),%eax
  e3:	85 c0                	test   %eax,%eax
  e5:	75 21                	jne    108 <ArtNetController::HandleDmxOut(unsigned short, unsigned char const*, unsigned int, unsigned char)+0x108>
  e7:	8b 45 d0             	mov    -0x30(%rbp),%eax
  ea:	48 8b 55 d8          	mov    -0x28(%rbp),%rdx
  ee:	48 8b 52 50          	mov    0x50(%rdx),%rdx
  f2:	48 8d 4a 12          	lea    0x12(%rdx),%rcx
  f6:	48 89 c2             	mov    %rax,%rdx
  f9:	be 00 00 00 00       	mov    $0x0,%esi
  fe:	48 89 cf             	mov    %rcx,%rdi
 101:	e8 00 00 00 00       	call   106 <ArtNetController::HandleDmxOut(unsigned short, unsigned char const*, unsigned int, unsigned char)+0x106>
 106:	eb 52                	jmp    15a <ArtNetController::HandleDmxOut(unsigned short, unsigned char const*, unsigned int, unsigned char)+0x15a>
 108:	c7 45 ec 00 00 00 00 	movl   $0x0,-0x14(%rbp)
 10f:	eb 41                	jmp    152 <ArtNetController::HandleDmxOut(unsigned short, unsigned char const*, unsigned int, unsigned char)+0x152>
 111:	48 8b 45 d8          	mov    -0x28(%rbp),%rax
 115:	8b 50 74             	mov    0x74(%rax),%edx
 118:	8b 4d ec             	mov    -0x14(%rbp),%ecx
 11b:	48 8b 45 c8          	mov    -0x38(%rbp),%rax
 11f:	48 01 c8             	add    %rcx,%rax
 122:	0f b6 00             	movzbl (%rax),%eax
 125:	0f b6 c0             	movzbl %al,%eax
 128:	0f af c2             	imul   %edx,%eax
 12b:	89 c2                	mov    %eax,%edx
 12d:	b8 81 80 80 80       	mov    $0x80808081,%eax
 132:	48 0f af c2          	imul   %rdx,%rax
 136:	48 c1 e8 20          	shr    $0x20,%rax
 13a:	89 c1                	mov    %eax,%ecx
 13c:	c1 e9 07             	shr    $0x7,%ecx
 13f:	48 8b 45 d8          	mov    -0x28(%rbp),%rax
 143:	48 8b 50 50          	mov    0x50(%rax),%rdx
 147:	8b 45 ec             	mov    -0x14(%rbp),%eax
 14a:	88 4c 02 12          	mov    %cl,0x12(%rdx,%rax,1)
 14e:	83 45 ec 01          	addl   $0x1,-0x14(%rbp)
 152:	8b 45 ec             	mov    -0x14(%rbp),%eax
 155:	3b 45 d0             	cmp    -0x30(%rbp),%eax
 158:	72 b7                	jb     111 <ArtNetController::HandleDmxOut(unsigned short, unsigned char const*, unsigned int, unsigned char)+0x111>
 15a:	c7 45 f0 00 00 00 00 	movl   $0x0,-0x10(%rbp)
 161:	48 8b 45 d8          	mov    -0x28(%rbp),%rax
 165:	0f b7 55 d4          	movzwl -0x2c(%rbp),%edx
 169:	89 d6                	mov    %edx,%esi
 16b:	48 89 c7             	mov    %rax,%rdi
 16e:	e8 00 00 00 00       	call   173 <ArtNetController::HandleDmxOut(unsigned short, unsigned char const*, unsigned int, unsigned char)+0x173>
 173:	48 89 45 f8          	mov    %rax,-0x8(%rbp)
 177:	48 8b 45 d8          	mov    -0x28(%rbp),%rax
 17b:	0f b6 40 31          	movzbl 0x31(%rax),%eax
 17f:	84 c0                	test   %al,%al
 181:	74 19                	je     19c <ArtNetController::HandleDmxOut(unsigned short, unsigned char const*, unsigned int, unsigned char)+0x19c>
 183:	48 83 7d f8 00       	cmpq   $0x0,-0x8(%rbp)
 188:	0f 84 d1 00 00 00    	je     25f <ArtNetController::HandleDmxOut(unsigned short, unsigned char const*, unsigned int, unsigned char)+0x25f>
 18e:	48 8b 45 f8          	mov    -0x8(%rbp),%rax
 192:	0f b7 40 02          	movzwl 0x2(%rax),%eax
 196:	0f b7 c0             	movzwl %ax,%eax
 199:	89 45 f0             	mov    %eax,-0x10(%rbp)
 19c:	48 8b 45 d8          	mov    -0x28(%rbp),%rax
 1a0:	0f b6 40 31          	movzbl 0x31(%rax),%eax
 1a4:	84 c0                	test   %al,%al
 1a6:	74 65                	je     20d <ArtNetController::HandleDmxOut(unsigned short, unsigned char const*, unsigned int, unsigned char)+0x20d>
 1a8:	83 7d f0 28          	cmpl   $0x28,-0x10(%rbp)
 1ac:	77 5f                	ja     20d <ArtNetController::HandleDmxOut(unsigned short, unsigned char const*, unsigned int, unsigned char)+0x20d>
 1ae:	c7 45 f4 00 00 00 00 	movl   $0x0,-0xc(%rbp)
 1b5:	eb 44                	jmp    1fb <ArtNetController::HandleDmxOut(unsigned short, unsigned char const*, unsigned int, unsigned char)+0x1fb>
 1b7:	e8 00 00 00 00       	call   1bc <ArtNetController::HandleDmxOut(unsigned short, unsigned char const*, unsigned int, unsigned char)+0x1bc>
 1bc:	48 89 c7             	mov    %rax,%rdi
 1bf:	48 8b 45 f8          	mov    -0x8(%rbp),%rax
 1c3:	48 8b 50 08          	mov    0x8(%rax),%rdx
 1c7:	8b 45 f4             	mov    -0xc(%rbp),%eax
 1ca:	48 c1 e0 02          	shl    $0x2,%rax
 1ce:	48 01 d0             	add    %rdx,%rax
 1d1:	8b 08                	mov    (%rax),%ecx
 1d3:	48 8b 45 d8          	mov    -0x28(%rbp),%rax
 1d7:	48 8b 50 50          	mov    0x50(%rax),%rdx
 1db:	48 8b 45 d8          	mov    -0x28(%rbp),%rax
 1df:	8b 40 34             	mov    0x34(%rax),%eax
 1e2:	41 b9 36 19 00 00    	mov    $0x1936,%r9d
 1e8:	41 89 c8             	mov    %ecx,%r8d
 1eb:	b9 12 02 00 00       	mov    $0x212,%ecx
 1f0:	89 c6                	mov    %eax,%esi
 1f2:	e8 00 00 00 00       	call   1f7 <ArtNetController::HandleDmxOut(unsigned short, unsigned char const*, unsigned int, unsigned char)+0x1f7>
 1f7:	83 45 f4 01          	addl   $0x1,-0xc(%rbp)
 1fb:	8b 45 f4             	mov    -0xc(%rbp),%eax
 1fe:	3b 45 f0             	cmp    -0x10(%rbp),%eax
 201:	72 b4                	jb     1b7 <ArtNetController::HandleDmxOut(unsigned short, unsigned char const*, unsigned int, unsigned char)+0x1b7>
 203:	48 8b 45 d8          	mov    -0x28(%rbp),%rax
 207:	c6 40 6d 01          	movb   $0x1,0x6d(%rax)
 20b:	eb 53                	jmp    260 <ArtNetController::HandleDmxOut(unsigned short, unsigned char const*, unsigned int, unsigned char)+0x260>
 20d:	48 8b 45 d8          	mov    -0x28(%rbp),%rax
 211:	0f b6 40 31          	movzbl 0x31(%rax),%eax
 215:	83 f0 01             	xor    $0x1,%eax
 218:	84 c0                	test   %al,%al
 21a:	75 06                	jne    222 <ArtNetController::HandleDmxOut(unsigned short, unsigned char const*, unsigned int, unsigned char)+0x222>
 21c:	83 7d f0 28          	cmpl   $0x28,-0x10(%rbp)
 220:	76 3e                	jbe    260 <ArtNetController::HandleDmxOut(unsigned short, unsigned char const*, unsigned int, unsigned char)+0x260>
 222:	e8 00 00 00 00       	call   227 <ArtNetController::HandleDmxOut(unsigned short, unsigned char const*, unsigned int, unsigned char)+0x227>
 227:	48 89 c7             	mov    %rax,%rdi
 22a:	48 8b 45 d8          	mov    -0x28(%rbp),%rax
 22e:	8b 48 28             	mov    0x28(%rax),%ecx
 231:	48 8b 45 d8          	mov    -0x28(%rbp),%rax
 235:	48 8b 50 50          	mov    0x50(%rax),%rdx
 239:	48 8b 45 d8          	mov    -0x28(%rbp),%rax
 23d:	8b 40 34             	mov    0x34(%rax),%eax
 240:	41 b9 36 19 00 00    	mov    $0x1936,%r9d
 246:	41 89 c8             	mov    %ecx,%r8d
 249:	b9 12 02 00 00       	mov    $0x212,%ecx
 24e:	89 c6                	mov    %eax,%esi
 250:	e8 00 00 00 00       	call   255 <ArtNetController::HandleDmxOut(unsigned short, unsigned char const*, unsigned int, unsigned char)+0x255>
 255:	48 8b 45 d8          	mov    -0x28(%rbp),%rax
 259:	c6 40 6d 01          	movb   $0x1,0x6d(%rax)
 25d:	eb 01                	jmp    260 <ArtNetController::HandleDmxOut(unsigned short, unsigned char const*, unsigned int, unsigned char)+0x260>
 25f:	90                   	nop
 260:	c9                   	leave  
 261:	c3                   	ret    

Disassembly of section .text._ZN16ArtNetController10HandleSyncEv:

0000000000000000 <ArtNetController::HandleSync()>:
   0:	f3 0f 1e fa          	endbr64 
   4:	55                   	push   %rbp
   5:	48 89 e5             	mov    %rsp,%rbp
   8:	48 83 ec 10          	sub    $0x10,%rsp
   c:	48 89 7d f8          	mov    %rdi,-0x8(%rbp)
  10:	48 8b 45 f8          	mov    -0x8(%rbp),%rax
  14:	0f b6 40 30          	movzbl 0x30(%rax),%eax
  18:	84 c0                	test   %al,%al
  1a:	74 47                	je     63 <ArtNetController::HandleSync()+0x63>
  1c:	48 8b 45 f8          	mov    -0x8(%rbp),%rax
  20:	0f b6 40 6d          	movzbl 0x6d(%rax),%eax
  24:	84 c0                	test   %al,%al
  26:	74 3b                	je     63 <ArtNetController::HandleSync()+0x63>
  28:	48 8b 45 f8          	mov    -0x8(%rbp),%rax
  2c:	c6 40 6d 00          	movb   $0x0,0x6d(%rax)
  30:	e8 00 00 00 00       	call   35 <ArtNetController::HandleSync()+0x35>
  35:	48 89 c7             	mov    %rax,%rdi
  38:	48 8b 45 f8          	mov    -0x8(%rbp),%rax
  3c:	8b 48 28             	mov    0x28(%rax),%ecx
  3f:	48 8b 45 f8          	mov    -0x8(%rbp),%rax
  43:	48 8b 50 58          	mov    0x58(%rax),%rdx
  47:	48 8b 45 f8          	mov    -0x8(%rbp),%rax
  4b:	8b 40 34             	mov    0x34(%rax),%eax
  4e:	41 b9 36 19 00 00    	mov    $0x1936,%r9d
  54:	41 89 c8             	mov    %ecx,%r8d
  57:	b9 0e 00 00 00       	mov    $0xe,%ecx
  5c:	89 c6                	mov    %eax,%esi
  5e:	e8 00 00 00 00       	call   63 <ArtNetController::HandleSync()+0x63>
  63:	90                   	nop
  64:	c9                   	leave  
  65:	c3                   	ret    

Disassembly of section .text._ZN16ArtNetController14HandleBlackoutEv:

0000000000000000 <ArtNetController::HandleBlackout()>:
   0:	f3 0f 1e fa          	endbr64 
   4:	55                   	push   %rbp
   5:	48 89 e5             	mov    %rsp,%rbp
   8:	48 83 ec 30          	sub    $0x30,%rsp
   c:	48 89 7d d8          	mov    %rdi,-0x28(%rbp)
  10:	48 8b 45 d8          	mov    -0x28(%rbp),%rax
  14:	48 8b 40 50          	mov    0x50(%rax),%rax
  18:	c6 40 10 02          	movb   $0x2,0x10(%rax)
  1c:	48 8b 45 d8          	mov    -0x28(%rbp),%rax
  20:	48 8b 40 50          	mov    0x50(%rax),%rax
  24:	c6 40 11 00          	movb   $0x0,0x11(%rax)
  28:	48 8b 45 d8          	mov    -0x28(%rbp),%rax
  2c:	48 8b 40 50          	mov    0x50(%rax),%rax
  30:	48 83 c0 12          	add    $0x12,%rax
  34:	ba 00 02 00 00       	mov    $0x200,%edx
  39:	be 00 00 00 00       	mov    $0x0,%esi
  3e:	48 89 c7             	mov    %rax,%rdi
  41:	e8 00 00 00 00       	call   46 <ArtNetController::HandleBlackout()+0x46>
  46:	c7 45 ec 00 00 00 00 	movl   $0x0,-0x14(%rbp)
  4d:	e9 8d 01 00 00       	jmp    1df <ArtNetController::HandleBlackout()+0x1df>
  52:	48 8b 45 d8          	mov    -0x28(%rbp),%rax
  56:	48 8b 40 50          	mov    0x50(%rax),%rax
  5a:	8b 55 ec             	mov    -0x14(%rbp),%edx
  5d:	48 8d 0c 12          	lea    (%rdx,%rdx,1),%rcx
  61:	48 8d 15 00 00 00 00 	lea    0x0(%rip),%rdx        # 68 <ArtNetController::HandleBlackout()+0x68>
  68:	0f b7 14 11          	movzwl (%rcx,%rdx,1),%edx
  6c:	66 89 50 0e          	mov    %dx,0xe(%rax)
  70:	c7 45 f0 00 00 00 00 	movl   $0x0,-0x10(%rbp)
  77:	48 8b 45 d8          	mov    -0x28(%rbp),%rax
  7b:	8b 55 ec             	mov    -0x14(%rbp),%edx
  7e:	48 8d 0c 12          	lea    (%rdx,%rdx,1),%rcx
  82:	48 8d 15 00 00 00 00 	lea    0x0(%rip),%rdx        # 89 <ArtNetController::HandleBlackout()+0x89>
  89:	0f b7 14 11          	movzwl (%rcx,%rdx,1),%edx
  8d:	0f b7 d2             	movzwl %dx,%edx
  90:	89 d6                	mov    %edx,%esi
  92:	48 89 c7             	mov    %rax,%rdi
  95:	e8 00 00 00 00       	call   9a <ArtNetController::HandleBlackout()+0x9a>
  9a:	48 89 45 f8          	mov    %rax,-0x8(%rbp)
  9e:	48 8b 45 d8          	mov    -0x28(%rbp),%rax
  a2:	0f b6 40 31          	movzbl 0x31(%rax),%eax
  a6:	84 c0                	test   %al,%al
  a8:	74 19                	je     c3 <ArtNetController::HandleBlackout()+0xc3>
  aa:	48 83 7d f8 00       	cmpq   $0x0,-0x8(%rbp)
  af:	0f 84 25 01 00 00    	je     1da <ArtNetController::HandleBlackout()+0x1da>
  b5:	48 8b 45 f8          	mov    -0x8(%rbp),%rax
  b9:	0f b7 40 02          	movzwl 0x2(%rax),%eax
  bd:	0f b7 c0             	movzwl %ax,%eax
  c0:	89 45 f0             	mov    %eax,-0x10(%rbp)
  c3:	48 8b 45 d8          	mov    -0x28(%rbp),%rax
  c7:	0f b6 40 31          	movzbl 0x31(%rax),%eax
  cb:	84 c0                	test   %al,%al
  cd:	0f 84 8f 00 00 00    	je     162 <ArtNetController::HandleBlackout()+0x162>
  d3:	83 7d f0 28          	cmpl   $0x28,-0x10(%rbp)
  d7:	0f 87 85 00 00 00    	ja     162 <ArtNetController::HandleBlackout()+0x162>
  dd:	48 8b 45 d8          	mov    -0x28(%rbp),%rax
  e1:	48 8b 40 50          	mov    0x50(%rax),%rax
  e5:	0f b6 50 0c          	movzbl 0xc(%rax),%edx
  e9:	83 c2 01             	add    $0x1,%edx
  ec:	88 50 0c             	mov    %dl,0xc(%rax)
  ef:	48 8b 45 d8          	mov    -0x28(%rbp),%rax
  f3:	48 8b 40 50          	mov    0x50(%rax),%rax
  f7:	0f b6 40 0c          	movzbl 0xc(%rax),%eax
  fb:	84 c0                	test   %al,%al
  fd:	75 0c                	jne    10b <ArtNetController::HandleBlackout()+0x10b>
  ff:	48 8b 45 d8          	mov    -0x28(%rbp),%rax
 103:	48 8b 40 50          	mov    0x50(%rax),%rax
 107:	c6 40 0c 01          	movb   $0x1,0xc(%rax)
 10b:	c7 45 f4 00 00 00 00 	movl   $0x0,-0xc(%rbp)
 112:	eb 44                	jmp    158 <ArtNetController::HandleBlackout()+0x158>
 114:	e8 00 00 00 00       	call   119 <ArtNetController::HandleBlackout()+0x119>
 119:	48 89 c7             	mov    %rax,%rdi
 11c:	48 8b 45 f8          	mov    -0x8(%rbp),%rax
 120:	48 8b 50 08          	mov    0x8(%rax),%rdx
 124:	8b 45 f4             	mov    -0xc(%rbp),%eax
 127:	48 c1 e0 02          	shl    $0x2,%rax
 12b:	48 01 d0             	add    %rdx,%rax
 12e:	8b 08                	mov    (%rax),%ecx
 130:	48 8b 45 d8          	mov    -0x28(%rbp),%rax
 134:	48 8b 50 50          	mov    0x50(%rax),%rdx
 138:	48 8b 45 d8          	mov    -0x28(%rbp),%rax
 13c:	8b 40 34             	mov    0x34(%rax),%eax
 13f:	41 b9 36 19 00 00    	mov    $0x1936,%r9d
 145:	41 89 c8             	mov    %ecx,%r8d
 148:	b9 12 02 00 00       	mov    $0x212,%ecx
 14d:	89 c6                	mov    %eax,%esi
 14f:	e8 00 00 00 00       	call   154 <ArtNetController::HandleBlackout()+0x154>
 154:	83 45 f4 01          	addl   $0x1,-0xc(%rbp)
 158:	8b 45 f4             	mov    -0xc(%rbp),%eax
 15b:	3b 45 f0             	cmp    -0x10(%rbp),%eax
 15e:	72 b4                	jb     114 <ArtNetController::HandleBlackout()+0x114>
 160:	eb 79                	jmp    1db <ArtNetController::HandleBlackout()+0x1db>
 162:	48 8b 45 d8          	mov    -0x28(%rbp),%rax
 166:	0f b6 40 31          	movzbl 0x31(%rax),%eax
 16a:	83 f0 01             	xor    $0x1,%eax
 16d:	84 c0                	test   %al,%al
 16f:	75 06                	jne    177 <ArtNetController::HandleBlackout()+0x177>
 171:	83 7d f0 28          	cmpl   $0x28,-0x10(%rbp)
 175:	76 64                	jbe    1db <ArtNetController::HandleBlackout()+0x1db>
 177:	48 8b 45 d8          	mov    -0x28(%rbp),%rax
 17b:	48 8b 40 50          	mov    0x50(%rax),%rax
 17f:	0f b6 50 0c          	movzbl 0xc(%rax),%edx
 183:	83 c2 01             	add    $0x1,%edx
 186:	88 50 0c             	mov    %dl,0xc(%rax)
 189:	48 8b 45 d8          	mov    -0x28(%rbp),%rax
 18d:	48 8b 40 50          	mov    0x50(%rax),%rax
 191:	0f b6 40 0c          	movzbl 0xc(%rax),%eax
 195:	84 c0                	test   %al,%al
 197:	75 0c                	jne    1a5 <ArtNetController::HandleBlackout()+0x1a5>
 199:	48 8b 45 d8          	mov    -0x28(%rbp),%rax
 19d:	48 8b 40 50          	mov    0x50(%rax),%rax
 1a1:	c6 40 0c 01          	movb   $0x1,0xc(%rax)
 1a5:	e8 00 00 00 00       	call   1aa <ArtNetController::HandleBlackout()+0x1aa>
 1aa:	48 89 c7             	mov    %rax,%rdi
 1ad:	48 8b 45 d8          	mov    -0x28(%rbp),%rax
 1b1:	8b 48 28             	mov    0x28(%rax),%ecx
 1b4:	48 8b 45 d8          	mov    -0x28(%rbp),%rax
 1b8:	48 8b 50 50          	mov    0x50(%rax),%rdx
 1bc:	48 8b 45 d8          	mov    -0x28(%rbp),%rax
 1c0:	8b 40 34             	mov    0x34(%rax),%eax
 1c3:	41 b9 36 19 00 00    	mov    $0x1936,%r9d
 1c9:	41 89 c8             	mov    %ecx,%r8d
 1cc:	b9 12 02 00 00       	mov    $0x212,%ecx
 1d1:	89 c6                	mov    %eax,%esi
 1d3:	e8 00 00 00 00       	call   1d8 <ArtNetController::HandleBlackout()+0x1d8>
 1d8:	eb 01                	jmp    1db <ArtNetController::HandleBlackout()+0x1db>
 1da:	90                   	nop
 1db:	83 45 ec 01          	addl   $0x1,-0x14(%rbp)
 1df:	48 8b 45 d8          	mov    -0x28(%rbp),%rax
 1e3:	8b 40 70             	mov    0x70(%rax),%eax
 1e6:	39 45 ec             	cmp    %eax,-0x14(%rbp)
 1e9:	0f 82 63 fe ff ff    	jb     52 <ArtNetController::HandleBlackout()+0x52>
 1ef:	48 8b 45 d8          	mov    -0x28(%rbp),%rax
 1f3:	c6 40 6d 01          	movb   $0x1,0x6d(%rax)
 1f7:	48 8b 45 d8          	mov    -0x28(%rbp),%rax
 1fb:	48 89 c7             	mov    %rax,%rdi
 1fe:	e8 00 00 00 00       	call   203 <ArtNetController::HandleBlackout()+0x203>
 203:	90                   	nop
 204:	c9                   	leave  
 205:	c3                   	ret    

Disassembly of section .text._ZN16ArtNetController13HandleTriggerEv:

0000000000000000 <ArtNetController::HandleTrigger()>:
   0:	f3 0f 1e fa          	endbr64 
   4:	55                   	push   %rbp
   5:	48 89 e5             	mov    %rsp,%rbp
   8:	48 83 ec 20          	sub    $0x20,%rsp
   c:	48 89 7d e8          	mov    %rdi,-0x18(%rbp)
  10:	48 8b 45 e8          	mov    -0x18(%rbp),%rax
  14:	48 8b 40 38          	mov    0x38(%rax),%rax
  18:	48 89 45 f8          	mov    %rax,-0x8(%rbp)
  1c:	48 8b 45 f8          	mov    -0x8(%rbp),%rax
  20:	0f b6 40 0e          	movzbl 0xe(%rax),%eax
  24:	3c ff                	cmp    $0xff,%al
  26:	75 0c                	jne    34 <ArtNetController::HandleTrigger()+0x34>
  28:	48 8b 45 f8          	mov    -0x8(%rbp),%rax
  2c:	0f b6 40 0f          	movzbl 0xf(%rax),%eax
  30:	3c ff                	cmp    $0xff,%al
  32:	74 28                	je     5c <ArtNetController::HandleTrigger()+0x5c>
  34:	48 8b 45 f8          	mov    -0x8(%rbp),%rax
  38:	0f b6 50 0e          	movzbl 0xe(%rax),%edx
  3c:	48 8b 45 e8          	mov    -0x18(%rbp),%rax
  40:	0f b6 40 2c          	movzbl 0x2c(%rax),%eax
  44:	38 c2                	cmp    %al,%dl
  46:	75 3e                	jne    86 <ArtNetController::HandleTrigger()+0x86>
  48:	48 8b 45 f8          	mov    -0x8(%rbp),%rax
  4c:	0f b6 50 0f          	movzbl 0xf(%rax),%edx
  50:	48 8b 45 e8          	mov    -0x18(%rbp),%rax
  54:	0f b6 40 2d          	movzbl 0x2d(%rax),%eax
  58:	38 c2                	cmp    %al,%dl
  5a:	75 2a                	jne    86 <ArtNetController::HandleTrigger()+0x86>
  5c:	48 8b 45 e8          	mov    -0x18(%rbp),%rax
  60:	48 8b 40 60          	mov    0x60(%rax),%rax
  64:	48 8b 55 e8          	mov    -0x18(%rbp),%rdx
  68:	48 8b 52 60          	mov    0x60(%rdx),%rdx
  6c:	48 8b 12             	mov    (%rdx),%rdx
  6f:	48 83 c2 10          	add    $0x10,%rdx
  73:	48 8b 12             	mov    (%rdx),%rdx
  76:	48 8b 4d f8          	mov    -0x8(%rbp),%rcx
  7a:	48 83 c1 10          	add    $0x10,%rcx
  7e:	48 89 ce             	mov    %rcx,%rsi
  81:	48 89 c7             	mov    %rax,%rdi
  84:	ff d2                	call   *%rdx
  86:	90                   	nop
  87:	c9                   	leave  
  88:	c3                   	ret    

Disassembly of section .text._ZN16ArtNetController10HandlePollEv:

0000000000000000 <ArtNetController::HandlePoll()>:
   0:	f3 0f 1e fa          	endbr64 
   4:	55                   	push   %rbp
   5:	48 89 e5             	mov    %rsp,%rbp
   8:	48 83 ec 20          	sub    $0x20,%rsp
   c:	48 89 7d e8          	mov    %rdi,-0x18(%rbp)
  10:	e8 00 00 00 00       	call   15 <ArtNetController::HandlePoll()+0x15>
  15:	48 89 c7             	mov    %rax,%rdi
  18:	e8 00 00 00 00       	call   1d <ArtNetController::HandlePoll()+0x1d>
  1d:	89 45 fc             	mov    %eax,-0x4(%rbp)
  20:	48 8b 45 e8          	mov    -0x18(%rbp),%rax
  24:	8b 50 68             	mov    0x68(%rax),%edx
  27:	8b 45 fc             	mov    -0x4(%rbp),%eax
  2a:	29 d0                	sub    %edx,%eax
  2c:	3d 40 1f 00 00       	cmp    $0x1f40,%eax
  31:	0f 97 c0             	seta   %al
  34:	0f b6 c0             	movzbl %al,%eax
  37:	48 85 c0             	test   %rax,%rax
  3a:	74 3d                	je     79 <ArtNetController::HandlePoll()+0x79>
  3c:	e8 00 00 00 00       	call   41 <ArtNetController::HandlePoll()+0x41>
  41:	48 89 c7             	mov    %rax,%rdi
  44:	48 8b 45 e8          	mov    -0x18(%rbp),%rax
  48:	8b 48 28             	mov    0x28(%rax),%ecx
  4b:	48 8b 45 e8          	mov    -0x18(%rbp),%rax
  4f:	48 8d 50 40          	lea    0x40(%rax),%rdx
  53:	48 8b 45 e8          	mov    -0x18(%rbp),%rax
  57:	8b 40 34             	mov    0x34(%rax),%eax
  5a:	41 b9 36 19 00 00    	mov    $0x1936,%r9d
  60:	41 89 c8             	mov    %ecx,%r8d
  63:	b9 0e 00 00 00       	mov    $0xe,%ecx
  68:	89 c6                	mov    %eax,%esi
  6a:	e8 00 00 00 00       	call   6f <ArtNetController::HandlePoll()+0x6f>
  6f:	48 8b 45 e8          	mov    -0x18(%rbp),%rax
  73:	8b 55 fc             	mov    -0x4(%rbp),%edx
  76:	89 50 68             	mov    %edx,0x68(%rax)
  79:	48 8b 45 e8          	mov    -0x18(%rbp),%rax
  7d:	0f b6 40 6c          	movzbl 0x6c(%rax),%eax
  81:	84 c0                	test   %al,%al
  83:	74 28                	je     ad <ArtNetController::HandlePoll()+0xad>
  85:	48 8b 45 e8          	mov    -0x18(%rbp),%rax
  89:	8b 50 68             	mov    0x68(%rax),%edx
  8c:	8b 45 fc             	mov    -0x4(%rbp),%eax
  8f:	29 d0                	sub    %edx,%eax
  91:	3d d0 07 00 00       	cmp    $0x7d0,%eax
  96:	0f 97 c0             	seta   %al
  99:	0f b6 c0             	movzbl %al,%eax
  9c:	48 85 c0             	test   %rax,%rax
  9f:	74 0c                	je     ad <ArtNetController::HandlePoll()+0xad>
  a1:	48 8b 45 e8          	mov    -0x18(%rbp),%rax
  a5:	48 89 c7             	mov    %rax,%rdi
  a8:	e8 00 00 00 00       	call   ad <ArtNetController::HandlePoll()+0xad>
  ad:	90                   	nop
  ae:	c9                   	leave  
  af:	c3                   	ret    

Disassembly of section .text._ZN16ArtNetController15HandlePollReplyEv:

0000000000000000 <ArtNetController::HandlePollReply()>:
   0:	f3 0f 1e fa          	endbr64 
   4:	55                   	push   %rbp
   5:	48 89 e5             	mov    %rsp,%rbp
   8:	48 83 ec 10          	sub    $0x10,%rsp
   c:	48 89 7d f8          	mov    %rdi,-0x8(%rbp)
  10:	48 8b 45 f8          	mov    -0x8(%rbp),%rax
  14:	48 8b 55 f8          	mov    -0x8(%rbp),%rdx
  18:	48 8b 52 38          	mov    0x38(%rdx),%rdx
  1c:	48 89 d6             	mov    %rdx,%rsi
  1f:	48 89 c7             	mov    %rax,%rdi
  22:	e8 00 00 00 00       	call   27 <ArtNetController::HandlePollReply()+0x27>
  27:	90                   	nop
  28:	c9                   	leave  
  29:	c3                   	ret    

Disassembly of section .text._ZN16ArtNetController3RunEv:

0000000000000000 <ArtNetController::Run()>:
   0:	f3 0f 1e fa          	endbr64 
   4:	55                   	push   %rbp
   5:	48 89 e5             	mov    %rsp,%rbp
   8:	48 83 ec 30          	sub    $0x30,%rsp
   c:	48 89 7d d8          	mov    %rdi,-0x28(%rbp)
  10:	64 48 8b 04 25 28 00 	mov    %fs:0x28,%rax
  17:	00 00 
  19:	48 89 45 f8          	mov    %rax,-0x8(%rbp)
  1d:	31 c0                	xor    %eax,%eax
  1f:	48 8b 45 d8          	mov    -0x28(%rbp),%rax
  23:	48 8b 40 38          	mov    0x38(%rax),%rax
  27:	48 89 45 f0          	mov    %rax,-0x10(%rbp)
  2b:	48 8b 45 d8          	mov    -0x28(%rbp),%rax
  2f:	0f b6 40 31          	movzbl 0x31(%rax),%eax
  33:	84 c0                	test   %al,%al
  35:	74 0c                	je     43 <ArtNetController::Run()+0x43>
  37:	48 8b 45 d8          	mov    -0x28(%rbp),%rax
  3b:	48 89 c7             	mov    %rax,%rdi
  3e:	e8 00 00 00 00       	call   43 <ArtNetController::Run()+0x43>
  43:	e8 00 00 00 00       	call   48 <ArtNetController::Run()+0x48>
  48:	48 89 c7             	mov    %rax,%rdi
  4b:	48 8b 45 d8          	mov    -0x28(%rbp),%rax
  4f:	48 8b 40 38          	mov    0x38(%rax),%rax
  53:	48 8d b0 cc 04 00 00 	lea    0x4cc(%rax),%rsi
  5a:	48 8b 45 d8          	mov    -0x28(%rbp),%rax
  5e:	8b 40 34             	mov    0x34(%rax),%eax
  61:	48 8d 4d e6          	lea    -0x1a(%rbp),%rcx
  65:	48 8b 55 f0          	mov    -0x10(%rbp),%rdx
  69:	49 89 c9             	mov    %rcx,%r9
  6c:	49 89 f0             	mov    %rsi,%r8
  6f:	b9 d8 04 00 00       	mov    $0x4d8,%ecx
  74:	89 c6                	mov    %eax,%esi
  76:	e8 00 00 00 00       	call   7b <ArtNetController::Run()+0x7b>
  7b:	0f b7 c0             	movzwl %ax,%eax
  7e:	89 45 e8             	mov    %eax,-0x18(%rbp)
  81:	83 7d e8 0b          	cmpl   $0xb,-0x18(%rbp)
  85:	0f 9e c0             	setle  %al
  88:	0f b6 c0             	movzbl %al,%eax
  8b:	48 85 c0             	test   %rax,%rax
  8e:	0f 85 81 00 00 00    	jne    115 <ArtNetController::Run()+0x115>
  94:	48 8b 45 f0          	mov    -0x10(%rbp),%rax
  98:	ba 08 00 00 00       	mov    $0x8,%edx
  9d:	48 8d 0d 00 00 00 00 	lea    0x0(%rip),%rcx        # a4 <ArtNetController::Run()+0xa4>
  a4:	48 89 ce             	mov    %rcx,%rsi
  a7:	48 89 c7             	mov    %rax,%rdi
  aa:	e8 00 00 00 00       	call   af <ArtNetController::Run()+0xaf>
  af:	85 c0                	test   %eax,%eax
  b1:	75 65                	jne    118 <ArtNetController::Run()+0x118>
  b3:	48 8b 45 f0          	mov    -0x10(%rbp),%rax
  b7:	48 83 c0 09          	add    $0x9,%rax
  bb:	0f b6 00             	movzbl (%rax),%eax
  be:	0f be c0             	movsbl %al,%eax
  c1:	c1 e0 08             	shl    $0x8,%eax
  c4:	89 c2                	mov    %eax,%edx
  c6:	48 8b 45 f0          	mov    -0x10(%rbp),%rax
  ca:	48 83 c0 08          	add    $0x8,%rax
  ce:	0f b6 00             	movzbl (%rax),%eax
  d1:	0f be c0             	movsbl %al,%eax
  d4:	01 d0                	add    %edx,%eax
  d6:	89 45 ec             	mov    %eax,-0x14(%rbp)
  d9:	8b 45 ec             	mov    -0x14(%rbp),%eax
  dc:	3d 00 21 00 00       	cmp    $0x2100,%eax
  e1:	74 09                	je     ec <ArtNetController::Run()+0xec>
  e3:	3d 00 99 00 00       	cmp    $0x9900,%eax
  e8:	74 10                	je     fa <ArtNetController::Run()+0xfa>
  ea:	eb 30                	jmp    11c <ArtNetController::Run()+0x11c>
  ec:	48 8b 45 d8          	mov    -0x28(%rbp),%rax
  f0:	48 89 c7             	mov    %rax,%rdi
  f3:	e8 00 00 00 00       	call   f8 <ArtNetController::Run()+0xf8>
  f8:	eb 22                	jmp    11c <ArtNetController::Run()+0x11c>
  fa:	48 8b 45 d8          	mov    -0x28(%rbp),%rax
  fe:	48 8b 40 60          	mov    0x60(%rax),%rax
 102:	48 85 c0             	test   %rax,%rax
 105:	74 14                	je     11b <ArtNetController::Run()+0x11b>
 107:	48 8b 45 d8          	mov    -0x28(%rbp),%rax
 10b:	48 89 c7             	mov    %rax,%rdi
 10e:	e8 00 00 00 00       	call   113 <ArtNetController::Run()+0x113>
 113:	eb 06                	jmp    11b <ArtNetController::Run()+0x11b>
 115:	90                   	nop
 116:	eb 04                	jmp    11c <ArtNetController::Run()+0x11c>
 118:	90                   	nop
 119:	eb 01                	jmp    11c <ArtNetController::Run()+0x11c>
 11b:	90                   	nop
 11c:	48 8b 45 f8          	mov    -0x8(%rbp),%rax
 120:	64 48 2b 04 25 28 00 	sub    %fs:0x28,%rax
 127:	00 00 
 129:	74 05                	je     130 <ArtNetController::Run()+0x130>
 12b:	e8 00 00 00 00       	call   130 <ArtNetController::Run()+0x130>
 130:	c9                   	leave  
 131:	c3                   	ret    

Disassembly of section .text._ZN16ArtNetController20ActiveUniversesClearEv:

0000000000000000 <ArtNetController::ActiveUniversesClear()>:
   0:	f3 0f 1e fa          	endbr64 
   4:	55                   	push   %rbp
   5:	48 89 e5             	mov    %rsp,%rbp
   8:	48 83 ec 10          	sub    $0x10,%rsp
   c:	48 89 7d f8          	mov    %rdi,-0x8(%rbp)
  10:	ba 00 04 00 00       	mov    $0x400,%edx
  15:	be 00 00 00 00       	mov    $0x0,%esi
  1a:	48 8d 05 00 00 00 00 	lea    0x0(%rip),%rax        # 21 <ArtNetController::ActiveUniversesClear()+0x21>
  21:	48 89 c7             	mov    %rax,%rdi
  24:	e8 00 00 00 00       	call   29 <ArtNetController::ActiveUniversesClear()+0x29>
  29:	48 8b 45 f8          	mov    -0x8(%rbp),%rax
  2d:	c7 40 70 00 00 00 00 	movl   $0x0,0x70(%rax)
  34:	90                   	nop
  35:	c9                   	leave  
  36:	c3                   	ret    

Disassembly of section .text._ZN16ArtNetController18ActiveUniversesAddEt:

0000000000000000 <ArtNetController::ActiveUniversesAdd(unsigned short)>:
   0:	f3 0f 1e fa          	endbr64 
   4:	55                   	push   %rbp
   5:	48 89 e5             	mov    %rsp,%rbp
   8:	48 89 7d d8          	mov    %rdi,-0x28(%rbp)
   c:	89 f0                	mov    %esi,%eax
   e:	66 89 45 d4          	mov    %ax,-0x2c(%rbp)
  12:	c7 45 e4 00 00 00 00 	movl   $0x0,-0x1c(%rbp)
  19:	c7 45 f0 00 00 00 00 	movl   $0x0,-0x10(%rbp)
  20:	48 8b 45 d8          	mov    -0x28(%rbp),%rax
  24:	8b 40 70             	mov    0x70(%rax),%eax
  27:	89 45 e8             	mov    %eax,-0x18(%rbp)
  2a:	48 8b 45 d8          	mov    -0x28(%rbp),%rax
  2e:	8b 40 70             	mov    0x70(%rax),%eax
  31:	3d 00 02 00 00       	cmp    $0x200,%eax
  36:	0f 84 0e 01 00 00    	je     14a <ArtNetController::ActiveUniversesAdd(unsigned short)+0x14a>
  3c:	eb 5d                	jmp    9b <ArtNetController::ActiveUniversesAdd(unsigned short)+0x9b>
  3e:	8b 45 e8             	mov    -0x18(%rbp),%eax
  41:	2b 45 e4             	sub    -0x1c(%rbp),%eax
  44:	89 c2                	mov    %eax,%edx
  46:	c1 ea 1f             	shr    $0x1f,%edx
  49:	01 d0                	add    %edx,%eax
  4b:	d1 f8                	sar    %eax
  4d:	89 c2                	mov    %eax,%edx
  4f:	8b 45 e4             	mov    -0x1c(%rbp),%eax
  52:	01 d0                	add    %edx,%eax
  54:	89 45 f0             	mov    %eax,-0x10(%rbp)
  57:	8b 45 f0             	mov    -0x10(%rbp),%eax
  5a:	48 98                	cltq   
  5c:	48 8d 14 00          	lea    (%rax,%rax,1),%rdx
  60:	48 8d 05 00 00 00 00 	lea    0x0(%rip),%rax        # 67 <ArtNetController::ActiveUniversesAdd(unsigned short)+0x67>
  67:	0f b7 04 02          	movzwl (%rdx,%rax,1),%eax
  6b:	0f b7 c0             	movzwl %ax,%eax
  6e:	89 45 f4             	mov    %eax,-0xc(%rbp)
  71:	0f b7 45 d4          	movzwl -0x2c(%rbp),%eax
  75:	39 45 f4             	cmp    %eax,-0xc(%rbp)
  78:	73 0b                	jae    85 <ArtNetController::ActiveUniversesAdd(unsigned short)+0x85>
  7a:	8b 45 f0             	mov    -0x10(%rbp),%eax
  7d:	83 c0 01             	add    $0x1,%eax
  80:	89 45 e4             	mov    %eax,-0x1c(%rbp)
  83:	eb 16                	jmp    9b <ArtNetController::ActiveUniversesAdd(unsigned short)+0x9b>
  85:	0f b7 45 d4          	movzwl -0x2c(%rbp),%eax
  89:	39 45 f4             	cmp    %eax,-0xc(%rbp)
  8c:	0f 86 bb 00 00 00    	jbe    14d <ArtNetController::ActiveUniversesAdd(unsigned short)+0x14d>
  92:	8b 45 f0             	mov    -0x10(%rbp),%eax
  95:	83 e8 01             	sub    $0x1,%eax
  98:	89 45 e8             	mov    %eax,-0x18(%rbp)
  9b:	8b 45 e4             	mov    -0x1c(%rbp),%eax
  9e:	3b 45 e8             	cmp    -0x18(%rbp),%eax
  a1:	7e 9b                	jle    3e <ArtNetController::ActiveUniversesAdd(unsigned short)+0x3e>
  a3:	83 7d e8 ff          	cmpl   $0xffffffff,-0x18(%rbp)
  a7:	74 72                	je     11b <ArtNetController::ActiveUniversesAdd(unsigned short)+0x11b>
  a9:	48 8b 45 d8          	mov    -0x28(%rbp),%rax
  ad:	8b 50 70             	mov    0x70(%rax),%edx
  b0:	8b 45 e8             	mov    -0x18(%rbp),%eax
  b3:	39 c2                	cmp    %eax,%edx
  b5:	74 64                	je     11b <ArtNetController::ActiveUniversesAdd(unsigned short)+0x11b>
  b7:	48 8d 05 00 00 00 00 	lea    0x0(%rip),%rax        # be <ArtNetController::ActiveUniversesAdd(unsigned short)+0xbe>
  be:	48 89 45 f8          	mov    %rax,-0x8(%rbp)
  c2:	48 8b 45 d8          	mov    -0x28(%rbp),%rax
  c6:	8b 40 70             	mov    0x70(%rax),%eax
  c9:	89 45 ec             	mov    %eax,-0x14(%rbp)
  cc:	eb 2b                	jmp    f9 <ArtNetController::ActiveUniversesAdd(unsigned short)+0xf9>
  ce:	8b 45 ec             	mov    -0x14(%rbp),%eax
  d1:	48 8d 14 00          	lea    (%rax,%rax,1),%rdx
  d5:	48 8b 45 f8          	mov    -0x8(%rbp),%rax
  d9:	48 01 d0             	add    %rdx,%rax
  dc:	8b 55 ec             	mov    -0x14(%rbp),%edx
  df:	83 c2 01             	add    $0x1,%edx
  e2:	89 d2                	mov    %edx,%edx
  e4:	48 8d 0c 12          	lea    (%rdx,%rdx,1),%rcx
  e8:	48 8b 55 f8          	mov    -0x8(%rbp),%rdx
  ec:	48 01 ca             	add    %rcx,%rdx
  ef:	0f b7 00             	movzwl (%rax),%eax
  f2:	66 89 02             	mov    %ax,(%rdx)
  f5:	83 6d ec 01          	subl   $0x1,-0x14(%rbp)
  f9:	8b 45 e4             	mov    -0x1c(%rbp),%eax
  fc:	39 45 ec             	cmp    %eax,-0x14(%rbp)
  ff:	73 cd                	jae    ce <ArtNetController::ActiveUniversesAdd(unsigned short)+0xce>
 101:	8b 45 e4             	mov    -0x1c(%rbp),%eax
 104:	48 98                	cltq   
 106:	48 8d 0c 00          	lea    (%rax,%rax,1),%rcx
 10a:	48 8d 15 00 00 00 00 	lea    0x0(%rip),%rdx        # 111 <ArtNetController::ActiveUniversesAdd(unsigned short)+0x111>
 111:	0f b7 45 d4          	movzwl -0x2c(%rbp),%eax
 115:	66 89 04 11          	mov    %ax,(%rcx,%rdx,1)
 119:	eb 1c                	jmp    137 <ArtNetController::ActiveUniversesAdd(unsigned short)+0x137>
 11b:	48 8b 45 d8          	mov    -0x28(%rbp),%rax
 11f:	8b 40 70             	mov    0x70(%rax),%eax
 122:	89 c0                	mov    %eax,%eax
 124:	48 8d 0c 00          	lea    (%rax,%rax,1),%rcx
 128:	48 8d 15 00 00 00 00 	lea    0x0(%rip),%rdx        # 12f <ArtNetController::ActiveUniversesAdd(unsigned short)+0x12f>
 12f:	0f b7 45 d4          	movzwl -0x2c(%rbp),%eax
 133:	66 89 04 11          	mov    %ax,(%rcx,%rdx,1)
 137:	48 8b 45 d8          	mov    -0x28(%rbp),%rax
 13b:	8b 40 70             	mov    0x70(%rax),%eax
 13e:	8d 50 01             	lea    0x1(%rax),%edx
 141:	48 8b 45 d8          	mov    -0x28(%rbp),%rax
 145:	89 50 70             	mov    %edx,0x70(%rax)
 148:	eb 04                	jmp    14e <ArtNetController::ActiveUniversesAdd(unsigned short)+0x14e>
 14a:	90                   	nop
 14b:	eb 01                	jmp    14e <ArtNetController::ActiveUniversesAdd(unsigned short)+0x14e>
 14d:	90                   	nop
 14e:	5d                   	pop    %rbp
 14f:	c3                   	ret    

Disassembly of section .text._ZN16ArtNetController5PrintEv:

0000000000000000 <ArtNetController::Print()>:
   0:	f3 0f 1e fa          	endbr64 
   4:	55                   	push   %rbp
   5:	48 89 e5             	mov    %rsp,%rbp
   8:	48 83 ec 10          	sub    $0x10,%rsp
   c:	48 89 7d f8          	mov    %rdi,-0x8(%rbp)
  10:	48 8d 05 00 00 00 00 	lea    0x0(%rip),%rax        # 17 <ArtNetController::Print()+0x17>
  17:	48 89 c7             	mov    %rax,%rdi
  1a:	e8 00 00 00 00       	call   1f <ArtNetController::Print()+0x1f>
  1f:	be ff 00 00 00       	mov    $0xff,%esi
  24:	48 8d 05 00 00 00 00 	lea    0x0(%rip),%rax        # 2b <ArtNetController::Print()+0x2b>
  2b:	48 89 c7             	mov    %rax,%rdi
  2e:	b8 00 00 00 00       	mov    $0x0,%eax
  33:	e8 00 00 00 00       	call   38 <ArtNetController::Print()+0x38>
  38:	be 00 02 00 00       	mov    $0x200,%esi
  3d:	48 8d 05 00 00 00 00 	lea    0x0(%rip),%rax        # 44 <ArtNetController::Print()+0x44>
  44:	48 89 c7             	mov    %rax,%rdi
  47:	b8 00 00 00 00       	mov    $0x0,%eax
  4c:	e8 00 00 00 00       	call   51 <ArtNetController::Print()+0x51>
  51:	48 8b 45 f8          	mov    -0x8(%rbp),%rax
  55:	0f b6 40 31          	movzbl 0x31(%rax),%eax
  59:	83 f0 01             	xor    $0x1,%eax
  5c:	84 c0                	test   %al,%al
  5e:	74 0f                	je     6f <ArtNetController::Print()+0x6f>
  60:	48 8d 05 00 00 00 00 	lea    0x0(%rip),%rax        # 67 <ArtNetController::Print()+0x67>
  67:	48 89 c7             	mov    %rax,%rdi
  6a:	e8 00 00 00 00       	call   6f <ArtNetController::Print()+0x6f>
  6f:	48 8b 45 f8          	mov    -0x8(%rbp),%rax
  73:	0f b6 40 30          	movzbl 0x30(%rax),%eax
  77:	83 f0 01             	xor    $0x1,%eax
  7a:	84 c0                	test   %al,%al
  7c:	74 0f                	je     8d <ArtNetController::Print()+0x8d>
  7e:	48 8d 05 00 00 00 00 	lea    0x0(%rip),%rax        # 85 <ArtNetController::Print()+0x85>
  85:	48 89 c7             	mov    %rax,%rdi
  88:	e8 00 00 00 00       	call   8d <ArtNetController::Print()+0x8d>
  8d:	90                   	nop
  8e:	c9                   	leave  
  8f:	c3                   	ret    

artnetpolltable.o:     file format elf64-x86-64


Disassembly of section .text._ZN6artnetL17make_port_addressEjjj:

0000000000000000 <artnet::make_port_address(unsigned int, unsigned int, unsigned int)>:
   0:	55                   	push   %rbp
   1:	48 89 e5             	mov    %rsp,%rbp
   4:	89 7d ec             	mov    %edi,-0x14(%rbp)
   7:	89 75 e8             	mov    %esi,-0x18(%rbp)
   a:	89 55 e4             	mov    %edx,-0x1c(%rbp)
   d:	8b 45 ec             	mov    -0x14(%rbp),%eax
  10:	c1 e0 08             	shl    $0x8,%eax
  13:	66 25 00 7f          	and    $0x7f00,%ax
  17:	66 89 45 fe          	mov    %ax,-0x2(%rbp)
  1b:	8b 45 e8             	mov    -0x18(%rbp),%eax
  1e:	c1 e0 04             	shl    $0x4,%eax
  21:	0f b6 c0             	movzbl %al,%eax
  24:	66 09 45 fe          	or     %ax,-0x2(%rbp)
  28:	8b 45 e4             	mov    -0x1c(%rbp),%eax
  2b:	83 e0 0f             	and    $0xf,%eax
  2e:	66 09 45 fe          	or     %ax,-0x2(%rbp)
  32:	0f b7 45 fe          	movzwl -0x2(%rbp),%eax
  36:	5d                   	pop    %rbp
  37:	c3                   	ret    

Disassembly of section .text._ZN8Hardware3GetEv:

0000000000000000 <Hardware::Get()>:
   0:	f3 0f 1e fa          	endbr64 
   4:	55                   	push   %rbp
   5:	48 89 e5             	mov    %rsp,%rbp
   8:	48 8b 05 00 00 00 00 	mov    0x0(%rip),%rax        # f <Hardware::Get()+0xf>
   f:	5d                   	pop    %rbp
  10:	c3                   	ret    

Disassembly of section .text._ZN15ArtNetPollTableC2Ev:

0000000000000000 <ArtNetPollTable::ArtNetPollTable()>:
   0:	f3 0f 1e fa          	endbr64 
   4:	55                   	push   %rbp
   5:	48 89 e5             	mov    %rsp,%rbp
   8:	53                   	push   %rbx
   9:	48 83 ec 28          	sub    $0x28,%rsp
   d:	48 89 7d d8          	mov    %rdi,-0x28(%rbp)
  11:	48 8b 45 d8          	mov    -0x28(%rbp),%rax
  15:	c7 40 08 00 00 00 00 	movl   $0x0,0x8(%rax)
  1c:	48 8b 45 d8          	mov    -0x28(%rbp),%rax
  20:	c7 40 18 00 00 00 00 	movl   $0x0,0x18(%rax)
  27:	bf a0 5d 02 00       	mov    $0x25da0,%edi
  2c:	e8 00 00 00 00       	call   31 <ArtNetPollTable::ArtNetPollTable()+0x31>
  31:	48 89 c2             	mov    %rax,%rdx
  34:	48 8b 45 d8          	mov    -0x28(%rbp),%rax
  38:	48 89 10             	mov    %rdx,(%rax)
  3b:	48 8b 45 d8          	mov    -0x28(%rbp),%rax
  3f:	48 8b 00             	mov    (%rax),%rax
  42:	ba a0 5d 02 00       	mov    $0x25da0,%edx
  47:	be 00 00 00 00       	mov    $0x0,%esi
  4c:	48 89 c7             	mov    %rax,%rdi
  4f:	e8 00 00 00 00       	call   54 <ArtNetPollTable::ArtNetPollTable()+0x54>
  54:	bf 00 20 00 00       	mov    $0x2000,%edi
  59:	e8 00 00 00 00       	call   5e <ArtNetPollTable::ArtNetPollTable()+0x5e>
  5e:	48 89 c2             	mov    %rax,%rdx
  61:	48 8b 45 d8          	mov    -0x28(%rbp),%rax
  65:	48 89 50 10          	mov    %rdx,0x10(%rax)
  69:	48 8b 45 d8          	mov    -0x28(%rbp),%rax
  6d:	48 8b 40 10          	mov    0x10(%rax),%rax
  71:	ba 00 20 00 00       	mov    $0x2000,%edx
  76:	be 00 00 00 00       	mov    $0x0,%esi
  7b:	48 89 c7             	mov    %rax,%rdi
  7e:	e8 00 00 00 00       	call   83 <ArtNetPollTable::ArtNetPollTable()+0x83>
  83:	c7 45 ec 00 00 00 00 	movl   $0x0,-0x14(%rbp)
  8a:	eb 25                	jmp    b1 <ArtNetPollTable::ArtNetPollTable()+0xb1>
  8c:	48 8b 45 d8          	mov    -0x28(%rbp),%rax
  90:	48 8b 50 10          	mov    0x10(%rax),%rdx
  94:	8b 45 ec             	mov    -0x14(%rbp),%eax
  97:	48 c1 e0 04          	shl    $0x4,%rax
  9b:	48 8d 1c 02          	lea    (%rdx,%rax,1),%rbx
  9f:	bf fc 03 00 00       	mov    $0x3fc,%edi
  a4:	e8 00 00 00 00       	call   a9 <ArtNetPollTable::ArtNetPollTable()+0xa9>
  a9:	48 89 43 08          	mov    %rax,0x8(%rbx)
  ad:	83 45 ec 01          	addl   $0x1,-0x14(%rbp)
  b1:	81 7d ec ff 01 00 00 	cmpl   $0x1ff,-0x14(%rbp)
  b8:	76 d2                	jbe    8c <ArtNetPollTable::ArtNetPollTable()+0x8c>
  ba:	48 8b 45 d8          	mov    -0x28(%rbp),%rax
  be:	c7 40 1c 00 00 00 00 	movl   $0x0,0x1c(%rax)
  c5:	48 8b 45 d8          	mov    -0x28(%rbp),%rax
  c9:	66 c7 40 20 00 00    	movw   $0x0,0x20(%rax)
  cf:	48 8b 45 d8          	mov    -0x28(%rbp),%rax
  d3:	c6 40 22 01          	movb   $0x1,0x22(%rax)
  d7:	90                   	nop
  d8:	48 8b 5d f8          	mov    -0x8(%rbp),%rbx
  dc:	c9                   	leave  
  dd:	c3                   	ret    

Disassembly of section .text._ZN15ArtNetPollTableD2Ev:

0000000000000000 <ArtNetPollTable::~ArtNetPollTable()>:
   0:	f3 0f 1e fa          	endbr64 
   4:	55                   	push   %rbp
   5:	48 89 e5             	mov    %rsp,%rbp
   8:	48 83 ec 20          	sub    $0x20,%rsp
   c:	48 89 7d e8          	mov    %rdi,-0x18(%rbp)
  10:	c7 45 fc 00 00 00 00 	movl   $0x0,-0x4(%rbp)
  17:	eb 57                	jmp    70 <ArtNetPollTable::~ArtNetPollTable()+0x70>
  19:	48 8b 45 e8          	mov    -0x18(%rbp),%rax
  1d:	48 8b 50 10          	mov    0x10(%rax),%rdx
  21:	8b 45 fc             	mov    -0x4(%rbp),%eax
  24:	48 c1 e0 04          	shl    $0x4,%rax
  28:	48 01 d0             	add    %rdx,%rax
  2b:	48 8b 40 08          	mov    0x8(%rax),%rax
  2f:	48 85 c0             	test   %rax,%rax
  32:	74 1e                	je     52 <ArtNetPollTable::~ArtNetPollTable()+0x52>
  34:	48 8b 45 e8          	mov    -0x18(%rbp),%rax
  38:	48 8b 50 10          	mov    0x10(%rax),%rdx
  3c:	8b 45 fc             	mov    -0x4(%rbp),%eax
  3f:	48 c1 e0 04          	shl    $0x4,%rax
  43:	48 01 d0             	add    %rdx,%rax
  46:	48 8b 40 08          	mov    0x8(%rax),%rax
  4a:	48 89 c7             	mov    %rax,%rdi
  4d:	e8 00 00 00 00       	call   52 <ArtNetPollTable::~ArtNetPollTable()+0x52>
  52:	48 8b 45 e8          	mov    -0x18(%rbp),%rax
  56:	48 8b 50 10          	mov    0x10(%rax),%rdx
  5a:	8b 45 fc             	mov    -0x4(%rbp),%eax
  5d:	48 c1 e0 04          	shl    $0x4,%rax
  61:	48 01 d0             	add    %rdx,%rax
  64:	48 c7 40 08 00 00 00 	movq   $0x0,0x8(%rax)
  6b:	00 
  6c:	83 45 fc 01          	addl   $0x1,-0x4(%rbp)
  70:	81 7d fc ff 01 00 00 	cmpl   $0x1ff,-0x4(%rbp)
  77:	76 a0                	jbe    19 <ArtNetPollTable::~ArtNetPollTable()+0x19>
  79:	48 8b 45 e8          	mov    -0x18(%rbp),%rax
  7d:	48 8b 40 10          	mov    0x10(%rax),%rax
  81:	48 85 c0             	test   %rax,%rax
  84:	74 10                	je     96 <ArtNetPollTable::~ArtNetPollTable()+0x96>
  86:	48 8b 45 e8          	mov    -0x18(%rbp),%rax
  8a:	48 8b 40 10          	mov    0x10(%rax),%rax
  8e:	48 89 c7             	mov    %rax,%rdi
  91:	e8 00 00 00 00       	call   96 <ArtNetPollTable::~ArtNetPollTable()+0x96>
  96:	48 8b 45 e8          	mov    -0x18(%rbp),%rax
  9a:	48 c7 40 10 00 00 00 	movq   $0x0,0x10(%rax)
  a1:	00 
  a2:	48 8b 45 e8          	mov    -0x18(%rbp),%rax
  a6:	48 8b 00             	mov    (%rax),%rax
  a9:	48 85 c0             	test   %rax,%rax
  ac:	74 0f                	je     bd <ArtNetPollTable::~ArtNetPollTable()+0xbd>
  ae:	48 8b 45 e8          	mov    -0x18(%rbp),%rax
  b2:	48 8b 00             	mov    (%rax),%rax
  b5:	48 89 c7             	mov    %rax,%rdi
  b8:	e8 00 00 00 00       	call   bd <ArtNetPollTable::~ArtNetPollTable()+0xbd>
  bd:	48 8b 45 e8          	mov    -0x18(%rbp),%rax
  c1:	48 c7 00 00 00 00 00 	movq   $0x0,(%rax)
  c8:	90                   	nop
  c9:	c9                   	leave  
  ca:	c3                   	ret    

Disassembly of section .text._ZNK15ArtNetPollTable12GetIpAddressEt:

0000000000000000 <ArtNetPollTable::GetIpAddress(unsigned short) const>:
   0:	f3 0f 1e fa          	endbr64 
   4:	55                   	push   %rbp
   5:	48 89 e5             	mov    %rsp,%rbp
   8:	48 89 7d e8          	mov    %rdi,-0x18(%rbp)
   c:	89 f0                	mov    %esi,%eax
   e:	66 89 45 e4          	mov    %ax,-0x1c(%rbp)
  12:	48 8b 45 e8          	mov    -0x18(%rbp),%rax
  16:	8b 40 18             	mov    0x18(%rax),%eax
  19:	85 c0                	test   %eax,%eax
  1b:	75 07                	jne    24 <ArtNetPollTable::GetIpAddress(unsigned short) const+0x24>
  1d:	b8 00 00 00 00       	mov    $0x0,%eax
  22:	eb 55                	jmp    79 <ArtNetPollTable::GetIpAddress(unsigned short) const+0x79>
  24:	c7 45 f4 00 00 00 00 	movl   $0x0,-0xc(%rbp)
  2b:	eb 3b                	jmp    68 <ArtNetPollTable::GetIpAddress(unsigned short) const+0x68>
  2d:	48 8b 45 e8          	mov    -0x18(%rbp),%rax
  31:	48 8b 50 10          	mov    0x10(%rax),%rdx
  35:	8b 45 f4             	mov    -0xc(%rbp),%eax
  38:	48 c1 e0 04          	shl    $0x4,%rax
  3c:	48 01 d0             	add    %rdx,%rax
  3f:	48 89 45 f8          	mov    %rax,-0x8(%rbp)
  43:	48 8b 45 f8          	mov    -0x8(%rbp),%rax
  47:	0f b7 00             	movzwl (%rax),%eax
  4a:	66 39 45 e4          	cmp    %ax,-0x1c(%rbp)
  4e:	75 14                	jne    64 <ArtNetPollTable::GetIpAddress(unsigned short) const+0x64>
  50:	48 8b 45 e8          	mov    -0x18(%rbp),%rax
  54:	48 8b 50 10          	mov    0x10(%rax),%rdx
  58:	8b 45 f4             	mov    -0xc(%rbp),%eax
  5b:	48 c1 e0 04          	shl    $0x4,%rax
  5f:	48 01 d0             	add    %rdx,%rax
  62:	eb 15                	jmp    79 <ArtNetPollTable::GetIpAddress(unsigned short) const+0x79>
  64:	83 45 f4 01          	addl   $0x1,-0xc(%rbp)
  68:	48 8b 45 e8          	mov    -0x18(%rbp),%rax
  6c:	8b 40 18             	mov    0x18(%rax),%eax
  6f:	39 45 f4             	cmp    %eax,-0xc(%rbp)
  72:	72 b9                	jb     2d <ArtNetPollTable::GetIpAddress(unsigned short) const+0x2d>
  74:	b8 00 00 00 00       	mov    $0x0,%eax
  79:	5d                   	pop    %rbp
  7a:	c3                   	ret    

Disassembly of section .text._ZN15ArtNetPollTable15RemoveIpAddressEtj:

0000000000000000 <ArtNetPollTable::RemoveIpAddress(unsigned short, unsigned int)>:
   0:	f3 0f 1e fa          	endbr64 
   4:	55                   	push   %rbp
   5:	48 89 e5             	mov    %rsp,%rbp
   8:	48 89 7d c8          	mov    %rdi,-0x38(%rbp)
   c:	89 f0                	mov    %esi,%eax
   e:	89 55 c0             	mov    %edx,-0x40(%rbp)
  11:	66 89 45 c4          	mov    %ax,-0x3c(%rbp)
  15:	48 8b 45 c8          	mov    -0x38(%rbp),%rax
  19:	8b 40 18             	mov    0x18(%rax),%eax
  1c:	85 c0                	test   %eax,%eax
  1e:	0f 84 4f 02 00 00    	je     273 <ArtNetPollTable::RemoveIpAddress(unsigned short, unsigned int)+0x273>
  24:	c7 45 d4 00 00 00 00 	movl   $0x0,-0x2c(%rbp)
  2b:	c7 45 d4 00 00 00 00 	movl   $0x0,-0x2c(%rbp)
  32:	eb 27                	jmp    5b <ArtNetPollTable::RemoveIpAddress(unsigned short, unsigned int)+0x5b>
  34:	48 8b 45 c8          	mov    -0x38(%rbp),%rax
  38:	48 8b 50 10          	mov    0x10(%rax),%rdx
  3c:	8b 45 d4             	mov    -0x2c(%rbp),%eax
  3f:	48 c1 e0 04          	shl    $0x4,%rax
  43:	48 01 d0             	add    %rdx,%rax
  46:	48 89 45 e0          	mov    %rax,-0x20(%rbp)
  4a:	48 8b 45 e0          	mov    -0x20(%rbp),%rax
  4e:	0f b7 00             	movzwl (%rax),%eax
  51:	66 39 45 c4          	cmp    %ax,-0x3c(%rbp)
  55:	74 12                	je     69 <ArtNetPollTable::RemoveIpAddress(unsigned short, unsigned int)+0x69>
  57:	83 45 d4 01          	addl   $0x1,-0x2c(%rbp)
  5b:	48 8b 45 c8          	mov    -0x38(%rbp),%rax
  5f:	8b 40 18             	mov    0x18(%rax),%eax
  62:	39 45 d4             	cmp    %eax,-0x2c(%rbp)
  65:	72 cd                	jb     34 <ArtNetPollTable::RemoveIpAddress(unsigned short, unsigned int)+0x34>
  67:	eb 01                	jmp    6a <ArtNetPollTable::RemoveIpAddress(unsigned short, unsigned int)+0x6a>
  69:	90                   	nop
  6a:	48 8b 45 c8          	mov    -0x38(%rbp),%rax
  6e:	8b 40 18             	mov    0x18(%rax),%eax
  71:	39 45 d4             	cmp    %eax,-0x2c(%rbp)
  74:	0f 84 fc 01 00 00    	je     276 <ArtNetPollTable::RemoveIpAddress(unsigned short, unsigned int)+0x276>
  7a:	48 8b 45 c8          	mov    -0x38(%rbp),%rax
  7e:	48 8b 50 10          	mov    0x10(%rax),%rdx
  82:	8b 45 d4             	mov    -0x2c(%rbp),%eax
  85:	48 c1 e0 04          	shl    $0x4,%rax
  89:	48 01 d0             	add    %rdx,%rax
  8c:	48 89 45 e8          	mov    %rax,-0x18(%rbp)
  90:	c7 45 d8 00 00 00 00 	movl   $0x0,-0x28(%rbp)
  97:	c7 45 d8 00 00 00 00 	movl   $0x0,-0x28(%rbp)
  9e:	eb 1d                	jmp    bd <ArtNetPollTable::RemoveIpAddress(unsigned short, unsigned int)+0xbd>
  a0:	48 8b 45 e8          	mov    -0x18(%rbp),%rax
  a4:	48 8b 50 08          	mov    0x8(%rax),%rdx
  a8:	8b 45 d8             	mov    -0x28(%rbp),%eax
  ab:	48 c1 e0 02          	shl    $0x2,%rax
  af:	48 01 d0             	add    %rdx,%rax
  b2:	8b 00                	mov    (%rax),%eax
  b4:	39 45 c0             	cmp    %eax,-0x40(%rbp)
  b7:	74 16                	je     cf <ArtNetPollTable::RemoveIpAddress(unsigned short, unsigned int)+0xcf>
  b9:	83 45 d8 01          	addl   $0x1,-0x28(%rbp)
  bd:	48 8b 45 e8          	mov    -0x18(%rbp),%rax
  c1:	0f b7 40 02          	movzwl 0x2(%rax),%eax
  c5:	0f b7 c0             	movzwl %ax,%eax
  c8:	39 45 d8             	cmp    %eax,-0x28(%rbp)
  cb:	72 d3                	jb     a0 <ArtNetPollTable::RemoveIpAddress(unsigned short, unsigned int)+0xa0>
  cd:	eb 01                	jmp    d0 <ArtNetPollTable::RemoveIpAddress(unsigned short, unsigned int)+0xd0>
  cf:	90                   	nop
  d0:	48 8b 45 e8          	mov    -0x18(%rbp),%rax
  d4:	48 8b 40 08          	mov    0x8(%rax),%rax
  d8:	48 89 45 f0          	mov    %rax,-0x10(%rbp)
  dc:	8b 45 d8             	mov    -0x28(%rbp),%eax
  df:	89 45 dc             	mov    %eax,-0x24(%rbp)
  e2:	eb 35                	jmp    119 <ArtNetPollTable::RemoveIpAddress(unsigned short, unsigned int)+0x119>
  e4:	8b 45 dc             	mov    -0x24(%rbp),%eax
  e7:	48 98                	cltq   
  e9:	48 83 c0 01          	add    $0x1,%rax
  ed:	48 8d 14 85 00 00 00 	lea    0x0(,%rax,4),%rdx
  f4:	00 
  f5:	48 8b 45 f0          	mov    -0x10(%rbp),%rax
  f9:	48 01 d0             	add    %rdx,%rax
  fc:	8b 55 dc             	mov    -0x24(%rbp),%edx
  ff:	48 63 d2             	movslq %edx,%rdx
 102:	48 8d 0c 95 00 00 00 	lea    0x0(,%rdx,4),%rcx
 109:	00 
 10a:	48 8b 55 f0          	mov    -0x10(%rbp),%rdx
 10e:	48 01 ca             	add    %rcx,%rdx
 111:	8b 00                	mov    (%rax),%eax
 113:	89 02                	mov    %eax,(%rdx)
 115:	83 45 dc 01          	addl   $0x1,-0x24(%rbp)
 119:	48 8b 45 e8          	mov    -0x18(%rbp),%rax
 11d:	0f b7 40 02          	movzwl 0x2(%rax),%eax
 121:	0f b7 c0             	movzwl %ax,%eax
 124:	83 e8 01             	sub    $0x1,%eax
 127:	39 45 dc             	cmp    %eax,-0x24(%rbp)
 12a:	7c b8                	jl     e4 <ArtNetPollTable::RemoveIpAddress(unsigned short, unsigned int)+0xe4>
 12c:	8b 45 dc             	mov    -0x24(%rbp),%eax
 12f:	48 98                	cltq   
 131:	48 8d 14 85 00 00 00 	lea    0x0(,%rax,4),%rdx
 138:	00 
 139:	48 8b 45 f0          	mov    -0x10(%rbp),%rax
 13d:	48 01 d0             	add    %rdx,%rax
 140:	c7 00 00 00 00 00    	movl   $0x0,(%rax)
 146:	48 8b 45 e8          	mov    -0x18(%rbp),%rax
 14a:	0f b7 40 02          	movzwl 0x2(%rax),%eax
 14e:	8d 50 ff             	lea    -0x1(%rax),%edx
 151:	48 8b 45 e8          	mov    -0x18(%rbp),%rax
 155:	66 89 50 02          	mov    %dx,0x2(%rax)
 159:	48 8b 45 e8          	mov    -0x18(%rbp),%rax
 15d:	0f b7 40 02          	movzwl 0x2(%rax),%eax
 161:	66 85 c0             	test   %ax,%ax
 164:	0f 85 0d 01 00 00    	jne    277 <ArtNetPollTable::RemoveIpAddress(unsigned short, unsigned int)+0x277>
 16a:	48 8b 45 c8          	mov    -0x38(%rbp),%rax
 16e:	48 8b 40 10          	mov    0x10(%rax),%rax
 172:	48 89 45 f8          	mov    %rax,-0x8(%rbp)
 176:	8b 45 d4             	mov    -0x2c(%rbp),%eax
 179:	89 45 dc             	mov    %eax,-0x24(%rbp)
 17c:	e9 9b 00 00 00       	jmp    21c <ArtNetPollTable::RemoveIpAddress(unsigned short, unsigned int)+0x21c>
 181:	8b 45 dc             	mov    -0x24(%rbp),%eax
 184:	48 98                	cltq   
 186:	48 83 c0 01          	add    $0x1,%rax
 18a:	48 c1 e0 04          	shl    $0x4,%rax
 18e:	48 89 c2             	mov    %rax,%rdx
 191:	48 8b 45 f8          	mov    -0x8(%rbp),%rax
 195:	48 01 d0             	add    %rdx,%rax
 198:	8b 55 dc             	mov    -0x24(%rbp),%edx
 19b:	48 63 d2             	movslq %edx,%rdx
 19e:	48 89 d1             	mov    %rdx,%rcx
 1a1:	48 c1 e1 04          	shl    $0x4,%rcx
 1a5:	48 8b 55 f8          	mov    -0x8(%rbp),%rdx
 1a9:	48 01 ca             	add    %rcx,%rdx
 1ac:	0f b7 00             	movzwl (%rax),%eax
 1af:	66 89 02             	mov    %ax,(%rdx)
 1b2:	8b 45 dc             	mov    -0x24(%rbp),%eax
 1b5:	48 98                	cltq   
 1b7:	48 83 c0 01          	add    $0x1,%rax
 1bb:	48 c1 e0 04          	shl    $0x4,%rax
 1bf:	48 89 c2             	mov    %rax,%rdx
 1c2:	48 8b 45 f8          	mov    -0x8(%rbp),%rax
 1c6:	48 01 d0             	add    %rdx,%rax
 1c9:	8b 55 dc             	mov    -0x24(%rbp),%edx
 1cc:	48 63 d2             	movslq %edx,%rdx
 1cf:	48 89 d1             	mov    %rdx,%rcx
 1d2:	48 c1 e1 04          	shl    $0x4,%rcx
 1d6:	48 8b 55 f8          	mov    -0x8(%rbp),%rdx
 1da:	48 01 ca             	add    %rcx,%rdx
 1dd:	0f b7 40 02          	movzwl 0x2(%rax),%eax
 1e1:	66 89 42 02          	mov    %ax,0x2(%rdx)
 1e5:	8b 45 dc             	mov    -0x24(%rbp),%eax
 1e8:	48 98                	cltq   
 1ea:	48 83 c0 01          	add    $0x1,%rax
 1ee:	48 c1 e0 04          	shl    $0x4,%rax
 1f2:	48 89 c2             	mov    %rax,%rdx
 1f5:	48 8b 45 f8          	mov    -0x8(%rbp),%rax
 1f9:	48 01 d0             	add    %rdx,%rax
 1fc:	8b 55 dc             	mov    -0x24(%rbp),%edx
 1ff:	48 63 d2             	movslq %edx,%rdx
 202:	48 89 d1             	mov    %rdx,%rcx
 205:	48 c1 e1 04          	shl    $0x4,%rcx
 209:	48 8b 55 f8          	mov    -0x8(%rbp),%rdx
 20d:	48 01 ca             	add    %rcx,%rdx
 210:	48 8b 40 08          	mov    0x8(%rax),%rax
 214:	48 89 42 08          	mov    %rax,0x8(%rdx)
 218:	83 45 dc 01          	addl   $0x1,-0x24(%rbp)
 21c:	48 8b 45 c8          	mov    -0x38(%rbp),%rax
 220:	8b 40 18             	mov    0x18(%rax),%eax
 223:	83 e8 01             	sub    $0x1,%eax
 226:	39 45 dc             	cmp    %eax,-0x24(%rbp)
 229:	0f 8c 52 ff ff ff    	jl     181 <ArtNetPollTable::RemoveIpAddress(unsigned short, unsigned int)+0x181>
 22f:	8b 45 dc             	mov    -0x24(%rbp),%eax
 232:	48 98                	cltq   
 234:	48 c1 e0 04          	shl    $0x4,%rax
 238:	48 89 c2             	mov    %rax,%rdx
 23b:	48 8b 45 f8          	mov    -0x8(%rbp),%rax
 23f:	48 01 d0             	add    %rdx,%rax
 242:	66 c7 00 00 00       	movw   $0x0,(%rax)
 247:	8b 45 dc             	mov    -0x24(%rbp),%eax
 24a:	48 98                	cltq   
 24c:	48 c1 e0 04          	shl    $0x4,%rax
 250:	48 89 c2             	mov    %rax,%rdx
 253:	48 8b 45 f8          	mov    -0x8(%rbp),%rax
 257:	48 01 d0             	add    %rdx,%rax
 25a:	66 c7 40 02 00 00    	movw   $0x0,0x2(%rax)
 260:	48 8b 45 c8          	mov    -0x38(%rbp),%rax
 264:	8b 40 18             	mov    0x18(%rax),%eax
 267:	8d 50 ff             	lea    -0x1(%rax),%edx
 26a:	48 8b 45 c8          	mov    -0x38(%rbp),%rax
 26e:	89 50 18             	mov    %edx,0x18(%rax)
 271:	eb 04                	jmp    277 <ArtNetPollTable::RemoveIpAddress(unsigned short, unsigned int)+0x277>
 273:	90                   	nop
 274:	eb 01                	jmp    277 <ArtNetPollTable::RemoveIpAddress(unsigned short, unsigned int)+0x277>
 276:	90                   	nop
 277:	5d                   	pop    %rbp
 278:	c3                   	ret    

Disassembly of section .text._ZN15ArtNetPollTable15ProcessUniverseEjt:

0000000000000000 <ArtNetPollTable::ProcessUniverse(unsigned int, unsigned short)>:
   0:	f3 0f 1e fa          	endbr64 
   4:	55                   	push   %rbp
   5:	48 89 e5             	mov    %rsp,%rbp
   8:	48 89 7d d8          	mov    %rdi,-0x28(%rbp)
   c:	89 75 d4             	mov    %esi,-0x2c(%rbp)
   f:	89 d0                	mov    %edx,%eax
  11:	66 89 45 d0          	mov    %ax,-0x30(%rbp)
  15:	48 8b 45 d8          	mov    -0x28(%rbp),%rax
  19:	8b 40 18             	mov    0x18(%rax),%eax
  1c:	3d 00 02 00 00       	cmp    $0x200,%eax
  21:	0f 84 1b 01 00 00    	je     142 <ArtNetPollTable::ProcessUniverse(unsigned int, unsigned short)+0x142>
  27:	c6 45 e6 00          	movb   $0x0,-0x1a(%rbp)
  2b:	c7 45 e8 00 00 00 00 	movl   $0x0,-0x18(%rbp)
  32:	c7 45 e8 00 00 00 00 	movl   $0x0,-0x18(%rbp)
  39:	eb 2d                	jmp    68 <ArtNetPollTable::ProcessUniverse(unsigned int, unsigned short)+0x68>
  3b:	48 8b 45 d8          	mov    -0x28(%rbp),%rax
  3f:	48 8b 50 10          	mov    0x10(%rax),%rdx
  43:	8b 45 e8             	mov    -0x18(%rbp),%eax
  46:	48 c1 e0 04          	shl    $0x4,%rax
  4a:	48 01 d0             	add    %rdx,%rax
  4d:	48 89 45 f0          	mov    %rax,-0x10(%rbp)
  51:	48 8b 45 f0          	mov    -0x10(%rbp),%rax
  55:	0f b7 00             	movzwl (%rax),%eax
  58:	66 39 45 d0          	cmp    %ax,-0x30(%rbp)
  5c:	75 06                	jne    64 <ArtNetPollTable::ProcessUniverse(unsigned int, unsigned short)+0x64>
  5e:	c6 45 e6 01          	movb   $0x1,-0x1a(%rbp)
  62:	eb 10                	jmp    74 <ArtNetPollTable::ProcessUniverse(unsigned int, unsigned short)+0x74>
  64:	83 45 e8 01          	addl   $0x1,-0x18(%rbp)
  68:	48 8b 45 d8          	mov    -0x28(%rbp),%rax
  6c:	8b 40 18             	mov    0x18(%rax),%eax
  6f:	39 45 e8             	cmp    %eax,-0x18(%rbp)
  72:	72 c7                	jb     3b <ArtNetPollTable::ProcessUniverse(unsigned int, unsigned short)+0x3b>
  74:	48 8b 45 d8          	mov    -0x28(%rbp),%rax
  78:	48 8b 50 10          	mov    0x10(%rax),%rdx
  7c:	8b 45 e8             	mov    -0x18(%rbp),%eax
  7f:	48 c1 e0 04          	shl    $0x4,%rax
  83:	48 01 d0             	add    %rdx,%rax
  86:	48 89 45 f8          	mov    %rax,-0x8(%rbp)
  8a:	c6 45 e7 00          	movb   $0x0,-0x19(%rbp)
  8e:	c7 45 ec 00 00 00 00 	movl   $0x0,-0x14(%rbp)
  95:	80 7d e6 00          	cmpb   $0x0,-0x1a(%rbp)
  99:	74 3e                	je     d9 <ArtNetPollTable::ProcessUniverse(unsigned int, unsigned short)+0xd9>
  9b:	c7 45 ec 00 00 00 00 	movl   $0x0,-0x14(%rbp)
  a2:	eb 23                	jmp    c7 <ArtNetPollTable::ProcessUniverse(unsigned int, unsigned short)+0xc7>
  a4:	48 8b 45 f8          	mov    -0x8(%rbp),%rax
  a8:	48 8b 50 08          	mov    0x8(%rax),%rdx
  ac:	8b 45 ec             	mov    -0x14(%rbp),%eax
  af:	48 c1 e0 02          	shl    $0x2,%rax
  b3:	48 01 d0             	add    %rdx,%rax
  b6:	8b 00                	mov    (%rax),%eax
  b8:	39 45 d4             	cmp    %eax,-0x2c(%rbp)
  bb:	75 06                	jne    c3 <ArtNetPollTable::ProcessUniverse(unsigned int, unsigned short)+0xc3>
  bd:	c6 45 e7 01          	movb   $0x1,-0x19(%rbp)
  c1:	eb 32                	jmp    f5 <ArtNetPollTable::ProcessUniverse(unsigned int, unsigned short)+0xf5>
  c3:	83 45 ec 01          	addl   $0x1,-0x14(%rbp)
  c7:	48 8b 45 f8          	mov    -0x8(%rbp),%rax
  cb:	0f b7 40 02          	movzwl 0x2(%rax),%eax
  cf:	0f b7 c0             	movzwl %ax,%eax
  d2:	39 45 ec             	cmp    %eax,-0x14(%rbp)
  d5:	72 cd                	jb     a4 <ArtNetPollTable::ProcessUniverse(unsigned int, unsigned short)+0xa4>
  d7:	eb 1c                	jmp    f5 <ArtNetPollTable::ProcessUniverse(unsigned int, unsigned short)+0xf5>
  d9:	48 8b 45 f8          	mov    -0x8(%rbp),%rax
  dd:	0f b7 55 d0          	movzwl -0x30(%rbp),%edx
  e1:	66 89 10             	mov    %dx,(%rax)
  e4:	48 8b 45 d8          	mov    -0x28(%rbp),%rax
  e8:	8b 40 18             	mov    0x18(%rax),%eax
  eb:	8d 50 01             	lea    0x1(%rax),%edx
  ee:	48 8b 45 d8          	mov    -0x28(%rbp),%rax
  f2:	89 50 18             	mov    %edx,0x18(%rax)
  f5:	0f b6 45 e7          	movzbl -0x19(%rbp),%eax
  f9:	83 f0 01             	xor    $0x1,%eax
  fc:	84 c0                	test   %al,%al
  fe:	74 43                	je     143 <ArtNetPollTable::ProcessUniverse(unsigned int, unsigned short)+0x143>
 100:	48 8b 45 f8          	mov    -0x8(%rbp),%rax
 104:	0f b7 40 02          	movzwl 0x2(%rax),%eax
 108:	66 3d fe 00          	cmp    $0xfe,%ax
 10c:	77 35                	ja     143 <ArtNetPollTable::ProcessUniverse(unsigned int, unsigned short)+0x143>
 10e:	48 8b 45 f8          	mov    -0x8(%rbp),%rax
 112:	48 8b 50 08          	mov    0x8(%rax),%rdx
 116:	48 8b 45 f8          	mov    -0x8(%rbp),%rax
 11a:	0f b7 40 02          	movzwl 0x2(%rax),%eax
 11e:	0f b7 c0             	movzwl %ax,%eax
 121:	48 c1 e0 02          	shl    $0x2,%rax
 125:	48 01 c2             	add    %rax,%rdx
 128:	8b 45 d4             	mov    -0x2c(%rbp),%eax
 12b:	89 02                	mov    %eax,(%rdx)
 12d:	48 8b 45 f8          	mov    -0x8(%rbp),%rax
 131:	0f b7 40 02          	movzwl 0x2(%rax),%eax
 135:	8d 50 01             	lea    0x1(%rax),%edx
 138:	48 8b 45 f8          	mov    -0x8(%rbp),%rax
 13c:	66 89 50 02          	mov    %dx,0x2(%rax)
 140:	eb 01                	jmp    143 <ArtNetPollTable::ProcessUniverse(unsigned int, unsigned short)+0x143>
 142:	90                   	nop
 143:	5d                   	pop    %rbp
 144:	c3                   	ret    

Disassembly of section .text._ZN15ArtNetPollTable3AddEPK13TArtPollReply:

0000000000000000 <ArtNetPollTable::Add(TArtPollReply const*)>:
   0:	f3 0f 1e fa          	endbr64 
   4:	55                   	push   %rbp
   5:	48 89 e5             	mov    %rsp,%rbp
   8:	48 83 ec 60          	sub    $0x60,%rsp
   c:	48 89 7d a8          	mov    %rdi,-0x58(%rbp)
  10:	48 89 75 a0          	mov    %rsi,-0x60(%rbp)
  14:	c6 45 b4 00          	movb   $0x0,-0x4c(%rbp)
  18:	48 8b 45 a0          	mov    -0x60(%rbp),%rax
  1c:	48 83 c0 0a          	add    $0xa,%rax
  20:	8b 00                	mov    (%rax),%eax
  22:	89 05 00 00 00 00    	mov    %eax,0x0(%rip)        # 28 <ArtNetPollTable::Add(TArtPollReply const*)+0x28>
  28:	8b 05 00 00 00 00    	mov    0x0(%rip),%eax        # 2e <ArtNetPollTable::Add(TArtPollReply const*)+0x2e>
  2e:	0f c8                	bswap  %eax
  30:	89 45 d0             	mov    %eax,-0x30(%rbp)
  33:	c7 45 bc 00 00 00 00 	movl   $0x0,-0x44(%rbp)
  3a:	48 8b 45 a8          	mov    -0x58(%rbp),%rax
  3e:	8b 40 08             	mov    0x8(%rax),%eax
  41:	89 45 c0             	mov    %eax,-0x40(%rbp)
  44:	eb 76                	jmp    bc <ArtNetPollTable::Add(TArtPollReply const*)+0xbc>
  46:	8b 45 c0             	mov    -0x40(%rbp),%eax
  49:	2b 45 bc             	sub    -0x44(%rbp),%eax
  4c:	89 c2                	mov    %eax,%edx
  4e:	c1 ea 1f             	shr    $0x1f,%edx
  51:	01 d0                	add    %edx,%eax
  53:	d1 f8                	sar    %eax
  55:	89 c2                	mov    %eax,%edx
  57:	8b 45 bc             	mov    -0x44(%rbp),%eax
  5a:	01 d0                	add    %edx,%eax
  5c:	89 45 d4             	mov    %eax,-0x2c(%rbp)
  5f:	48 8b 45 a8          	mov    -0x58(%rbp),%rax
  63:	48 8b 08             	mov    (%rax),%rcx
  66:	8b 45 d4             	mov    -0x2c(%rbp),%eax
  69:	48 63 d0             	movslq %eax,%rdx
  6c:	48 89 d0             	mov    %rdx,%rax
  6f:	48 c1 e0 03          	shl    $0x3,%rax
  73:	48 01 d0             	add    %rdx,%rax
  76:	48 01 c0             	add    %rax,%rax
  79:	48 01 d0             	add    %rdx,%rax
  7c:	48 c1 e0 05          	shl    $0x5,%rax
  80:	48 01 c8             	add    %rcx,%rax
  83:	8b 00                	mov    (%rax),%eax
  85:	0f c8                	bswap  %eax
  87:	89 45 d8             	mov    %eax,-0x28(%rbp)
  8a:	8b 45 d8             	mov    -0x28(%rbp),%eax
  8d:	3b 45 d0             	cmp    -0x30(%rbp),%eax
  90:	73 0b                	jae    9d <ArtNetPollTable::Add(TArtPollReply const*)+0x9d>
  92:	8b 45 d4             	mov    -0x2c(%rbp),%eax
  95:	83 c0 01             	add    $0x1,%eax
  98:	89 45 bc             	mov    %eax,-0x44(%rbp)
  9b:	eb 1f                	jmp    bc <ArtNetPollTable::Add(TArtPollReply const*)+0xbc>
  9d:	8b 45 d8             	mov    -0x28(%rbp),%eax
  a0:	3b 45 d0             	cmp    -0x30(%rbp),%eax
  a3:	76 0b                	jbe    b0 <ArtNetPollTable::Add(TArtPollReply const*)+0xb0>
  a5:	8b 45 d4             	mov    -0x2c(%rbp),%eax
  a8:	83 e8 01             	sub    $0x1,%eax
  ab:	89 45 c0             	mov    %eax,-0x40(%rbp)
  ae:	eb 0c                	jmp    bc <ArtNetPollTable::Add(TArtPollReply const*)+0xbc>
  b0:	8b 45 d4             	mov    -0x2c(%rbp),%eax
  b3:	89 45 b8             	mov    %eax,-0x48(%rbp)
  b6:	c6 45 b4 01          	movb   $0x1,-0x4c(%rbp)
  ba:	eb 08                	jmp    c4 <ArtNetPollTable::Add(TArtPollReply const*)+0xc4>
  bc:	8b 45 bc             	mov    -0x44(%rbp),%eax
  bf:	3b 45 c0             	cmp    -0x40(%rbp),%eax
  c2:	7e 82                	jle    46 <ArtNetPollTable::Add(TArtPollReply const*)+0x46>
  c4:	0f b6 45 b4          	movzbl -0x4c(%rbp),%eax
  c8:	83 f0 01             	xor    $0x1,%eax
  cb:	84 c0                	test   %al,%al
  cd:	0f 84 43 01 00 00    	je     216 <ArtNetPollTable::Add(TArtPollReply const*)+0x216>
  d3:	48 8b 45 a8          	mov    -0x58(%rbp),%rax
  d7:	8b 40 08             	mov    0x8(%rax),%eax
  da:	3d ff 00 00 00       	cmp    $0xff,%eax
  df:	0f 84 3a 03 00 00    	je     41f <ArtNetPollTable::Add(TArtPollReply const*)+0x41f>
  e5:	48 8b 45 a8          	mov    -0x58(%rbp),%rax
  e9:	8b 50 08             	mov    0x8(%rax),%edx
  ec:	8b 45 c0             	mov    -0x40(%rbp),%eax
  ef:	39 c2                	cmp    %eax,%edx
  f1:	0f 84 d7 00 00 00    	je     1ce <ArtNetPollTable::Add(TArtPollReply const*)+0x1ce>
  f7:	48 8b 45 a8          	mov    -0x58(%rbp),%rax
  fb:	48 8b 00             	mov    (%rax),%rax
  fe:	48 89 45 e0          	mov    %rax,-0x20(%rbp)
 102:	48 8b 45 a8          	mov    -0x58(%rbp),%rax
 106:	8b 40 08             	mov    0x8(%rax),%eax
 109:	83 e8 01             	sub    $0x1,%eax
 10c:	89 45 c4             	mov    %eax,-0x3c(%rbp)
 10f:	eb 6f                	jmp    180 <ArtNetPollTable::Add(TArtPollReply const*)+0x180>
 111:	8b 45 c4             	mov    -0x3c(%rbp),%eax
 114:	48 63 d0             	movslq %eax,%rdx
 117:	48 89 d0             	mov    %rdx,%rax
 11a:	48 c1 e0 03          	shl    $0x3,%rax
 11e:	48 01 d0             	add    %rdx,%rax
 121:	48 01 c0             	add    %rax,%rax
 124:	48 01 d0             	add    %rdx,%rax
 127:	48 c1 e0 05          	shl    $0x5,%rax
 12b:	48 89 c2             	mov    %rax,%rdx
 12e:	48 8b 45 e0          	mov    -0x20(%rbp),%rax
 132:	48 01 d0             	add    %rdx,%rax
 135:	48 89 45 f0          	mov    %rax,-0x10(%rbp)
 139:	8b 45 c4             	mov    -0x3c(%rbp),%eax
 13c:	48 98                	cltq   
 13e:	48 8d 50 01          	lea    0x1(%rax),%rdx
 142:	48 89 d0             	mov    %rdx,%rax
 145:	48 c1 e0 03          	shl    $0x3,%rax
 149:	48 01 d0             	add    %rdx,%rax
 14c:	48 01 c0             	add    %rax,%rax
 14f:	48 01 d0             	add    %rdx,%rax
 152:	48 c1 e0 05          	shl    $0x5,%rax
 156:	48 89 c2             	mov    %rax,%rdx
 159:	48 8b 45 e0          	mov    -0x20(%rbp),%rax
 15d:	48 01 d0             	add    %rdx,%rax
 160:	48 89 45 f8          	mov    %rax,-0x8(%rbp)
 164:	48 8b 4d f0          	mov    -0x10(%rbp),%rcx
 168:	48 8b 45 f8          	mov    -0x8(%rbp),%rax
 16c:	ba 60 02 00 00       	mov    $0x260,%edx
 171:	48 89 ce             	mov    %rcx,%rsi
 174:	48 89 c7             	mov    %rax,%rdi
 177:	e8 00 00 00 00       	call   17c <ArtNetPollTable::Add(TArtPollReply const*)+0x17c>
 17c:	83 6d c4 01          	subl   $0x1,-0x3c(%rbp)
 180:	8b 45 c4             	mov    -0x3c(%rbp),%eax
 183:	3b 45 bc             	cmp    -0x44(%rbp),%eax
 186:	7d 89                	jge    111 <ArtNetPollTable::Add(TArtPollReply const*)+0x111>
 188:	8b 45 bc             	mov    -0x44(%rbp),%eax
 18b:	48 63 d0             	movslq %eax,%rdx
 18e:	48 89 d0             	mov    %rdx,%rax
 191:	48 c1 e0 03          	shl    $0x3,%rax
 195:	48 01 d0             	add    %rdx,%rax
 198:	48 01 c0             	add    %rax,%rax
 19b:	48 01 d0             	add    %rdx,%rax
 19e:	48 c1 e0 05          	shl    $0x5,%rax
 1a2:	48 89 c2             	mov    %rax,%rdx
 1a5:	48 8b 45 e0          	mov    -0x20(%rbp),%rax
 1a9:	48 01 d0             	add    %rdx,%rax
 1ac:	48 89 45 e8          	mov    %rax,-0x18(%rbp)
 1b0:	48 8b 45 e8          	mov    -0x18(%rbp),%rax
 1b4:	ba 60 02 00 00       	mov    $0x260,%edx
 1b9:	be 00 00 00 00       	mov    $0x0,%esi
 1be:	48 89 c7             	mov    %rax,%rdi
 1c1:	e8 00 00 00 00       	call   1c6 <ArtNetPollTable::Add(TArtPollReply const*)+0x1c6>
 1c6:	8b 45 bc             	mov    -0x44(%rbp),%eax
 1c9:	89 45 b8             	mov    %eax,-0x48(%rbp)
 1cc:	eb 0a                	jmp    1d8 <ArtNetPollTable::Add(TArtPollReply const*)+0x1d8>
 1ce:	48 8b 45 a8          	mov    -0x58(%rbp),%rax
 1d2:	8b 40 08             	mov    0x8(%rax),%eax
 1d5:	89 45 b8             	mov    %eax,-0x48(%rbp)
 1d8:	48 8b 45 a8          	mov    -0x58(%rbp),%rax
 1dc:	48 8b 08             	mov    (%rax),%rcx
 1df:	8b 45 b8             	mov    -0x48(%rbp),%eax
 1e2:	48 63 d0             	movslq %eax,%rdx
 1e5:	48 89 d0             	mov    %rdx,%rax
 1e8:	48 c1 e0 03          	shl    $0x3,%rax
 1ec:	48 01 d0             	add    %rdx,%rax
 1ef:	48 01 c0             	add    %rax,%rax
 1f2:	48 01 d0             	add    %rdx,%rax
 1f5:	48 c1 e0 05          	shl    $0x5,%rax
 1f9:	48 8d 14 01          	lea    (%rcx,%rax,1),%rdx
 1fd:	8b 05 00 00 00 00    	mov    0x0(%rip),%eax        # 203 <ArtNetPollTable::Add(TArtPollReply const*)+0x203>
 203:	89 02                	mov    %eax,(%rdx)
 205:	48 8b 45 a8          	mov    -0x58(%rbp),%rax
 209:	8b 40 08             	mov    0x8(%rax),%eax
 20c:	8d 50 01             	lea    0x1(%rax),%edx
 20f:	48 8b 45 a8          	mov    -0x58(%rbp),%rax
 213:	89 50 08             	mov    %edx,0x8(%rax)
 216:	e8 00 00 00 00       	call   21b <ArtNetPollTable::Add(TArtPollReply const*)+0x21b>
 21b:	48 89 c7             	mov    %rax,%rdi
 21e:	e8 00 00 00 00       	call   223 <ArtNetPollTable::Add(TArtPollReply const*)+0x223>
 223:	89 45 dc             	mov    %eax,-0x24(%rbp)
 226:	c7 45 c8 00 00 00 00 	movl   $0x0,-0x38(%rbp)
 22d:	e9 e1 01 00 00       	jmp    413 <ArtNetPollTable::Add(TArtPollReply const*)+0x413>
 232:	48 8b 55 a0          	mov    -0x60(%rbp),%rdx
 236:	8b 45 c8             	mov    -0x38(%rbp),%eax
 239:	0f b6 84 02 be 00 00 	movzbl 0xbe(%rdx,%rax,1),%eax
 240:	00 
 241:	88 45 b5             	mov    %al,-0x4b(%rbp)
 244:	48 8b 55 a0          	mov    -0x60(%rbp),%rdx
 248:	8b 45 c8             	mov    -0x38(%rbp),%eax
 24b:	0f b6 84 02 ae 00 00 	movzbl 0xae(%rdx,%rax,1),%eax
 252:	00 
 253:	3c 80                	cmp    $0x80,%al
 255:	0f 85 b4 01 00 00    	jne    40f <ArtNetPollTable::Add(TArtPollReply const*)+0x40f>
 25b:	0f b6 55 b5          	movzbl -0x4b(%rbp),%edx
 25f:	48 8b 45 a0          	mov    -0x60(%rbp),%rax
 263:	0f b6 40 13          	movzbl 0x13(%rax),%eax
 267:	0f b6 c8             	movzbl %al,%ecx
 26a:	48 8b 45 a0          	mov    -0x60(%rbp),%rax
 26e:	0f b6 40 12          	movzbl 0x12(%rax),%eax
 272:	0f b6 c0             	movzbl %al,%eax
 275:	89 ce                	mov    %ecx,%esi
 277:	89 c7                	mov    %eax,%edi
 279:	e8 00 00 00 00       	call   27e <ArtNetPollTable::Add(TArtPollReply const*)+0x27e>
 27e:	66 89 45 b6          	mov    %ax,-0x4a(%rbp)
 282:	c7 45 cc 00 00 00 00 	movl   $0x0,-0x34(%rbp)
 289:	eb 3a                	jmp    2c5 <ArtNetPollTable::Add(TArtPollReply const*)+0x2c5>
 28b:	48 8b 45 a8          	mov    -0x58(%rbp),%rax
 28f:	48 8b 08             	mov    (%rax),%rcx
 292:	8b 45 b8             	mov    -0x48(%rbp),%eax
 295:	48 63 d0             	movslq %eax,%rdx
 298:	48 89 d0             	mov    %rdx,%rax
 29b:	48 c1 e0 03          	shl    $0x3,%rax
 29f:	48 01 d0             	add    %rdx,%rax
 2a2:	48 01 c0             	add    %rax,%rax
 2a5:	48 01 d0             	add    %rdx,%rax
 2a8:	48 c1 e0 05          	shl    $0x5,%rax
 2ac:	48 01 c8             	add    %rcx,%rax
 2af:	8b 55 cc             	mov    -0x34(%rbp),%edx
 2b2:	48 83 c2 0c          	add    $0xc,%rdx
 2b6:	0f b7 44 d0 04       	movzwl 0x4(%rax,%rdx,8),%eax
 2bb:	66 39 45 b6          	cmp    %ax,-0x4a(%rbp)
 2bf:	74 36                	je     2f7 <ArtNetPollTable::Add(TArtPollReply const*)+0x2f7>
 2c1:	83 45 cc 01          	addl   $0x1,-0x34(%rbp)
 2c5:	48 8b 45 a8          	mov    -0x58(%rbp),%rax
 2c9:	48 8b 08             	mov    (%rax),%rcx
 2cc:	8b 45 b8             	mov    -0x48(%rbp),%eax
 2cf:	48 63 d0             	movslq %eax,%rdx
 2d2:	48 89 d0             	mov    %rdx,%rax
 2d5:	48 c1 e0 03          	shl    $0x3,%rax
 2d9:	48 01 d0             	add    %rdx,%rax
 2dc:	48 01 c0             	add    %rax,%rax
 2df:	48 01 d0             	add    %rdx,%rax
 2e2:	48 c1 e0 05          	shl    $0x5,%rax
 2e6:	48 01 c8             	add    %rcx,%rax
 2e9:	0f b7 40 5c          	movzwl 0x5c(%rax),%eax
 2ed:	0f b7 c0             	movzwl %ax,%eax
 2f0:	39 45 cc             	cmp    %eax,-0x34(%rbp)
 2f3:	72 96                	jb     28b <ArtNetPollTable::Add(TArtPollReply const*)+0x28b>
 2f5:	eb 01                	jmp    2f8 <ArtNetPollTable::Add(TArtPollReply const*)+0x2f8>
 2f7:	90                   	nop
 2f8:	48 8b 45 a8          	mov    -0x58(%rbp),%rax
 2fc:	48 8b 08             	mov    (%rax),%rcx
 2ff:	8b 45 b8             	mov    -0x48(%rbp),%eax
 302:	48 63 d0             	movslq %eax,%rdx
 305:	48 89 d0             	mov    %rdx,%rax
 308:	48 c1 e0 03          	shl    $0x3,%rax
 30c:	48 01 d0             	add    %rdx,%rax
 30f:	48 01 c0             	add    %rax,%rax
 312:	48 01 d0             	add    %rdx,%rax
 315:	48 c1 e0 05          	shl    $0x5,%rax
 319:	48 01 c8             	add    %rcx,%rax
 31c:	0f b7 40 5c          	movzwl 0x5c(%rax),%eax
 320:	0f b7 c0             	movzwl %ax,%eax
 323:	39 45 cc             	cmp    %eax,-0x34(%rbp)
 326:	0f 85 ae 00 00 00    	jne    3da <ArtNetPollTable::Add(TArtPollReply const*)+0x3da>
 32c:	48 8b 45 a8          	mov    -0x58(%rbp),%rax
 330:	48 8b 08             	mov    (%rax),%rcx
 333:	8b 45 b8             	mov    -0x48(%rbp),%eax
 336:	48 63 d0             	movslq %eax,%rdx
 339:	48 89 d0             	mov    %rdx,%rax
 33c:	48 c1 e0 03          	shl    $0x3,%rax
 340:	48 01 d0             	add    %rdx,%rax
 343:	48 01 c0             	add    %rax,%rax
 346:	48 01 d0             	add    %rdx,%rax
 349:	48 c1 e0 05          	shl    $0x5,%rax
 34d:	48 01 c8             	add    %rcx,%rax
 350:	0f b7 40 5c          	movzwl 0x5c(%rax),%eax
 354:	66 83 f8 3f          	cmp    $0x3f,%ax
 358:	0f 87 b0 00 00 00    	ja     40e <ArtNetPollTable::Add(TArtPollReply const*)+0x40e>
 35e:	48 8b 45 a8          	mov    -0x58(%rbp),%rax
 362:	48 8b 08             	mov    (%rax),%rcx
 365:	8b 45 b8             	mov    -0x48(%rbp),%eax
 368:	48 63 d0             	movslq %eax,%rdx
 36b:	48 89 d0             	mov    %rdx,%rax
 36e:	48 c1 e0 03          	shl    $0x3,%rax
 372:	48 01 d0             	add    %rdx,%rax
 375:	48 01 c0             	add    %rax,%rax
 378:	48 01 d0             	add    %rdx,%rax
 37b:	48 c1 e0 05          	shl    $0x5,%rax
 37f:	48 01 c8             	add    %rcx,%rax
 382:	0f b7 50 5c          	movzwl 0x5c(%rax),%edx
 386:	83 c2 01             	add    $0x1,%edx
 389:	66 89 50 5c          	mov    %dx,0x5c(%rax)
 38d:	48 8b 45 a8          	mov    -0x58(%rbp),%rax
 391:	48 8b 08             	mov    (%rax),%rcx
 394:	8b 45 b8             	mov    -0x48(%rbp),%eax
 397:	48 63 d0             	movslq %eax,%rdx
 39a:	48 89 d0             	mov    %rdx,%rax
 39d:	48 c1 e0 03          	shl    $0x3,%rax
 3a1:	48 01 d0             	add    %rdx,%rax
 3a4:	48 01 c0             	add    %rax,%rax
 3a7:	48 01 d0             	add    %rdx,%rax
 3aa:	48 c1 e0 05          	shl    $0x5,%rax
 3ae:	48 8d 14 01          	lea    (%rcx,%rax,1),%rdx
 3b2:	8b 45 cc             	mov    -0x34(%rbp),%eax
 3b5:	48 8d 48 0c          	lea    0xc(%rax),%rcx
 3b9:	0f b7 45 b6          	movzwl -0x4a(%rbp),%eax
 3bd:	66 89 44 ca 04       	mov    %ax,0x4(%rdx,%rcx,8)
 3c2:	0f b7 55 b6          	movzwl -0x4a(%rbp),%edx
 3c6:	8b 0d 00 00 00 00    	mov    0x0(%rip),%ecx        # 3cc <ArtNetPollTable::Add(TArtPollReply const*)+0x3cc>
 3cc:	48 8b 45 a8          	mov    -0x58(%rbp),%rax
 3d0:	89 ce                	mov    %ecx,%esi
 3d2:	48 89 c7             	mov    %rax,%rdi
 3d5:	e8 00 00 00 00       	call   3da <ArtNetPollTable::Add(TArtPollReply const*)+0x3da>
 3da:	48 8b 45 a8          	mov    -0x58(%rbp),%rax
 3de:	48 8b 08             	mov    (%rax),%rcx
 3e1:	8b 45 b8             	mov    -0x48(%rbp),%eax
 3e4:	48 63 d0             	movslq %eax,%rdx
 3e7:	48 89 d0             	mov    %rdx,%rax
 3ea:	48 c1 e0 03          	shl    $0x3,%rax
 3ee:	48 01 d0             	add    %rdx,%rax
 3f1:	48 01 c0             	add    %rax,%rax
 3f4:	48 01 d0             	add    %rdx,%rax
 3f7:	48 c1 e0 05          	shl    $0x5,%rax
 3fb:	48 8d 14 01          	lea    (%rcx,%rax,1),%rdx
 3ff:	8b 45 cc             	mov    -0x34(%rbp),%eax
 402:	48 8d 48 0c          	lea    0xc(%rax),%rcx
 406:	8b 45 dc             	mov    -0x24(%rbp),%eax
 409:	89 04 ca             	mov    %eax,(%rdx,%rcx,8)
 40c:	eb 01                	jmp    40f <ArtNetPollTable::Add(TArtPollReply const*)+0x40f>
 40e:	90                   	nop
 40f:	83 45 c8 01          	addl   $0x1,-0x38(%rbp)
 413:	83 7d c8 03          	cmpl   $0x3,-0x38(%rbp)
 417:	0f 86 15 fe ff ff    	jbe    232 <ArtNetPollTable::Add(TArtPollReply const*)+0x232>
 41d:	eb 01                	jmp    420 <ArtNetPollTable::Add(TArtPollReply const*)+0x420>
 41f:	90                   	nop
 420:	c9                   	leave  
 421:	c3                   	ret    

Disassembly of section .text._ZN15ArtNetPollTable5CleanEv:

0000000000000000 <ArtNetPollTable::Clean()>:
   0:	f3 0f 1e fa          	endbr64 
   4:	55                   	push   %rbp
   5:	48 89 e5             	mov    %rsp,%rbp
   8:	48 83 ec 40          	sub    $0x40,%rsp
   c:	48 89 7d c8          	mov    %rdi,-0x38(%rbp)
  10:	48 8b 45 c8          	mov    -0x38(%rbp),%rax
  14:	8b 40 08             	mov    0x8(%rax),%eax
  17:	85 c0                	test   %eax,%eax
  19:	0f 84 4c 02 00 00    	je     26b <ArtNetPollTable::Clean()+0x26b>
  1f:	48 8b 45 c8          	mov    -0x38(%rbp),%rax
  23:	0f b7 40 20          	movzwl 0x20(%rax),%eax
  27:	66 85 c0             	test   %ax,%ax
  2a:	75 08                	jne    34 <ArtNetPollTable::Clean()+0x34>
  2c:	48 8b 45 c8          	mov    -0x38(%rbp),%rax
  30:	c6 40 22 01          	movb   $0x1,0x22(%rax)
  34:	48 8b 45 c8          	mov    -0x38(%rbp),%rax
  38:	48 8b 08             	mov    (%rax),%rcx
  3b:	48 8b 45 c8          	mov    -0x38(%rbp),%rax
  3f:	8b 40 1c             	mov    0x1c(%rax),%eax
  42:	89 c2                	mov    %eax,%edx
  44:	48 89 d0             	mov    %rdx,%rax
  47:	48 c1 e0 03          	shl    $0x3,%rax
  4b:	48 01 d0             	add    %rdx,%rax
  4e:	48 01 c0             	add    %rax,%rax
  51:	48 01 d0             	add    %rdx,%rax
  54:	48 c1 e0 05          	shl    $0x5,%rax
  58:	48 8d 14 01          	lea    (%rcx,%rax,1),%rdx
  5c:	48 8b 45 c8          	mov    -0x38(%rbp),%rax
  60:	0f b7 40 20          	movzwl 0x20(%rax),%eax
  64:	0f b7 c0             	movzwl %ax,%eax
  67:	48 98                	cltq   
  69:	48 83 c0 0c          	add    $0xc,%rax
  6d:	48 c1 e0 03          	shl    $0x3,%rax
  71:	48 01 d0             	add    %rdx,%rax
  74:	48 89 45 d8          	mov    %rax,-0x28(%rbp)
  78:	48 8b 45 d8          	mov    -0x28(%rbp),%rax
  7c:	8b 00                	mov    (%rax),%eax
  7e:	85 c0                	test   %eax,%eax
  80:	74 77                	je     f9 <ArtNetPollTable::Clean()+0xf9>
  82:	e8 00 00 00 00       	call   87 <ArtNetPollTable::Clean()+0x87>
  87:	48 89 c7             	mov    %rax,%rdi
  8a:	e8 00 00 00 00       	call   8f <ArtNetPollTable::Clean()+0x8f>
  8f:	48 8b 55 d8          	mov    -0x28(%rbp),%rdx
  93:	8b 12                	mov    (%rdx),%edx
  95:	29 d0                	sub    %edx,%eax
  97:	3d e0 2e 00 00       	cmp    $0x2ee0,%eax
  9c:	0f 97 c0             	seta   %al
  9f:	84 c0                	test   %al,%al
  a1:	74 4e                	je     f1 <ArtNetPollTable::Clean()+0xf1>
  a3:	48 8b 45 d8          	mov    -0x28(%rbp),%rax
  a7:	c7 00 00 00 00 00    	movl   $0x0,(%rax)
  ad:	48 8b 45 c8          	mov    -0x38(%rbp),%rax
  b1:	48 8b 08             	mov    (%rax),%rcx
  b4:	48 8b 45 c8          	mov    -0x38(%rbp),%rax
  b8:	8b 40 1c             	mov    0x1c(%rax),%eax
  bb:	89 c2                	mov    %eax,%edx
  bd:	48 89 d0             	mov    %rdx,%rax
  c0:	48 c1 e0 03          	shl    $0x3,%rax
  c4:	48 01 d0             	add    %rdx,%rax
  c7:	48 01 c0             	add    %rax,%rax
  ca:	48 01 d0             	add    %rdx,%rax
  cd:	48 c1 e0 05          	shl    $0x5,%rax
  d1:	48 01 c8             	add    %rcx,%rax
  d4:	8b 10                	mov    (%rax),%edx
  d6:	48 8b 45 d8          	mov    -0x28(%rbp),%rax
  da:	0f b7 40 04          	movzwl 0x4(%rax),%eax
  de:	0f b7 c8             	movzwl %ax,%ecx
  e1:	48 8b 45 c8          	mov    -0x38(%rbp),%rax
  e5:	89 ce                	mov    %ecx,%esi
  e7:	48 89 c7             	mov    %rax,%rdi
  ea:	e8 00 00 00 00       	call   ef <ArtNetPollTable::Clean()+0xef>
  ef:	eb 08                	jmp    f9 <ArtNetPollTable::Clean()+0xf9>
  f1:	48 8b 45 c8          	mov    -0x38(%rbp),%rax
  f5:	c6 40 22 00          	movb   $0x0,0x22(%rax)
  f9:	48 8b 45 c8          	mov    -0x38(%rbp),%rax
  fd:	0f b7 40 20          	movzwl 0x20(%rax),%eax
 101:	8d 50 01             	lea    0x1(%rax),%edx
 104:	48 8b 45 c8          	mov    -0x38(%rbp),%rax
 108:	66 89 50 20          	mov    %dx,0x20(%rax)
 10c:	48 8b 45 c8          	mov    -0x38(%rbp),%rax
 110:	0f b7 40 20          	movzwl 0x20(%rax),%eax
 114:	66 83 f8 40          	cmp    $0x40,%ax
 118:	0f 85 4e 01 00 00    	jne    26c <ArtNetPollTable::Clean()+0x26c>
 11e:	48 8b 45 c8          	mov    -0x38(%rbp),%rax
 122:	0f b6 40 22          	movzbl 0x22(%rax),%eax
 126:	84 c0                	test   %al,%al
 128:	0f 84 fb 00 00 00    	je     229 <ArtNetPollTable::Clean()+0x229>
 12e:	48 8b 45 c8          	mov    -0x38(%rbp),%rax
 132:	48 8b 00             	mov    (%rax),%rax
 135:	48 89 45 e0          	mov    %rax,-0x20(%rbp)
 139:	48 8b 45 c8          	mov    -0x38(%rbp),%rax
 13d:	8b 40 1c             	mov    0x1c(%rax),%eax
 140:	89 45 d4             	mov    %eax,-0x2c(%rbp)
 143:	eb 6b                	jmp    1b0 <ArtNetPollTable::Clean()+0x1b0>
 145:	8b 45 d4             	mov    -0x2c(%rbp),%eax
 148:	83 c0 01             	add    $0x1,%eax
 14b:	89 c2                	mov    %eax,%edx
 14d:	48 89 d0             	mov    %rdx,%rax
 150:	48 c1 e0 03          	shl    $0x3,%rax
 154:	48 01 d0             	add    %rdx,%rax
 157:	48 01 c0             	add    %rax,%rax
 15a:	48 01 d0             	add    %rdx,%rax
 15d:	48 c1 e0 05          	shl    $0x5,%rax
 161:	48 89 c2             	mov    %rax,%rdx
 164:	48 8b 45 e0          	mov    -0x20(%rbp),%rax
 168:	48 01 d0             	add    %rdx,%rax
 16b:	48 89 45 f0          	mov    %rax,-0x10(%rbp)
 16f:	8b 55 d4             	mov    -0x2c(%rbp),%edx
 172:	48 89 d0             	mov    %rdx,%rax
 175:	48 c1 e0 03          	shl    $0x3,%rax
 179:	48 01 d0             	add    %rdx,%rax
 17c:	48 01 c0             	add    %rax,%rax
 17f:	48 01 d0             	add    %rdx,%rax
 182:	48 c1 e0 05          	shl    $0x5,%rax
 186:	48 89 c2             	mov    %rax,%rdx
 189:	48 8b 45 e0          	mov    -0x20(%rbp),%rax
 18d:	48 01 d0             	add    %rdx,%rax
 190:	48 89 45 f8          	mov    %rax,-0x8(%rbp)
 194:	48 8b 4d f0          	mov    -0x10(%rbp),%rcx
 198:	48 8b 45 f8          	mov    -0x8(%rbp),%rax
 19c:	ba 60 02 00 00       	mov    $0x260,%edx
 1a1:	48 89 ce             	mov    %rcx,%rsi
 1a4:	48 89 c7             	mov    %rax,%rdi
 1a7:	e8 00 00 00 00       	call   1ac <ArtNetPollTable::Clean()+0x1ac>
 1ac:	83 45 d4 01          	addl   $0x1,-0x2c(%rbp)
 1b0:	48 8b 45 c8          	mov    -0x38(%rbp),%rax
 1b4:	8b 40 08             	mov    0x8(%rax),%eax
 1b7:	83 e8 01             	sub    $0x1,%eax
 1ba:	39 45 d4             	cmp    %eax,-0x2c(%rbp)
 1bd:	72 86                	jb     145 <ArtNetPollTable::Clean()+0x145>
 1bf:	48 8b 45 c8          	mov    -0x38(%rbp),%rax
 1c3:	8b 40 08             	mov    0x8(%rax),%eax
 1c6:	8d 50 ff             	lea    -0x1(%rax),%edx
 1c9:	48 8b 45 c8          	mov    -0x38(%rbp),%rax
 1cd:	89 50 08             	mov    %edx,0x8(%rax)
 1d0:	48 8b 45 c8          	mov    -0x38(%rbp),%rax
 1d4:	8b 40 08             	mov    0x8(%rax),%eax
 1d7:	89 c2                	mov    %eax,%edx
 1d9:	48 89 d0             	mov    %rdx,%rax
 1dc:	48 c1 e0 03          	shl    $0x3,%rax
 1e0:	48 01 d0             	add    %rdx,%rax
 1e3:	48 01 c0             	add    %rax,%rax
 1e6:	48 01 d0             	add    %rdx,%rax
 1e9:	48 c1 e0 05          	shl    $0x5,%rax
 1ed:	48 89 c2             	mov    %rax,%rdx
 1f0:	48 8b 45 e0          	mov    -0x20(%rbp),%rax
 1f4:	48 01 d0             	add    %rdx,%rax
 1f7:	48 89 45 e8          	mov    %rax,-0x18(%rbp)
 1fb:	48 8b 45 e8          	mov    -0x18(%rbp),%rax
 1ff:	c7 00 00 00 00 00    	movl   $0x0,(%rax)
 205:	48 8b 45 e8          	mov    -0x18(%rbp),%rax
 209:	66 c7 40 5c 00 00    	movw   $0x0,0x5c(%rax)
 20f:	48 8b 45 e8          	mov    -0x18(%rbp),%rax
 213:	48 83 c0 60          	add    $0x60,%rax
 217:	ba 00 02 00 00       	mov    $0x200,%edx
 21c:	be 00 00 00 00       	mov    $0x0,%esi
 221:	48 89 c7             	mov    %rax,%rdi
 224:	e8 00 00 00 00       	call   229 <ArtNetPollTable::Clean()+0x229>
 229:	48 8b 45 c8          	mov    -0x38(%rbp),%rax
 22d:	66 c7 40 20 00 00    	movw   $0x0,0x20(%rax)
 233:	48 8b 45 c8          	mov    -0x38(%rbp),%rax
 237:	c6 40 22 01          	movb   $0x1,0x22(%rax)
 23b:	48 8b 45 c8          	mov    -0x38(%rbp),%rax
 23f:	8b 40 1c             	mov    0x1c(%rax),%eax
 242:	8d 50 01             	lea    0x1(%rax),%edx
 245:	48 8b 45 c8          	mov    -0x38(%rbp),%rax
 249:	89 50 1c             	mov    %edx,0x1c(%rax)
 24c:	48 8b 45 c8          	mov    -0x38(%rbp),%rax
 250:	8b 50 1c             	mov    0x1c(%rax),%edx
 253:	48 8b 45 c8          	mov    -0x38(%rbp),%rax
 257:	8b 40 08             	mov    0x8(%rax),%eax
 25a:	39 c2                	cmp    %eax,%edx
 25c:	72 0e                	jb     26c <ArtNetPollTable::Clean()+0x26c>
 25e:	48 8b 45 c8          	mov    -0x38(%rbp),%rax
 262:	c7 40 1c 00 00 00 00 	movl   $0x0,0x1c(%rax)
 269:	eb 01                	jmp    26c <ArtNetPollTable::Clean()+0x26c>
 26b:	90                   	nop
 26c:	c9                   	leave  
 26d:	c3                   	ret    

Disassembly of section .text._ZN15ArtNetPollTable4DumpEv:

0000000000000000 <ArtNetPollTable::Dump()>:
   0:	f3 0f 1e fa          	endbr64 
   4:	55                   	push   %rbp
   5:	48 89 e5             	mov    %rsp,%rbp
   8:	48 89 7d f8          	mov    %rdi,-0x8(%rbp)
   c:	90                   	nop
   d:	5d                   	pop    %rbp
   e:	c3                   	ret    

Disassembly of section .text._ZN15ArtNetPollTable18DumpTableUniversesEv:

0000000000000000 <ArtNetPollTable::DumpTableUniverses()>:
   0:	f3 0f 1e fa          	endbr64 
   4:	55                   	push   %rbp
   5:	48 89 e5             	mov    %rsp,%rbp
   8:	48 89 7d f8          	mov    %rdi,-0x8(%rbp)
   c:	90                   	nop
   d:	5d                   	pop    %rbp
   e:	c3                   	ret    
