In archive lib_linux/libartnet4.a:

artnet4node.o:     file format elf64-x86-64


Disassembly of section .text._ZN8Hardware3GetEv:

0000000000000000 <Hardware::Get()>:
   0:	f3 0f 1e fa          	endbr64 
   4:	55                   	push   %rbp
   5:	48 89 e5             	mov    %rsp,%rbp
   8:	48 8b 05 00 00 00 00 	mov    0x0(%rip),%rax        # f <Hardware::Get()+0xf>
   f:	5d                   	pop    %rbp
  10:	c3                   	ret    

Disassembly of section .text._ZN14ArtNet4HandlerD2Ev:

0000000000000000 <ArtNet4Handler::~ArtNet4Handler()>:
   0:	f3 0f 1e fa          	endbr64 
   4:	55                   	push   %rbp
   5:	48 89 e5             	mov    %rsp,%rbp
   8:	48 89 7d f8          	mov    %rdi,-0x8(%rbp)
   c:	48 8d 15 00 00 00 00 	lea    0x0(%rip),%rdx        # 13 <ArtNet4Handler::~ArtNet4Handler()+0x13>
  13:	48 8b 45 f8          	mov    -0x8(%rbp),%rax
  17:	48 89 10             	mov    %rdx,(%rax)
  1a:	90                   	nop
  1b:	5d                   	pop    %rbp
  1c:	c3                   	ret    

Disassembly of section .text._ZN14ArtNet4HandlerD0Ev:

0000000000000000 <ArtNet4Handler::~ArtNet4Handler()>:
   0:	f3 0f 1e fa          	endbr64 
   4:	55                   	push   %rbp
   5:	48 89 e5             	mov    %rsp,%rbp
   8:	48 83 ec 10          	sub    $0x10,%rsp
   c:	48 89 7d f8          	mov    %rdi,-0x8(%rbp)
  10:	48 8b 45 f8          	mov    -0x8(%rbp),%rax
  14:	48 89 c7             	mov    %rax,%rdi
  17:	e8 00 00 00 00       	call   1c <ArtNet4Handler::~ArtNet4Handler()+0x1c>
  1c:	48 8b 45 f8          	mov    -0x8(%rbp),%rax
  20:	48 89 c7             	mov    %rax,%rdi
  23:	e8 00 00 00 00       	call   28 <ArtNet4Handler::~ArtNet4Handler()+0x28>
  28:	c9                   	leave  
  29:	c3                   	ret    

Disassembly of section .text._ZNK10ArtNetNode9GetOutputEv:

0000000000000000 <ArtNetNode::GetOutput() const>:
   0:	f3 0f 1e fa          	endbr64 
   4:	55                   	push   %rbp
   5:	48 89 e5             	mov    %rsp,%rbp
   8:	48 89 7d f8          	mov    %rdi,-0x8(%rbp)
   c:	48 8b 45 f8          	mov    -0x8(%rbp),%rax
  10:	48 8b 80 50 0a 00 00 	mov    0xa50(%rax),%rax
  17:	5d                   	pop    %rbp
  18:	c3                   	ret    

Disassembly of section .text._ZNK10ArtNetNode20GetActiveOutputPortsEv:

0000000000000000 <ArtNetNode::GetActiveOutputPorts() const>:
   0:	f3 0f 1e fa          	endbr64 
   4:	55                   	push   %rbp
   5:	48 89 e5             	mov    %rsp,%rbp
   8:	48 89 7d f8          	mov    %rdi,-0x8(%rbp)
   c:	48 8b 45 f8          	mov    -0x8(%rbp),%rax
  10:	0f b6 80 8e 00 00 00 	movzbl 0x8e(%rax),%eax
  17:	0f b6 c0             	movzbl %al,%eax
  1a:	5d                   	pop    %rbp
  1b:	c3                   	ret    

Disassembly of section .text._ZNK10ArtNetNode12GetMergeModeEj:

0000000000000000 <ArtNetNode::GetMergeMode(unsigned int) const>:
   0:	f3 0f 1e fa          	endbr64 
   4:	55                   	push   %rbp
   5:	48 89 e5             	mov    %rsp,%rbp
   8:	48 89 7d f8          	mov    %rdi,-0x8(%rbp)
   c:	89 75 f4             	mov    %esi,-0xc(%rbp)
   f:	48 8b 55 f8          	mov    -0x8(%rbp),%rdx
  13:	8b 45 f4             	mov    -0xc(%rbp),%eax
  16:	48 83 c0 05          	add    $0x5,%rax
  1a:	48 c1 e0 05          	shl    $0x5,%rax
  1e:	48 01 d0             	add    %rdx,%rax
  21:	48 83 c0 12          	add    $0x12,%rax
  25:	0f b6 00             	movzbl (%rax),%eax
  28:	0f b6 c0             	movzbl %al,%eax
  2b:	83 e0 02             	and    $0x2,%eax
  2e:	85 c0                	test   %eax,%eax
  30:	74 07                	je     39 <ArtNetNode::GetMergeMode(unsigned int) const+0x39>
  32:	b8 01 00 00 00       	mov    $0x1,%eax
  37:	eb 05                	jmp    3e <ArtNetNode::GetMergeMode(unsigned int) const+0x3e>
  39:	b8 00 00 00 00       	mov    $0x0,%eax
  3e:	5d                   	pop    %rbp
  3f:	c3                   	ret    

Disassembly of section .text._ZNK10ArtNetNode22GetDisableMergeTimeoutEv:

0000000000000000 <ArtNetNode::GetDisableMergeTimeout() const>:
   0:	f3 0f 1e fa          	endbr64 
   4:	55                   	push   %rbp
   5:	48 89 e5             	mov    %rsp,%rbp
   8:	48 89 7d f8          	mov    %rdi,-0x8(%rbp)
   c:	48 8b 45 f8          	mov    -0x8(%rbp),%rax
  10:	0f b6 80 8c 00 00 00 	movzbl 0x8c(%rax),%eax
  17:	5d                   	pop    %rbp
  18:	c3                   	ret    

Disassembly of section .text._ZN10ArtNetNode17SetArtNet4HandlerEP14ArtNet4Handler:

0000000000000000 <ArtNetNode::SetArtNet4Handler(ArtNet4Handler*)>:
   0:	f3 0f 1e fa          	endbr64 
   4:	55                   	push   %rbp
   5:	48 89 e5             	mov    %rsp,%rbp
   8:	48 89 7d f8          	mov    %rdi,-0x8(%rbp)
   c:	48 89 75 f0          	mov    %rsi,-0x10(%rbp)
  10:	48 8b 45 f8          	mov    -0x8(%rbp),%rax
  14:	48 8b 55 f0          	mov    -0x10(%rbp),%rdx
  18:	48 89 90 70 0a 00 00 	mov    %rdx,0xa70(%rax)
  1f:	90                   	nop
  20:	5d                   	pop    %rbp
  21:	c3                   	ret    

Disassembly of section .text._ZNK10ArtNetNode15GetPortProtocolEj:

0000000000000000 <ArtNetNode::GetPortProtocol(unsigned int) const>:
   0:	f3 0f 1e fa          	endbr64 
   4:	55                   	push   %rbp
   5:	48 89 e5             	mov    %rsp,%rbp
   8:	48 89 7d f8          	mov    %rdi,-0x8(%rbp)
   c:	89 75 f4             	mov    %esi,-0xc(%rbp)
   f:	48 8b 55 f8          	mov    -0x8(%rbp),%rdx
  13:	8b 45 f4             	mov    -0xc(%rbp),%eax
  16:	48 83 c0 05          	add    $0x5,%rax
  1a:	48 c1 e0 05          	shl    $0x5,%rax
  1e:	48 01 d0             	add    %rdx,%rax
  21:	48 83 c0 0c          	add    $0xc,%rax
  25:	8b 00                	mov    (%rax),%eax
  27:	5d                   	pop    %rbp
  28:	c3                   	ret    

Disassembly of section .text._ZN10ArtNetNode14IsMapUniverse0Ev:

0000000000000000 <ArtNetNode::IsMapUniverse0()>:
   0:	f3 0f 1e fa          	endbr64 
   4:	55                   	push   %rbp
   5:	48 89 e5             	mov    %rsp,%rbp
   8:	48 89 7d f8          	mov    %rdi,-0x8(%rbp)
   c:	48 8b 45 f8          	mov    -0x8(%rbp),%rax
  10:	0f b6 40 70          	movzbl 0x70(%rax),%eax
  14:	5d                   	pop    %rbp
  15:	c3                   	ret    

Disassembly of section .text._ZN8lightset4Data3GetEv:

0000000000000000 <lightset::Data::Get()>:
   0:	f3 0f 1e fa          	endbr64 
   4:	55                   	push   %rbp
   5:	48 89 e5             	mov    %rsp,%rbp
   8:	0f b6 05 00 00 00 00 	movzbl 0x0(%rip),%eax        # f <lightset::Data::Get()+0xf>
   f:	84 c0                	test   %al,%al
  11:	0f 94 c0             	sete   %al
  14:	84 c0                	test   %al,%al
  16:	74 36                	je     4e <lightset::Data::Get()+0x4e>
  18:	48 8d 05 00 00 00 00 	lea    0x0(%rip),%rax        # 1f <lightset::Data::Get()+0x1f>
  1f:	48 89 c7             	mov    %rax,%rdi
  22:	e8 00 00 00 00       	call   27 <lightset::Data::Get()+0x27>
  27:	85 c0                	test   %eax,%eax
  29:	0f 95 c0             	setne  %al
  2c:	84 c0                	test   %al,%al
  2e:	74 1e                	je     4e <lightset::Data::Get()+0x4e>
  30:	48 8d 05 00 00 00 00 	lea    0x0(%rip),%rax        # 37 <lightset::Data::Get()+0x37>
  37:	48 89 c7             	mov    %rax,%rdi
  3a:	e8 00 00 00 00       	call   3f <lightset::Data::Get()+0x3f>
  3f:	48 8d 05 00 00 00 00 	lea    0x0(%rip),%rax        # 46 <lightset::Data::Get()+0x46>
  46:	48 89 c7             	mov    %rax,%rdi
  49:	e8 00 00 00 00       	call   4e <lightset::Data::Get()+0x4e>
  4e:	48 8d 05 00 00 00 00 	lea    0x0(%rip),%rax        # 55 <lightset::Data::Get()+0x55>
  55:	5d                   	pop    %rbp
  56:	c3                   	ret    

Disassembly of section .text._ZN8lightset4Data11OutputClearEP8LightSetj:

0000000000000000 <lightset::Data::OutputClear(LightSet*, unsigned int)>:
   0:	f3 0f 1e fa          	endbr64 
   4:	55                   	push   %rbp
   5:	48 89 e5             	mov    %rsp,%rbp
   8:	48 83 ec 10          	sub    $0x10,%rsp
   c:	48 89 7d f8          	mov    %rdi,-0x8(%rbp)
  10:	89 75 f4             	mov    %esi,-0xc(%rbp)
  13:	e8 00 00 00 00       	call   18 <lightset::Data::OutputClear(LightSet*, unsigned int)+0x18>
  18:	48 89 c1             	mov    %rax,%rcx
  1b:	8b 55 f4             	mov    -0xc(%rbp),%edx
  1e:	48 8b 45 f8          	mov    -0x8(%rbp),%rax
  22:	48 89 c6             	mov    %rax,%rsi
  25:	48 89 cf             	mov    %rcx,%rdi
  28:	e8 00 00 00 00       	call   2d <lightset::Data::OutputClear(LightSet*, unsigned int)+0x2d>
  2d:	90                   	nop
  2e:	c9                   	leave  
  2f:	c3                   	ret    

Disassembly of section .text._ZN8lightset4DataC2Ev:

0000000000000000 <lightset::Data::Data()>:
   0:	f3 0f 1e fa          	endbr64 
   4:	55                   	push   %rbp
   5:	48 89 e5             	mov    %rsp,%rbp
   8:	48 89 7d f8          	mov    %rdi,-0x8(%rbp)
   c:	90                   	nop
   d:	5d                   	pop    %rbp
   e:	c3                   	ret    

Disassembly of section .text._ZNK8lightset4Data7IOutputEP8LightSetj:

0000000000000000 <lightset::Data::IOutput(LightSet*, unsigned int) const>:
   0:	f3 0f 1e fa          	endbr64 
   4:	55                   	push   %rbp
   5:	48 89 e5             	mov    %rsp,%rbp
   8:	48 83 ec 20          	sub    $0x20,%rsp
   c:	48 89 7d f8          	mov    %rdi,-0x8(%rbp)
  10:	48 89 75 f0          	mov    %rsi,-0x10(%rbp)
  14:	89 55 ec             	mov    %edx,-0x14(%rbp)
  17:	48 8b 45 f0          	mov    -0x10(%rbp),%rax
  1b:	48 8b 00             	mov    (%rax),%rax
  1e:	48 83 c0 20          	add    $0x20,%rax
  22:	4c 8b 00             	mov    (%rax),%r8
  25:	48 8b 55 f8          	mov    -0x8(%rbp),%rdx
  29:	8b 45 ec             	mov    -0x14(%rbp),%eax
  2c:	48 69 c0 04 06 00 00 	imul   $0x604,%rax,%rax
  33:	48 01 d0             	add    %rdx,%rax
  36:	48 05 00 06 00 00    	add    $0x600,%rax
  3c:	8b 10                	mov    (%rax),%edx
  3e:	8b 45 ec             	mov    -0x14(%rbp),%eax
  41:	48 69 c0 04 06 00 00 	imul   $0x604,%rax,%rax
  48:	48 8d 88 00 04 00 00 	lea    0x400(%rax),%rcx
  4f:	48 8b 45 f8          	mov    -0x8(%rbp),%rax
  53:	48 8d 3c 01          	lea    (%rcx,%rax,1),%rdi
  57:	8b 75 ec             	mov    -0x14(%rbp),%esi
  5a:	48 8b 45 f0          	mov    -0x10(%rbp),%rax
  5e:	89 d1                	mov    %edx,%ecx
  60:	48 89 fa             	mov    %rdi,%rdx
  63:	48 89 c7             	mov    %rax,%rdi
  66:	41 ff d0             	call   *%r8
  69:	90                   	nop
  6a:	c9                   	leave  
  6b:	c3                   	ret    

Disassembly of section .text._ZN8lightset4Data12IOutputClearEP8LightSetj:

0000000000000000 <lightset::Data::IOutputClear(LightSet*, unsigned int)>:
   0:	f3 0f 1e fa          	endbr64 
   4:	55                   	push   %rbp
   5:	48 89 e5             	mov    %rsp,%rbp
   8:	48 83 ec 20          	sub    $0x20,%rsp
   c:	48 89 7d f8          	mov    %rdi,-0x8(%rbp)
  10:	48 89 75 f0          	mov    %rsi,-0x10(%rbp)
  14:	89 55 ec             	mov    %edx,-0x14(%rbp)
  17:	8b 45 ec             	mov    -0x14(%rbp),%eax
  1a:	48 69 c0 04 06 00 00 	imul   $0x604,%rax,%rax
  21:	48 8d 90 00 04 00 00 	lea    0x400(%rax),%rdx
  28:	48 8b 45 f8          	mov    -0x8(%rbp),%rax
  2c:	48 01 d0             	add    %rdx,%rax
  2f:	ba 00 02 00 00       	mov    $0x200,%edx
  34:	be 00 00 00 00       	mov    $0x0,%esi
  39:	48 89 c7             	mov    %rax,%rdi
  3c:	e8 00 00 00 00       	call   41 <lightset::Data::IOutputClear(LightSet*, unsigned int)+0x41>
  41:	48 8b 55 f8          	mov    -0x8(%rbp),%rdx
  45:	8b 45 ec             	mov    -0x14(%rbp),%eax
  48:	48 69 c0 04 06 00 00 	imul   $0x604,%rax,%rax
  4f:	48 01 d0             	add    %rdx,%rax
  52:	48 05 00 06 00 00    	add    $0x600,%rax
  58:	c7 00 00 02 00 00    	movl   $0x200,(%rax)
  5e:	8b 55 ec             	mov    -0x14(%rbp),%edx
  61:	48 8b 4d f0          	mov    -0x10(%rbp),%rcx
  65:	48 8b 45 f8          	mov    -0x8(%rbp),%rax
  69:	48 89 ce             	mov    %rcx,%rsi
  6c:	48 89 c7             	mov    %rax,%rdi
  6f:	e8 00 00 00 00       	call   74 <lightset::Data::IOutputClear(LightSet*, unsigned int)+0x74>
  74:	90                   	nop
  75:	c9                   	leave  
  76:	c3                   	ret    

Disassembly of section .text._ZN10E131Bridge9SetOutputEP8LightSet:

0000000000000000 <E131Bridge::SetOutput(LightSet*)>:
   0:	f3 0f 1e fa          	endbr64 
   4:	55                   	push   %rbp
   5:	48 89 e5             	mov    %rsp,%rbp
   8:	48 89 7d f8          	mov    %rdi,-0x8(%rbp)
   c:	48 89 75 f0          	mov    %rsi,-0x10(%rbp)
  10:	48 8b 45 f8          	mov    -0x8(%rbp),%rax
  14:	48 8b 55 f0          	mov    -0x10(%rbp),%rdx
  18:	48 89 50 08          	mov    %rdx,0x8(%rax)
  1c:	90                   	nop
  1d:	5d                   	pop    %rbp
  1e:	c3                   	ret    

Disassembly of section .text._ZN10E131Bridge12SetMergeModeEjN8lightset9MergeModeE:

0000000000000000 <E131Bridge::SetMergeMode(unsigned int, lightset::MergeMode)>:
   0:	f3 0f 1e fa          	endbr64 
   4:	55                   	push   %rbp
   5:	48 89 e5             	mov    %rsp,%rbp
   8:	48 89 7d f8          	mov    %rdi,-0x8(%rbp)
   c:	89 75 f4             	mov    %esi,-0xc(%rbp)
   f:	89 55 f0             	mov    %edx,-0x10(%rbp)
  12:	48 8b 4d f8          	mov    -0x8(%rbp),%rcx
  16:	8b 55 f4             	mov    -0xc(%rbp),%edx
  19:	48 89 d0             	mov    %rdx,%rax
  1c:	48 c1 e0 04          	shl    $0x4,%rax
  20:	48 01 d0             	add    %rdx,%rax
  23:	48 c1 e0 02          	shl    $0x2,%rax
  27:	48 01 c8             	add    %rcx,%rax
  2a:	48 8d 90 68 05 00 00 	lea    0x568(%rax),%rdx
  31:	8b 45 f0             	mov    -0x10(%rbp),%eax
  34:	89 02                	mov    %eax,(%rdx)
  36:	90                   	nop
  37:	5d                   	pop    %rbp
  38:	c3                   	ret    

Disassembly of section .text._ZNK10E131Bridge20GetActiveOutputPortsEv:

0000000000000000 <E131Bridge::GetActiveOutputPorts() const>:
   0:	f3 0f 1e fa          	endbr64 
   4:	55                   	push   %rbp
   5:	48 89 e5             	mov    %rsp,%rbp
   8:	48 89 7d f8          	mov    %rdi,-0x8(%rbp)
   c:	48 8b 45 f8          	mov    -0x8(%rbp),%rax
  10:	0f b6 80 23 05 00 00 	movzbl 0x523(%rax),%eax
  17:	0f b6 c0             	movzbl %al,%eax
  1a:	5d                   	pop    %rbp
  1b:	c3                   	ret    

Disassembly of section .text._ZNK10E131Bridge14IsTransmittingEj:

0000000000000000 <E131Bridge::IsTransmitting(unsigned int) const>:
   0:	f3 0f 1e fa          	endbr64 
   4:	55                   	push   %rbp
   5:	48 89 e5             	mov    %rsp,%rbp
   8:	48 89 7d f8          	mov    %rdi,-0x8(%rbp)
   c:	89 75 f4             	mov    %esi,-0xc(%rbp)
   f:	48 8b 4d f8          	mov    -0x8(%rbp),%rcx
  13:	8b 55 f4             	mov    -0xc(%rbp),%edx
  16:	48 89 d0             	mov    %rdx,%rax
  19:	48 c1 e0 04          	shl    $0x4,%rax
  1d:	48 01 d0             	add    %rdx,%rax
  20:	48 c1 e0 02          	shl    $0x2,%rax
  24:	48 01 c8             	add    %rcx,%rax
  27:	48 05 6e 05 00 00    	add    $0x56e,%rax
  2d:	0f b6 00             	movzbl (%rax),%eax
  30:	5d                   	pop    %rbp
  31:	c3                   	ret    

Disassembly of section .text._ZNK10E131Bridge9IsMergingEj:

0000000000000000 <E131Bridge::IsMerging(unsigned int) const>:
   0:	f3 0f 1e fa          	endbr64 
   4:	55                   	push   %rbp
   5:	48 89 e5             	mov    %rsp,%rbp
   8:	48 89 7d f8          	mov    %rdi,-0x8(%rbp)
   c:	89 75 f4             	mov    %esi,-0xc(%rbp)
   f:	48 8b 4d f8          	mov    -0x8(%rbp),%rcx
  13:	8b 55 f4             	mov    -0xc(%rbp),%edx
  16:	48 89 d0             	mov    %rdx,%rax
  19:	48 c1 e0 04          	shl    $0x4,%rax
  1d:	48 01 d0             	add    %rdx,%rax
  20:	48 c1 e0 02          	shl    $0x2,%rax
  24:	48 01 c8             	add    %rcx,%rax
  27:	48 05 6d 05 00 00    	add    $0x56d,%rax
  2d:	0f b6 00             	movzbl (%rax),%eax
  30:	5d                   	pop    %rbp
  31:	c3                   	ret    

Disassembly of section .text._ZN10E131Bridge15IsStatusChangedEv:

0000000000000000 <E131Bridge::IsStatusChanged()>:
   0:	f3 0f 1e fa          	endbr64 
   4:	55                   	push   %rbp
   5:	48 89 e5             	mov    %rsp,%rbp
   8:	48 89 7d f8          	mov    %rdi,-0x8(%rbp)
   c:	48 8b 45 f8          	mov    -0x8(%rbp),%rax
  10:	0f b6 80 10 05 00 00 	movzbl 0x510(%rax),%eax
  17:	84 c0                	test   %al,%al
  19:	74 12                	je     2d <E131Bridge::IsStatusChanged()+0x2d>
  1b:	48 8b 45 f8          	mov    -0x8(%rbp),%rax
  1f:	c6 80 10 05 00 00 00 	movb   $0x0,0x510(%rax)
  26:	b8 01 00 00 00       	mov    $0x1,%eax
  2b:	eb 05                	jmp    32 <E131Bridge::IsStatusChanged()+0x32>
  2d:	b8 00 00 00 00       	mov    $0x0,%eax
  32:	5d                   	pop    %rbp
  33:	c3                   	ret    

Disassembly of section .text._ZN10E131Bridge22SetDisableMergeTimeoutEb:

0000000000000000 <E131Bridge::SetDisableMergeTimeout(bool)>:
   0:	f3 0f 1e fa          	endbr64 
   4:	55                   	push   %rbp
   5:	48 89 e5             	mov    %rsp,%rbp
   8:	48 89 7d f8          	mov    %rdi,-0x8(%rbp)
   c:	89 f0                	mov    %esi,%eax
   e:	88 45 f4             	mov    %al,-0xc(%rbp)
  11:	48 8b 45 f8          	mov    -0x8(%rbp),%rax
  15:	0f b6 55 f4          	movzbl -0xc(%rbp),%edx
  19:	88 90 11 05 00 00    	mov    %dl,0x511(%rax)
  1f:	90                   	nop
  20:	5d                   	pop    %rbp
  21:	c3                   	ret    

Disassembly of section .text._ZN10E131Bridge22SetEnableDataIndicatorEb:

0000000000000000 <E131Bridge::SetEnableDataIndicator(bool)>:
   0:	f3 0f 1e fa          	endbr64 
   4:	55                   	push   %rbp
   5:	48 89 e5             	mov    %rsp,%rbp
   8:	48 89 7d f8          	mov    %rdi,-0x8(%rbp)
   c:	89 f0                	mov    %esi,%eax
   e:	88 45 f4             	mov    %al,-0xc(%rbp)
  11:	48 8b 45 f8          	mov    -0x8(%rbp),%rax
  15:	0f b6 55 f4          	movzbl -0xc(%rbp),%edx
  19:	88 50 10             	mov    %dl,0x10(%rax)
  1c:	90                   	nop
  1d:	5d                   	pop    %rbp
  1e:	c3                   	ret    

Disassembly of section .text._ZN10E131Bridge5ClearEj:

0000000000000000 <E131Bridge::Clear(unsigned int)>:
   0:	f3 0f 1e fa          	endbr64 
   4:	55                   	push   %rbp
   5:	48 89 e5             	mov    %rsp,%rbp
   8:	48 83 ec 10          	sub    $0x10,%rsp
   c:	48 89 7d f8          	mov    %rdi,-0x8(%rbp)
  10:	89 75 f4             	mov    %esi,-0xc(%rbp)
  13:	48 8b 45 f8          	mov    -0x8(%rbp),%rax
  17:	48 8b 40 08          	mov    0x8(%rax),%rax
  1b:	8b 55 f4             	mov    -0xc(%rbp),%edx
  1e:	89 d6                	mov    %edx,%esi
  20:	48 89 c7             	mov    %rax,%rdi
  23:	e8 00 00 00 00       	call   28 <E131Bridge::Clear(unsigned int)+0x28>
  28:	48 8b 4d f8          	mov    -0x8(%rbp),%rcx
  2c:	8b 55 f4             	mov    -0xc(%rbp),%edx
  2f:	48 89 d0             	mov    %rdx,%rax
  32:	48 c1 e0 04          	shl    $0x4,%rax
  36:	48 01 d0             	add    %rdx,%rax
  39:	48 c1 e0 02          	shl    $0x2,%rax
  3d:	48 01 c8             	add    %rcx,%rax
  40:	48 05 2e 05 00 00    	add    $0x52e,%rax
  46:	0f b6 00             	movzbl (%rax),%eax
  49:	84 c0                	test   %al,%al
  4b:	74 6d                	je     ba <E131Bridge::Clear(unsigned int)+0xba>
  4d:	48 8b 4d f8          	mov    -0x8(%rbp),%rcx
  51:	8b 55 f4             	mov    -0xc(%rbp),%edx
  54:	48 89 d0             	mov    %rdx,%rax
  57:	48 c1 e0 04          	shl    $0x4,%rax
  5b:	48 01 d0             	add    %rdx,%rax
  5e:	48 c1 e0 02          	shl    $0x2,%rax
  62:	48 01 c8             	add    %rcx,%rax
  65:	48 05 6e 05 00 00    	add    $0x56e,%rax
  6b:	0f b6 00             	movzbl (%rax),%eax
  6e:	83 f0 01             	xor    $0x1,%eax
  71:	84 c0                	test   %al,%al
  73:	74 45                	je     ba <E131Bridge::Clear(unsigned int)+0xba>
  75:	48 8b 45 f8          	mov    -0x8(%rbp),%rax
  79:	48 8b 40 08          	mov    0x8(%rax),%rax
  7d:	48 8b 55 f8          	mov    -0x8(%rbp),%rdx
  81:	48 8b 52 08          	mov    0x8(%rdx),%rdx
  85:	48 8b 12             	mov    (%rdx),%rdx
  88:	48 83 c2 10          	add    $0x10,%rdx
  8c:	48 8b 0a             	mov    (%rdx),%rcx
  8f:	8b 55 f4             	mov    -0xc(%rbp),%edx
  92:	89 d6                	mov    %edx,%esi
  94:	48 89 c7             	mov    %rax,%rdi
  97:	ff d1                	call   *%rcx
  99:	48 8b 4d f8          	mov    -0x8(%rbp),%rcx
  9d:	8b 55 f4             	mov    -0xc(%rbp),%edx
  a0:	48 89 d0             	mov    %rdx,%rax
  a3:	48 c1 e0 04          	shl    $0x4,%rax
  a7:	48 01 d0             	add    %rdx,%rax
  aa:	48 c1 e0 02          	shl    $0x2,%rax
  ae:	48 01 c8             	add    %rcx,%rax
  b1:	48 05 6e 05 00 00    	add    $0x56e,%rax
  b7:	c6 00 01             	movb   $0x1,(%rax)
  ba:	48 8b 45 f8          	mov    -0x8(%rbp),%rax
  be:	c6 80 0c 05 00 00 00 	movb   $0x0,0x50c(%rax)
  c5:	90                   	nop
  c6:	c9                   	leave  
  c7:	c3                   	ret    

Disassembly of section .text._ZN11ArtNet4Node15IsStatusChangedEv:

0000000000000000 <ArtNet4Node::IsStatusChanged()>:
   0:	f3 0f 1e fa          	endbr64 
   4:	55                   	push   %rbp
   5:	48 89 e5             	mov    %rsp,%rbp
   8:	48 83 ec 10          	sub    $0x10,%rsp
   c:	48 89 7d f8          	mov    %rdi,-0x8(%rbp)
  10:	48 8b 45 f8          	mov    -0x8(%rbp),%rax
  14:	48 05 88 0a 00 00    	add    $0xa88,%rax
  1a:	48 89 c7             	mov    %rax,%rdi
  1d:	e8 00 00 00 00       	call   22 <ArtNet4Node::IsStatusChanged()+0x22>
  22:	c9                   	leave  
  23:	c3                   	ret    

Disassembly of section .text._ZN11ArtNet4Node15SetLedBlinkModeEN8hardware8ledblink4ModeE:

0000000000000000 <ArtNet4Node::SetLedBlinkMode(hardware::ledblink::Mode)>:
   0:	f3 0f 1e fa          	endbr64 
   4:	55                   	push   %rbp
   5:	48 89 e5             	mov    %rsp,%rbp
   8:	48 83 ec 20          	sub    $0x20,%rsp
   c:	48 89 7d e8          	mov    %rdi,-0x18(%rbp)
  10:	89 75 e4             	mov    %esi,-0x1c(%rbp)
  13:	48 8b 45 e8          	mov    -0x18(%rbp),%rax
  17:	48 8d 90 88 0a 00 00 	lea    0xa88(%rax),%rdx
  1e:	83 7d e4 02          	cmpl   $0x2,-0x1c(%rbp)
  22:	0f 94 c0             	sete   %al
  25:	0f b6 c0             	movzbl %al,%eax
  28:	89 c6                	mov    %eax,%esi
  2a:	48 89 d7             	mov    %rdx,%rdi
  2d:	e8 00 00 00 00       	call   32 <ArtNet4Node::SetLedBlinkMode(hardware::ledblink::Mode)+0x32>
  32:	c7 45 fc 00 00 00 00 	movl   $0x0,-0x4(%rbp)
  39:	eb 20                	jmp    5b <ArtNet4Node::SetLedBlinkMode(hardware::ledblink::Mode)+0x5b>
  3b:	48 8b 45 e8          	mov    -0x18(%rbp),%rax
  3f:	48 8d 90 88 0a 00 00 	lea    0xa88(%rax),%rdx
  46:	8b 45 fc             	mov    -0x4(%rbp),%eax
  49:	89 c6                	mov    %eax,%esi
  4b:	48 89 d7             	mov    %rdx,%rdi
  4e:	e8 00 00 00 00       	call   53 <ArtNet4Node::SetLedBlinkMode(hardware::ledblink::Mode)+0x53>
  53:	84 c0                	test   %al,%al
  55:	75 21                	jne    78 <ArtNet4Node::SetLedBlinkMode(hardware::ledblink::Mode)+0x78>
  57:	83 45 fc 01          	addl   $0x1,-0x4(%rbp)
  5b:	83 7d fc 03          	cmpl   $0x3,-0x4(%rbp)
  5f:	76 da                	jbe    3b <ArtNet4Node::SetLedBlinkMode(hardware::ledblink::Mode)+0x3b>
  61:	e8 00 00 00 00       	call   66 <ArtNet4Node::SetLedBlinkMode(hardware::ledblink::Mode)+0x66>
  66:	48 89 c2             	mov    %rax,%rdx
  69:	8b 45 e4             	mov    -0x1c(%rbp),%eax
  6c:	89 c6                	mov    %eax,%esi
  6e:	48 89 d7             	mov    %rdx,%rdi
  71:	e8 00 00 00 00       	call   76 <ArtNet4Node::SetLedBlinkMode(hardware::ledblink::Mode)+0x76>
  76:	eb 01                	jmp    79 <ArtNet4Node::SetLedBlinkMode(hardware::ledblink::Mode)+0x79>
  78:	90                   	nop
  79:	c9                   	leave  
  7a:	c3                   	ret    

Disassembly of section .text._ZN14ArtNet4HandlerC2Ev:

0000000000000000 <ArtNet4Handler::ArtNet4Handler()>:
   0:	f3 0f 1e fa          	endbr64 
   4:	55                   	push   %rbp
   5:	48 89 e5             	mov    %rsp,%rbp
   8:	48 89 7d f8          	mov    %rdi,-0x8(%rbp)
   c:	48 8d 15 00 00 00 00 	lea    0x0(%rip),%rdx        # 13 <ArtNet4Handler::ArtNet4Handler()+0x13>
  13:	48 8b 45 f8          	mov    -0x8(%rbp),%rax
  17:	48 89 10             	mov    %rdx,(%rax)
  1a:	90                   	nop
  1b:	5d                   	pop    %rbp
  1c:	c3                   	ret    

Disassembly of section .text._ZN11ArtNet4NodeC2Ev:

0000000000000000 <ArtNet4Node::ArtNet4Node()>:
   0:	f3 0f 1e fa          	endbr64 
   4:	55                   	push   %rbp
   5:	48 89 e5             	mov    %rsp,%rbp
   8:	48 83 ec 10          	sub    $0x10,%rsp
   c:	48 89 7d f8          	mov    %rdi,-0x8(%rbp)
  10:	48 8b 45 f8          	mov    -0x8(%rbp),%rax
  14:	48 83 c0 08          	add    $0x8,%rax
  18:	48 89 c7             	mov    %rax,%rdi
  1b:	e8 00 00 00 00       	call   20 <ArtNet4Node::ArtNet4Node()+0x20>
  20:	48 8b 45 f8          	mov    -0x8(%rbp),%rax
  24:	48 89 c7             	mov    %rax,%rdi
  27:	e8 00 00 00 00       	call   2c <ArtNet4Node::ArtNet4Node()+0x2c>
  2c:	48 8d 15 00 00 00 00 	lea    0x0(%rip),%rdx        # 33 <ArtNet4Node::ArtNet4Node()+0x33>
  33:	48 8b 45 f8          	mov    -0x8(%rbp),%rax
  37:	48 89 10             	mov    %rdx,(%rax)
  3a:	48 8b 45 f8          	mov    -0x8(%rbp),%rax
  3e:	48 05 88 0a 00 00    	add    $0xa88,%rax
  44:	48 89 c7             	mov    %rax,%rdi
  47:	e8 00 00 00 00       	call   4c <ArtNet4Node::ArtNet4Node()+0x4c>
  4c:	48 8b 45 f8          	mov    -0x8(%rbp),%rax
  50:	48 8d 50 08          	lea    0x8(%rax),%rdx
  54:	48 8b 45 f8          	mov    -0x8(%rbp),%rax
  58:	48 89 c6             	mov    %rax,%rsi
  5b:	48 89 d7             	mov    %rdx,%rdi
  5e:	e8 00 00 00 00       	call   63 <ArtNet4Node::ArtNet4Node()+0x63>
  63:	90                   	nop
  64:	c9                   	leave  
  65:	c3                   	ret    

Disassembly of section .text._ZN11ArtNet4Node7SetPortEjN8lightset7PortDirE:

0000000000000000 <ArtNet4Node::SetPort(unsigned int, lightset::PortDir)>:
   0:	f3 0f 1e fa          	endbr64 
   4:	55                   	push   %rbp
   5:	48 89 e5             	mov    %rsp,%rbp
   8:	48 83 ec 20          	sub    $0x20,%rsp
   c:	48 89 7d e8          	mov    %rdi,-0x18(%rbp)
  10:	89 75 e4             	mov    %esi,-0x1c(%rbp)
  13:	89 55 e0             	mov    %edx,-0x20(%rbp)
  16:	64 48 8b 04 25 28 00 	mov    %fs:0x28,%rax
  1d:	00 00 
  1f:	48 89 45 f8          	mov    %rax,-0x8(%rbp)
  23:	31 c0                	xor    %eax,%eax
  25:	48 8b 45 e8          	mov    -0x18(%rbp),%rax
  29:	48 8d 78 08          	lea    0x8(%rax),%rdi
  2d:	8b 4d e0             	mov    -0x20(%rbp),%ecx
  30:	48 8d 55 f2          	lea    -0xe(%rbp),%rdx
  34:	8b 45 e4             	mov    -0x1c(%rbp),%eax
  37:	89 c6                	mov    %eax,%esi
  39:	e8 00 00 00 00       	call   3e <ArtNet4Node::SetPort(unsigned int, lightset::PortDir)+0x3e>
  3e:	88 45 f1             	mov    %al,-0xf(%rbp)
  41:	83 7d e0 00          	cmpl   $0x0,-0x20(%rbp)
  45:	0f 84 a2 00 00 00    	je     ed <ArtNet4Node::SetPort(unsigned int, lightset::PortDir)+0xed>
  4b:	80 7d f1 00          	cmpb   $0x0,-0xf(%rbp)
  4f:	0f 84 99 00 00 00    	je     ee <ArtNet4Node::SetPort(unsigned int, lightset::PortDir)+0xee>
  55:	48 8b 45 e8          	mov    -0x18(%rbp),%rax
  59:	48 8d 50 08          	lea    0x8(%rax),%rdx
  5d:	8b 45 e4             	mov    -0x1c(%rbp),%eax
  60:	89 c6                	mov    %eax,%esi
  62:	48 89 d7             	mov    %rdx,%rdi
  65:	e8 00 00 00 00       	call   6a <ArtNet4Node::SetPort(unsigned int, lightset::PortDir)+0x6a>
  6a:	89 45 f4             	mov    %eax,-0xc(%rbp)
  6d:	83 7d f4 01          	cmpl   $0x1,-0xc(%rbp)
  71:	75 7b                	jne    ee <ArtNet4Node::SetPort(unsigned int, lightset::PortDir)+0xee>
  73:	48 8b 45 e8          	mov    -0x18(%rbp),%rax
  77:	48 83 c0 08          	add    $0x8,%rax
  7b:	48 89 c7             	mov    %rax,%rdi
  7e:	e8 00 00 00 00       	call   83 <ArtNet4Node::SetPort(unsigned int, lightset::PortDir)+0x83>
  83:	84 c0                	test   %al,%al
  85:	74 0b                	je     92 <ArtNet4Node::SetPort(unsigned int, lightset::PortDir)+0x92>
  87:	0f b7 45 f2          	movzwl -0xe(%rbp),%eax
  8b:	83 c0 01             	add    $0x1,%eax
  8e:	66 89 45 f2          	mov    %ax,-0xe(%rbp)
  92:	0f b7 45 f2          	movzwl -0xe(%rbp),%eax
  96:	66 85 c0             	test   %ax,%ax
  99:	75 1e                	jne    b9 <ArtNet4Node::SetPort(unsigned int, lightset::PortDir)+0xb9>
  9b:	48 8b 45 e8          	mov    -0x18(%rbp),%rax
  9f:	48 8d 78 08          	lea    0x8(%rax),%rdi
  a3:	8b 45 e4             	mov    -0x1c(%rbp),%eax
  a6:	b9 00 00 00 00       	mov    $0x0,%ecx
  ab:	ba 02 00 00 00       	mov    $0x2,%edx
  b0:	89 c6                	mov    %eax,%esi
  b2:	e8 00 00 00 00       	call   b7 <ArtNet4Node::SetPort(unsigned int, lightset::PortDir)+0xb7>
  b7:	eb 35                	jmp    ee <ArtNet4Node::SetPort(unsigned int, lightset::PortDir)+0xee>
  b9:	48 8b 45 e8          	mov    -0x18(%rbp),%rax
  bd:	48 8d b8 88 0a 00 00 	lea    0xa88(%rax),%rdi
  c4:	0f b7 45 f2          	movzwl -0xe(%rbp),%eax
  c8:	0f b7 d0             	movzwl %ax,%edx
  cb:	83 7d e0 01          	cmpl   $0x1,-0x20(%rbp)
  cf:	75 07                	jne    d8 <ArtNet4Node::SetPort(unsigned int, lightset::PortDir)+0xd8>
  d1:	be 01 00 00 00       	mov    $0x1,%esi
  d6:	eb 05                	jmp    dd <ArtNet4Node::SetPort(unsigned int, lightset::PortDir)+0xdd>
  d8:	be 00 00 00 00       	mov    $0x0,%esi
  dd:	8b 45 e4             	mov    -0x1c(%rbp),%eax
  e0:	89 d1                	mov    %edx,%ecx
  e2:	89 f2                	mov    %esi,%edx
  e4:	89 c6                	mov    %eax,%esi
  e6:	e8 00 00 00 00       	call   eb <ArtNet4Node::SetPort(unsigned int, lightset::PortDir)+0xeb>
  eb:	eb 01                	jmp    ee <ArtNet4Node::SetPort(unsigned int, lightset::PortDir)+0xee>
  ed:	90                   	nop
  ee:	48 8b 45 f8          	mov    -0x8(%rbp),%rax
  f2:	64 48 2b 04 25 28 00 	sub    %fs:0x28,%rax
  f9:	00 00 
  fb:	74 05                	je     102 <ArtNet4Node::SetPort(unsigned int, lightset::PortDir)+0x102>
  fd:	e8 00 00 00 00       	call   102 <ArtNet4Node::SetPort(unsigned int, lightset::PortDir)+0x102>
 102:	c9                   	leave  
 103:	c3                   	ret    

Disassembly of section .text._ZN11ArtNet4Node5StartEv:

0000000000000000 <ArtNet4Node::Start()>:
   0:	f3 0f 1e fa          	endbr64 
   4:	55                   	push   %rbp
   5:	48 89 e5             	mov    %rsp,%rbp
   8:	53                   	push   %rbx
   9:	48 83 ec 38          	sub    $0x38,%rsp
   d:	48 89 7d c8          	mov    %rdi,-0x38(%rbp)
  11:	64 48 8b 04 25 28 00 	mov    %fs:0x28,%rax
  18:	00 00 
  1a:	48 89 45 e8          	mov    %rax,-0x18(%rbp)
  1e:	31 c0                	xor    %eax,%eax
  20:	c7 45 dc 00 00 00 00 	movl   $0x0,-0x24(%rbp)
  27:	eb 79                	jmp    a2 <ArtNet4Node::Start()+0xa2>
  29:	48 8b 45 c8          	mov    -0x38(%rbp),%rax
  2d:	48 8d 78 08          	lea    0x8(%rax),%rdi
  31:	48 8d 55 da          	lea    -0x26(%rbp),%rdx
  35:	8b 45 dc             	mov    -0x24(%rbp),%eax
  38:	b9 01 00 00 00       	mov    $0x1,%ecx
  3d:	89 c6                	mov    %eax,%esi
  3f:	e8 00 00 00 00       	call   44 <ArtNet4Node::Start()+0x44>
  44:	88 45 d9             	mov    %al,-0x27(%rbp)
  47:	80 7d d9 00          	cmpb   $0x0,-0x27(%rbp)
  4b:	74 51                	je     9e <ArtNet4Node::Start()+0x9e>
  4d:	48 8b 45 c8          	mov    -0x38(%rbp),%rax
  51:	48 8d 50 08          	lea    0x8(%rax),%rdx
  55:	8b 45 dc             	mov    -0x24(%rbp),%eax
  58:	89 c6                	mov    %eax,%esi
  5a:	48 89 d7             	mov    %rdx,%rdi
  5d:	e8 00 00 00 00       	call   62 <ArtNet4Node::Start()+0x62>
  62:	89 45 e0             	mov    %eax,-0x20(%rbp)
  65:	83 7d e0 01          	cmpl   $0x1,-0x20(%rbp)
  69:	75 33                	jne    9e <ArtNet4Node::Start()+0x9e>
  6b:	48 8b 45 c8          	mov    -0x38(%rbp),%rax
  6f:	48 8d 50 08          	lea    0x8(%rax),%rdx
  73:	8b 45 dc             	mov    -0x24(%rbp),%eax
  76:	89 c6                	mov    %eax,%esi
  78:	48 89 d7             	mov    %rdx,%rdi
  7b:	e8 00 00 00 00       	call   80 <ArtNet4Node::Start()+0x80>
  80:	89 45 e4             	mov    %eax,-0x1c(%rbp)
  83:	48 8b 45 c8          	mov    -0x38(%rbp),%rax
  87:	48 8d 88 88 0a 00 00 	lea    0xa88(%rax),%rcx
  8e:	8b 55 e4             	mov    -0x1c(%rbp),%edx
  91:	8b 45 dc             	mov    -0x24(%rbp),%eax
  94:	89 c6                	mov    %eax,%esi
  96:	48 89 cf             	mov    %rcx,%rdi
  99:	e8 00 00 00 00       	call   9e <ArtNet4Node::Start()+0x9e>
  9e:	83 45 dc 01          	addl   $0x1,-0x24(%rbp)
  a2:	83 7d dc 03          	cmpl   $0x3,-0x24(%rbp)
  a6:	76 81                	jbe    29 <ArtNet4Node::Start()+0x29>
  a8:	48 8b 45 c8          	mov    -0x38(%rbp),%rax
  ac:	48 8d 98 88 0a 00 00 	lea    0xa88(%rax),%rbx
  b3:	48 8b 45 c8          	mov    -0x38(%rbp),%rax
  b7:	48 83 c0 08          	add    $0x8,%rax
  bb:	48 89 c7             	mov    %rax,%rdi
  be:	e8 00 00 00 00       	call   c3 <ArtNet4Node::Start()+0xc3>
  c3:	0f b6 c0             	movzbl %al,%eax
  c6:	89 c6                	mov    %eax,%esi
  c8:	48 89 df             	mov    %rbx,%rdi
  cb:	e8 00 00 00 00       	call   d0 <ArtNet4Node::Start()+0xd0>
  d0:	48 8b 45 c8          	mov    -0x38(%rbp),%rax
  d4:	48 8d 98 88 0a 00 00 	lea    0xa88(%rax),%rbx
  db:	48 8b 45 c8          	mov    -0x38(%rbp),%rax
  df:	48 83 c0 08          	add    $0x8,%rax
  e3:	48 89 c7             	mov    %rax,%rdi
  e6:	e8 00 00 00 00       	call   eb <ArtNet4Node::Start()+0xeb>
  eb:	48 89 c6             	mov    %rax,%rsi
  ee:	48 89 df             	mov    %rbx,%rdi
  f1:	e8 00 00 00 00       	call   f6 <ArtNet4Node::Start()+0xf6>
  f6:	48 8b 45 c8          	mov    -0x38(%rbp),%rax
  fa:	48 83 c0 08          	add    $0x8,%rax
  fe:	48 89 c7             	mov    %rax,%rdi
 101:	e8 00 00 00 00       	call   106 <ArtNet4Node::Start()+0x106>
 106:	48 8b 45 c8          	mov    -0x38(%rbp),%rax
 10a:	48 05 88 0a 00 00    	add    $0xa88,%rax
 110:	48 89 c7             	mov    %rax,%rdi
 113:	e8 00 00 00 00       	call   118 <ArtNet4Node::Start()+0x118>
 118:	90                   	nop
 119:	48 8b 45 e8          	mov    -0x18(%rbp),%rax
 11d:	64 48 2b 04 25 28 00 	sub    %fs:0x28,%rax
 124:	00 00 
 126:	74 05                	je     12d <ArtNet4Node::Start()+0x12d>
 128:	e8 00 00 00 00       	call   12d <ArtNet4Node::Start()+0x12d>
 12d:	48 8b 5d f8          	mov    -0x8(%rbp),%rbx
 131:	c9                   	leave  
 132:	c3                   	ret    

Disassembly of section .text._ZN11ArtNet4Node4StopEv:

0000000000000000 <ArtNet4Node::Stop()>:
   0:	f3 0f 1e fa          	endbr64 
   4:	55                   	push   %rbp
   5:	48 89 e5             	mov    %rsp,%rbp
   8:	48 83 ec 10          	sub    $0x10,%rsp
   c:	48 89 7d f8          	mov    %rdi,-0x8(%rbp)
  10:	48 8b 45 f8          	mov    -0x8(%rbp),%rax
  14:	48 05 88 0a 00 00    	add    $0xa88,%rax
  1a:	48 89 c7             	mov    %rax,%rdi
  1d:	e8 00 00 00 00       	call   22 <ArtNet4Node::Stop()+0x22>
  22:	48 8b 45 f8          	mov    -0x8(%rbp),%rax
  26:	48 83 c0 08          	add    $0x8,%rax
  2a:	48 89 c7             	mov    %rax,%rdi
  2d:	e8 00 00 00 00       	call   32 <ArtNet4Node::Stop()+0x32>
  32:	90                   	nop
  33:	c9                   	leave  
  34:	c3                   	ret    

Disassembly of section .text._ZN11ArtNet4Node3RunEv:

0000000000000000 <ArtNet4Node::Run()>:
   0:	f3 0f 1e fa          	endbr64 
   4:	55                   	push   %rbp
   5:	48 89 e5             	mov    %rsp,%rbp
   8:	48 83 ec 10          	sub    $0x10,%rsp
   c:	48 89 7d f8          	mov    %rdi,-0x8(%rbp)
  10:	48 8b 45 f8          	mov    -0x8(%rbp),%rax
  14:	48 83 c0 08          	add    $0x8,%rax
  18:	48 89 c7             	mov    %rax,%rdi
  1b:	e8 00 00 00 00       	call   20 <ArtNet4Node::Run()+0x20>
  20:	48 8b 45 f8          	mov    -0x8(%rbp),%rax
  24:	48 05 88 0a 00 00    	add    $0xa88,%rax
  2a:	48 89 c7             	mov    %rax,%rdi
  2d:	e8 00 00 00 00       	call   32 <ArtNet4Node::Run()+0x32>
  32:	85 c0                	test   %eax,%eax
  34:	0f 95 c0             	setne  %al
  37:	84 c0                	test   %al,%al
  39:	74 12                	je     4d <ArtNet4Node::Run()+0x4d>
  3b:	48 8b 45 f8          	mov    -0x8(%rbp),%rax
  3f:	48 05 88 0a 00 00    	add    $0xa88,%rax
  45:	48 89 c7             	mov    %rax,%rdi
  48:	e8 00 00 00 00       	call   4d <ArtNet4Node::Run()+0x4d>
  4d:	90                   	nop
  4e:	c9                   	leave  
  4f:	c3                   	ret    

Disassembly of section .text._ZN11ArtNet4Node13HandleAddressEh:

0000000000000000 <ArtNet4Node::HandleAddress(unsigned char)>:
   0:	f3 0f 1e fa          	endbr64 
   4:	55                   	push   %rbp
   5:	48 89 e5             	mov    %rsp,%rbp
   8:	48 83 ec 20          	sub    $0x20,%rsp
   c:	48 89 7d e8          	mov    %rdi,-0x18(%rbp)
  10:	89 f0                	mov    %esi,%eax
  12:	88 45 e4             	mov    %al,-0x1c(%rbp)
  15:	64 48 8b 04 25 28 00 	mov    %fs:0x28,%rax
  1c:	00 00 
  1e:	48 89 45 f8          	mov    %rax,-0x8(%rbp)
  22:	31 c0                	xor    %eax,%eax
  24:	c7 45 f4 00 00 00 00 	movl   $0x0,-0xc(%rbp)
  2b:	e9 be 00 00 00       	jmp    ee <ArtNet4Node::HandleAddress(unsigned char)+0xee>
  30:	48 8b 45 e8          	mov    -0x18(%rbp),%rax
  34:	48 8d 78 08          	lea    0x8(%rax),%rdi
  38:	48 8d 55 f2          	lea    -0xe(%rbp),%rdx
  3c:	8b 45 f4             	mov    -0xc(%rbp),%eax
  3f:	b9 01 00 00 00       	mov    $0x1,%ecx
  44:	89 c6                	mov    %eax,%esi
  46:	e8 00 00 00 00       	call   4b <ArtNet4Node::HandleAddress(unsigned char)+0x4b>
  4b:	88 45 f1             	mov    %al,-0xf(%rbp)
  4e:	80 7d f1 00          	cmpb   $0x0,-0xf(%rbp)
  52:	0f 84 92 00 00 00    	je     ea <ArtNet4Node::HandleAddress(unsigned char)+0xea>
  58:	48 8b 45 e8          	mov    -0x18(%rbp),%rax
  5c:	48 83 c0 08          	add    $0x8,%rax
  60:	48 89 c7             	mov    %rax,%rdi
  63:	e8 00 00 00 00       	call   68 <ArtNet4Node::HandleAddress(unsigned char)+0x68>
  68:	84 c0                	test   %al,%al
  6a:	74 0b                	je     77 <ArtNet4Node::HandleAddress(unsigned char)+0x77>
  6c:	0f b7 45 f2          	movzwl -0xe(%rbp),%eax
  70:	83 c0 01             	add    $0x1,%eax
  73:	66 89 45 f2          	mov    %ax,-0xe(%rbp)
  77:	0f b7 45 f2          	movzwl -0xe(%rbp),%eax
  7b:	66 85 c0             	test   %ax,%ax
  7e:	74 69                	je     e9 <ArtNet4Node::HandleAddress(unsigned char)+0xe9>
  80:	48 8b 45 e8          	mov    -0x18(%rbp),%rax
  84:	48 8d 50 08          	lea    0x8(%rax),%rdx
  88:	8b 45 f4             	mov    -0xc(%rbp),%eax
  8b:	89 c6                	mov    %eax,%esi
  8d:	48 89 d7             	mov    %rdx,%rdi
  90:	e8 00 00 00 00       	call   95 <ArtNet4Node::HandleAddress(unsigned char)+0x95>
  95:	83 f8 01             	cmp    $0x1,%eax
  98:	0f 94 c0             	sete   %al
  9b:	84 c0                	test   %al,%al
  9d:	74 25                	je     c4 <ArtNet4Node::HandleAddress(unsigned char)+0xc4>
  9f:	48 8b 45 e8          	mov    -0x18(%rbp),%rax
  a3:	48 8d b8 88 0a 00 00 	lea    0xa88(%rax),%rdi
  aa:	0f b7 45 f2          	movzwl -0xe(%rbp),%eax
  ae:	0f b7 d0             	movzwl %ax,%edx
  b1:	8b 45 f4             	mov    -0xc(%rbp),%eax
  b4:	89 d1                	mov    %edx,%ecx
  b6:	ba 01 00 00 00       	mov    $0x1,%edx
  bb:	89 c6                	mov    %eax,%esi
  bd:	e8 00 00 00 00       	call   c2 <ArtNet4Node::HandleAddress(unsigned char)+0xc2>
  c2:	eb 26                	jmp    ea <ArtNet4Node::HandleAddress(unsigned char)+0xea>
  c4:	48 8b 45 e8          	mov    -0x18(%rbp),%rax
  c8:	48 8d b8 88 0a 00 00 	lea    0xa88(%rax),%rdi
  cf:	0f b7 45 f2          	movzwl -0xe(%rbp),%eax
  d3:	0f b7 d0             	movzwl %ax,%edx
  d6:	8b 45 f4             	mov    -0xc(%rbp),%eax
  d9:	89 d1                	mov    %edx,%ecx
  db:	ba 02 00 00 00       	mov    $0x2,%edx
  e0:	89 c6                	mov    %eax,%esi
  e2:	e8 00 00 00 00       	call   e7 <ArtNet4Node::HandleAddress(unsigned char)+0xe7>
  e7:	eb 01                	jmp    ea <ArtNet4Node::HandleAddress(unsigned char)+0xea>
  e9:	90                   	nop
  ea:	83 45 f4 01          	addl   $0x1,-0xc(%rbp)
  ee:	83 7d f4 03          	cmpl   $0x3,-0xc(%rbp)
  f2:	0f 86 38 ff ff ff    	jbe    30 <ArtNet4Node::HandleAddress(unsigned char)+0x30>
  f8:	0f b6 45 e4          	movzbl -0x1c(%rbp),%eax
  fc:	83 e0 03             	and    $0x3,%eax
  ff:	88 45 f0             	mov    %al,-0x10(%rbp)
 102:	0f b6 45 e4          	movzbl -0x1c(%rbp),%eax
 106:	3d 93 00 00 00       	cmp    $0x93,%eax
 10b:	0f 8f 14 01 00 00    	jg     225 <ArtNet4Node::HandleAddress(unsigned char)+0x225>
 111:	3d 90 00 00 00       	cmp    $0x90,%eax
 116:	0f 8d ce 00 00 00    	jge    1ea <ArtNet4Node::HandleAddress(unsigned char)+0x1ea>
 11c:	83 f8 53             	cmp    $0x53,%eax
 11f:	0f 8f 00 01 00 00    	jg     225 <ArtNet4Node::HandleAddress(unsigned char)+0x225>
 125:	83 f8 50             	cmp    $0x50,%eax
 128:	0f 8d 9c 00 00 00    	jge    1ca <ArtNet4Node::HandleAddress(unsigned char)+0x1ca>
 12e:	83 f8 13             	cmp    $0x13,%eax
 131:	0f 8f ee 00 00 00    	jg     225 <ArtNet4Node::HandleAddress(unsigned char)+0x225>
 137:	83 f8 10             	cmp    $0x10,%eax
 13a:	7d 6e                	jge    1aa <ArtNet4Node::HandleAddress(unsigned char)+0x1aa>
 13c:	83 f8 04             	cmp    $0x4,%eax
 13f:	74 50                	je     191 <ArtNet4Node::HandleAddress(unsigned char)+0x191>
 141:	83 f8 04             	cmp    $0x4,%eax
 144:	0f 8f db 00 00 00    	jg     225 <ArtNet4Node::HandleAddress(unsigned char)+0x225>
 14a:	83 f8 02             	cmp    $0x2,%eax
 14d:	74 0a                	je     159 <ArtNet4Node::HandleAddress(unsigned char)+0x159>
 14f:	83 f8 03             	cmp    $0x3,%eax
 152:	74 21                	je     175 <ArtNet4Node::HandleAddress(unsigned char)+0x175>
 154:	e9 cc 00 00 00       	jmp    225 <ArtNet4Node::HandleAddress(unsigned char)+0x225>
 159:	48 8b 45 e8          	mov    -0x18(%rbp),%rax
 15d:	48 05 88 0a 00 00    	add    $0xa88,%rax
 163:	be 01 00 00 00       	mov    $0x1,%esi
 168:	48 89 c7             	mov    %rax,%rdi
 16b:	e8 00 00 00 00       	call   170 <ArtNet4Node::HandleAddress(unsigned char)+0x170>
 170:	e9 b4 00 00 00       	jmp    229 <ArtNet4Node::HandleAddress(unsigned char)+0x229>
 175:	48 8b 45 e8          	mov    -0x18(%rbp),%rax
 179:	48 05 88 0a 00 00    	add    $0xa88,%rax
 17f:	be 00 00 00 00       	mov    $0x0,%esi
 184:	48 89 c7             	mov    %rax,%rdi
 187:	e8 00 00 00 00       	call   18c <ArtNet4Node::HandleAddress(unsigned char)+0x18c>
 18c:	e9 98 00 00 00       	jmp    229 <ArtNet4Node::HandleAddress(unsigned char)+0x229>
 191:	48 8b 45 e8          	mov    -0x18(%rbp),%rax
 195:	48 05 88 0a 00 00    	add    $0xa88,%rax
 19b:	be 00 00 00 00       	mov    $0x0,%esi
 1a0:	48 89 c7             	mov    %rax,%rdi
 1a3:	e8 00 00 00 00       	call   1a8 <ArtNet4Node::HandleAddress(unsigned char)+0x1a8>
 1a8:	eb 7f                	jmp    229 <ArtNet4Node::HandleAddress(unsigned char)+0x229>
 1aa:	48 8b 45 e8          	mov    -0x18(%rbp),%rax
 1ae:	48 8d 88 88 0a 00 00 	lea    0xa88(%rax),%rcx
 1b5:	0f b6 45 f0          	movzbl -0x10(%rbp),%eax
 1b9:	ba 01 00 00 00       	mov    $0x1,%edx
 1be:	89 c6                	mov    %eax,%esi
 1c0:	48 89 cf             	mov    %rcx,%rdi
 1c3:	e8 00 00 00 00       	call   1c8 <ArtNet4Node::HandleAddress(unsigned char)+0x1c8>
 1c8:	eb 5f                	jmp    229 <ArtNet4Node::HandleAddress(unsigned char)+0x229>
 1ca:	48 8b 45 e8          	mov    -0x18(%rbp),%rax
 1ce:	48 8d 88 88 0a 00 00 	lea    0xa88(%rax),%rcx
 1d5:	0f b6 45 f0          	movzbl -0x10(%rbp),%eax
 1d9:	ba 00 00 00 00       	mov    $0x0,%edx
 1de:	89 c6                	mov    %eax,%esi
 1e0:	48 89 cf             	mov    %rcx,%rdi
 1e3:	e8 00 00 00 00       	call   1e8 <ArtNet4Node::HandleAddress(unsigned char)+0x1e8>
 1e8:	eb 3f                	jmp    229 <ArtNet4Node::HandleAddress(unsigned char)+0x229>
 1ea:	48 8b 45 e8          	mov    -0x18(%rbp),%rax
 1ee:	48 8d 50 08          	lea    0x8(%rax),%rdx
 1f2:	0f b6 45 f0          	movzbl -0x10(%rbp),%eax
 1f6:	89 c6                	mov    %eax,%esi
 1f8:	48 89 d7             	mov    %rdx,%rdi
 1fb:	e8 00 00 00 00       	call   200 <ArtNet4Node::HandleAddress(unsigned char)+0x200>
 200:	83 f8 01             	cmp    $0x1,%eax
 203:	0f 94 c0             	sete   %al
 206:	84 c0                	test   %al,%al
 208:	74 1e                	je     228 <ArtNet4Node::HandleAddress(unsigned char)+0x228>
 20a:	48 8b 45 e8          	mov    -0x18(%rbp),%rax
 20e:	48 8d 90 88 0a 00 00 	lea    0xa88(%rax),%rdx
 215:	0f b6 45 f0          	movzbl -0x10(%rbp),%eax
 219:	89 c6                	mov    %eax,%esi
 21b:	48 89 d7             	mov    %rdx,%rdi
 21e:	e8 00 00 00 00       	call   223 <ArtNet4Node::HandleAddress(unsigned char)+0x223>
 223:	eb 03                	jmp    228 <ArtNet4Node::HandleAddress(unsigned char)+0x228>
 225:	90                   	nop
 226:	eb 01                	jmp    229 <ArtNet4Node::HandleAddress(unsigned char)+0x229>
 228:	90                   	nop
 229:	90                   	nop
 22a:	48 8b 45 f8          	mov    -0x8(%rbp),%rax
 22e:	64 48 2b 04 25 28 00 	sub    %fs:0x28,%rax
 235:	00 00 
 237:	74 05                	je     23e <ArtNet4Node::HandleAddress(unsigned char)+0x23e>
 239:	e8 00 00 00 00       	call   23e <ArtNet4Node::HandleAddress(unsigned char)+0x23e>
 23e:	c9                   	leave  
 23f:	c3                   	ret    

Disassembly of section .text._ZN11ArtNet4Node9GetStatusEj:

0000000000000000 <ArtNet4Node::GetStatus(unsigned int)>:
   0:	f3 0f 1e fa          	endbr64 
   4:	55                   	push   %rbp
   5:	48 89 e5             	mov    %rsp,%rbp
   8:	48 83 ec 20          	sub    $0x20,%rsp
   c:	48 89 7d e8          	mov    %rdi,-0x18(%rbp)
  10:	89 75 e4             	mov    %esi,-0x1c(%rbp)
  13:	64 48 8b 04 25 28 00 	mov    %fs:0x28,%rax
  1a:	00 00 
  1c:	48 89 45 f8          	mov    %rax,-0x8(%rbp)
  20:	31 c0                	xor    %eax,%eax
  22:	48 8b 45 e8          	mov    -0x18(%rbp),%rax
  26:	48 8d b8 88 0a 00 00 	lea    0xa88(%rax),%rdi
  2d:	48 8d 55 f6          	lea    -0xa(%rbp),%rdx
  31:	8b 45 e4             	mov    -0x1c(%rbp),%eax
  34:	b9 01 00 00 00       	mov    $0x1,%ecx
  39:	89 c6                	mov    %eax,%esi
  3b:	e8 00 00 00 00       	call   40 <ArtNet4Node::GetStatus(unsigned int)+0x40>
  40:	88 45 f4             	mov    %al,-0xc(%rbp)
  43:	80 7d f4 00          	cmpb   $0x0,-0xc(%rbp)
  47:	74 60                	je     a9 <ArtNet4Node::GetStatus(unsigned int)+0xa9>
  49:	c6 45 f5 01          	movb   $0x1,-0xb(%rbp)
  4d:	48 8b 45 e8          	mov    -0x18(%rbp),%rax
  51:	48 8d 90 88 0a 00 00 	lea    0xa88(%rax),%rdx
  58:	8b 45 e4             	mov    -0x1c(%rbp),%eax
  5b:	89 c6                	mov    %eax,%esi
  5d:	48 89 d7             	mov    %rdx,%rdi
  60:	e8 00 00 00 00       	call   65 <ArtNet4Node::GetStatus(unsigned int)+0x65>
  65:	84 c0                	test   %al,%al
  67:	74 07                	je     70 <ArtNet4Node::GetStatus(unsigned int)+0x70>
  69:	b8 80 ff ff ff       	mov    $0xffffff80,%eax
  6e:	eb 05                	jmp    75 <ArtNet4Node::GetStatus(unsigned int)+0x75>
  70:	b8 00 00 00 00       	mov    $0x0,%eax
  75:	08 45 f5             	or     %al,-0xb(%rbp)
  78:	48 8b 45 e8          	mov    -0x18(%rbp),%rax
  7c:	48 8d 90 88 0a 00 00 	lea    0xa88(%rax),%rdx
  83:	8b 45 e4             	mov    -0x1c(%rbp),%eax
  86:	89 c6                	mov    %eax,%esi
  88:	48 89 d7             	mov    %rdx,%rdi
  8b:	e8 00 00 00 00       	call   90 <ArtNet4Node::GetStatus(unsigned int)+0x90>
  90:	84 c0                	test   %al,%al
  92:	74 07                	je     9b <ArtNet4Node::GetStatus(unsigned int)+0x9b>
  94:	b8 08 00 00 00       	mov    $0x8,%eax
  99:	eb 05                	jmp    a0 <ArtNet4Node::GetStatus(unsigned int)+0xa0>
  9b:	b8 00 00 00 00       	mov    $0x0,%eax
  a0:	08 45 f5             	or     %al,-0xb(%rbp)
  a3:	0f b6 45 f5          	movzbl -0xb(%rbp),%eax
  a7:	eb 05                	jmp    ae <ArtNet4Node::GetStatus(unsigned int)+0xae>
  a9:	b8 00 00 00 00       	mov    $0x0,%eax
  ae:	48 8b 55 f8          	mov    -0x8(%rbp),%rdx
  b2:	64 48 2b 14 25 28 00 	sub    %fs:0x28,%rdx
  b9:	00 00 
  bb:	74 05                	je     c2 <ArtNet4Node::GetStatus(unsigned int)+0xc2>
  bd:	e8 00 00 00 00       	call   c2 <ArtNet4Node::GetStatus(unsigned int)+0xc2>
  c2:	c9                   	leave  
  c3:	c3                   	ret    

Disassembly of section .text._ZN11ArtNet4Node5PrintEv:

0000000000000000 <ArtNet4Node::Print()>:
   0:	f3 0f 1e fa          	endbr64 
   4:	55                   	push   %rbp
   5:	48 89 e5             	mov    %rsp,%rbp
   8:	48 83 ec 10          	sub    $0x10,%rsp
   c:	48 89 7d f8          	mov    %rdi,-0x8(%rbp)
  10:	48 8b 45 f8          	mov    -0x8(%rbp),%rax
  14:	48 83 c0 08          	add    $0x8,%rax
  18:	48 89 c7             	mov    %rax,%rdi
  1b:	e8 00 00 00 00       	call   20 <ArtNet4Node::Print()+0x20>
  20:	48 8b 45 f8          	mov    -0x8(%rbp),%rax
  24:	48 83 c0 08          	add    $0x8,%rax
  28:	48 89 c7             	mov    %rax,%rdi
  2b:	e8 00 00 00 00       	call   30 <ArtNet4Node::Print()+0x30>
  30:	85 c0                	test   %eax,%eax
  32:	0f 95 c0             	setne  %al
  35:	84 c0                	test   %al,%al
  37:	74 35                	je     6e <ArtNet4Node::Print()+0x6e>
  39:	48 8b 45 f8          	mov    -0x8(%rbp),%rax
  3d:	48 83 c0 08          	add    $0x8,%rax
  41:	48 89 c7             	mov    %rax,%rdi
  44:	e8 00 00 00 00       	call   49 <ArtNet4Node::Print()+0x49>
  49:	84 c0                	test   %al,%al
  4b:	74 0f                	je     5c <ArtNet4Node::Print()+0x5c>
  4d:	48 8d 05 00 00 00 00 	lea    0x0(%rip),%rax        # 54 <ArtNet4Node::Print()+0x54>
  54:	48 89 c7             	mov    %rax,%rdi
  57:	e8 00 00 00 00       	call   5c <ArtNet4Node::Print()+0x5c>
  5c:	48 8b 45 f8          	mov    -0x8(%rbp),%rax
  60:	48 05 88 0a 00 00    	add    $0xa88,%rax
  66:	48 89 c7             	mov    %rax,%rdi
  69:	e8 00 00 00 00       	call   6e <ArtNet4Node::Print()+0x6e>
  6e:	90                   	nop
  6f:	c9                   	leave  
  70:	c3                   	ret    

Disassembly of section .text._ZN11ArtNet4NodeD2Ev:

0000000000000000 <ArtNet4Node::~ArtNet4Node()>:
   0:	f3 0f 1e fa          	endbr64 
   4:	55                   	push   %rbp
   5:	48 89 e5             	mov    %rsp,%rbp
   8:	48 83 ec 10          	sub    $0x10,%rsp
   c:	48 89 7d f8          	mov    %rdi,-0x8(%rbp)
  10:	48 8d 15 00 00 00 00 	lea    0x0(%rip),%rdx        # 17 <ArtNet4Node::~ArtNet4Node()+0x17>
  17:	48 8b 45 f8          	mov    -0x8(%rbp),%rax
  1b:	48 89 10             	mov    %rdx,(%rax)
  1e:	48 8b 45 f8          	mov    -0x8(%rbp),%rax
  22:	48 05 88 0a 00 00    	add    $0xa88,%rax
  28:	48 89 c7             	mov    %rax,%rdi
  2b:	e8 00 00 00 00       	call   30 <ArtNet4Node::~ArtNet4Node()+0x30>
  30:	48 8b 45 f8          	mov    -0x8(%rbp),%rax
  34:	48 89 c7             	mov    %rax,%rdi
  37:	e8 00 00 00 00       	call   3c <ArtNet4Node::~ArtNet4Node()+0x3c>
  3c:	48 8b 45 f8          	mov    -0x8(%rbp),%rax
  40:	48 83 c0 08          	add    $0x8,%rax
  44:	48 89 c7             	mov    %rax,%rdi
  47:	e8 00 00 00 00       	call   4c <ArtNet4Node::~ArtNet4Node()+0x4c>
  4c:	90                   	nop
  4d:	c9                   	leave  
  4e:	c3                   	ret    

Disassembly of section .text._ZN11ArtNet4NodeD0Ev:

0000000000000000 <ArtNet4Node::~ArtNet4Node()>:
   0:	f3 0f 1e fa          	endbr64 
   4:	55                   	push   %rbp
   5:	48 89 e5             	mov    %rsp,%rbp
   8:	48 83 ec 10          	sub    $0x10,%rsp
   c:	48 89 7d f8          	mov    %rdi,-0x8(%rbp)
  10:	48 8b 45 f8          	mov    -0x8(%rbp),%rax
  14:	48 89 c7             	mov    %rax,%rdi
  17:	e8 00 00 00 00       	call   1c <ArtNet4Node::~ArtNet4Node()+0x1c>
  1c:	48 8b 45 f8          	mov    -0x8(%rbp),%rax
  20:	48 89 c7             	mov    %rax,%rdi
  23:	e8 00 00 00 00       	call   28 <ArtNet4Node::~ArtNet4Node()+0x28>
  28:	c9                   	leave  
  29:	c3                   	ret    
