In archive lib/libdebug.a:

debug_dump.o:     file format elf32-littlearm


Disassembly of section .text:

00000000 <debug_dump>:
   0:	e92d4ff0 	push	{r4, r5, r6, r7, r8, r9, sl, fp, lr}
   4:	e1a06000 	mov	r6, r0
   8:	e1a07001 	mov	r7, r1
   c:	e59f015c 	ldr	r0, [pc, #348]	; 170 <debug_dump+0x170>
  10:	e1a01006 	mov	r1, r6
  14:	e1a02007 	mov	r2, r7
  18:	e24dd00c 	sub	sp, sp, #12
  1c:	e3a05000 	mov	r5, #0
  20:	e59fb14c 	ldr	fp, [pc, #332]	; 174 <debug_dump+0x174>
  24:	e59fa14c 	ldr	sl, [pc, #332]	; 178 <debug_dump+0x178>
  28:	e59f914c 	ldr	r9, [pc, #332]	; 17c <debug_dump+0x17c>
  2c:	ebfffffe 	bl	0 <printf>
  30:	e1a01005 	mov	r1, r5
  34:	e59f0144 	ldr	r0, [pc, #324]	; 180 <debug_dump+0x180>
  38:	ebfffffe 	bl	0 <printf>
  3c:	e1550007 	cmp	r5, r7
  40:	2a000045 	bcs	15c <debug_dump+0x15c>
  44:	e1a08006 	mov	r8, r6
  48:	e3a04000 	mov	r4, #0
  4c:	ea00000d 	b	88 <debug_dump+0x88>
  50:	e2844001 	add	r4, r4, #1
  54:	e1a00009 	mov	r0, r9
  58:	e4d81001 	ldrb	r1, [r8], #1
  5c:	e2855001 	add	r5, r5, #1
  60:	e6ff4074 	uxth	r4, r4
  64:	ebfffffe 	bl	0 <printf>
  68:	e6ff5075 	uxth	r5, r5
  6c:	e354000f 	cmp	r4, #15
  70:	93a03001 	movls	r3, #1
  74:	83a03000 	movhi	r3, #0
  78:	e1570005 	cmp	r7, r5
  7c:	93a03000 	movls	r3, #0
  80:	e3530000 	cmp	r3, #0
  84:	0a000004 	beq	9c <debug_dump+0x9c>
  88:	e3140007 	tst	r4, #7
  8c:	1affffef 	bne	50 <debug_dump+0x50>
  90:	e1a0000b 	mov	r0, fp
  94:	ebfffffe 	bl	0 <printf>
  98:	eaffffec 	b	50 <debug_dump+0x50>
  9c:	e354000f 	cmp	r4, #15
  a0:	e58d8004 	str	r8, [sp, #4]
  a4:	8a00000e 	bhi	e4 <debug_dump+0xe4>
  a8:	e1a08004 	mov	r8, r4
  ac:	ea000005 	b	c8 <debug_dump+0xc8>
  b0:	e2888001 	add	r8, r8, #1
  b4:	e1a0000a 	mov	r0, sl
  b8:	e6ff8078 	uxth	r8, r8
  bc:	ebfffffe 	bl	0 <printf>
  c0:	e3580010 	cmp	r8, #16
  c4:	0a000004 	beq	dc <debug_dump+0xdc>
  c8:	e3180007 	tst	r8, #7
  cc:	1afffff7 	bne	b0 <debug_dump+0xb0>
  d0:	e1a0000b 	mov	r0, fp
  d4:	ebfffffe 	bl	0 <printf>
  d8:	eafffff4 	b	b0 <debug_dump+0xb0>
  dc:	e3540000 	cmp	r4, #0
  e0:	0a000014 	beq	138 <debug_dump+0x138>
  e4:	e3a08000 	mov	r8, #0
  e8:	e2466001 	sub	r6, r6, #1
  ec:	ea000005 	b	108 <debug_dump+0x108>
  f0:	e59f008c 	ldr	r0, [pc, #140]	; 184 <debug_dump+0x184>
  f4:	e2888001 	add	r8, r8, #1
  f8:	ebfffffe 	bl	0 <printf>
  fc:	e6ff3078 	uxth	r3, r8
 100:	e1530004 	cmp	r3, r4
 104:	2a00000b 	bcs	138 <debug_dump+0x138>
 108:	e3180007 	tst	r8, #7
 10c:	0a00000f 	beq	150 <debug_dump+0x150>
 110:	e5f61001 	ldrb	r1, [r6, #1]!
 114:	e2413020 	sub	r3, r1, #32
 118:	e353005e 	cmp	r3, #94	; 0x5e
 11c:	9afffff3 	bls	f0 <debug_dump+0xf0>
 120:	e59f0060 	ldr	r0, [pc, #96]	; 188 <debug_dump+0x188>
 124:	e2888001 	add	r8, r8, #1
 128:	ebfffffe 	bl	0 <printf>
 12c:	e6ff3078 	uxth	r3, r8
 130:	e1530004 	cmp	r3, r4
 134:	3afffff3 	bcc	108 <debug_dump+0x108>
 138:	e59f004c 	ldr	r0, [pc, #76]	; 18c <debug_dump+0x18c>
 13c:	ebfffffe 	bl	0 <printf>
 140:	e1570005 	cmp	r7, r5
 144:	9a000007 	bls	168 <debug_dump+0x168>
 148:	e59d6004 	ldr	r6, [sp, #4]
 14c:	eaffffb7 	b	30 <debug_dump+0x30>
 150:	e1a0000b 	mov	r0, fp
 154:	ebfffffe 	bl	0 <printf>
 158:	eaffffec 	b	110 <debug_dump+0x110>
 15c:	e3a04000 	mov	r4, #0
 160:	e58d6004 	str	r6, [sp, #4]
 164:	eaffffcf 	b	a8 <debug_dump+0xa8>
 168:	e28dd00c 	add	sp, sp, #12
 16c:	e8bd8ff0 	pop	{r4, r5, r6, r7, r8, r9, sl, fp, pc}
 170:	00000000 	andeq	r0, r0, r0
 174:	00000010 	andeq	r0, r0, r0, lsl r0
 178:	0000001c 	andeq	r0, r0, ip, lsl r0
 17c:	00000014 	andeq	r0, r0, r4, lsl r0
 180:	00000008 	andeq	r0, r0, r8
 184:	00000020 	andeq	r0, r0, r0, lsr #32
 188:	00000024 	andeq	r0, r0, r4, lsr #32
 18c:	00000028 	andeq	r0, r0, r8, lsr #32

Disassembly of section .rodata.str1.4:

00000000 <.rodata.str1.4>:
   0:	253a7025 	ldrcs	r7, [sl, #-37]!	; 0xffffffdb
   4:	00000a64 	andeq	r0, r0, r4, ror #20
   8:	78343025 	ldmdavc	r4!, {r0, r2, r5, ip, sp}
   c:	00000020 	andeq	r0, r0, r0, lsr #32
  10:	00000020 	andeq	r0, r0, r0, lsr #32
  14:	78323025 	ldmdavc	r2!, {r0, r2, r5, ip, sp}
  18:	00000020 	andeq	r0, r0, r0, lsr #32
  1c:	00202020 	eoreq	r2, r0, r0, lsr #32
  20:	00006325 	andeq	r6, r0, r5, lsr #6
  24:	0000002e 	andeq	r0, r0, lr, lsr #32
  28:	Address 0x0000000000000028 is out of bounds.


Disassembly of section .comment:

00000000 <.comment>:
   0:	43434700 	movtmi	r4, #14080	; 0x3700
   4:	4728203a 			; <UNDEFINED> instruction: 0x4728203a
   8:	2029554e 	eorcs	r5, r9, lr, asr #10
   c:	322e3031 	eorcc	r3, lr, #49	; 0x31
  10:	Address 0x0000000000000010 is out of bounds.


Disassembly of section .ARM.attributes:

00000000 <.ARM.attributes>:
   0:	00003241 	andeq	r3, r0, r1, asr #4
   4:	61656100 	cmnvs	r5, r0, lsl #2
   8:	01006962 	tsteq	r0, r2, ror #18
   c:	00000028 	andeq	r0, r0, r8, lsr #32
  10:	4b5a3605 	blmi	168d82c <debug_dump+0x168d82c>
  14:	08070600 	stmdaeq	r7, {r9, sl}
  18:	0a010901 	beq	42424 <debug_dump+0x42424>
  1c:	14041202 	strne	r1, [r4], #-514	; 0xfffffdfe
  20:	17011501 	strne	r1, [r1, -r1, lsl #10]
  24:	19011803 	stmdbne	r1, {r0, r1, fp, ip}
  28:	1c011a01 			; <UNDEFINED> instruction: 0x1c011a01
  2c:	22021e01 	andcs	r1, r2, #1, 28
  30:	Address 0x0000000000000030 is out of bounds.


debug_exception.o:     file format elf32-littlearm


Disassembly of section .text:

00000000 <debug_exception>:
   0:	e92d4010 	push	{r4, lr}
   4:	e1a04000 	mov	r4, r0
   8:	ee070fba 	mcr	15, 0, r0, cr7, cr10, {5}
   c:	e3a00b3e 	mov	r0, #63488	; 0xf800
  10:	e1a05001 	mov	r5, r1
  14:	ebfffffe 	bl	0 <console_set_fg_color>
  18:	e3540000 	cmp	r4, #0
  1c:	0a00000b 	beq	50 <debug_exception+0x50>
  20:	e3540001 	cmp	r4, #1
  24:	0a00000d 	beq	60 <debug_exception+0x60>
  28:	e3540002 	cmp	r4, #2
  2c:	01a01005 	moveq	r1, r5
  30:	11a01004 	movne	r1, r4
  34:	059f0034 	ldreq	r0, [pc, #52]	; 70 <debug_exception+0x70>
  38:	159f0034 	ldrne	r0, [pc, #52]	; 74 <debug_exception+0x74>
  3c:	ebfffffe 	bl	0 <printf>
  40:	e59f0030 	ldr	r0, [pc, #48]	; 78 <debug_exception+0x78>
  44:	ebfffffe 	bl	0 <console_set_fg_color>
  48:	ebfffffe 	bl	0 <bcm2835_watchdog_stop>
  4c:	eafffffe 	b	4c <debug_exception+0x4c>
  50:	e1a01005 	mov	r1, r5
  54:	e59f0020 	ldr	r0, [pc, #32]	; 7c <debug_exception+0x7c>
  58:	ebfffffe 	bl	0 <printf>
  5c:	eafffff7 	b	40 <debug_exception+0x40>
  60:	e1a01005 	mov	r1, r5
  64:	e59f0014 	ldr	r0, [pc, #20]	; 80 <debug_exception+0x80>
  68:	ebfffffe 	bl	0 <printf>
  6c:	eafffff3 	b	40 <debug_exception+0x40>
  70:	00000048 	andeq	r0, r0, r8, asr #32
  74:	00000064 	andeq	r0, r0, r4, rrx
  78:	0000ffff 	strdeq	pc, [r0], -pc	; <UNPREDICTABLE>
  7c:	00000000 	andeq	r0, r0, r0
  80:	00000028 	andeq	r0, r0, r8, lsr #32

Disassembly of section .rodata.str1.4:

00000000 <.rodata.str1.4>:
   0:	646e550a 	strbtvs	r5, [lr], #-1290	; 0xfffffaf6
   4:	6e696665 	cdpvs	6, 6, cr6, cr9, cr5, {3}
   8:	65206465 	strvs	r6, [r0, #-1125]!	; 0xfffffb9b
   c:	70656378 	rsbvc	r6, r5, r8, ror r3
  10:	6e6f6974 			; <UNDEFINED> instruction: 0x6e6f6974
  14:	20746120 	rsbscs	r6, r4, r0, lsr #2
  18:	72646461 	rsbvc	r6, r4, #1627389952	; 0x61000000
  1c:	3a737365 	bcc	1cdcdb8 <debug_exception+0x1cdcdb8>
  20:	0a702520 	beq	1c094a8 <debug_exception+0x1c094a8>
  24:	00000000 	andeq	r0, r0, r0
  28:	6572500a 	ldrbvs	r5, [r2, #-10]!
  2c:	63746566 	cmnvs	r4, #427819008	; 0x19800000
  30:	62612068 	rsbvs	r2, r1, #104	; 0x68
  34:	2074726f 	rsbscs	r7, r4, pc, ror #4
  38:	61207461 			; <UNDEFINED> instruction: 0x61207461
  3c:	65726464 	ldrbvs	r6, [r2, #-1124]!	; 0xfffffb9c
  40:	203a7373 	eorscs	r7, sl, r3, ror r3
  44:	000a7025 	andeq	r7, sl, r5, lsr #32
  48:	7461440a 	strbtvc	r4, [r1], #-1034	; 0xfffffbf6
  4c:	62612061 	rsbvs	r2, r1, #97	; 0x61
  50:	2074726f 	rsbscs	r7, r4, pc, ror #4
  54:	61207461 			; <UNDEFINED> instruction: 0x61207461
  58:	65726464 	ldrbvs	r6, [r2, #-1124]!	; 0xfffffb9c
  5c:	203a7373 	eorscs	r7, sl, r3, ror r3
  60:	000a7025 	andeq	r7, sl, r5, lsr #32
  64:	6b6e550a 	blvs	1b95494 <debug_exception+0x1b95494>
  68:	6e776f6e 	cdpvs	15, 7, cr6, cr7, cr14, {3}
  6c:	63786520 	cmnvs	r8, #32, 10	; 0x8000000
  70:	69747065 	ldmdbvs	r4!, {r0, r2, r5, r6, ip, sp, lr}^
  74:	20216e6f 	eorcs	r6, r1, pc, ror #28
  78:	5d64255b 	cfstr64pl	mvdx2, [r4, #-364]!	; 0xfffffe94
  7c:	Address 0x000000000000007c is out of bounds.


Disassembly of section .comment:

00000000 <.comment>:
   0:	43434700 	movtmi	r4, #14080	; 0x3700
   4:	4728203a 			; <UNDEFINED> instruction: 0x4728203a
   8:	2029554e 	eorcs	r5, r9, lr, asr #10
   c:	322e3031 	eorcc	r3, lr, #49	; 0x31
  10:	Address 0x0000000000000010 is out of bounds.


Disassembly of section .ARM.attributes:

00000000 <.ARM.attributes>:
   0:	00003241 	andeq	r3, r0, r1, asr #4
   4:	61656100 	cmnvs	r5, r0, lsl #2
   8:	01006962 	tsteq	r0, r2, ror #18
   c:	00000028 	andeq	r0, r0, r8, lsr #32
  10:	4b5a3605 	blmi	168d82c <debug_exception+0x168d82c>
  14:	08070600 	stmdaeq	r7, {r9, sl}
  18:	0a010901 	beq	42424 <debug_exception+0x42424>
  1c:	14041202 	strne	r1, [r4], #-514	; 0xfffffdfe
  20:	17011501 	strne	r1, [r1, -r1, lsl #10]
  24:	19011803 	stmdbne	r1, {r0, r1, fp, ip}
  28:	1c011a01 			; <UNDEFINED> instruction: 0x1c011a01
  2c:	22021e01 	andcs	r1, r2, #1, 28
  30:	Address 0x0000000000000030 is out of bounds.


debug_print_bits.o:     file format elf32-littlearm


Disassembly of section .text:

00000000 <debug_print_bits>:
   0:	e92d41f0 	push	{r4, r5, r6, r7, r8, lr}
   4:	e3a0401f 	mov	r4, #31
   8:	e3a05102 	mov	r5, #-2147483648	; 0x80000000
   c:	e1a06000 	mov	r6, r0
  10:	e59f7040 	ldr	r7, [pc, #64]	; 58 <debug_print_bits+0x58>
  14:	ea000003 	b	28 <debug_print_bits+0x28>
  18:	e2444001 	sub	r4, r4, #1
  1c:	e3740001 	cmn	r4, #1
  20:	e1a050a5 	lsr	r5, r5, #1
  24:	0a000008 	beq	4c <debug_print_bits+0x4c>
  28:	e1d53006 	bics	r3, r5, r6
  2c:	1afffff9 	bne	18 <debug_print_bits+0x18>
  30:	e1a01004 	mov	r1, r4
  34:	e1a00007 	mov	r0, r7
  38:	e2444001 	sub	r4, r4, #1
  3c:	ebfffffe 	bl	0 <printf>
  40:	e3740001 	cmn	r4, #1
  44:	e1a050a5 	lsr	r5, r5, #1
  48:	1afffff6 	bne	28 <debug_print_bits+0x28>
  4c:	e59f0008 	ldr	r0, [pc, #8]	; 5c <debug_print_bits+0x5c>
  50:	e8bd41f0 	pop	{r4, r5, r6, r7, r8, lr}
  54:	eafffffe 	b	0 <printf>
  58:	00000000 	andeq	r0, r0, r0
  5c:	00000008 	andeq	r0, r0, r8

Disassembly of section .rodata.str1.4:

00000000 <.rodata.str1.4>:
   0:	64322d25 	ldrtvs	r2, [r2], #-3365	; 0xfffff2db
   4:	00000020 	andeq	r0, r0, r0, lsr #32
   8:	Address 0x0000000000000008 is out of bounds.


Disassembly of section .comment:

00000000 <.comment>:
   0:	43434700 	movtmi	r4, #14080	; 0x3700
   4:	4728203a 			; <UNDEFINED> instruction: 0x4728203a
   8:	2029554e 	eorcs	r5, r9, lr, asr #10
   c:	322e3031 	eorcc	r3, lr, #49	; 0x31
  10:	Address 0x0000000000000010 is out of bounds.


Disassembly of section .ARM.attributes:

00000000 <.ARM.attributes>:
   0:	00003241 	andeq	r3, r0, r1, asr #4
   4:	61656100 	cmnvs	r5, r0, lsl #2
   8:	01006962 	tsteq	r0, r2, ror #18
   c:	00000028 	andeq	r0, r0, r8, lsr #32
  10:	4b5a3605 	blmi	168d82c <debug_print_bits+0x168d82c>
  14:	08070600 	stmdaeq	r7, {r9, sl}
  18:	0a010901 	beq	42424 <debug_print_bits+0x42424>
  1c:	14041202 	strne	r1, [r4], #-514	; 0xfffffdfe
  20:	17011501 	strne	r1, [r1, -r1, lsl #10]
  24:	19011803 	stmdbne	r1, {r0, r1, fp, ip}
  28:	1c011a01 			; <UNDEFINED> instruction: 0x1c011a01
  2c:	22021e01 	andcs	r1, r2, #1, 28
  30:	Address 0x0000000000000030 is out of bounds.

