In archive lib_h3/libws28xxdmx.a:

pixeldmxconfiguration.o:     file format elf32-littlearm


Disassembly of section .text._ZN21PixelDmxConfiguration8ValidateEjRjRN21pixeldmxconfiguration8PortInfoES0_S0_:

00000000 <PixelDmxConfiguration::Validate(unsigned int, unsigned int&, pixeldmxconfiguration::PortInfo&, unsigned int&, unsigned int&)>:
   0:	e92d43f7 	push	{r0, r1, r2, r4, r5, r6, r7, r8, r9, lr}
   4:	e1a04000 	mov	r4, r0
   8:	e59f0124 	ldr	r0, [pc, #292]	; 134 <PixelDmxConfiguration::Validate(unsigned int, unsigned int&, pixeldmxconfiguration::PortInfo&, unsigned int&, unsigned int&)+0x134>
   c:	e1a09002 	mov	r9, r2
  10:	e59f2120 	ldr	r2, [pc, #288]	; 138 <PixelDmxConfiguration::Validate(unsigned int, unsigned int&, pixeldmxconfiguration::PortInfo&, unsigned int&, unsigned int&)+0x138>
  14:	e1a06001 	mov	r6, r1
  18:	e59f111c 	ldr	r1, [pc, #284]	; 13c <PixelDmxConfiguration::Validate(unsigned int, unsigned int&, pixeldmxconfiguration::PortInfo&, unsigned int&, unsigned int&)+0x13c>
  1c:	e1a05003 	mov	r5, r3
  20:	e59d7028 	ldr	r7, [sp, #40]	; 0x28
  24:	e3a0302d 	mov	r3, #45	; 0x2d
  28:	e59d802c 	ldr	r8, [sp, #44]	; 0x2c
  2c:	ebfffffe 	bl	0 <printf>
  30:	e1a01009 	mov	r1, r9
  34:	e1a00004 	mov	r0, r4
  38:	ebfffffe 	bl	0 <PixelConfiguration::Validate(unsigned int&)>
  3c:	e5d43015 	ldrb	r3, [r4, #21]
  40:	e3530000 	cmp	r3, #0
  44:	1a000007 	bne	68 <PixelDmxConfiguration::Validate(unsigned int, unsigned int&, pixeldmxconfiguration::PortInfo&, unsigned int&, unsigned int&)+0x68>
  48:	e5942000 	ldr	r2, [r4]
  4c:	e1a00004 	mov	r0, r4
  50:	e242100b 	sub	r1, r2, #11
  54:	e3520000 	cmp	r2, #0
  58:	13510001 	cmpne	r1, #1
  5c:	e1a01009 	mov	r1, r9
  60:	85843000 	strhi	r3, [r4]
  64:	ebfffffe 	bl	0 <PixelConfiguration::Validate(unsigned int&)>
  68:	e5943000 	ldr	r3, [r4]
  6c:	e3530007 	cmp	r3, #7
  70:	e30031fe 	movw	r3, #510	; 0x1fe
  74:	13a02f55 	movne	r2, #340	; 0x154
  78:	03a02c01 	moveq	r2, #256	; 0x100
  7c:	03a03d06 	moveq	r3, #384	; 0x180
  80:	13a010aa 	movne	r1, #170	; 0xaa
  84:	03a01080 	moveq	r1, #128	; 0x80
  88:	e885000e 	stm	r5, {r1, r2, r3}
  8c:	e5942020 	ldr	r2, [r4, #32]
  90:	e5943004 	ldr	r3, [r4, #4]
  94:	e3520000 	cmp	r2, #0
  98:	0a000001 	beq	a4 <PixelDmxConfiguration::Validate(unsigned int, unsigned int&, pixeldmxconfiguration::PortInfo&, unsigned int&, unsigned int&)+0xa4>
  9c:	e1530002 	cmp	r3, r2
  a0:	2a000000 	bcs	a8 <PixelDmxConfiguration::Validate(unsigned int, unsigned int&, pixeldmxconfiguration::PortInfo&, unsigned int&, unsigned int&)+0xa8>
  a4:	e5843020 	str	r3, [r4, #32]
  a8:	e5942020 	ldr	r2, [r4, #32]
  ac:	e59f1084 	ldr	r1, [pc, #132]	; 138 <PixelDmxConfiguration::Validate(unsigned int, unsigned int&, pixeldmxconfiguration::PortInfo&, unsigned int&, unsigned int&)+0x138>
  b0:	e733f213 	udiv	r3, r3, r2
  b4:	e5873000 	str	r3, [r7]
  b8:	e594301c 	ldr	r3, [r4, #28]
  bc:	e59f007c 	ldr	r0, [pc, #124]	; 140 <PixelDmxConfiguration::Validate(unsigned int, unsigned int&, pixeldmxconfiguration::PortInfo&, unsigned int&, unsigned int&)+0x140>
  c0:	e1530006 	cmp	r3, r6
  c4:	9584301c 	strls	r3, [r4, #28]
  c8:	8584601c 	strhi	r6, [r4, #28]
  cc:	e3560001 	cmp	r6, #1
  d0:	e5953000 	ldr	r3, [r5]
  d4:	e5972000 	ldr	r2, [r7]
  d8:	e2833001 	add	r3, r3, #1
  dc:	e732f312 	udiv	r2, r2, r3
  e0:	e2822001 	add	r2, r2, #1
  e4:	e5882000 	str	r2, [r8]
  e8:	05953000 	ldreq	r3, [r5]
  ec:	05972000 	ldreq	r2, [r7]
  f0:	1594301c 	ldrne	r3, [r4, #28]
  f4:	02833001 	addeq	r3, r3, #1
  f8:	0732f312 	udiveq	r2, r2, r3
  fc:	10020293 	mulne	r2, r3, r2
 100:	e3a03057 	mov	r3, #87	; 0x57
 104:	12422001 	subne	r2, r2, #1
 108:	e585200c 	str	r2, [r5, #12]
 10c:	e58d2000 	str	r2, [sp]
 110:	e59f2024 	ldr	r2, [pc, #36]	; 13c <PixelDmxConfiguration::Validate(unsigned int, unsigned int&, pixeldmxconfiguration::PortInfo&, unsigned int&, unsigned int&)+0x13c>
 114:	ebfffffe 	bl	0 <printf>
 118:	e59f2018 	ldr	r2, [pc, #24]	; 138 <PixelDmxConfiguration::Validate(unsigned int, unsigned int&, pixeldmxconfiguration::PortInfo&, unsigned int&, unsigned int&)+0x138>
 11c:	e3a03058 	mov	r3, #88	; 0x58
 120:	e59f1014 	ldr	r1, [pc, #20]	; 13c <PixelDmxConfiguration::Validate(unsigned int, unsigned int&, pixeldmxconfiguration::PortInfo&, unsigned int&, unsigned int&)+0x13c>
 124:	e59f0018 	ldr	r0, [pc, #24]	; 144 <PixelDmxConfiguration::Validate(unsigned int, unsigned int&, pixeldmxconfiguration::PortInfo&, unsigned int&, unsigned int&)+0x144>
 128:	e28dd00c 	add	sp, sp, #12
 12c:	e8bd43f0 	pop	{r4, r5, r6, r7, r8, r9, lr}
 130:	eafffffe 	b	0 <printf>
 134:	00000027 	.word	0x00000027
 138:	00000000 	.word	0x00000000
 13c:	00000009 	.word	0x00000009
 140:	00000035 	.word	0x00000035
 144:	0000006b 	.word	0x0000006b

Disassembly of section .text._ZN21PixelDmxConfiguration4DumpEv:

00000000 <PixelDmxConfiguration::Dump()>:
   0:	e92d4010 	push	{r4, lr}
   4:	e1a04000 	mov	r4, r0
   8:	ebfffffe 	bl	0 <PixelConfiguration::Print()>
   c:	e594101c 	ldr	r1, [r4, #28]
  10:	e59f001c 	ldr	r0, [pc, #28]	; 34 <PixelDmxConfiguration::Dump()+0x34>
  14:	ebfffffe 	bl	0 <printf>
  18:	e5941020 	ldr	r1, [r4, #32]
  1c:	e59f0014 	ldr	r0, [pc, #20]	; 38 <PixelDmxConfiguration::Dump()+0x38>
  20:	ebfffffe 	bl	0 <printf>
  24:	e1d412b4 	ldrh	r1, [r4, #36]	; 0x24
  28:	e59f000c 	ldr	r0, [pc, #12]	; 3c <PixelDmxConfiguration::Dump()+0x3c>
  2c:	e8bd4010 	pop	{r4, lr}
  30:	eafffffe 	b	0 <printf>
  34:	00000000 	.word	0x00000000
  38:	0000000f 	.word	0x0000000f
  3c:	00000021 	.word	0x00000021

ws28xxdmx.o:     file format elf32-littlearm


Disassembly of section .text._ZN9WS28xxDmx18GetDmxStartAddressEv:

00000000 <WS28xxDmx::GetDmxStartAddress()>:
   0:	e1d002be 	ldrh	r0, [r0, #46]	; 0x2e
   4:	e12fff1e 	bx	lr

Disassembly of section .text._ZN9WS28xxDmx15GetDmxFootprintEv:

00000000 <WS28xxDmx::GetDmxFootprint()>:
   0:	e1d003b0 	ldrh	r0, [r0, #48]	; 0x30
   4:	e12fff1e 	bx	lr

Disassembly of section .text._ZN9WS28xxDmxD2Ev:

00000000 <WS28xxDmx::~WS28xxDmx()>:
   0:	e92d4070 	push	{r4, r5, r6, lr}
   4:	e1a04000 	mov	r4, r0
   8:	e59fc06c 	ldr	ip, [pc, #108]	; 7c <WS28xxDmx::~WS28xxDmx()+0x7c>
   c:	e3002000 	movw	r2, #0
  10:	e3402000 	movt	r2, #0
  14:	e3001000 	movw	r1, #0
  18:	e3401000 	movt	r1, #0
  1c:	e3000000 	movw	r0, #0
  20:	e3400000 	movt	r0, #0
  24:	e3a03046 	mov	r3, #70	; 0x46
  28:	e584c000 	str	ip, [r4]
  2c:	ebfffffe 	bl	0 <printf>
  30:	e5945034 	ldr	r5, [r4, #52]	; 0x34
  34:	e3550000 	cmp	r5, #0
  38:	0a000003 	beq	4c <WS28xxDmx::~WS28xxDmx()+0x4c>
  3c:	e1a00005 	mov	r0, r5
  40:	ebfffffe 	bl	0 <WS28xx::~WS28xx()>
  44:	e1a00005 	mov	r0, r5
  48:	ebfffffe 	bl	0 <operator delete(void*)>
  4c:	e3a0c000 	mov	ip, #0
  50:	e3002000 	movw	r2, #0
  54:	e3402000 	movt	r2, #0
  58:	e3001000 	movw	r1, #0
  5c:	e3401000 	movt	r1, #0
  60:	e3000000 	movw	r0, #0
  64:	e584c034 	str	ip, [r4, #52]	; 0x34
  68:	e3a0304b 	mov	r3, #75	; 0x4b
  6c:	e3400000 	movt	r0, #0
  70:	ebfffffe 	bl	0 <printf>
  74:	e1a00004 	mov	r0, r4
  78:	e8bd8070 	pop	{r4, r5, r6, pc}
  7c:	00000008 	.word	0x00000008

Disassembly of section .text._ZN9WS28xxDmxD0Ev:

00000000 <WS28xxDmx::~WS28xxDmx()>:
   0:	e92d4010 	push	{r4, lr}
   4:	e1a04000 	mov	r4, r0
   8:	ebfffffe 	bl	0 <WS28xxDmx::~WS28xxDmx()>
   c:	e1a00004 	mov	r0, r4
  10:	ebfffffe 	bl	0 <operator delete(void*)>
  14:	e1a00004 	mov	r0, r4
  18:	e8bd8010 	pop	{r4, pc}

Disassembly of section .text._ZN9WS28xxDmx8BlackoutEb:

00000000 <WS28xxDmx::Blackout(bool)>:
   0:	e92d4070 	push	{r4, r5, r6, lr}
   4:	e1a04000 	mov	r4, r0
   8:	e5c01041 	strb	r1, [r0, #65]	; 0x41
   c:	e1a05001 	mov	r5, r1
  10:	ebfffffe 	bl	0 <h3_spi_dma_tx_is_active>
  14:	e3500000 	cmp	r0, #0
  18:	1afffffc 	bne	10 <WS28xxDmx::Blackout(bool)+0x10>
  1c:	e5940034 	ldr	r0, [r4, #52]	; 0x34
  20:	e3550000 	cmp	r5, #0
  24:	0a000001 	beq	30 <WS28xxDmx::Blackout(bool)+0x30>
  28:	e8bd4070 	pop	{r4, r5, r6, lr}
  2c:	eafffffe 	b	0 <WS28xx::Blackout()>
  30:	e8bd4070 	pop	{r4, r5, r6, lr}
  34:	eafffffe 	b	0 <WS28xx::Update()>

Disassembly of section .text._ZN9WS28xxDmx7SetDataEjPKhj:

00000000 <WS28xxDmx::SetData(unsigned int, unsigned char const*, unsigned int)>:
   0:	e92d4ff0 	push	{r4, r5, r6, r7, r8, r9, sl, fp, lr}
   4:	e252b000 	subs	fp, r2, #0
   8:	e24dd014 	sub	sp, sp, #20
   c:	e1a06000 	mov	r6, r0
  10:	e1a08003 	mov	r8, r3
  14:	e58d100c 	str	r1, [sp, #12]
  18:	0a000072 	beq	1e8 <WS28xxDmx::SetData(unsigned int, unsigned char const*, unsigned int)+0x1e8>
  1c:	e3580c02 	cmp	r8, #512	; 0x200
  20:	8a00007a 	bhi	210 <WS28xxDmx::SetData(unsigned int, unsigned char const*, unsigned int)+0x210>
  24:	ebfffffe 	bl	0 <h3_spi_dma_tx_is_active>
  28:	e2504000 	subs	r4, r0, #0
  2c:	1a000040 	bne	134 <WS28xxDmx::SetData(unsigned int, unsigned char const*, unsigned int)+0x134>
  30:	e59d300c 	ldr	r3, [sp, #12]
  34:	e2033003 	and	r3, r3, #3
  38:	e3530002 	cmp	r3, #2
  3c:	0a000066 	beq	1dc <WS28xxDmx::SetData(unsigned int, unsigned char const*, unsigned int)+0x1dc>
  40:	e3530003 	cmp	r3, #3
  44:	0a000061 	beq	1d0 <WS28xxDmx::SetData(unsigned int, unsigned char const*, unsigned int)+0x1d0>
  48:	e3530001 	cmp	r3, #1
  4c:	e5963020 	ldr	r3, [r6, #32]
  50:	0a000039 	beq	13c <WS28xxDmx::SetData(unsigned int, unsigned char const*, unsigned int)+0x13c>
  54:	e739f318 	udiv	r9, r8, r3
  58:	e5962014 	ldr	r2, [r6, #20]
  5c:	e5961004 	ldr	r1, [r6, #4]
  60:	e1590002 	cmp	r9, r2
  64:	21a09002 	movcs	r9, r2
  68:	e1510002 	cmp	r1, r2
  6c:	91a07004 	movls	r7, r4
  70:	91a04007 	movls	r4, r7
  74:	81d622be 	ldrhhi	r2, [r6, #46]	; 0x2e
  78:	81a07004 	movhi	r7, r4
  7c:	82424001 	subhi	r4, r2, #1
  80:	e3530003 	cmp	r3, #3
  84:	0a000034 	beq	15c <WS28xxDmx::SetData(unsigned int, unsigned char const*, unsigned int)+0x15c>
  88:	e3530004 	cmp	r3, #4
  8c:	1a000068 	bne	234 <WS28xxDmx::SetData(unsigned int, unsigned char const*, unsigned int)+0x234>
  90:	e1540008 	cmp	r4, r8
  94:	31570009 	cmpcc	r7, r9
  98:	308b4004 	addcc	r4, fp, r4
  9c:	326bb004 	rsbcc	fp, fp, #4
  a0:	35963018 	ldrcc	r3, [r6, #24]
  a4:	2a000017 	bcs	108 <WS28xxDmx::SetData(unsigned int, unsigned char const*, unsigned int)+0x108>
  a8:	f5d4f000 	pld	[r4]
  ac:	e3530000 	cmp	r3, #0
  b0:	e00a0397 	mul	sl, r7, r3
  b4:	13a05000 	movne	r5, #0
  b8:	0a00000c 	beq	f0 <WS28xxDmx::SetData(unsigned int, unsigned char const*, unsigned int)+0xf0>
  bc:	e5d40003 	ldrb	r0, [r4, #3]
  c0:	e5d43001 	ldrb	r3, [r4, #1]
  c4:	e5d42000 	ldrb	r2, [r4]
  c8:	e58d0004 	str	r0, [sp, #4]
  cc:	e5d40002 	ldrb	r0, [r4, #2]
  d0:	e085100a 	add	r1, r5, sl
  d4:	e2855001 	add	r5, r5, #1
  d8:	e58d0000 	str	r0, [sp]
  dc:	e5960034 	ldr	r0, [r6, #52]	; 0x34
  e0:	ebfffffe 	bl	0 <WS28xx::SetPixel(unsigned int, unsigned char, unsigned char, unsigned char, unsigned char)>
  e4:	e5963018 	ldr	r3, [r6, #24]
  e8:	e1530005 	cmp	r3, r5
  ec:	8afffff2 	bhi	bc <WS28xxDmx::SetData(unsigned int, unsigned char const*, unsigned int)+0xbc>
  f0:	e08b2004 	add	r2, fp, r4
  f4:	e2877001 	add	r7, r7, #1
  f8:	e2844004 	add	r4, r4, #4
  fc:	e1580002 	cmp	r8, r2
 100:	81590007 	cmphi	r9, r7
 104:	8affffe7 	bhi	a8 <WS28xxDmx::SetData(unsigned int, unsigned char const*, unsigned int)+0xa8>
 108:	e5963010 	ldr	r3, [r6, #16]
 10c:	e59d200c 	ldr	r2, [sp, #12]
 110:	e1530002 	cmp	r3, r2
 114:	1a000006 	bne	134 <WS28xxDmx::SetData(unsigned int, unsigned char const*, unsigned int)+0x134>
 118:	e5d63041 	ldrb	r3, [r6, #65]	; 0x41
 11c:	e3530000 	cmp	r3, #0
 120:	1a000003 	bne	134 <WS28xxDmx::SetData(unsigned int, unsigned char const*, unsigned int)+0x134>
 124:	e5960034 	ldr	r0, [r6, #52]	; 0x34
 128:	e28dd014 	add	sp, sp, #20
 12c:	e8bd4ff0 	pop	{r4, r5, r6, r7, r8, r9, sl, fp, lr}
 130:	eafffffe 	b	0 <WS28xx::Update()>
 134:	e28dd014 	add	sp, sp, #20
 138:	e8bd8ff0 	pop	{r4, r5, r6, r7, r8, r9, sl, fp, pc}
 13c:	e5967004 	ldr	r7, [r6, #4]
 140:	e739f318 	udiv	r9, r8, r3
 144:	e5962014 	ldr	r2, [r6, #20]
 148:	e0899007 	add	r9, r9, r7
 14c:	e1590002 	cmp	r9, r2
 150:	21a09002 	movcs	r9, r2
 154:	e3530003 	cmp	r3, #3
 158:	1affffca 	bne	88 <WS28xxDmx::SetData(unsigned int, unsigned char const*, unsigned int)+0x88>
 15c:	e1540008 	cmp	r4, r8
 160:	31570009 	cmpcc	r7, r9
 164:	308b4004 	addcc	r4, fp, r4
 168:	326bb003 	rsbcc	fp, fp, #3
 16c:	35963018 	ldrcc	r3, [r6, #24]
 170:	2affffe4 	bcs	108 <WS28xxDmx::SetData(unsigned int, unsigned char const*, unsigned int)+0x108>
 174:	f5d4f000 	pld	[r4]
 178:	e3530000 	cmp	r3, #0
 17c:	e00a0397 	mul	sl, r7, r3
 180:	13a05000 	movne	r5, #0
 184:	0a00000a 	beq	1b4 <WS28xxDmx::SetData(unsigned int, unsigned char const*, unsigned int)+0x1b4>
 188:	e5d40002 	ldrb	r0, [r4, #2]
 18c:	e5d43001 	ldrb	r3, [r4, #1]
 190:	e08a1005 	add	r1, sl, r5
 194:	e2855001 	add	r5, r5, #1
 198:	e5d42000 	ldrb	r2, [r4]
 19c:	e58d0000 	str	r0, [sp]
 1a0:	e5960034 	ldr	r0, [r6, #52]	; 0x34
 1a4:	ebfffffe 	bl	0 <WS28xx::SetPixel(unsigned int, unsigned char, unsigned char, unsigned char)>
 1a8:	e5963018 	ldr	r3, [r6, #24]
 1ac:	e1530005 	cmp	r3, r5
 1b0:	8afffff4 	bhi	188 <WS28xxDmx::SetData(unsigned int, unsigned char const*, unsigned int)+0x188>
 1b4:	e08b2004 	add	r2, fp, r4
 1b8:	e2877001 	add	r7, r7, #1
 1bc:	e2844003 	add	r4, r4, #3
 1c0:	e1580002 	cmp	r8, r2
 1c4:	81590007 	cmphi	r9, r7
 1c8:	8affffe9 	bhi	174 <WS28xxDmx::SetData(unsigned int, unsigned char const*, unsigned int)+0x174>
 1cc:	eaffffcd 	b	108 <WS28xxDmx::SetData(unsigned int, unsigned char const*, unsigned int)+0x108>
 1d0:	e5963020 	ldr	r3, [r6, #32]
 1d4:	e596700c 	ldr	r7, [r6, #12]
 1d8:	eaffffd8 	b	140 <WS28xxDmx::SetData(unsigned int, unsigned char const*, unsigned int)+0x140>
 1dc:	e5963020 	ldr	r3, [r6, #32]
 1e0:	e5967008 	ldr	r7, [r6, #8]
 1e4:	eaffffd5 	b	140 <WS28xxDmx::SetData(unsigned int, unsigned char const*, unsigned int)+0x140>
 1e8:	e3003000 	movw	r3, #0
 1ec:	e3002000 	movw	r2, #0
 1f0:	e3403000 	movt	r3, #0
 1f4:	e3000000 	movw	r0, #0
 1f8:	e3402000 	movt	r2, #0
 1fc:	e3a01067 	mov	r1, #103	; 0x67
 200:	e3400000 	movt	r0, #0
 204:	ebfffffe 	bl	0 <__assert_func>
 208:	e3580c02 	cmp	r8, #512	; 0x200
 20c:	9affff84 	bls	24 <WS28xxDmx::SetData(unsigned int, unsigned char const*, unsigned int)+0x24>
 210:	e3003000 	movw	r3, #0
 214:	e3002000 	movw	r2, #0
 218:	e3403000 	movt	r3, #0
 21c:	e3000000 	movw	r0, #0
 220:	e3402000 	movt	r2, #0
 224:	e3a01068 	mov	r1, #104	; 0x68
 228:	e3400000 	movt	r0, #0
 22c:	ebfffffe 	bl	0 <__assert_func>
 230:	eaffff7b 	b	24 <WS28xxDmx::SetData(unsigned int, unsigned char const*, unsigned int)+0x24>
 234:	e3003000 	movw	r3, #0
 238:	e3002000 	movw	r2, #0
 23c:	e3403000 	movt	r3, #0
 240:	e3000000 	movw	r0, #0
 244:	e3402000 	movt	r2, #0
 248:	e3a01094 	mov	r1, #148	; 0x94
 24c:	e3400000 	movt	r0, #0
 250:	ebfffffe 	bl	0 <__assert_func>
 254:	eaffff8d 	b	90 <WS28xxDmx::SetData(unsigned int, unsigned char const*, unsigned int)+0x90>

Disassembly of section .text._ZN9WS28xxDmx6FullOnEv:

00000000 <WS28xxDmx::FullOn()>:
   0:	e92d4010 	push	{r4, lr}
   4:	e1a04000 	mov	r4, r0
   8:	ebfffffe 	bl	0 <h3_spi_dma_tx_is_active>
   c:	e3500000 	cmp	r0, #0
  10:	1afffffc 	bne	8 <WS28xxDmx::FullOn()+0x8>
  14:	e5940034 	ldr	r0, [r4, #52]	; 0x34
  18:	e8bd4010 	pop	{r4, lr}
  1c:	eafffffe 	b	0 <WS28xx::FullOn()>

Disassembly of section .text._ZN9WS28xxDmx5PrintEv:

00000000 <WS28xxDmx::Print()>:
   0:	e92d4010 	push	{r4, lr}
   4:	e1a04000 	mov	r4, r0
   8:	e5900034 	ldr	r0, [r0, #52]	; 0x34
   c:	ebfffffe 	bl	0 <PixelConfiguration::Print()>
  10:	e3000000 	movw	r0, #0
  14:	e3400000 	movt	r0, #0
  18:	ebfffffe 	bl	0 <printf>
  1c:	e5942014 	ldr	r2, [r4, #20]
  20:	e3000000 	movw	r0, #0
  24:	e5941018 	ldr	r1, [r4, #24]
  28:	e3400000 	movt	r0, #0
  2c:	e8bd4010 	pop	{r4, lr}
  30:	eafffffe 	b	0 <printf>

Disassembly of section .text._ZN9WS28xxDmx5StartEj:

00000000 <WS28xxDmx::Start(unsigned int)>:
   0:	e5d02040 	ldrb	r2, [r0, #64]	; 0x40
   4:	e1a03000 	mov	r3, r0
   8:	e3520000 	cmp	r2, #0
   c:	112fff1e 	bxne	lr
  10:	e590003c 	ldr	r0, [r0, #60]	; 0x3c
  14:	e3a02001 	mov	r2, #1
  18:	e5c32040 	strb	r2, [r3, #64]	; 0x40
  1c:	e3500000 	cmp	r0, #0
  20:	012fff1e 	bxeq	lr
  24:	e5903000 	ldr	r3, [r0]
  28:	e5933008 	ldr	r3, [r3, #8]
  2c:	e12fff13 	bx	r3

Disassembly of section .text._ZN9WS28xxDmx4StopEj:

00000000 <WS28xxDmx::Stop(unsigned int)>:
   0:	e5d02040 	ldrb	r2, [r0, #64]	; 0x40
   4:	e1a03000 	mov	r3, r0
   8:	e3520000 	cmp	r2, #0
   c:	012fff1e 	bxeq	lr
  10:	e590003c 	ldr	r0, [r0, #60]	; 0x3c
  14:	e3a02000 	mov	r2, #0
  18:	e5c32040 	strb	r2, [r3, #64]	; 0x40
  1c:	e1500002 	cmp	r0, r2
  20:	012fff1e 	bxeq	lr
  24:	e5903000 	ldr	r3, [r0]
  28:	e593300c 	ldr	r3, [r3, #12]
  2c:	e12fff13 	bx	r3

Disassembly of section .text._ZN9WS28xxDmx18SetDmxStartAddressEt:

00000000 <WS28xxDmx::SetDmxStartAddress(unsigned short)>:
   0:	e2413001 	sub	r3, r1, #1
   4:	e3530c02 	cmp	r3, #512	; 0x200
   8:	e92d4070 	push	{r4, r5, r6, lr}
   c:	e1a04001 	mov	r4, r1
  10:	e1a05000 	mov	r5, r0
  14:	2a000011 	bcs	60 <WS28xxDmx::SetDmxStartAddress(unsigned short)+0x60>
  18:	e1d032be 	ldrh	r3, [r0, #46]	; 0x2e
  1c:	e1530001 	cmp	r3, r1
  20:	0a00000c 	beq	58 <WS28xxDmx::SetDmxStartAddress(unsigned short)+0x58>
  24:	e1d033b0 	ldrh	r3, [r0, #48]	; 0x30
  28:	e0833001 	add	r3, r3, r1
  2c:	e3530c02 	cmp	r3, #512	; 0x200
  30:	da000001 	ble	3c <WS28xxDmx::SetDmxStartAddress(unsigned short)+0x3c>
  34:	e3a00000 	mov	r0, #0
  38:	e8bd8070 	pop	{r4, r5, r6, pc}
  3c:	e5900038 	ldr	r0, [r0, #56]	; 0x38
  40:	e1c512be 	strh	r1, [r5, #46]	; 0x2e
  44:	e3500000 	cmp	r0, #0
  48:	0a000002 	beq	58 <WS28xxDmx::SetDmxStartAddress(unsigned short)+0x58>
  4c:	e5903000 	ldr	r3, [r0]
  50:	e593301c 	ldr	r3, [r3, #28]
  54:	e12fff33 	blx	r3
  58:	e3a00001 	mov	r0, #1
  5c:	e8bd8070 	pop	{r4, r5, r6, pc}
  60:	e3003000 	movw	r3, #0
  64:	e3002000 	movw	r2, #0
  68:	e3403000 	movt	r3, #0
  6c:	e3000000 	movw	r0, #0
  70:	e3402000 	movt	r2, #0
  74:	e3a010c0 	mov	r1, #192	; 0xc0
  78:	e3400000 	movt	r0, #0
  7c:	ebfffffe 	bl	0 <__assert_func>
  80:	e1d532be 	ldrh	r3, [r5, #46]	; 0x2e
  84:	e1530004 	cmp	r3, r4
  88:	1affffe9 	bne	34 <WS28xxDmx::SetDmxStartAddress(unsigned short)+0x34>
  8c:	eafffff1 	b	58 <WS28xxDmx::SetDmxStartAddress(unsigned short)+0x58>

Disassembly of section .text._ZN9WS28xxDmx11GetSlotInfoEtRN8lightset8SlotInfoE:

00000000 <WS28xxDmx::GetSlotInfo(unsigned short, lightset::SlotInfo&)>:
   0:	e1d033b0 	ldrh	r3, [r0, #48]	; 0x30
   4:	e1530001 	cmp	r3, r1
   8:	3a00000b 	bcc	3c <WS28xxDmx::GetSlotInfo(unsigned short, lightset::SlotInfo&)+0x3c>
   c:	e3a03000 	mov	r3, #0
  10:	e5c23002 	strb	r3, [r2, #2]
  14:	e5903020 	ldr	r3, [r0, #32]
  18:	e730f311 	udiv	r0, r1, r3
  1c:	e0611093 	mls	r1, r3, r0, r1
  20:	e3510003 	cmp	r1, #3
  24:	979ff101 	ldrls	pc, [pc, r1, lsl #2]
  28:	ea000009 	b	54 <WS28xxDmx::GetSlotInfo(unsigned short, lightset::SlotInfo&)+0x54>
  2c:	00000064 	.word	0x00000064
  30:	00000074 	.word	0x00000074
  34:	00000044 	.word	0x00000044
  38:	00000054 	.word	0x00000054
  3c:	e3a00000 	mov	r0, #0
  40:	e12fff1e 	bx	lr
  44:	e3003207 	movw	r3, #519	; 0x207
  48:	e3a00001 	mov	r0, #1
  4c:	e1c230b0 	strh	r3, [r2]
  50:	e12fff1e 	bx	lr
  54:	e3003212 	movw	r3, #530	; 0x212
  58:	e3a00001 	mov	r0, #1
  5c:	e1c230b0 	strh	r3, [r2]
  60:	e12fff1e 	bx	lr
  64:	e3003205 	movw	r3, #517	; 0x205
  68:	e3a00001 	mov	r0, #1
  6c:	e1c230b0 	strh	r3, [r2]
  70:	e12fff1e 	bx	lr
  74:	e3003206 	movw	r3, #518	; 0x206
  78:	e3a00001 	mov	r0, #1
  7c:	e1c230b0 	strh	r3, [r2]
  80:	e12fff1e 	bx	lr

Disassembly of section .text._ZN9WS28xxDmxC2ER21PixelDmxConfiguration:

00000000 <WS28xxDmx::WS28xxDmx(PixelDmxConfiguration&)>:
   0:	e92d4070 	push	{r4, r5, r6, lr}
   4:	e1a04000 	mov	r4, r0
   8:	e59f3168 	ldr	r3, [pc, #360]	; 178 <WS28xxDmx::WS28xxDmx(PixelDmxConfiguration&)+0x178>
   c:	e3a00000 	mov	r0, #0
  10:	e1c402b4 	strh	r0, [r4, #36]	; 0x24
  14:	e3e02000 	mvn	r2, #0
  18:	e5843000 	str	r3, [r4]
  1c:	e3006000 	movw	r6, #0
  20:	e5840028 	str	r0, [r4, #40]	; 0x28
  24:	e3a03001 	mov	r3, #1
  28:	e5c4202c 	strb	r2, [r4, #44]	; 0x2c
  2c:	e1a05001 	mov	r5, r1
  30:	e1c432be 	strh	r3, [r4, #46]	; 0x2e
  34:	e3002000 	movw	r2, #0
  38:	e5840034 	str	r0, [r4, #52]	; 0x34
  3c:	e30031fe 	movw	r3, #510	; 0x1fe
  40:	e5840038 	str	r0, [r4, #56]	; 0x38
  44:	e3001000 	movw	r1, #0
  48:	e584003c 	str	r0, [r4, #60]	; 0x3c
  4c:	e24dd010 	sub	sp, sp, #16
  50:	e1c404b0 	strh	r0, [r4, #64]	; 0x40
  54:	e3000000 	movw	r0, #0
  58:	e3406000 	movt	r6, #0
  5c:	e1c433b0 	strh	r3, [r4, #48]	; 0x30
  60:	e3a0302d 	mov	r3, #45	; 0x2d
  64:	e3402000 	movt	r2, #0
  68:	e3401000 	movt	r1, #0
  6c:	e3400000 	movt	r0, #0
  70:	ebfffffe 	bl	0 <printf>
  74:	e5963000 	ldr	r3, [r6]
  78:	e3530000 	cmp	r3, #0
  7c:	1a000034 	bne	154 <WS28xxDmx::WS28xxDmx(PixelDmxConfiguration&)+0x154>
  80:	e5864000 	str	r4, [r6]
  84:	e284301c 	add	r3, r4, #28
  88:	e58d3004 	str	r3, [sp, #4]
  8c:	e2843014 	add	r3, r4, #20
  90:	e58d3000 	str	r3, [sp]
  94:	e2842020 	add	r2, r4, #32
  98:	e2843004 	add	r3, r4, #4
  9c:	e1a00005 	mov	r0, r5
  a0:	e3a01001 	mov	r1, #1
  a4:	ebfffffe 	bl	0 <PixelDmxConfiguration::Validate(unsigned int, unsigned int&, pixeldmxconfiguration::PortInfo&, unsigned int&, unsigned int&)>
  a8:	e594201c 	ldr	r2, [r4, #28]
  ac:	e3001000 	movw	r1, #0
  b0:	e5940020 	ldr	r0, [r4, #32]
  b4:	e5943014 	ldr	r3, [r4, #20]
  b8:	e58d2008 	str	r2, [sp, #8]
  bc:	e3002000 	movw	r2, #0
  c0:	e58d0000 	str	r0, [sp]
  c4:	e3000000 	movw	r0, #0
  c8:	e3402000 	movt	r2, #0
  cc:	e3401000 	movt	r1, #0
  d0:	e58d3004 	str	r3, [sp, #4]
  d4:	e3a03034 	mov	r3, #52	; 0x34
  d8:	e3400000 	movt	r0, #0
  dc:	ebfffffe 	bl	0 <printf>
  e0:	e3a00028 	mov	r0, #40	; 0x28
  e4:	ebfffffe 	bl	0 <operator new(unsigned int)>
  e8:	e1a06000 	mov	r6, r0
  ec:	e1a01005 	mov	r1, r5
  f0:	ebfffffe 	bl	0 <WS28xx::WS28xx(PixelConfiguration&)>
  f4:	e5846034 	str	r6, [r4, #52]	; 0x34
  f8:	e1a00006 	mov	r0, r6
  fc:	ebfffffe 	bl	0 <WS28xx::Blackout()>
 100:	e5942014 	ldr	r2, [r4, #20]
 104:	e1a00005 	mov	r0, r5
 108:	e5943020 	ldr	r3, [r4, #32]
 10c:	e5951020 	ldr	r1, [r5, #32]
 110:	e1630283 	smulbb	r3, r3, r2
 114:	e1d522b4 	ldrh	r2, [r5, #36]	; 0x24
 118:	e5841018 	str	r1, [r4, #24]
 11c:	e1c433b0 	strh	r3, [r4, #48]	; 0x30
 120:	e1c422be 	strh	r2, [r4, #46]	; 0x2e
 124:	ebfffffe 	bl	0 <PixelDmxConfiguration::Dump()>
 128:	e3002000 	movw	r2, #0
 12c:	e3001000 	movw	r1, #0
 130:	e3402000 	movt	r2, #0
 134:	e3000000 	movw	r0, #0
 138:	e3401000 	movt	r1, #0
 13c:	e3a03042 	mov	r3, #66	; 0x42
 140:	e3400000 	movt	r0, #0
 144:	ebfffffe 	bl	0 <printf>
 148:	e1a00004 	mov	r0, r4
 14c:	e28dd010 	add	sp, sp, #16
 150:	e8bd8070 	pop	{r4, r5, r6, pc}
 154:	e3003000 	movw	r3, #0
 158:	e3002000 	movw	r2, #0
 15c:	e3403000 	movt	r3, #0
 160:	e3000000 	movw	r0, #0
 164:	e3402000 	movt	r2, #0
 168:	e3a0102f 	mov	r1, #47	; 0x2f
 16c:	e3400000 	movt	r0, #0
 170:	ebfffffe 	bl	0 <__assert_func>
 174:	eaffffc1 	b	80 <WS28xxDmx::WS28xxDmx(PixelDmxConfiguration&)+0x80>
 178:	00000008 	.word	0x00000008

ws28xxdmxmulti.o:     file format elf32-littlearm


Disassembly of section .text._ZN14WS28xxDmxMulti18SetDmxStartAddressEt:

00000000 <WS28xxDmxMulti::SetDmxStartAddress(unsigned short)>:
   0:	e3a00000 	mov	r0, #0
   4:	e12fff1e 	bx	lr

Disassembly of section .text._ZN14WS28xxDmxMulti18GetDmxStartAddressEv:

00000000 <WS28xxDmxMulti::GetDmxStartAddress()>:
   0:	e30f0fff 	movw	r0, #65535	; 0xffff
   4:	e12fff1e 	bx	lr

Disassembly of section .text._ZN14WS28xxDmxMulti15GetDmxFootprintEv:

00000000 <WS28xxDmxMulti::GetDmxFootprint()>:
   0:	e3a00000 	mov	r0, #0
   4:	e12fff1e 	bx	lr

Disassembly of section .text._ZN14WS28xxDmxMulti5StartEj:

00000000 <WS28xxDmxMulti::Start(unsigned int)>:
   0:	e92d4030 	push	{r4, r5, lr}
   4:	e24dd00c 	sub	sp, sp, #12
   8:	e1a04000 	mov	r4, r0
   c:	e1a05001 	mov	r5, r1
  10:	e58d1000 	str	r1, [sp]
  14:	e3002000 	movw	r2, #0
  18:	e3402000 	movt	r2, #0
  1c:	e3001000 	movw	r1, #0
  20:	e3401000 	movt	r1, #0
  24:	e3000000 	movw	r0, #0
  28:	e3400000 	movt	r0, #0
  2c:	e3a0304c 	mov	r3, #76	; 0x4c
  30:	ebfffffe 	bl	0 <printf>
  34:	e5943030 	ldr	r3, [r4, #48]	; 0x30
  38:	e3530000 	cmp	r3, #0
  3c:	1a000006 	bne	5c <WS28xxDmxMulti::Start(unsigned int)+0x5c>
  40:	e594002c 	ldr	r0, [r4, #44]	; 0x2c
  44:	e3500000 	cmp	r0, #0
  48:	0a000003 	beq	5c <WS28xxDmxMulti::Start(unsigned int)+0x5c>
  4c:	e5903000 	ldr	r3, [r0]
  50:	e5933008 	ldr	r3, [r3, #8]
  54:	e12fff33 	blx	r3
  58:	e5943030 	ldr	r3, [r4, #48]	; 0x30
  5c:	e3a02001 	mov	r2, #1
  60:	e1833512 	orr	r3, r3, r2, lsl r5
  64:	e5843030 	str	r3, [r4, #48]	; 0x30
  68:	e28dd00c 	add	sp, sp, #12
  6c:	e8bd8030 	pop	{r4, r5, pc}

Disassembly of section .text._ZN14WS28xxDmxMultiD2Ev:

00000000 <WS28xxDmxMulti::~WS28xxDmxMulti()>:
   0:	e92d4070 	push	{r4, r5, r6, lr}
   4:	e1a04000 	mov	r4, r0
   8:	e5905028 	ldr	r5, [r0, #40]	; 0x28
   c:	e59f3020 	ldr	r3, [pc, #32]	; 34 <WS28xxDmxMulti::~WS28xxDmxMulti()+0x34>
  10:	e3550000 	cmp	r5, #0
  14:	e5803000 	str	r3, [r0]
  18:	0a000003 	beq	2c <WS28xxDmxMulti::~WS28xxDmxMulti()+0x2c>
  1c:	e1a00005 	mov	r0, r5
  20:	ebfffffe 	bl	0 <WS28xxMulti::~WS28xxMulti()>
  24:	e1a00005 	mov	r0, r5
  28:	ebfffffe 	bl	0 <operator delete(void*)>
  2c:	e1a00004 	mov	r0, r4
  30:	e8bd8070 	pop	{r4, r5, r6, pc}
  34:	00000008 	.word	0x00000008

Disassembly of section .text._ZN14WS28xxDmxMulti8BlackoutEb:

00000000 <WS28xxDmxMulti::Blackout(bool)>:
   0:	e92d4070 	push	{r4, r5, r6, lr}
   4:	e1a04000 	mov	r4, r0
   8:	e5c01034 	strb	r1, [r0, #52]	; 0x34
   c:	e1a05001 	mov	r5, r1
  10:	ebfffffe 	bl	0 <h3_spi_dma_tx_is_active>
  14:	e3500000 	cmp	r0, #0
  18:	1afffffc 	bne	10 <WS28xxDmxMulti::Blackout(bool)+0x10>
  1c:	e5940028 	ldr	r0, [r4, #40]	; 0x28
  20:	e3550000 	cmp	r5, #0
  24:	0a000001 	beq	30 <WS28xxDmxMulti::Blackout(bool)+0x30>
  28:	e8bd4070 	pop	{r4, r5, r6, lr}
  2c:	eafffffe 	b	0 <WS28xxMulti::Blackout()>
  30:	e8bd4070 	pop	{r4, r5, r6, lr}
  34:	eafffffe 	b	0 <WS28xxMulti::Update()>

Disassembly of section .text._ZN14WS28xxDmxMulti7SetDataEjPKhj:

00000000 <WS28xxDmxMulti::SetData(unsigned int, unsigned char const*, unsigned int)>:
   0:	e92d4ff0 	push	{r4, r5, r6, r7, r8, r9, sl, fp, lr}
   4:	e2524000 	subs	r4, r2, #0
   8:	e24dd01c 	sub	sp, sp, #28
   c:	e1a06000 	mov	r6, r0
  10:	e1a0b003 	mov	fp, r3
  14:	e58d1014 	str	r1, [sp, #20]
  18:	0a00007b 	beq	20c <WS28xxDmxMulti::SetData(unsigned int, unsigned char const*, unsigned int)+0x20c>
  1c:	e35b0c02 	cmp	fp, #512	; 0x200
  20:	8a000083 	bhi	234 <WS28xxDmxMulti::SetData(unsigned int, unsigned char const*, unsigned int)+0x234>
  24:	e596901c 	ldr	r9, [r6, #28]
  28:	e59d3014 	ldr	r3, [sp, #20]
  2c:	e596a020 	ldr	sl, [r6, #32]
  30:	e737f913 	udiv	r7, r3, r9
  34:	e0693799 	mls	r9, r9, r7, r3
  38:	e73afa1b 	udiv	sl, fp, sl
  3c:	e3590003 	cmp	r9, #3
  40:	979ff109 	ldrls	pc, [pc, r9, lsl #2]
  44:	ea000040 	b	14c <WS28xxDmxMulti::SetData(unsigned int, unsigned char const*, unsigned int)+0x14c>
  48:	00000060 	.word	0x00000060
  4c:	00000144 	.word	0x00000144
  50:	00000058 	.word	0x00000058
  54:	0000014c 	.word	0x0000014c
  58:	e5969008 	ldr	r9, [r6, #8]
  5c:	e08aa009 	add	sl, sl, r9
  60:	e5963014 	ldr	r3, [r6, #20]
  64:	e15a0003 	cmp	sl, r3
  68:	21a0a003 	movcs	sl, r3
  6c:	ebfffffe 	bl	0 <h3_spi_dma_tx_is_active>
  70:	e3500000 	cmp	r0, #0
  74:	1afffffc 	bne	6c <WS28xxDmxMulti::SetData(unsigned int, unsigned char const*, unsigned int)+0x6c>
  78:	e5963020 	ldr	r3, [r6, #32]
  7c:	e3530003 	cmp	r3, #3
  80:	0a000033 	beq	154 <WS28xxDmxMulti::SetData(unsigned int, unsigned char const*, unsigned int)+0x154>
  84:	e3530004 	cmp	r3, #4
  88:	1a000072 	bne	258 <WS28xxDmxMulti::SetData(unsigned int, unsigned char const*, unsigned int)+0x258>
  8c:	e35b0000 	cmp	fp, #0
  90:	1159000a 	cmpne	r9, sl
  94:	32642004 	rsbcc	r2, r4, #4
  98:	35963018 	ldrcc	r3, [r6, #24]
  9c:	358d2010 	strcc	r2, [sp, #16]
  a0:	2a000021 	bcs	12c <WS28xxDmxMulti::SetData(unsigned int, unsigned char const*, unsigned int)+0x12c>
  a4:	f5d4f000 	pld	[r4]
  a8:	e3530000 	cmp	r3, #0
  ac:	13a05000 	movne	r5, #0
  b0:	e0080993 	mul	r8, r3, r9
  b4:	11a02005 	movne	r2, r5
  b8:	0a000010 	beq	100 <WS28xxDmxMulti::SetData(unsigned int, unsigned char const*, unsigned int)+0x100>
  bc:	e5d41003 	ldrb	r1, [r4, #3]
  c0:	e2855001 	add	r5, r5, #1
  c4:	e5d43000 	ldrb	r3, [r4]
  c8:	e6ff5075 	uxth	r5, r5
  cc:	e58d1008 	str	r1, [sp, #8]
  d0:	e5d41002 	ldrb	r1, [r4, #2]
  d4:	e0882002 	add	r2, r8, r2
  d8:	e58d1004 	str	r1, [sp, #4]
  dc:	e5d41001 	ldrb	r1, [r4, #1]
  e0:	e58d1000 	str	r1, [sp]
  e4:	e1a01007 	mov	r1, r7
  e8:	e5960028 	ldr	r0, [r6, #40]	; 0x28
  ec:	ebfffffe 	bl	0 <WS28xxMulti::SetPixel(unsigned int, unsigned int, unsigned char, unsigned char, unsigned char, unsigned char)>
  f0:	e5963018 	ldr	r3, [r6, #24]
  f4:	e1a02005 	mov	r2, r5
  f8:	e1550003 	cmp	r5, r3
  fc:	3affffee 	bcc	bc <WS28xxDmxMulti::SetData(unsigned int, unsigned char const*, unsigned int)+0xbc>
 100:	e59d2010 	ldr	r2, [sp, #16]
 104:	e2899001 	add	r9, r9, #1
 108:	e0822004 	add	r2, r2, r4
 10c:	e2844004 	add	r4, r4, #4
 110:	e15b0002 	cmp	fp, r2
 114:	93a02000 	movls	r2, #0
 118:	83a02001 	movhi	r2, #1
 11c:	e159000a 	cmp	r9, sl
 120:	23a02000 	movcs	r2, #0
 124:	e3520000 	cmp	r2, #0
 128:	1affffdd 	bne	a4 <WS28xxDmxMulti::SetData(unsigned int, unsigned char const*, unsigned int)+0xa4>
 12c:	e5963010 	ldr	r3, [r6, #16]
 130:	e59d2014 	ldr	r2, [sp, #20]
 134:	e1530002 	cmp	r3, r2
 138:	0a00002f 	beq	1fc <WS28xxDmxMulti::SetData(unsigned int, unsigned char const*, unsigned int)+0x1fc>
 13c:	e28dd01c 	add	sp, sp, #28
 140:	e8bd8ff0 	pop	{r4, r5, r6, r7, r8, r9, sl, fp, pc}
 144:	e5969004 	ldr	r9, [r6, #4]
 148:	eaffffc3 	b	5c <WS28xxDmxMulti::SetData(unsigned int, unsigned char const*, unsigned int)+0x5c>
 14c:	e596900c 	ldr	r9, [r6, #12]
 150:	eaffffc1 	b	5c <WS28xxDmxMulti::SetData(unsigned int, unsigned char const*, unsigned int)+0x5c>
 154:	e35b0000 	cmp	fp, #0
 158:	1159000a 	cmpne	r9, sl
 15c:	32642003 	rsbcc	r2, r4, #3
 160:	35963018 	ldrcc	r3, [r6, #24]
 164:	358d2010 	strcc	r2, [sp, #16]
 168:	2affffef 	bcs	12c <WS28xxDmxMulti::SetData(unsigned int, unsigned char const*, unsigned int)+0x12c>
 16c:	f5d4f000 	pld	[r4]
 170:	e3530000 	cmp	r3, #0
 174:	13a05000 	movne	r5, #0
 178:	e0080993 	mul	r8, r3, r9
 17c:	11a02005 	movne	r2, r5
 180:	0a00000e 	beq	1c0 <WS28xxDmxMulti::SetData(unsigned int, unsigned char const*, unsigned int)+0x1c0>
 184:	e5d41002 	ldrb	r1, [r4, #2]
 188:	e2855001 	add	r5, r5, #1
 18c:	e5d43000 	ldrb	r3, [r4]
 190:	e6ff5075 	uxth	r5, r5
 194:	e58d1004 	str	r1, [sp, #4]
 198:	e5d41001 	ldrb	r1, [r4, #1]
 19c:	e0822008 	add	r2, r2, r8
 1a0:	e58d1000 	str	r1, [sp]
 1a4:	e1a01007 	mov	r1, r7
 1a8:	e5960028 	ldr	r0, [r6, #40]	; 0x28
 1ac:	ebfffffe 	bl	0 <WS28xxMulti::SetPixel(unsigned int, unsigned int, unsigned char, unsigned char, unsigned char)>
 1b0:	e5963018 	ldr	r3, [r6, #24]
 1b4:	e1a02005 	mov	r2, r5
 1b8:	e1550003 	cmp	r5, r3
 1bc:	3afffff0 	bcc	184 <WS28xxDmxMulti::SetData(unsigned int, unsigned char const*, unsigned int)+0x184>
 1c0:	e59d2010 	ldr	r2, [sp, #16]
 1c4:	e2899001 	add	r9, r9, #1
 1c8:	e0822004 	add	r2, r2, r4
 1cc:	e2844003 	add	r4, r4, #3
 1d0:	e15b0002 	cmp	fp, r2
 1d4:	93a02000 	movls	r2, #0
 1d8:	83a02001 	movhi	r2, #1
 1dc:	e159000a 	cmp	r9, sl
 1e0:	23a02000 	movcs	r2, #0
 1e4:	e3520000 	cmp	r2, #0
 1e8:	1affffdf 	bne	16c <WS28xxDmxMulti::SetData(unsigned int, unsigned char const*, unsigned int)+0x16c>
 1ec:	e5963010 	ldr	r3, [r6, #16]
 1f0:	e59d2014 	ldr	r2, [sp, #20]
 1f4:	e1530002 	cmp	r3, r2
 1f8:	1affffcf 	bne	13c <WS28xxDmxMulti::SetData(unsigned int, unsigned char const*, unsigned int)+0x13c>
 1fc:	e5960028 	ldr	r0, [r6, #40]	; 0x28
 200:	e28dd01c 	add	sp, sp, #28
 204:	e8bd4ff0 	pop	{r4, r5, r6, r7, r8, r9, sl, fp, lr}
 208:	eafffffe 	b	0 <WS28xxMulti::Update()>
 20c:	e3003000 	movw	r3, #0
 210:	e3002000 	movw	r2, #0
 214:	e3403000 	movt	r3, #0
 218:	e3000000 	movw	r0, #0
 21c:	e3402000 	movt	r2, #0
 220:	e3a01067 	mov	r1, #103	; 0x67
 224:	e3400000 	movt	r0, #0
 228:	ebfffffe 	bl	0 <__assert_func>
 22c:	e35b0c02 	cmp	fp, #512	; 0x200
 230:	9affff7b 	bls	24 <WS28xxDmxMulti::SetData(unsigned int, unsigned char const*, unsigned int)+0x24>
 234:	e3003000 	movw	r3, #0
 238:	e3002000 	movw	r2, #0
 23c:	e3403000 	movt	r3, #0
 240:	e3000000 	movw	r0, #0
 244:	e3402000 	movt	r2, #0
 248:	e3a01068 	mov	r1, #104	; 0x68
 24c:	e3400000 	movt	r0, #0
 250:	ebfffffe 	bl	0 <__assert_func>
 254:	eaffff72 	b	24 <WS28xxDmxMulti::SetData(unsigned int, unsigned char const*, unsigned int)+0x24>
 258:	e3003000 	movw	r3, #0
 25c:	e3002000 	movw	r2, #0
 260:	e3403000 	movt	r3, #0
 264:	e3000000 	movw	r0, #0
 268:	e3402000 	movt	r2, #0
 26c:	e3a0109c 	mov	r1, #156	; 0x9c
 270:	e3400000 	movt	r0, #0
 274:	ebfffffe 	bl	0 <__assert_func>
 278:	eaffff83 	b	8c <WS28xxDmxMulti::SetData(unsigned int, unsigned char const*, unsigned int)+0x8c>

Disassembly of section .text._ZN14WS28xxDmxMulti6FullOnEv:

00000000 <WS28xxDmxMulti::FullOn()>:
   0:	e92d4010 	push	{r4, lr}
   4:	e1a04000 	mov	r4, r0
   8:	ebfffffe 	bl	0 <h3_spi_dma_tx_is_active>
   c:	e3500000 	cmp	r0, #0
  10:	1afffffc 	bne	8 <WS28xxDmxMulti::FullOn()+0x8>
  14:	e5940028 	ldr	r0, [r4, #40]	; 0x28
  18:	e8bd4010 	pop	{r4, lr}
  1c:	eafffffe 	b	0 <WS28xxMulti::FullOn()>

Disassembly of section .text._ZN14WS28xxDmxMulti5PrintEv:

00000000 <WS28xxDmxMulti::Print()>:
   0:	e92d4010 	push	{r4, lr}
   4:	e1a04000 	mov	r4, r0
   8:	e5900028 	ldr	r0, [r0, #40]	; 0x28
   c:	ebfffffe 	bl	0 <WS28xxMulti::Print()>
  10:	e3000000 	movw	r0, #0
  14:	e3400000 	movt	r0, #0
  18:	ebfffffe 	bl	0 <printf>
  1c:	e5941024 	ldr	r1, [r4, #36]	; 0x24
  20:	e3000000 	movw	r0, #0
  24:	e3400000 	movt	r0, #0
  28:	ebfffffe 	bl	0 <printf>
  2c:	e5942014 	ldr	r2, [r4, #20]
  30:	e3000000 	movw	r0, #0
  34:	e5941018 	ldr	r1, [r4, #24]
  38:	e3400000 	movt	r0, #0
  3c:	e8bd4010 	pop	{r4, lr}
  40:	eafffffe 	b	0 <printf>

Disassembly of section .text._ZN14WS28xxDmxMulti4StopEj:

00000000 <WS28xxDmxMulti::Stop(unsigned int)>:
   0:	e92d4030 	push	{r4, r5, lr}
   4:	e24dd00c 	sub	sp, sp, #12
   8:	e1a04001 	mov	r4, r1
   c:	e1a05000 	mov	r5, r0
  10:	e58d1000 	str	r1, [sp]
  14:	e3002000 	movw	r2, #0
  18:	e3402000 	movt	r2, #0
  1c:	e3001000 	movw	r1, #0
  20:	e3401000 	movt	r1, #0
  24:	e3000000 	movw	r0, #0
  28:	e3400000 	movt	r0, #0
  2c:	e3a03057 	mov	r3, #87	; 0x57
  30:	ebfffffe 	bl	0 <printf>
  34:	e5953030 	ldr	r3, [r5, #48]	; 0x30
  38:	e1a02433 	lsr	r2, r3, r4
  3c:	e3120001 	tst	r2, #1
  40:	13a02001 	movne	r2, #1
  44:	11c33412 	bicne	r3, r3, r2, lsl r4
  48:	15853030 	strne	r3, [r5, #48]	; 0x30
  4c:	e3530000 	cmp	r3, #0
  50:	1a000007 	bne	74 <WS28xxDmxMulti::Stop(unsigned int)+0x74>
  54:	e595002c 	ldr	r0, [r5, #44]	; 0x2c
  58:	e3500000 	cmp	r0, #0
  5c:	0a000004 	beq	74 <WS28xxDmxMulti::Stop(unsigned int)+0x74>
  60:	e5903000 	ldr	r3, [r0]
  64:	e593300c 	ldr	r3, [r3, #12]
  68:	e28dd00c 	add	sp, sp, #12
  6c:	e8bd4030 	pop	{r4, r5, lr}
  70:	e12fff13 	bx	r3
  74:	e28dd00c 	add	sp, sp, #12
  78:	e8bd8030 	pop	{r4, r5, pc}

Disassembly of section .text._ZN14WS28xxDmxMultiD0Ev:

00000000 <WS28xxDmxMulti::~WS28xxDmxMulti()>:
   0:	e92d4070 	push	{r4, r5, r6, lr}
   4:	e1a04000 	mov	r4, r0
   8:	e5905028 	ldr	r5, [r0, #40]	; 0x28
   c:	e59f3028 	ldr	r3, [pc, #40]	; 3c <WS28xxDmxMulti::~WS28xxDmxMulti()+0x3c>
  10:	e3550000 	cmp	r5, #0
  14:	e5803000 	str	r3, [r0]
  18:	0a000003 	beq	2c <WS28xxDmxMulti::~WS28xxDmxMulti()+0x2c>
  1c:	e1a00005 	mov	r0, r5
  20:	ebfffffe 	bl	0 <WS28xxMulti::~WS28xxMulti()>
  24:	e1a00005 	mov	r0, r5
  28:	ebfffffe 	bl	0 <operator delete(void*)>
  2c:	e1a00004 	mov	r0, r4
  30:	ebfffffe 	bl	0 <operator delete(void*)>
  34:	e1a00004 	mov	r0, r4
  38:	e8bd8070 	pop	{r4, r5, r6, pc}
  3c:	00000008 	.word	0x00000008

Disassembly of section .text._ZN14WS28xxDmxMultiC2ER21PixelDmxConfiguration:

00000000 <WS28xxDmxMulti::WS28xxDmxMulti(PixelDmxConfiguration&)>:
   0:	e59f20fc 	ldr	r2, [pc, #252]	; 104 <WS28xxDmxMulti::WS28xxDmxMulti(PixelDmxConfiguration&)+0x104>
   4:	e3a03000 	mov	r3, #0
   8:	e92d41f0 	push	{r4, r5, r6, r7, r8, lr}
   c:	e3007000 	movw	r7, #0
  10:	e3407000 	movt	r7, #0
  14:	e3006000 	movw	r6, #0
  18:	e3406000 	movt	r6, #0
  1c:	e1a04000 	mov	r4, r0
  20:	e5802000 	str	r2, [r0]
  24:	e24dd010 	sub	sp, sp, #16
  28:	e5803028 	str	r3, [r0, #40]	; 0x28
  2c:	e1a05001 	mov	r5, r1
  30:	e580302c 	str	r3, [r0, #44]	; 0x2c
  34:	e1a02007 	mov	r2, r7
  38:	e5803030 	str	r3, [r0, #48]	; 0x30
  3c:	e1a01006 	mov	r1, r6
  40:	e5c03034 	strb	r3, [r0, #52]	; 0x34
  44:	e3000000 	movw	r0, #0
  48:	e3400000 	movt	r0, #0
  4c:	e3a03033 	mov	r3, #51	; 0x33
  50:	ebfffffe 	bl	0 <printf>
  54:	e284301c 	add	r3, r4, #28
  58:	e2842020 	add	r2, r4, #32
  5c:	e58d3004 	str	r3, [sp, #4]
  60:	e2843014 	add	r3, r4, #20
  64:	e58d3000 	str	r3, [sp]
  68:	e1a00005 	mov	r0, r5
  6c:	e2843004 	add	r3, r4, #4
  70:	e3a01008 	mov	r1, #8
  74:	ebfffffe 	bl	0 <PixelDmxConfiguration::Validate(unsigned int, unsigned int&, pixeldmxconfiguration::PortInfo&, unsigned int&, unsigned int&)>
  78:	e594301c 	ldr	r3, [r4, #28]
  7c:	e3000000 	movw	r0, #0
  80:	e3400000 	movt	r0, #0
  84:	e1a02006 	mov	r2, r6
  88:	e58d3008 	str	r3, [sp, #8]
  8c:	e1a01007 	mov	r1, r7
  90:	e5943014 	ldr	r3, [r4, #20]
  94:	e58d3004 	str	r3, [sp, #4]
  98:	e5943020 	ldr	r3, [r4, #32]
  9c:	e58d3000 	str	r3, [sp]
  a0:	e3a03037 	mov	r3, #55	; 0x37
  a4:	ebfffffe 	bl	0 <printf>
  a8:	e3a00024 	mov	r0, #36	; 0x24
  ac:	ebfffffe 	bl	0 <operator new(unsigned int)>
  b0:	e1a08000 	mov	r8, r0
  b4:	e1a01005 	mov	r1, r5
  b8:	ebfffffe 	bl	0 <WS28xxMulti::WS28xxMulti(PixelConfiguration&)>
  bc:	e5848028 	str	r8, [r4, #40]	; 0x28
  c0:	e1a00008 	mov	r0, r8
  c4:	ebfffffe 	bl	0 <WS28xxMulti::Blackout()>
  c8:	e5953020 	ldr	r3, [r5, #32]
  cc:	e1a00005 	mov	r0, r5
  d0:	e5843018 	str	r3, [r4, #24]
  d4:	e595301c 	ldr	r3, [r5, #28]
  d8:	e5843024 	str	r3, [r4, #36]	; 0x24
  dc:	ebfffffe 	bl	0 <PixelDmxConfiguration::Dump()>
  e0:	e3000000 	movw	r0, #0
  e4:	e3a03043 	mov	r3, #67	; 0x43
  e8:	e3400000 	movt	r0, #0
  ec:	e1a02007 	mov	r2, r7
  f0:	e1a01006 	mov	r1, r6
  f4:	ebfffffe 	bl	0 <printf>
  f8:	e1a00004 	mov	r0, r4
  fc:	e28dd010 	add	sp, sp, #16
 100:	e8bd81f0 	pop	{r4, r5, r6, r7, r8, pc}
 104:	00000008 	.word	0x00000008

pixeldmxparams.o:     file format elf32-littlearm


Disassembly of section .text._ZN17PropertiesBuilder3AddIhEEbPKcT_bj.isra.0:

00000000 <bool PropertiesBuilder::Add<unsigned char>(char const*, unsigned char, bool, unsigned int) [clone .isra.0]>:
   0:	e1d0c0b6 	ldrh	ip, [r0, #6]
   4:	e92d4037 	push	{r0, r1, r2, r4, r5, lr}
   8:	e1d050b4 	ldrh	r5, [r0, #4]
   c:	e15c0005 	cmp	ip, r5
  10:	2a00001c 	bcs	88 <bool PropertiesBuilder::Add<unsigned char>(char const*, unsigned char, bool, unsigned int) [clone .isra.0]+0x88>
  14:	e045500c 	sub	r5, r5, ip
  18:	e1a04000 	mov	r4, r0
  1c:	e5900000 	ldr	r0, [r0]
  20:	e3530000 	cmp	r3, #0
  24:	e080000c 	add	r0, r0, ip
  28:	e5d4c008 	ldrb	ip, [r4, #8]
  2c:	1a000002 	bne	3c <bool PropertiesBuilder::Add<unsigned char>(char const*, unsigned char, bool, unsigned int) [clone .isra.0]+0x3c>
  30:	e35c0000 	cmp	ip, #0
  34:	1a000002 	bne	44 <bool PropertiesBuilder::Add<unsigned char>(char const*, unsigned char, bool, unsigned int) [clone .isra.0]+0x44>
  38:	ea000009 	b	64 <bool PropertiesBuilder::Add<unsigned char>(char const*, unsigned char, bool, unsigned int) [clone .isra.0]+0x64>
  3c:	e35c0000 	cmp	ip, #0
  40:	0a000003 	beq	54 <bool PropertiesBuilder::Add<unsigned char>(char const*, unsigned char, bool, unsigned int) [clone .isra.0]+0x54>
  44:	e58d2000 	str	r2, [sp]
  48:	e1a03001 	mov	r3, r1
  4c:	e59f203c 	ldr	r2, [pc, #60]	; 90 <bool PropertiesBuilder::Add<unsigned char>(char const*, unsigned char, bool, unsigned int) [clone .isra.0]+0x90>
  50:	ea000006 	b	70 <bool PropertiesBuilder::Add<unsigned char>(char const*, unsigned char, bool, unsigned int) [clone .isra.0]+0x70>
  54:	e58d2000 	str	r2, [sp]
  58:	e1a03001 	mov	r3, r1
  5c:	e59f2030 	ldr	r2, [pc, #48]	; 94 <bool PropertiesBuilder::Add<unsigned char>(char const*, unsigned char, bool, unsigned int) [clone .isra.0]+0x94>
  60:	ea000002 	b	70 <bool PropertiesBuilder::Add<unsigned char>(char const*, unsigned char, bool, unsigned int) [clone .isra.0]+0x70>
  64:	e58d2000 	str	r2, [sp]
  68:	e1a03001 	mov	r3, r1
  6c:	e59f2024 	ldr	r2, [pc, #36]	; 98 <bool PropertiesBuilder::Add<unsigned char>(char const*, unsigned char, bool, unsigned int) [clone .isra.0]+0x98>
  70:	e1a01005 	mov	r1, r5
  74:	ebfffffe 	bl	0 <snprintf>
  78:	e1550000 	cmp	r5, r0
  7c:	a1d430b6 	ldrhge	r3, [r4, #6]
  80:	a0833000 	addge	r3, r3, r0
  84:	a1c430b6 	strhge	r3, [r4, #6]
  88:	e28dd00c 	add	sp, sp, #12
  8c:	e8bd8030 	pop	{r4, r5, pc}
  90:	00000000 	.word	0x00000000
  94:	00000009 	.word	0x00000009
  98:	00000010 	.word	0x00000010

Disassembly of section .text._ZN17PropertiesBuilder3AddItEEbPKcT_bj.isra.0:

00000000 <bool PropertiesBuilder::Add<unsigned short>(char const*, unsigned short, bool, unsigned int) [clone .isra.0]>:
   0:	e1d0c0b6 	ldrh	ip, [r0, #6]
   4:	e92d4037 	push	{r0, r1, r2, r4, r5, lr}
   8:	e1d050b4 	ldrh	r5, [r0, #4]
   c:	e15c0005 	cmp	ip, r5
  10:	2a00001c 	bcs	88 <bool PropertiesBuilder::Add<unsigned short>(char const*, unsigned short, bool, unsigned int) [clone .isra.0]+0x88>
  14:	e045500c 	sub	r5, r5, ip
  18:	e1a04000 	mov	r4, r0
  1c:	e5900000 	ldr	r0, [r0]
  20:	e3530000 	cmp	r3, #0
  24:	e080000c 	add	r0, r0, ip
  28:	e5d4c008 	ldrb	ip, [r4, #8]
  2c:	1a000002 	bne	3c <bool PropertiesBuilder::Add<unsigned short>(char const*, unsigned short, bool, unsigned int) [clone .isra.0]+0x3c>
  30:	e35c0000 	cmp	ip, #0
  34:	1a000002 	bne	44 <bool PropertiesBuilder::Add<unsigned short>(char const*, unsigned short, bool, unsigned int) [clone .isra.0]+0x44>
  38:	ea000009 	b	64 <bool PropertiesBuilder::Add<unsigned short>(char const*, unsigned short, bool, unsigned int) [clone .isra.0]+0x64>
  3c:	e35c0000 	cmp	ip, #0
  40:	0a000003 	beq	54 <bool PropertiesBuilder::Add<unsigned short>(char const*, unsigned short, bool, unsigned int) [clone .isra.0]+0x54>
  44:	e58d2000 	str	r2, [sp]
  48:	e1a03001 	mov	r3, r1
  4c:	e59f203c 	ldr	r2, [pc, #60]	; 90 <bool PropertiesBuilder::Add<unsigned short>(char const*, unsigned short, bool, unsigned int) [clone .isra.0]+0x90>
  50:	ea000006 	b	70 <bool PropertiesBuilder::Add<unsigned short>(char const*, unsigned short, bool, unsigned int) [clone .isra.0]+0x70>
  54:	e58d2000 	str	r2, [sp]
  58:	e1a03001 	mov	r3, r1
  5c:	e59f2030 	ldr	r2, [pc, #48]	; 94 <bool PropertiesBuilder::Add<unsigned short>(char const*, unsigned short, bool, unsigned int) [clone .isra.0]+0x94>
  60:	ea000002 	b	70 <bool PropertiesBuilder::Add<unsigned short>(char const*, unsigned short, bool, unsigned int) [clone .isra.0]+0x70>
  64:	e58d2000 	str	r2, [sp]
  68:	e1a03001 	mov	r3, r1
  6c:	e59f2024 	ldr	r2, [pc, #36]	; 98 <bool PropertiesBuilder::Add<unsigned short>(char const*, unsigned short, bool, unsigned int) [clone .isra.0]+0x98>
  70:	e1a01005 	mov	r1, r5
  74:	ebfffffe 	bl	0 <snprintf>
  78:	e1550000 	cmp	r5, r0
  7c:	a1d430b6 	ldrhge	r3, [r4, #6]
  80:	a0833000 	addge	r3, r3, r0
  84:	a1c430b6 	strhge	r3, [r4, #6]
  88:	e28dd00c 	add	sp, sp, #12
  8c:	e8bd8030 	pop	{r4, r5, pc}
  90:	00000000 	.word	0x00000000
  94:	00000009 	.word	0x00000009
  98:	00000010 	.word	0x00000010

Disassembly of section .text._ZN17PropertiesBuilder3AddIPKcEEbS2_T_bj.isra.0:

00000000 <bool PropertiesBuilder::Add<char const*>(char const*, char const*, bool, unsigned int) [clone .isra.0]>:
   0:	e1d0c0b6 	ldrh	ip, [r0, #6]
   4:	e92d4037 	push	{r0, r1, r2, r4, r5, lr}
   8:	e1d050b4 	ldrh	r5, [r0, #4]
   c:	e15c0005 	cmp	ip, r5
  10:	2a00001c 	bcs	88 <bool PropertiesBuilder::Add<char const*>(char const*, char const*, bool, unsigned int) [clone .isra.0]+0x88>
  14:	e045500c 	sub	r5, r5, ip
  18:	e1a04000 	mov	r4, r0
  1c:	e5900000 	ldr	r0, [r0]
  20:	e3530000 	cmp	r3, #0
  24:	e080000c 	add	r0, r0, ip
  28:	e5d4c008 	ldrb	ip, [r4, #8]
  2c:	1a000002 	bne	3c <bool PropertiesBuilder::Add<char const*>(char const*, char const*, bool, unsigned int) [clone .isra.0]+0x3c>
  30:	e35c0000 	cmp	ip, #0
  34:	1a000002 	bne	44 <bool PropertiesBuilder::Add<char const*>(char const*, char const*, bool, unsigned int) [clone .isra.0]+0x44>
  38:	ea000009 	b	64 <bool PropertiesBuilder::Add<char const*>(char const*, char const*, bool, unsigned int) [clone .isra.0]+0x64>
  3c:	e35c0000 	cmp	ip, #0
  40:	0a000003 	beq	54 <bool PropertiesBuilder::Add<char const*>(char const*, char const*, bool, unsigned int) [clone .isra.0]+0x54>
  44:	e58d2000 	str	r2, [sp]
  48:	e1a03001 	mov	r3, r1
  4c:	e59f203c 	ldr	r2, [pc, #60]	; 90 <bool PropertiesBuilder::Add<char const*>(char const*, char const*, bool, unsigned int) [clone .isra.0]+0x90>
  50:	ea000006 	b	70 <bool PropertiesBuilder::Add<char const*>(char const*, char const*, bool, unsigned int) [clone .isra.0]+0x70>
  54:	e58d2000 	str	r2, [sp]
  58:	e1a03001 	mov	r3, r1
  5c:	e59f2030 	ldr	r2, [pc, #48]	; 94 <bool PropertiesBuilder::Add<char const*>(char const*, char const*, bool, unsigned int) [clone .isra.0]+0x94>
  60:	ea000002 	b	70 <bool PropertiesBuilder::Add<char const*>(char const*, char const*, bool, unsigned int) [clone .isra.0]+0x70>
  64:	e58d2000 	str	r2, [sp]
  68:	e1a03001 	mov	r3, r1
  6c:	e59f2024 	ldr	r2, [pc, #36]	; 98 <bool PropertiesBuilder::Add<char const*>(char const*, char const*, bool, unsigned int) [clone .isra.0]+0x98>
  70:	e1a01005 	mov	r1, r5
  74:	ebfffffe 	bl	0 <snprintf>
  78:	e1550000 	cmp	r5, r0
  7c:	a1d430b6 	ldrhge	r3, [r4, #6]
  80:	a0833000 	addge	r3, r3, r0
  84:	a1c430b6 	strhge	r3, [r4, #6]
  88:	e28dd00c 	add	sp, sp, #12
  8c:	e8bd8030 	pop	{r4, r5, pc}
  90:	00000000 	.word	0x00000000
  94:	0000000b 	.word	0x0000000b
  98:	00000012 	.word	0x00000012

Disassembly of section .text._ZN17PropertiesBuilder3AddIfEEbPKcT_bj.isra.0:

00000000 <bool PropertiesBuilder::Add<float>(char const*, float, bool, unsigned int) [clone .isra.0]>:
   0:	e92d4030 	push	{r4, r5, lr}
   4:	e24dd014 	sub	sp, sp, #20
   8:	e1d0c0b6 	ldrh	ip, [r0, #6]
   c:	e1d050b4 	ldrh	r5, [r0, #4]
  10:	e15c0005 	cmp	ip, r5
  14:	2a000020 	bcs	9c <bool PropertiesBuilder::Add<float>(char const*, float, bool, unsigned int) [clone .isra.0]+0x9c>
  18:	e045500c 	sub	r5, r5, ip
  1c:	e1a04000 	mov	r4, r0
  20:	e5900000 	ldr	r0, [r0]
  24:	e3520000 	cmp	r2, #0
  28:	eeb70ac0 	vcvt.f64.f32	d0, s0
  2c:	e080000c 	add	r0, r0, ip
  30:	e5d4c008 	ldrb	ip, [r4, #8]
  34:	1a000002 	bne	44 <bool PropertiesBuilder::Add<float>(char const*, float, bool, unsigned int) [clone .isra.0]+0x44>
  38:	e35c0000 	cmp	ip, #0
  3c:	1a000002 	bne	4c <bool PropertiesBuilder::Add<float>(char const*, float, bool, unsigned int) [clone .isra.0]+0x4c>
  40:	ea00000b 	b	74 <bool PropertiesBuilder::Add<float>(char const*, float, bool, unsigned int) [clone .isra.0]+0x74>
  44:	e35c0000 	cmp	ip, #0
  48:	0a000004 	beq	60 <bool PropertiesBuilder::Add<float>(char const*, float, bool, unsigned int) [clone .isra.0]+0x60>
  4c:	e58d3000 	str	r3, [sp]
  50:	e1a03001 	mov	r3, r1
  54:	e59f2048 	ldr	r2, [pc, #72]	; a4 <bool PropertiesBuilder::Add<float>(char const*, float, bool, unsigned int) [clone .isra.0]+0xa4>
  58:	ed8d0b02 	vstr	d0, [sp, #8]
  5c:	ea000008 	b	84 <bool PropertiesBuilder::Add<float>(char const*, float, bool, unsigned int) [clone .isra.0]+0x84>
  60:	e58d3000 	str	r3, [sp]
  64:	e1a03001 	mov	r3, r1
  68:	e59f2038 	ldr	r2, [pc, #56]	; a8 <bool PropertiesBuilder::Add<float>(char const*, float, bool, unsigned int) [clone .isra.0]+0xa8>
  6c:	ed8d0b02 	vstr	d0, [sp, #8]
  70:	ea000003 	b	84 <bool PropertiesBuilder::Add<float>(char const*, float, bool, unsigned int) [clone .isra.0]+0x84>
  74:	e58d3000 	str	r3, [sp]
  78:	e1a03001 	mov	r3, r1
  7c:	e59f2028 	ldr	r2, [pc, #40]	; ac <bool PropertiesBuilder::Add<float>(char const*, float, bool, unsigned int) [clone .isra.0]+0xac>
  80:	ed8d0b02 	vstr	d0, [sp, #8]
  84:	e1a01005 	mov	r1, r5
  88:	ebfffffe 	bl	0 <snprintf>
  8c:	e1550000 	cmp	r5, r0
  90:	a1d430b6 	ldrhge	r3, [r4, #6]
  94:	a0833000 	addge	r3, r3, r0
  98:	a1c430b6 	strhge	r3, [r4, #6]
  9c:	e28dd014 	add	sp, sp, #20
  a0:	e8bd8030 	pop	{r4, r5, pc}
  a4:	00000000 	.word	0x00000000
  a8:	0000000b 	.word	0x0000000b
  ac:	00000014 	.word	0x00000014

Disassembly of section .text._ZN14PixelDmxParamsC2EP19PixelDmxParamsStore:

00000000 <PixelDmxParams::PixelDmxParams(PixelDmxParamsStore*)>:
   0:	e59f2048 	ldr	r2, [pc, #72]	; 50 <PixelDmxParams::PixelDmxParams(PixelDmxParamsStore*)+0x50>
   4:	e3a0c409 	mov	ip, #150994944	; 0x9000000
   8:	e5801000 	str	r1, [r0]
   c:	e3a01000 	mov	r1, #0
  10:	e9801006 	stmib	r0, {r1, r2, ip}
  14:	e59f2038 	ldr	r2, [pc, #56]	; 54 <PixelDmxParams::PixelDmxParams(PixelDmxParamsStore*)+0x54>
  18:	e5802010 	str	r2, [r0, #16]
  1c:	e59f2034 	ldr	r2, [pc, #52]	; 58 <PixelDmxParams::PixelDmxParams(PixelDmxParamsStore*)+0x58>
  20:	e5802014 	str	r2, [r0, #20]
  24:	e3a02801 	mov	r2, #65536	; 0x10000
  28:	e5802018 	str	r2, [r0, #24]
  2c:	e59f2028 	ldr	r2, [pc, #40]	; 5c <PixelDmxParams::PixelDmxParams(PixelDmxParamsStore*)+0x5c>
  30:	e580201c 	str	r2, [r0, #28]
  34:	e59f2024 	ldr	r2, [pc, #36]	; 60 <PixelDmxParams::PixelDmxParams(PixelDmxParamsStore*)+0x60>
  38:	e5802020 	str	r2, [r0, #32]
  3c:	e59f2020 	ldr	r2, [pc, #32]	; 64 <PixelDmxParams::PixelDmxParams(PixelDmxParamsStore*)+0x64>
  40:	e5802024 	str	r2, [r0, #36]	; 0x24
  44:	e3a0201d 	mov	r2, #29
  48:	e1c022b8 	strh	r2, [r0, #40]	; 0x28
  4c:	e12fff1e 	bx	lr
  50:	0100aa03 	.word	0x0100aa03
  54:	01ff003d 	.word	0x01ff003d
  58:	06000100 	.word	0x06000100
  5c:	00090005 	.word	0x00090005
  60:	0011000d 	.word	0x0011000d
  64:	00190015 	.word	0x00190015

Disassembly of section .text._ZN14PixelDmxParams4LoadEv:

00000000 <PixelDmxParams::Load()>:
   0:	e3a03000 	mov	r3, #0
   4:	e92d4037 	push	{r0, r1, r2, r4, r5, lr}
   8:	e1a02000 	mov	r2, r0
   c:	e5803004 	str	r3, [r0, #4]
  10:	e1a04000 	mov	r4, r0
  14:	e59f1068 	ldr	r1, [pc, #104]	; 84 <PixelDmxParams::Load()+0x84>
  18:	e1a0000d 	mov	r0, sp
  1c:	ebfffffe 	bl	0 <ReadConfigFile::ReadConfigFile(void (*)(void*, char const*), void*)>
  20:	e59f1060 	ldr	r1, [pc, #96]	; 88 <PixelDmxParams::Load()+0x88>
  24:	e1a0000d 	mov	r0, sp
  28:	ebfffffe 	bl	0 <ReadConfigFile::Read(char const*)>
  2c:	e2505000 	subs	r5, r0, #0
  30:	e5940000 	ldr	r0, [r4]
  34:	0a000006 	beq	54 <PixelDmxParams::Load()+0x54>
  38:	e3500000 	cmp	r0, #0
  3c:	0a00000b 	beq	70 <PixelDmxParams::Load()+0x70>
  40:	e5903000 	ldr	r3, [r0]
  44:	e2841004 	add	r1, r4, #4
  48:	e5933008 	ldr	r3, [r3, #8]
  4c:	e12fff33 	blx	r3
  50:	ea000006 	b	70 <PixelDmxParams::Load()+0x70>
  54:	e3500000 	cmp	r0, #0
  58:	0a000004 	beq	70 <PixelDmxParams::Load()+0x70>
  5c:	e5903000 	ldr	r3, [r0]
  60:	e2841004 	add	r1, r4, #4
  64:	e3a05001 	mov	r5, #1
  68:	e593300c 	ldr	r3, [r3, #12]
  6c:	e12fff33 	blx	r3
  70:	e1a0000d 	mov	r0, sp
  74:	ebfffffe 	bl	0 <ReadConfigFile::~ReadConfigFile()>
  78:	e1a00005 	mov	r0, r5
  7c:	e28dd00c 	add	sp, sp, #12
  80:	e8bd8030 	pop	{r4, r5, pc}
	...

Disassembly of section .text._ZN14PixelDmxParams4LoadEPKcj:

00000000 <PixelDmxParams::Load(char const*, unsigned int)>:
   0:	e92d4073 	push	{r0, r1, r4, r5, r6, lr}
   4:	e2515000 	subs	r5, r1, #0
   8:	e1a04000 	mov	r4, r0
   c:	e1a06002 	mov	r6, r2
  10:	1a000004 	bne	28 <PixelDmxParams::Load(char const*, unsigned int)+0x28>
  14:	e59f30a0 	ldr	r3, [pc, #160]	; bc <PixelDmxParams::Load(char const*, unsigned int)+0xbc>
  18:	e3a0107c 	mov	r1, #124	; 0x7c
  1c:	e59f209c 	ldr	r2, [pc, #156]	; c0 <PixelDmxParams::Load(char const*, unsigned int)+0xc0>
  20:	e59f009c 	ldr	r0, [pc, #156]	; c4 <PixelDmxParams::Load(char const*, unsigned int)+0xc4>
  24:	ebfffffe 	bl	0 <__assert_func>
  28:	e3560000 	cmp	r6, #0
  2c:	1a000004 	bne	44 <PixelDmxParams::Load(char const*, unsigned int)+0x44>
  30:	e59f3090 	ldr	r3, [pc, #144]	; c8 <PixelDmxParams::Load(char const*, unsigned int)+0xc8>
  34:	e3a0107d 	mov	r1, #125	; 0x7d
  38:	e59f2080 	ldr	r2, [pc, #128]	; c0 <PixelDmxParams::Load(char const*, unsigned int)+0xc0>
  3c:	e59f0080 	ldr	r0, [pc, #128]	; c4 <PixelDmxParams::Load(char const*, unsigned int)+0xc4>
  40:	ebfffffe 	bl	0 <__assert_func>
  44:	e5943000 	ldr	r3, [r4]
  48:	e3530000 	cmp	r3, #0
  4c:	1a000007 	bne	70 <PixelDmxParams::Load(char const*, unsigned int)+0x70>
  50:	e59f3074 	ldr	r3, [pc, #116]	; cc <PixelDmxParams::Load(char const*, unsigned int)+0xcc>
  54:	e3a0107e 	mov	r1, #126	; 0x7e
  58:	e59f2060 	ldr	r2, [pc, #96]	; c0 <PixelDmxParams::Load(char const*, unsigned int)+0xc0>
  5c:	e59f0060 	ldr	r0, [pc, #96]	; c4 <PixelDmxParams::Load(char const*, unsigned int)+0xc4>
  60:	ebfffffe 	bl	0 <__assert_func>
  64:	e5943000 	ldr	r3, [r4]
  68:	e3530000 	cmp	r3, #0
  6c:	0a000010 	beq	b4 <PixelDmxParams::Load(char const*, unsigned int)+0xb4>
  70:	e59f1058 	ldr	r1, [pc, #88]	; d0 <PixelDmxParams::Load(char const*, unsigned int)+0xd0>
  74:	e3a03000 	mov	r3, #0
  78:	e5843004 	str	r3, [r4, #4]
  7c:	e1a02004 	mov	r2, r4
  80:	e1a0000d 	mov	r0, sp
  84:	ebfffffe 	bl	0 <ReadConfigFile::ReadConfigFile(void (*)(void*, char const*), void*)>
  88:	e1a02006 	mov	r2, r6
  8c:	e1a01005 	mov	r1, r5
  90:	e1a0000d 	mov	r0, sp
  94:	ebfffffe 	bl	0 <ReadConfigFile::Read(char const*, unsigned int)>
  98:	e1a01004 	mov	r1, r4
  9c:	e4910004 	ldr	r0, [r1], #4
  a0:	e5903000 	ldr	r3, [r0]
  a4:	e5933008 	ldr	r3, [r3, #8]
  a8:	e12fff33 	blx	r3
  ac:	e1a0000d 	mov	r0, sp
  b0:	ebfffffe 	bl	0 <ReadConfigFile::~ReadConfigFile()>
  b4:	e28dd008 	add	sp, sp, #8
  b8:	e8bd8070 	pop	{r4, r5, r6, pc}
  bc:	00000000 	.word	0x00000000
  c0:	00000013 	.word	0x00000013
  c4:	00000018 	.word	0x00000018
  c8:	00000036 	.word	0x00000036
  cc:	00000043 	.word	0x00000043
  d0:	00000000 	.word	0x00000000

Disassembly of section .text._ZN14PixelDmxParams16callbackFunctionEPKc:

00000000 <PixelDmxParams::callbackFunction(char const*)>:
   0:	e92d47f0 	push	{r4, r5, r6, r7, r8, r9, sl, lr}
   4:	e2515000 	subs	r5, r1, #0
   8:	e24dd028 	sub	sp, sp, #40	; 0x28
   c:	e1a04000 	mov	r4, r0
  10:	1a000004 	bne	28 <PixelDmxParams::callbackFunction(char const*)+0x28>
  14:	e59f33c0 	ldr	r3, [pc, #960]	; 3dc <PixelDmxParams::callbackFunction(char const*)+0x3dc>
  18:	e3a0108e 	mov	r1, #142	; 0x8e
  1c:	e59f23bc 	ldr	r2, [pc, #956]	; 3e0 <PixelDmxParams::callbackFunction(char const*)+0x3e0>
  20:	e59f03bc 	ldr	r0, [pc, #956]	; 3e4 <PixelDmxParams::callbackFunction(char const*)+0x3e4>
  24:	ebfffffe 	bl	0 <__assert_func>
  28:	e59f13b8 	ldr	r1, [pc, #952]	; 3e8 <PixelDmxParams::callbackFunction(char const*)+0x3e8>
  2c:	e3a03008 	mov	r3, #8
  30:	e58d3010 	str	r3, [sp, #16]
  34:	e28d2018 	add	r2, sp, #24
  38:	e28d3010 	add	r3, sp, #16
  3c:	e1a00005 	mov	r0, r5
  40:	ebfffffe 	bl	0 <Sscan::Char(char const*, char const*, char*, unsigned int&)>
  44:	e3500000 	cmp	r0, #0
  48:	1a00000d 	bne	84 <PixelDmxParams::callbackFunction(char const*)+0x84>
  4c:	e59d3010 	ldr	r3, [sp, #16]
  50:	e2833028 	add	r3, r3, #40	; 0x28
  54:	e08d3003 	add	r3, sp, r3
  58:	e5430010 	strb	r0, [r3, #-16]
  5c:	e28d0018 	add	r0, sp, #24
  60:	ebfffffe 	bl	0 <PixelType::GetType(char const*)>
  64:	e5943004 	ldr	r3, [r4, #4]
  68:	e350000e 	cmp	r0, #14
  6c:	15c40008 	strbne	r0, [r4, #8]
  70:	03a02003 	moveq	r2, #3
  74:	03c33001 	biceq	r3, r3, #1
  78:	13833001 	orrne	r3, r3, #1
  7c:	05c42008 	strbeq	r2, [r4, #8]
  80:	ea0000c1 	b	38c <PixelDmxParams::callbackFunction(char const*)+0x38c>
  84:	e59f1360 	ldr	r1, [pc, #864]	; 3ec <PixelDmxParams::callbackFunction(char const*)+0x3ec>
  88:	e28d200a 	add	r2, sp, #10
  8c:	e1a00005 	mov	r0, r5
  90:	ebfffffe 	bl	0 <Sscan::Uint16(char const*, char const*, unsigned short&)>
  94:	e3500000 	cmp	r0, #0
  98:	1a00000a 	bne	c8 <PixelDmxParams::callbackFunction(char const*)+0xc8>
  9c:	e1dd20ba 	ldrh	r2, [sp, #10]
  a0:	e5943004 	ldr	r3, [r4, #4]
  a4:	e2421001 	sub	r1, r2, #1
  a8:	e3510faa 	cmp	r1, #680	; 0x2a8
  ac:	23c33002 	biccs	r3, r3, #2
  b0:	23e02055 	mvncs	r2, #85	; 0x55
  b4:	31c420b9 	strhcc	r2, [r4, #9]
  b8:	33833002 	orrcc	r3, r3, #2
  bc:	25c42009 	strbcs	r2, [r4, #9]
  c0:	25c4000a 	strbcs	r0, [r4, #10]
  c4:	ea0000b0 	b	38c <PixelDmxParams::callbackFunction(char const*)+0x38c>
  c8:	e59f1320 	ldr	r1, [pc, #800]	; 3f0 <PixelDmxParams::callbackFunction(char const*)+0x3f0>
  cc:	e3a03003 	mov	r3, #3
  d0:	e58d3010 	str	r3, [sp, #16]
  d4:	e28d2018 	add	r2, sp, #24
  d8:	e28d3010 	add	r3, sp, #16
  dc:	e1a00005 	mov	r0, r5
  e0:	ebfffffe 	bl	0 <Sscan::Char(char const*, char const*, char*, unsigned int&)>
  e4:	e3500000 	cmp	r0, #0
  e8:	1a00000c 	bne	120 <PixelDmxParams::callbackFunction(char const*)+0x120>
  ec:	e59d3010 	ldr	r3, [sp, #16]
  f0:	e2833028 	add	r3, r3, #40	; 0x28
  f4:	e08d3003 	add	r3, sp, r3
  f8:	e5430010 	strb	r0, [r3, #-16]
  fc:	e28d0018 	add	r0, sp, #24
 100:	ebfffffe 	bl	0 <PixelType::GetMap(char const*)>
 104:	e5943004 	ldr	r3, [r4, #4]
 108:	e3500006 	cmp	r0, #6
 10c:	e5c40017 	strb	r0, [r4, #23]
 110:	03c33c02 	biceq	r3, r3, #512	; 0x200
 114:	13833c02 	orrne	r3, r3, #512	; 0x200
 118:	e5843004 	str	r3, [r4, #4]
 11c:	ea0000ac 	b	3d4 <PixelDmxParams::callbackFunction(char const*)+0x3d4>
 120:	e59f12cc 	ldr	r1, [pc, #716]	; 3f4 <PixelDmxParams::callbackFunction(char const*)+0x3f4>
 124:	e28d200c 	add	r2, sp, #12
 128:	e1a00005 	mov	r0, r5
 12c:	ebfffffe 	bl	0 <Sscan::Float(char const*, char const*, float&)>
 130:	e3500000 	cmp	r0, #0
 134:	1a000008 	bne	15c <PixelDmxParams::callbackFunction(char const*)+0x15c>
 138:	ed9d0a03 	vldr	s0, [sp, #12]
 13c:	ebfffffe 	bl	0 <PixelType::ConvertTxH(float)>
 140:	e5943004 	ldr	r3, [r4, #4]
 144:	e3500000 	cmp	r0, #0
 148:	e5c40018 	strb	r0, [r4, #24]
 14c:	03c33b01 	biceq	r3, r3, #1024	; 0x400
 150:	13833b01 	orrne	r3, r3, #1024	; 0x400
 154:	e5843004 	str	r3, [r4, #4]
 158:	ea00009d 	b	3d4 <PixelDmxParams::callbackFunction(char const*)+0x3d4>
 15c:	e59f1294 	ldr	r1, [pc, #660]	; 3f8 <PixelDmxParams::callbackFunction(char const*)+0x3f8>
 160:	e28d200c 	add	r2, sp, #12
 164:	e1a00005 	mov	r0, r5
 168:	ebfffffe 	bl	0 <Sscan::Float(char const*, char const*, float&)>
 16c:	e3500000 	cmp	r0, #0
 170:	1a000008 	bne	198 <PixelDmxParams::callbackFunction(char const*)+0x198>
 174:	ed9d0a03 	vldr	s0, [sp, #12]
 178:	ebfffffe 	bl	0 <PixelType::ConvertTxH(float)>
 17c:	e5943004 	ldr	r3, [r4, #4]
 180:	e3500000 	cmp	r0, #0
 184:	e5c40019 	strb	r0, [r4, #25]
 188:	03c33b02 	biceq	r3, r3, #2048	; 0x800
 18c:	13833b02 	orrne	r3, r3, #2048	; 0x800
 190:	e5843004 	str	r3, [r4, #4]
 194:	ea00008e 	b	3d4 <PixelDmxParams::callbackFunction(char const*)+0x3d4>
 198:	e59f125c 	ldr	r1, [pc, #604]	; 3fc <PixelDmxParams::callbackFunction(char const*)+0x3fc>
 19c:	e28d200a 	add	r2, sp, #10
 1a0:	e1a00005 	mov	r0, r5
 1a4:	ebfffffe 	bl	0 <Sscan::Uint16(char const*, char const*, unsigned short&)>
 1a8:	e3500000 	cmp	r0, #0
 1ac:	1a00000c 	bne	1e4 <PixelDmxParams::callbackFunction(char const*)+0x1e4>
 1b0:	e1dd10ba 	ldrh	r1, [sp, #10]
 1b4:	e300c2a6 	movw	ip, #678	; 0x2a6
 1b8:	e5943004 	ldr	r3, [r4, #4]
 1bc:	e2412002 	sub	r2, r1, #2
 1c0:	e6ff2072 	uxth	r2, r2
 1c4:	e152000c 	cmp	r2, ip
 1c8:	83c33c01 	bichi	r3, r3, #256	; 0x100
 1cc:	83a02001 	movhi	r2, #1
 1d0:	85c42015 	strbhi	r2, [r4, #21]
 1d4:	93833c01 	orrls	r3, r3, #256	; 0x100
 1d8:	85c40016 	strbhi	r0, [r4, #22]
 1dc:	91c411b5 	strhls	r1, [r4, #21]
 1e0:	ea000069 	b	38c <PixelDmxParams::callbackFunction(char const*)+0x38c>
 1e4:	e59f1214 	ldr	r1, [pc, #532]	; 400 <PixelDmxParams::callbackFunction(char const*)+0x400>
 1e8:	e28d2014 	add	r2, sp, #20
 1ec:	e1a00005 	mov	r0, r5
 1f0:	ebfffffe 	bl	0 <Sscan::Uint32(char const*, char const*, unsigned int&)>
 1f4:	e3500000 	cmp	r0, #0
 1f8:	1a000008 	bne	220 <PixelDmxParams::callbackFunction(char const*)+0x220>
 1fc:	e59d2014 	ldr	r2, [sp, #20]
 200:	e59f11fc 	ldr	r1, [pc, #508]	; 404 <PixelDmxParams::callbackFunction(char const*)+0x404>
 204:	e5943004 	ldr	r3, [r4, #4]
 208:	e1520001 	cmp	r2, r1
 20c:	03c33010 	biceq	r3, r3, #16
 210:	13833010 	orrne	r3, r3, #16
 214:	e5843004 	str	r3, [r4, #4]
 218:	e584200e 	str	r2, [r4, #14]
 21c:	ea00006c 	b	3d4 <PixelDmxParams::callbackFunction(char const*)+0x3d4>
 220:	e59f11e0 	ldr	r1, [pc, #480]	; 408 <PixelDmxParams::callbackFunction(char const*)+0x408>
 224:	e28d2009 	add	r2, sp, #9
 228:	e1a00005 	mov	r0, r5
 22c:	ebfffffe 	bl	0 <Sscan::Uint8(char const*, char const*, unsigned char&)>
 230:	e3500000 	cmp	r0, #0
 234:	1a00000c 	bne	26c <PixelDmxParams::callbackFunction(char const*)+0x26c>
 238:	e5dd1009 	ldrb	r1, [sp, #9]
 23c:	e5943004 	ldr	r3, [r4, #4]
 240:	e2412001 	sub	r2, r1, #1
 244:	e6ef2072 	uxtb	r2, r2
 248:	e35200fd 	cmp	r2, #253	; 0xfd
 24c:	83c33020 	bichi	r3, r3, #32
 250:	93833020 	orrls	r3, r3, #32
 254:	85843004 	strhi	r3, [r4, #4]
 258:	83e03000 	mvnhi	r3, #0
 25c:	95843004 	strls	r3, [r4, #4]
 260:	95c41012 	strbls	r1, [r4, #18]
 264:	85c43012 	strbhi	r3, [r4, #18]
 268:	ea000059 	b	3d4 <PixelDmxParams::callbackFunction(char const*)+0x3d4>
 26c:	e59f1198 	ldr	r1, [pc, #408]	; 40c <PixelDmxParams::callbackFunction(char const*)+0x40c>
 270:	e28d200a 	add	r2, sp, #10
 274:	e1a00005 	mov	r0, r5
 278:	ebfffffe 	bl	0 <Sscan::Uint16(char const*, char const*, unsigned short&)>
 27c:	e3500000 	cmp	r0, #0
 280:	1a00000d 	bne	2bc <PixelDmxParams::callbackFunction(char const*)+0x2bc>
 284:	e1dd10ba 	ldrh	r1, [sp, #10]
 288:	e30001fe 	movw	r0, #510	; 0x1fe
 28c:	e5943004 	ldr	r3, [r4, #4]
 290:	e2412002 	sub	r2, r1, #2
 294:	e6ff2072 	uxth	r2, r2
 298:	e1520000 	cmp	r2, r0
 29c:	83c33004 	bichi	r3, r3, #4
 2a0:	83a02001 	movhi	r2, #1
 2a4:	85c4200b 	strbhi	r2, [r4, #11]
 2a8:	83a02000 	movhi	r2, #0
 2ac:	91c410bb 	strhls	r1, [r4, #11]
 2b0:	93833004 	orrls	r3, r3, #4
 2b4:	85c4200c 	strbhi	r2, [r4, #12]
 2b8:	ea000033 	b	38c <PixelDmxParams::callbackFunction(char const*)+0x38c>
 2bc:	e59f914c 	ldr	r9, [pc, #332]	; 410 <PixelDmxParams::callbackFunction(char const*)+0x410>
 2c0:	e284701a 	add	r7, r4, #26
 2c4:	e3a06000 	mov	r6, #0
 2c8:	e3a0a014 	mov	sl, #20
 2cc:	e3a08a01 	mov	r8, #4096	; 0x1000
 2d0:	e28d200a 	add	r2, sp, #10
 2d4:	e1a00005 	mov	r0, r5
 2d8:	e021969a 	mla	r1, sl, r6, r9
 2dc:	ebfffffe 	bl	0 <Sscan::Uint16(char const*, char const*, unsigned short&)>
 2e0:	e3500000 	cmp	r0, #0
 2e4:	1a00000a 	bne	314 <PixelDmxParams::callbackFunction(char const*)+0x314>
 2e8:	e1dd20ba 	ldrh	r2, [sp, #10]
 2ec:	e5943004 	ldr	r3, [r4, #4]
 2f0:	e1a01618 	lsl	r1, r8, r6
 2f4:	e3520000 	cmp	r2, #0
 2f8:	01a02106 	lsleq	r2, r6, #2
 2fc:	11833001 	orrne	r3, r3, r1
 300:	02822001 	addeq	r2, r2, #1
 304:	01c33001 	biceq	r3, r3, r1
 308:	11c720b0 	strhne	r2, [r7]
 30c:	01c720b0 	strheq	r2, [r7]
 310:	e5843004 	str	r3, [r4, #4]
 314:	e2866001 	add	r6, r6, #1
 318:	e2877002 	add	r7, r7, #2
 31c:	e3560008 	cmp	r6, #8
 320:	1affffea 	bne	2d0 <PixelDmxParams::callbackFunction(char const*)+0x2d0>
 324:	e59f10e8 	ldr	r1, [pc, #232]	; 414 <PixelDmxParams::callbackFunction(char const*)+0x414>
 328:	e28d2009 	add	r2, sp, #9
 32c:	e1a00005 	mov	r0, r5
 330:	ebfffffe 	bl	0 <Sscan::Uint8(char const*, char const*, unsigned char&)>
 334:	e3500000 	cmp	r0, #0
 338:	1a000008 	bne	360 <PixelDmxParams::callbackFunction(char const*)+0x360>
 33c:	e5dd2009 	ldrb	r2, [sp, #9]
 340:	e5943004 	ldr	r3, [r4, #4]
 344:	e2421001 	sub	r1, r2, #1
 348:	e3510004 	cmp	r1, #4
 34c:	83c33008 	bichi	r3, r3, #8
 350:	93833008 	orrls	r3, r3, #8
 354:	95c42014 	strbls	r2, [r4, #20]
 358:	85c40014 	strbhi	r0, [r4, #20]
 35c:	ea00000a 	b	38c <PixelDmxParams::callbackFunction(char const*)+0x38c>
 360:	e59f10b0 	ldr	r1, [pc, #176]	; 418 <PixelDmxParams::callbackFunction(char const*)+0x418>
 364:	e28d2009 	add	r2, sp, #9
 368:	e1a00005 	mov	r0, r5
 36c:	ebfffffe 	bl	0 <Sscan::Uint8(char const*, char const*, unsigned char&)>
 370:	e3500000 	cmp	r0, #0
 374:	1a000006 	bne	394 <PixelDmxParams::callbackFunction(char const*)+0x394>
 378:	e5dd2009 	ldrb	r2, [sp, #9]
 37c:	e5943004 	ldr	r3, [r4, #4]
 380:	e3520000 	cmp	r2, #0
 384:	03c33080 	biceq	r3, r3, #128	; 0x80
 388:	13833080 	orrne	r3, r3, #128	; 0x80
 38c:	e5843004 	str	r3, [r4, #4]
 390:	ea00000f 	b	3d4 <PixelDmxParams::callbackFunction(char const*)+0x3d4>
 394:	e59f1080 	ldr	r1, [pc, #128]	; 41c <PixelDmxParams::callbackFunction(char const*)+0x41c>
 398:	e28d200c 	add	r2, sp, #12
 39c:	e1a00005 	mov	r0, r5
 3a0:	ebfffffe 	bl	0 <Sscan::Float(char const*, char const*, float&)>
 3a4:	e3500000 	cmp	r0, #0
 3a8:	1a000009 	bne	3d4 <PixelDmxParams::callbackFunction(char const*)+0x3d4>
 3ac:	eeb27a04 	vmov.f32	s14, #36	; 0x41200000  10.0
 3b0:	eddd7a03 	vldr	s15, [sp, #12]
 3b4:	ee677a87 	vmul.f32	s15, s15, s14
 3b8:	eefc7ae7 	vcvt.u32.f32	s15, s15
 3bc:	edcd7a01 	vstr	s15, [sp, #4]
 3c0:	e5dd3004 	ldrb	r3, [sp, #4]
 3c4:	e2432012 	sub	r2, r3, #18
 3c8:	e352000a 	cmp	r2, #10
 3cc:	85c4000d 	strbhi	r0, [r4, #13]
 3d0:	95c4300d 	strbls	r3, [r4, #13]
 3d4:	e28dd028 	add	sp, sp, #40	; 0x28
 3d8:	e8bd87f0 	pop	{r4, r5, r6, r7, r8, r9, sl, pc}
 3dc:	00000000 	.word	0x00000000
 3e0:	00000011 	.word	0x00000011
 3e4:	00000018 	.word	0x00000018
	...
 404:	003d0900 	.word	0x003d0900
	...

Disassembly of section .text._ZN14PixelDmxParams22staticCallbackFunctionEPvPKc:

00000000 <PixelDmxParams::staticCallbackFunction(void*, char const*)>:
   0:	e92d4070 	push	{r4, r5, r6, lr}
   4:	e2504000 	subs	r4, r0, #0
   8:	e1a05001 	mov	r5, r1
   c:	1a000004 	bne	24 <PixelDmxParams::staticCallbackFunction(void*, char const*)+0x24>
  10:	e59f3038 	ldr	r3, [pc, #56]	; 50 <PixelDmxParams::staticCallbackFunction(void*, char const*)+0x50>
  14:	e3001141 	movw	r1, #321	; 0x141
  18:	e59f2034 	ldr	r2, [pc, #52]	; 54 <PixelDmxParams::staticCallbackFunction(void*, char const*)+0x54>
  1c:	e59f0034 	ldr	r0, [pc, #52]	; 58 <PixelDmxParams::staticCallbackFunction(void*, char const*)+0x58>
  20:	ebfffffe 	bl	0 <__assert_func>
  24:	e3550000 	cmp	r5, #0
  28:	1a000004 	bne	40 <PixelDmxParams::staticCallbackFunction(void*, char const*)+0x40>
  2c:	e59f3028 	ldr	r3, [pc, #40]	; 5c <PixelDmxParams::staticCallbackFunction(void*, char const*)+0x5c>
  30:	e3001142 	movw	r1, #322	; 0x142
  34:	e59f2018 	ldr	r2, [pc, #24]	; 54 <PixelDmxParams::staticCallbackFunction(void*, char const*)+0x54>
  38:	e59f0018 	ldr	r0, [pc, #24]	; 58 <PixelDmxParams::staticCallbackFunction(void*, char const*)+0x58>
  3c:	ebfffffe 	bl	0 <__assert_func>
  40:	e1a01005 	mov	r1, r5
  44:	e1a00004 	mov	r0, r4
  48:	e8bd4070 	pop	{r4, r5, r6, lr}
  4c:	eafffffe 	b	0 <PixelDmxParams::staticCallbackFunction(void*, char const*)>
  50:	00000000 	.word	0x00000000
  54:	0000000d 	.word	0x0000000d
  58:	00000018 	.word	0x00000018
  5c:	00000024 	.word	0x00000024

Disassembly of section .text._ZN14PixelDmxParams7BuilderEPKN14pixeldmxparams6ParamsEPcjRj:

00000000 <PixelDmxParams::Builder(pixeldmxparams::Params const*, char*, unsigned int, unsigned int&)>:
   0:	e92d41f0 	push	{r4, r5, r6, r7, r8, lr}
   4:	e2525000 	subs	r5, r2, #0
   8:	e24dd018 	sub	sp, sp, #24
   c:	e1a04000 	mov	r4, r0
  10:	e1a06001 	mov	r6, r1
  14:	e1a07003 	mov	r7, r3
  18:	1a000004 	bne	30 <PixelDmxParams::Builder(pixeldmxparams::Params const*, char*, unsigned int, unsigned int&)+0x30>
  1c:	e59f33f8 	ldr	r3, [pc, #1016]	; 41c <PixelDmxParams::Builder(pixeldmxparams::Params const*, char*, unsigned int, unsigned int&)+0x41c>
  20:	e3a01f52 	mov	r1, #328	; 0x148
  24:	e59f23f4 	ldr	r2, [pc, #1012]	; 420 <PixelDmxParams::Builder(pixeldmxparams::Params const*, char*, unsigned int, unsigned int&)+0x420>
  28:	e59f03f4 	ldr	r0, [pc, #1012]	; 424 <PixelDmxParams::Builder(pixeldmxparams::Params const*, char*, unsigned int, unsigned int&)+0x424>
  2c:	ebfffffe 	bl	0 <__assert_func>
  30:	e3560000 	cmp	r6, #0
  34:	e2840004 	add	r0, r4, #4
  38:	0a000003 	beq	4c <PixelDmxParams::Builder(pixeldmxparams::Params const*, char*, unsigned int, unsigned int&)+0x4c>
  3c:	e3a02026 	mov	r2, #38	; 0x26
  40:	e1a01006 	mov	r1, r6
  44:	ebfffffe 	bl	0 <memmove>
  48:	ea000005 	b	64 <PixelDmxParams::Builder(pixeldmxparams::Params const*, char*, unsigned int, unsigned int&)+0x64>
  4c:	e5943000 	ldr	r3, [r4]
  50:	e1a01000 	mov	r1, r0
  54:	e5932000 	ldr	r2, [r3]
  58:	e1a00003 	mov	r0, r3
  5c:	e592200c 	ldr	r2, [r2, #12]
  60:	e12fff32 	blx	r2
  64:	e59f13bc 	ldr	r1, [pc, #956]	; 428 <PixelDmxParams::Builder(pixeldmxparams::Params const*, char*, unsigned int, unsigned int&)+0x428>
  68:	e1a02005 	mov	r2, r5
  6c:	e1a03007 	mov	r3, r7
  70:	e28d000c 	add	r0, sp, #12
  74:	ebfffffe 	bl	0 <PropertiesBuilder::PropertiesBuilder(char const*, char*, unsigned int)>
  78:	e5d40008 	ldrb	r0, [r4, #8]
  7c:	ebfffffe 	bl	0 <PixelType::GetType(pixel::Type)>
  80:	e5943004 	ldr	r3, [r4, #4]
  84:	e1a02000 	mov	r2, r0
  88:	e59f139c 	ldr	r1, [pc, #924]	; 42c <PixelDmxParams::Builder(pixeldmxparams::Params const*, char*, unsigned int, unsigned int&)+0x42c>
  8c:	e28d000c 	add	r0, sp, #12
  90:	e2033001 	and	r3, r3, #1
  94:	ebfffffe 	bl	0 <PixelDmxParams::Builder(pixeldmxparams::Params const*, char*, unsigned int, unsigned int&)>
  98:	e5943004 	ldr	r3, [r4, #4]
  9c:	e28d000c 	add	r0, sp, #12
  a0:	e1d420b9 	ldrh	r2, [r4, #9]
  a4:	e7e030d3 	ubfx	r3, r3, #1, #1
  a8:	e59f1380 	ldr	r1, [pc, #896]	; 430 <PixelDmxParams::Builder(pixeldmxparams::Params const*, char*, unsigned int, unsigned int&)+0x430>
  ac:	ebfffffe 	bl	0 <PixelDmxParams::Builder(pixeldmxparams::Params const*, char*, unsigned int, unsigned int&)>
  b0:	e1dd21b2 	ldrh	r2, [sp, #18]
  b4:	e1dd51b0 	ldrh	r5, [sp, #16]
  b8:	e5943004 	ldr	r3, [r4, #4]
  bc:	e1520005 	cmp	r2, r5
  c0:	2a00001e 	bcs	140 <PixelDmxParams::Builder(pixeldmxparams::Params const*, char*, unsigned int, unsigned int&)+0x140>
  c4:	e59d000c 	ldr	r0, [sp, #12]
  c8:	e2133080 	ands	r3, r3, #128	; 0x80
  cc:	e0455002 	sub	r5, r5, r2
  d0:	e0800002 	add	r0, r0, r2
  d4:	e5dd2014 	ldrb	r2, [sp, #20]
  d8:	1a000002 	bne	e8 <PixelDmxParams::Builder(pixeldmxparams::Params const*, char*, unsigned int, unsigned int&)+0xe8>
  dc:	e3520000 	cmp	r2, #0
  e0:	1a000002 	bne	f0 <PixelDmxParams::Builder(pixeldmxparams::Params const*, char*, unsigned int, unsigned int&)+0xf0>
  e4:	ea00000c 	b	11c <PixelDmxParams::Builder(pixeldmxparams::Params const*, char*, unsigned int, unsigned int&)+0x11c>
  e8:	e3520000 	cmp	r2, #0
  ec:	0a000005 	beq	108 <PixelDmxParams::Builder(pixeldmxparams::Params const*, char*, unsigned int, unsigned int&)+0x108>
  f0:	e2533000 	subs	r3, r3, #0
  f4:	e59f2338 	ldr	r2, [pc, #824]	; 434 <PixelDmxParams::Builder(pixeldmxparams::Params const*, char*, unsigned int, unsigned int&)+0x434>
  f8:	13a03001 	movne	r3, #1
  fc:	e58d3000 	str	r3, [sp]
 100:	e59f3330 	ldr	r3, [pc, #816]	; 438 <PixelDmxParams::Builder(pixeldmxparams::Params const*, char*, unsigned int, unsigned int&)+0x438>
 104:	ea000007 	b	128 <PixelDmxParams::Builder(pixeldmxparams::Params const*, char*, unsigned int, unsigned int&)+0x128>
 108:	e59f232c 	ldr	r2, [pc, #812]	; 43c <PixelDmxParams::Builder(pixeldmxparams::Params const*, char*, unsigned int, unsigned int&)+0x43c>
 10c:	e3a03001 	mov	r3, #1
 110:	e58d3000 	str	r3, [sp]
 114:	e59f331c 	ldr	r3, [pc, #796]	; 438 <PixelDmxParams::Builder(pixeldmxparams::Params const*, char*, unsigned int, unsigned int&)+0x438>
 118:	ea000002 	b	128 <PixelDmxParams::Builder(pixeldmxparams::Params const*, char*, unsigned int, unsigned int&)+0x128>
 11c:	e58d2000 	str	r2, [sp]
 120:	e59f3310 	ldr	r3, [pc, #784]	; 438 <PixelDmxParams::Builder(pixeldmxparams::Params const*, char*, unsigned int, unsigned int&)+0x438>
 124:	e59f2314 	ldr	r2, [pc, #788]	; 440 <PixelDmxParams::Builder(pixeldmxparams::Params const*, char*, unsigned int, unsigned int&)+0x440>
 128:	e1a01005 	mov	r1, r5
 12c:	ebfffffe 	bl	0 <snprintf>
 130:	e1550000 	cmp	r5, r0
 134:	a1dd31b2 	ldrhge	r3, [sp, #18]
 138:	a0833000 	addge	r3, r3, r0
 13c:	a1cd31b2 	strhge	r3, [sp, #18]
 140:	e5d4300d 	ldrb	r3, [r4, #13]
 144:	e3530000 	cmp	r3, #0
 148:	1a000004 	bne	160 <PixelDmxParams::Builder(pixeldmxparams::Params const*, char*, unsigned int, unsigned int&)+0x160>
 14c:	e59f22f0 	ldr	r2, [pc, #752]	; 444 <PixelDmxParams::Builder(pixeldmxparams::Params const*, char*, unsigned int, unsigned int&)+0x444>
 150:	e28d000c 	add	r0, sp, #12
 154:	e59f12ec 	ldr	r1, [pc, #748]	; 448 <PixelDmxParams::Builder(pixeldmxparams::Params const*, char*, unsigned int, unsigned int&)+0x448>
 158:	ebfffffe 	bl	0 <PixelDmxParams::Builder(pixeldmxparams::Params const*, char*, unsigned int, unsigned int&)>
 15c:	ea000008 	b	184 <PixelDmxParams::Builder(pixeldmxparams::Params const*, char*, unsigned int, unsigned int&)+0x184>
 160:	ee073a90 	vmov	s15, r3
 164:	eeb20a04 	vmov.f32	s0, #36	; 0x41200000  10.0
 168:	e3a03001 	mov	r3, #1
 16c:	e59f12d4 	ldr	r1, [pc, #724]	; 448 <PixelDmxParams::Builder(pixeldmxparams::Params const*, char*, unsigned int, unsigned int&)+0x448>
 170:	e1a02003 	mov	r2, r3
 174:	e28d000c 	add	r0, sp, #12
 178:	eef87a67 	vcvt.f32.u32	s15, s15
 17c:	ee870a80 	vdiv.f32	s0, s15, s0
 180:	ebfffffe 	bl	0 <PixelDmxParams::Builder(pixeldmxparams::Params const*, char*, unsigned int, unsigned int&)>
 184:	e59f12c0 	ldr	r1, [pc, #704]	; 44c <PixelDmxParams::Builder(pixeldmxparams::Params const*, char*, unsigned int, unsigned int&)+0x44c>
 188:	e28d000c 	add	r0, sp, #12
 18c:	ebfffffe 	bl	0 <PropertiesBuilder::AddComment(char const*)>
 190:	e5943004 	ldr	r3, [r4, #4]
 194:	e3130c02 	tst	r3, #512	; 0x200
 198:	1a000002 	bne	1a8 <PixelDmxParams::Builder(pixeldmxparams::Params const*, char*, unsigned int, unsigned int&)+0x1a8>
 19c:	e5d40008 	ldrb	r0, [r4, #8]
 1a0:	ebfffffe 	bl	0 <PixelType::GetMap(pixel::Type)>
 1a4:	e5c40017 	strb	r0, [r4, #23]
 1a8:	e5d40017 	ldrb	r0, [r4, #23]
 1ac:	ebfffffe 	bl	0 <PixelType::GetMap(pixel::Map)>
 1b0:	e5943004 	ldr	r3, [r4, #4]
 1b4:	e1a02000 	mov	r2, r0
 1b8:	e59f1290 	ldr	r1, [pc, #656]	; 450 <PixelDmxParams::Builder(pixeldmxparams::Params const*, char*, unsigned int, unsigned int&)+0x450>
 1bc:	e28d000c 	add	r0, sp, #12
 1c0:	e7e034d3 	ubfx	r3, r3, #9, #1
 1c4:	ebfffffe 	bl	0 <PixelDmxParams::Builder(pixeldmxparams::Params const*, char*, unsigned int, unsigned int&)>
 1c8:	e5943004 	ldr	r3, [r4, #4]
 1cc:	e2033b03 	and	r3, r3, #3072	; 0xc00
 1d0:	e3530b03 	cmp	r3, #3072	; 0xc00
 1d4:	0a00000a 	beq	204 <PixelDmxParams::Builder(pixeldmxparams::Params const*, char*, unsigned int, unsigned int&)+0x204>
 1d8:	e5d40008 	ldrb	r0, [r4, #8]
 1dc:	e28d200b 	add	r2, sp, #11
 1e0:	e28d100a 	add	r1, sp, #10
 1e4:	ebfffffe 	bl	0 <PixelConfiguration::GetTxH(pixel::Type, unsigned char&, unsigned char&)>
 1e8:	e5943004 	ldr	r3, [r4, #4]
 1ec:	e3130b01 	tst	r3, #1024	; 0x400
 1f0:	05dd200a 	ldrbeq	r2, [sp, #10]
 1f4:	05c42018 	strbeq	r2, [r4, #24]
 1f8:	e3130b02 	tst	r3, #2048	; 0x800
 1fc:	05dd300b 	ldrbeq	r3, [sp, #11]
 200:	05c43019 	strbeq	r3, [r4, #25]
 204:	e59f1248 	ldr	r1, [pc, #584]	; 454 <PixelDmxParams::Builder(pixeldmxparams::Params const*, char*, unsigned int, unsigned int&)+0x454>
 208:	e28d000c 	add	r0, sp, #12
 20c:	ebfffffe 	bl	0 <PropertiesBuilder::AddComment(char const*)>
 210:	e5d40018 	ldrb	r0, [r4, #24]
 214:	ebfffffe 	bl	0 <PixelType::ConvertTxH(unsigned char)>
 218:	e5942004 	ldr	r2, [r4, #4]
 21c:	e3a03002 	mov	r3, #2
 220:	e59f1230 	ldr	r1, [pc, #560]	; 458 <PixelDmxParams::Builder(pixeldmxparams::Params const*, char*, unsigned int, unsigned int&)+0x458>
 224:	e28d000c 	add	r0, sp, #12
 228:	e7e02552 	ubfx	r2, r2, #10, #1
 22c:	ebfffffe 	bl	0 <PixelDmxParams::Builder(pixeldmxparams::Params const*, char*, unsigned int, unsigned int&)>
 230:	e5d40019 	ldrb	r0, [r4, #25]
 234:	ebfffffe 	bl	0 <PixelType::ConvertTxH(unsigned char)>
 238:	e5942004 	ldr	r2, [r4, #4]
 23c:	e3a03002 	mov	r3, #2
 240:	e59f1214 	ldr	r1, [pc, #532]	; 45c <PixelDmxParams::Builder(pixeldmxparams::Params const*, char*, unsigned int, unsigned int&)+0x45c>
 244:	e28d000c 	add	r0, sp, #12
 248:	e7e025d2 	ubfx	r2, r2, #11, #1
 24c:	ebfffffe 	bl	0 <PixelDmxParams::Builder(pixeldmxparams::Params const*, char*, unsigned int, unsigned int&)>
 250:	e59f1208 	ldr	r1, [pc, #520]	; 460 <PixelDmxParams::Builder(pixeldmxparams::Params const*, char*, unsigned int, unsigned int&)+0x460>
 254:	e28d000c 	add	r0, sp, #12
 258:	ebfffffe 	bl	0 <PropertiesBuilder::AddComment(char const*)>
 25c:	e5943004 	ldr	r3, [r4, #4]
 260:	e28d000c 	add	r0, sp, #12
 264:	e1d421b5 	ldrh	r2, [r4, #21]
 268:	e7e03453 	ubfx	r3, r3, #8, #1
 26c:	e59f11f0 	ldr	r1, [pc, #496]	; 464 <PixelDmxParams::Builder(pixeldmxparams::Params const*, char*, unsigned int, unsigned int&)+0x464>
 270:	ebfffffe 	bl	0 <PixelDmxParams::Builder(pixeldmxparams::Params const*, char*, unsigned int, unsigned int&)>
 274:	e59f11ec 	ldr	r1, [pc, #492]	; 468 <PixelDmxParams::Builder(pixeldmxparams::Params const*, char*, unsigned int, unsigned int&)+0x468>
 278:	e28d000c 	add	r0, sp, #12
 27c:	ebfffffe 	bl	0 <PropertiesBuilder::AddComment(char const*)>
 280:	e1dd21b2 	ldrh	r2, [sp, #18]
 284:	e1dd51b0 	ldrh	r5, [sp, #16]
 288:	e594300e 	ldr	r3, [r4, #14]
 28c:	e1520005 	cmp	r2, r5
 290:	e5941004 	ldr	r1, [r4, #4]
 294:	2a00001b 	bcs	308 <PixelDmxParams::Builder(pixeldmxparams::Params const*, char*, unsigned int, unsigned int&)+0x308>
 298:	e59d000c 	ldr	r0, [sp, #12]
 29c:	e3110010 	tst	r1, #16
 2a0:	e0455002 	sub	r5, r5, r2
 2a4:	e0800002 	add	r0, r0, r2
 2a8:	e5dd2014 	ldrb	r2, [sp, #20]
 2ac:	1a000002 	bne	2bc <PixelDmxParams::Builder(pixeldmxparams::Params const*, char*, unsigned int, unsigned int&)+0x2bc>
 2b0:	e3520000 	cmp	r2, #0
 2b4:	1a000002 	bne	2c4 <PixelDmxParams::Builder(pixeldmxparams::Params const*, char*, unsigned int, unsigned int&)+0x2c4>
 2b8:	ea000009 	b	2e4 <PixelDmxParams::Builder(pixeldmxparams::Params const*, char*, unsigned int, unsigned int&)+0x2e4>
 2bc:	e3520000 	cmp	r2, #0
 2c0:	0a000003 	beq	2d4 <PixelDmxParams::Builder(pixeldmxparams::Params const*, char*, unsigned int, unsigned int&)+0x2d4>
 2c4:	e58d3000 	str	r3, [sp]
 2c8:	e59f2164 	ldr	r2, [pc, #356]	; 434 <PixelDmxParams::Builder(pixeldmxparams::Params const*, char*, unsigned int, unsigned int&)+0x434>
 2cc:	e59f3198 	ldr	r3, [pc, #408]	; 46c <PixelDmxParams::Builder(pixeldmxparams::Params const*, char*, unsigned int, unsigned int&)+0x46c>
 2d0:	ea000006 	b	2f0 <PixelDmxParams::Builder(pixeldmxparams::Params const*, char*, unsigned int, unsigned int&)+0x2f0>
 2d4:	e58d3000 	str	r3, [sp]
 2d8:	e59f215c 	ldr	r2, [pc, #348]	; 43c <PixelDmxParams::Builder(pixeldmxparams::Params const*, char*, unsigned int, unsigned int&)+0x43c>
 2dc:	e59f3188 	ldr	r3, [pc, #392]	; 46c <PixelDmxParams::Builder(pixeldmxparams::Params const*, char*, unsigned int, unsigned int&)+0x46c>
 2e0:	ea000002 	b	2f0 <PixelDmxParams::Builder(pixeldmxparams::Params const*, char*, unsigned int, unsigned int&)+0x2f0>
 2e4:	e58d3000 	str	r3, [sp]
 2e8:	e59f2150 	ldr	r2, [pc, #336]	; 440 <PixelDmxParams::Builder(pixeldmxparams::Params const*, char*, unsigned int, unsigned int&)+0x440>
 2ec:	e59f3178 	ldr	r3, [pc, #376]	; 46c <PixelDmxParams::Builder(pixeldmxparams::Params const*, char*, unsigned int, unsigned int&)+0x46c>
 2f0:	e1a01005 	mov	r1, r5
 2f4:	ebfffffe 	bl	0 <snprintf>
 2f8:	e1550000 	cmp	r5, r0
 2fc:	a1dd31b2 	ldrhge	r3, [sp, #18]
 300:	a0833000 	addge	r3, r3, r0
 304:	a1cd31b2 	strhge	r3, [sp, #18]
 308:	e59f1160 	ldr	r1, [pc, #352]	; 470 <PixelDmxParams::Builder(pixeldmxparams::Params const*, char*, unsigned int, unsigned int&)+0x470>
 30c:	e28d000c 	add	r0, sp, #12
 310:	e59f615c 	ldr	r6, [pc, #348]	; 474 <PixelDmxParams::Builder(pixeldmxparams::Params const*, char*, unsigned int, unsigned int&)+0x474>
 314:	ebfffffe 	bl	0 <PropertiesBuilder::AddComment(char const*)>
 318:	e5943004 	ldr	r3, [r4, #4]
 31c:	e28d000c 	add	r0, sp, #12
 320:	e5d42012 	ldrb	r2, [r4, #18]
 324:	e284801a 	add	r8, r4, #26
 328:	e7e032d3 	ubfx	r3, r3, #5, #1
 32c:	e3a05000 	mov	r5, #0
 330:	e59f1140 	ldr	r1, [pc, #320]	; 478 <PixelDmxParams::Builder(pixeldmxparams::Params const*, char*, unsigned int, unsigned int&)+0x478>
 334:	e3a07a01 	mov	r7, #4096	; 0x1000
 338:	ebfffffe 	bl	0 <PixelDmxParams::Builder(pixeldmxparams::Params const*, char*, unsigned int, unsigned int&)>
 33c:	e59f1138 	ldr	r1, [pc, #312]	; 47c <PixelDmxParams::Builder(pixeldmxparams::Params const*, char*, unsigned int, unsigned int&)+0x47c>
 340:	e28d000c 	add	r0, sp, #12
 344:	ebfffffe 	bl	0 <PropertiesBuilder::AddComment(char const*)>
 348:	e5943004 	ldr	r3, [r4, #4]
 34c:	e28d000c 	add	r0, sp, #12
 350:	e1d420bb 	ldrh	r2, [r4, #11]
 354:	e7e03153 	ubfx	r3, r3, #2, #1
 358:	e59f1120 	ldr	r1, [pc, #288]	; 480 <PixelDmxParams::Builder(pixeldmxparams::Params const*, char*, unsigned int, unsigned int&)+0x480>
 35c:	ebfffffe 	bl	0 <PixelDmxParams::Builder(pixeldmxparams::Params const*, char*, unsigned int, unsigned int&)>
 360:	e5943004 	ldr	r3, [r4, #4]
 364:	e1a01006 	mov	r1, r6
 368:	e0d820b2 	ldrh	r2, [r8], #2
 36c:	e28d000c 	add	r0, sp, #12
 370:	e0033517 	and	r3, r3, r7, lsl r5
 374:	e2866014 	add	r6, r6, #20
 378:	e1530517 	cmp	r3, r7, lsl r5
 37c:	e2855001 	add	r5, r5, #1
 380:	03a03001 	moveq	r3, #1
 384:	13a03000 	movne	r3, #0
 388:	ebfffffe 	bl	0 <PixelDmxParams::Builder(pixeldmxparams::Params const*, char*, unsigned int, unsigned int&)>
 38c:	e3550008 	cmp	r5, #8
 390:	1afffff2 	bne	360 <PixelDmxParams::Builder(pixeldmxparams::Params const*, char*, unsigned int, unsigned int&)+0x360>
 394:	e59f10e8 	ldr	r1, [pc, #232]	; 484 <PixelDmxParams::Builder(pixeldmxparams::Params const*, char*, unsigned int, unsigned int&)+0x484>
 398:	e28d000c 	add	r0, sp, #12
 39c:	ebfffffe 	bl	0 <PropertiesBuilder::AddComment(char const*)>
 3a0:	e5943004 	ldr	r3, [r4, #4]
 3a4:	e28d000c 	add	r0, sp, #12
 3a8:	e5d42014 	ldrb	r2, [r4, #20]
 3ac:	e7e031d3 	ubfx	r3, r3, #3, #1
 3b0:	e59f10d0 	ldr	r1, [pc, #208]	; 488 <PixelDmxParams::Builder(pixeldmxparams::Params const*, char*, unsigned int, unsigned int&)+0x488>
 3b4:	ebfffffe 	bl	0 <PixelDmxParams::Builder(pixeldmxparams::Params const*, char*, unsigned int, unsigned int&)>
 3b8:	e5dd3014 	ldrb	r3, [sp, #20]
 3bc:	e3530000 	cmp	r3, #0
 3c0:	0a00000a 	beq	3f0 <PixelDmxParams::Builder(pixeldmxparams::Params const*, char*, unsigned int, unsigned int&)+0x3f0>
 3c4:	e1dd21b2 	ldrh	r2, [sp, #18]
 3c8:	e59d300c 	ldr	r3, [sp, #12]
 3cc:	e0833002 	add	r3, r3, r2
 3d0:	e3a0207d 	mov	r2, #125	; 0x7d
 3d4:	e5432001 	strb	r2, [r3, #-1]
 3d8:	e59d100c 	ldr	r1, [sp, #12]
 3dc:	e1dd31b2 	ldrh	r3, [sp, #18]
 3e0:	e7c12003 	strb	r2, [r1, r3]
 3e4:	e1dd31b2 	ldrh	r3, [sp, #18]
 3e8:	e2833001 	add	r3, r3, #1
 3ec:	e1cd31b2 	strh	r3, [sp, #18]
 3f0:	e1dd31b2 	ldrh	r3, [sp, #18]
 3f4:	e59d2030 	ldr	r2, [sp, #48]	; 0x30
 3f8:	e59f1020 	ldr	r1, [pc, #32]	; 420 <PixelDmxParams::Builder(pixeldmxparams::Params const*, char*, unsigned int, unsigned int&)+0x420>
 3fc:	e5823000 	str	r3, [r2]
 400:	e59f0084 	ldr	r0, [pc, #132]	; 48c <PixelDmxParams::Builder(pixeldmxparams::Params const*, char*, unsigned int, unsigned int&)+0x48c>
 404:	e58d3000 	str	r3, [sp]
 408:	e300318f 	movw	r3, #399	; 0x18f
 40c:	e59f2010 	ldr	r2, [pc, #16]	; 424 <PixelDmxParams::Builder(pixeldmxparams::Params const*, char*, unsigned int, unsigned int&)+0x424>
 410:	ebfffffe 	bl	0 <printf>
 414:	e28dd018 	add	sp, sp, #24
 418:	e8bd81f0 	pop	{r4, r5, r6, r7, r8, pc}
	...
 424:	00000018 	.word	0x00000018
	...
 43c:	00000009 	.word	0x00000009
 440:	00000010 	.word	0x00000010
 444:	00000008 	.word	0x00000008
 448:	00000000 	.word	0x00000000
 44c:	00000012 	.word	0x00000012
 450:	00000000 	.word	0x00000000
 454:	00000026 	.word	0x00000026
	...
 460:	0000003c 	.word	0x0000003c
 464:	00000000 	.word	0x00000000
 468:	00000045 	.word	0x00000045
 46c:	00000000 	.word	0x00000000
 470:	00000057 	.word	0x00000057
	...
 47c:	00000065 	.word	0x00000065
 480:	00000000 	.word	0x00000000
 484:	00000069 	.word	0x00000069
 488:	00000000 	.word	0x00000000
 48c:	00000076 	.word	0x00000076

Disassembly of section .text._ZN14PixelDmxParams4SaveEPcjRj:

00000000 <PixelDmxParams::Save(char*, unsigned int, unsigned int&)>:
   0:	e590c000 	ldr	ip, [r0]
   4:	e35c0000 	cmp	ip, #0
   8:	1a000001 	bne	14 <PixelDmxParams::Save(char*, unsigned int, unsigned int&)+0x14>
   c:	e583c000 	str	ip, [r3]
  10:	e12fff1e 	bx	lr
  14:	e92d4007 	push	{r0, r1, r2, lr}
  18:	e58d3000 	str	r3, [sp]
  1c:	e1a03002 	mov	r3, r2
  20:	e1a02001 	mov	r2, r1
  24:	e3a01000 	mov	r1, #0
  28:	ebfffffe 	bl	0 <PixelDmxParams::Save(char*, unsigned int, unsigned int&)>
  2c:	e28dd00c 	add	sp, sp, #12
  30:	e49df004 	pop	{pc}		; (ldr pc, [sp], #4)

Disassembly of section .text._ZN14PixelDmxParams3SetEP21PixelDmxConfiguration:

00000000 <PixelDmxParams::Set(PixelDmxConfiguration*)>:
   0:	e92d4070 	push	{r4, r5, r6, lr}
   4:	e2514000 	subs	r4, r1, #0
   8:	e1a05000 	mov	r5, r0
   c:	1a000004 	bne	24 <PixelDmxParams::Set(PixelDmxConfiguration*)+0x24>
  10:	e59f30b0 	ldr	r3, [pc, #176]	; c8 <PixelDmxParams::Set(PixelDmxConfiguration*)+0xc8>
  14:	e3a01f67 	mov	r1, #412	; 0x19c
  18:	e59f20ac 	ldr	r2, [pc, #172]	; cc <PixelDmxParams::Set(PixelDmxConfiguration*)+0xcc>
  1c:	e59f00ac 	ldr	r0, [pc, #172]	; d0 <PixelDmxParams::Set(PixelDmxConfiguration*)+0xd0>
  20:	ebfffffe 	bl	0 <__assert_func>
  24:	e5953004 	ldr	r3, [r5, #4]
  28:	e3130001 	tst	r3, #1
  2c:	15d52008 	ldrbne	r2, [r5, #8]
  30:	15842000 	strne	r2, [r4]
  34:	e3130002 	tst	r3, #2
  38:	0a000003 	beq	4c <PixelDmxParams::Set(PixelDmxConfiguration*)+0x4c>
  3c:	e1d520b9 	ldrh	r2, [r5, #9]
  40:	e3520000 	cmp	r2, #0
  44:	03a020aa 	moveq	r2, #170	; 0xaa
  48:	e5842004 	str	r2, [r4, #4]
  4c:	e3130c02 	tst	r3, #512	; 0x200
  50:	15d52017 	ldrbne	r2, [r5, #23]
  54:	15842008 	strne	r2, [r4, #8]
  58:	e3130b01 	tst	r3, #1024	; 0x400
  5c:	15d52018 	ldrbne	r2, [r5, #24]
  60:	15c42010 	strbne	r2, [r4, #16]
  64:	e3130b02 	tst	r3, #2048	; 0x800
  68:	15d52019 	ldrbne	r2, [r5, #25]
  6c:	15c42011 	strbne	r2, [r4, #17]
  70:	e3130010 	tst	r3, #16
  74:	1595200e 	ldrne	r2, [r5, #14]
  78:	1584200c 	strne	r2, [r4, #12]
  7c:	e3130020 	tst	r3, #32
  80:	15d52012 	ldrbne	r2, [r5, #18]
  84:	15c42012 	strbne	r2, [r4, #18]
  88:	e3130080 	tst	r3, #128	; 0x80
  8c:	0a000004 	beq	a4 <PixelDmxParams::Set(PixelDmxConfiguration*)+0xa4>
  90:	e3a02001 	mov	r2, #1
  94:	e5c42014 	strb	r2, [r4, #20]
  98:	e5d5200d 	ldrb	r2, [r5, #13]
  9c:	e3520000 	cmp	r2, #0
  a0:	15c42013 	strbne	r2, [r4, #19]
  a4:	e3130004 	tst	r3, #4
  a8:	15d5200b 	ldrbne	r2, [r5, #11]
  ac:	15d5100c 	ldrbne	r1, [r5, #12]
  b0:	11822401 	orrne	r2, r2, r1, lsl #8
  b4:	11c422b4 	strhne	r2, [r4, #36]	; 0x24
  b8:	e3130c01 	tst	r3, #256	; 0x100
  bc:	11d531b5 	ldrhne	r3, [r5, #21]
  c0:	15843020 	strne	r3, [r4, #32]
  c4:	e8bd8070 	pop	{r4, r5, r6, pc}
  c8:	00000000 	.word	0x00000000
  cc:	00000022 	.word	0x00000022
  d0:	00000018 	.word	0x00000018

pixeldmxparamsdump.o:     file format elf32-littlearm


Disassembly of section .text._ZN14PixelDmxParams4DumpEv:

00000000 <PixelDmxParams::Dump()>:
   0:	e92d43f7 	push	{r0, r1, r2, r4, r5, r6, r7, r8, r9, lr}
   4:	e1a04000 	mov	r4, r0
   8:	e59f3218 	ldr	r3, [pc, #536]	; 228 <PixelDmxParams::Dump()+0x228>
   c:	e59f2218 	ldr	r2, [pc, #536]	; 22c <PixelDmxParams::Dump()+0x22c>
  10:	e59f1218 	ldr	r1, [pc, #536]	; 230 <PixelDmxParams::Dump()+0x230>
  14:	e59f0218 	ldr	r0, [pc, #536]	; 234 <PixelDmxParams::Dump()+0x234>
  18:	ebfffffe 	bl	0 <printf>
  1c:	e5943004 	ldr	r3, [r4, #4]
  20:	e3130001 	tst	r3, #1
  24:	0a000006 	beq	44 <PixelDmxParams::Dump()+0x44>
  28:	e5d40008 	ldrb	r0, [r4, #8]
  2c:	ebfffffe 	bl	0 <PixelType::GetType(pixel::Type)>
  30:	e5d43008 	ldrb	r3, [r4, #8]
  34:	e1a02000 	mov	r2, r0
  38:	e59f11f8 	ldr	r1, [pc, #504]	; 238 <PixelDmxParams::Dump()+0x238>
  3c:	e59f01f8 	ldr	r0, [pc, #504]	; 23c <PixelDmxParams::Dump()+0x23c>
  40:	ebfffffe 	bl	0 <printf>
  44:	e5943004 	ldr	r3, [r4, #4]
  48:	e3130c02 	tst	r3, #512	; 0x200
  4c:	0a000007 	beq	70 <PixelDmxParams::Dump()+0x70>
  50:	e5d45017 	ldrb	r5, [r4, #23]
  54:	e1a00005 	mov	r0, r5
  58:	ebfffffe 	bl	0 <PixelType::GetMap(pixel::Map)>
  5c:	e59f11dc 	ldr	r1, [pc, #476]	; 240 <PixelDmxParams::Dump()+0x240>
  60:	e1a03000 	mov	r3, r0
  64:	e59f01d8 	ldr	r0, [pc, #472]	; 244 <PixelDmxParams::Dump()+0x244>
  68:	e1a02005 	mov	r2, r5
  6c:	ebfffffe 	bl	0 <printf>
  70:	e5943004 	ldr	r3, [r4, #4]
  74:	e3130b01 	tst	r3, #1024	; 0x400
  78:	0a000008 	beq	a0 <PixelDmxParams::Dump()+0xa0>
  7c:	e5d40018 	ldrb	r0, [r4, #24]
  80:	ebfffffe 	bl	0 <PixelType::ConvertTxH(unsigned char)>
  84:	eef70ac0 	vcvt.f64.f32	d16, s0
  88:	e5d43018 	ldrb	r3, [r4, #24]
  8c:	e59f11b4 	ldr	r1, [pc, #436]	; 248 <PixelDmxParams::Dump()+0x248>
  90:	e58d3000 	str	r3, [sp]
  94:	e59f01b0 	ldr	r0, [pc, #432]	; 24c <PixelDmxParams::Dump()+0x24c>
  98:	ec532b30 	vmov	r2, r3, d16
  9c:	ebfffffe 	bl	0 <printf>
  a0:	e5943004 	ldr	r3, [r4, #4]
  a4:	e3130b02 	tst	r3, #2048	; 0x800
  a8:	0a000008 	beq	d0 <PixelDmxParams::Dump()+0xd0>
  ac:	e5d40019 	ldrb	r0, [r4, #25]
  b0:	ebfffffe 	bl	0 <PixelType::ConvertTxH(unsigned char)>
  b4:	eef70ac0 	vcvt.f64.f32	d16, s0
  b8:	e5d43019 	ldrb	r3, [r4, #25]
  bc:	e59f118c 	ldr	r1, [pc, #396]	; 250 <PixelDmxParams::Dump()+0x250>
  c0:	e58d3000 	str	r3, [sp]
  c4:	e59f0180 	ldr	r0, [pc, #384]	; 24c <PixelDmxParams::Dump()+0x24c>
  c8:	ec532b30 	vmov	r2, r3, d16
  cc:	ebfffffe 	bl	0 <printf>
  d0:	e5943004 	ldr	r3, [r4, #4]
  d4:	e3130002 	tst	r3, #2
  d8:	0a000003 	beq	ec <PixelDmxParams::Dump()+0xec>
  dc:	e1d420b9 	ldrh	r2, [r4, #9]
  e0:	e59f116c 	ldr	r1, [pc, #364]	; 254 <PixelDmxParams::Dump()+0x254>
  e4:	e59f016c 	ldr	r0, [pc, #364]	; 258 <PixelDmxParams::Dump()+0x258>
  e8:	ebfffffe 	bl	0 <printf>
  ec:	e59f6168 	ldr	r6, [pc, #360]	; 25c <PixelDmxParams::Dump()+0x25c>
  f0:	e284701a 	add	r7, r4, #26
  f4:	e59f915c 	ldr	r9, [pc, #348]	; 258 <PixelDmxParams::Dump()+0x258>
  f8:	e3a05000 	mov	r5, #0
  fc:	e3a08a01 	mov	r8, #4096	; 0x1000
 100:	e5943004 	ldr	r3, [r4, #4]
 104:	e0033518 	and	r3, r3, r8, lsl r5
 108:	e1530518 	cmp	r3, r8, lsl r5
 10c:	1a000003 	bne	120 <PixelDmxParams::Dump()+0x120>
 110:	e1d720b0 	ldrh	r2, [r7]
 114:	e1a01006 	mov	r1, r6
 118:	e1a00009 	mov	r0, r9
 11c:	ebfffffe 	bl	0 <printf>
 120:	e2855001 	add	r5, r5, #1
 124:	e2877002 	add	r7, r7, #2
 128:	e3550008 	cmp	r5, #8
 12c:	e2866014 	add	r6, r6, #20
 130:	1afffff2 	bne	100 <PixelDmxParams::Dump()+0x100>
 134:	e5943004 	ldr	r3, [r4, #4]
 138:	e3130040 	tst	r3, #64	; 0x40
 13c:	0a000003 	beq	150 <PixelDmxParams::Dump()+0x150>
 140:	e5d42013 	ldrb	r2, [r4, #19]
 144:	e59f1114 	ldr	r1, [pc, #276]	; 260 <PixelDmxParams::Dump()+0x260>
 148:	e59f0108 	ldr	r0, [pc, #264]	; 258 <PixelDmxParams::Dump()+0x258>
 14c:	ebfffffe 	bl	0 <printf>
 150:	e5943004 	ldr	r3, [r4, #4]
 154:	e3130c01 	tst	r3, #256	; 0x100
 158:	0a000003 	beq	16c <PixelDmxParams::Dump()+0x16c>
 15c:	e1d421b5 	ldrh	r2, [r4, #21]
 160:	e59f10fc 	ldr	r1, [pc, #252]	; 264 <PixelDmxParams::Dump()+0x264>
 164:	e59f00ec 	ldr	r0, [pc, #236]	; 258 <PixelDmxParams::Dump()+0x258>
 168:	ebfffffe 	bl	0 <printf>
 16c:	e5943004 	ldr	r3, [r4, #4]
 170:	e3130010 	tst	r3, #16
 174:	0a000003 	beq	188 <PixelDmxParams::Dump()+0x188>
 178:	e594200e 	ldr	r2, [r4, #14]
 17c:	e59f10e4 	ldr	r1, [pc, #228]	; 268 <PixelDmxParams::Dump()+0x268>
 180:	e59f00d0 	ldr	r0, [pc, #208]	; 258 <PixelDmxParams::Dump()+0x258>
 184:	ebfffffe 	bl	0 <printf>
 188:	e5943004 	ldr	r3, [r4, #4]
 18c:	e3130020 	tst	r3, #32
 190:	0a000003 	beq	1a4 <PixelDmxParams::Dump()+0x1a4>
 194:	e5d42012 	ldrb	r2, [r4, #18]
 198:	e59f10cc 	ldr	r1, [pc, #204]	; 26c <PixelDmxParams::Dump()+0x26c>
 19c:	e59f00b4 	ldr	r0, [pc, #180]	; 258 <PixelDmxParams::Dump()+0x258>
 1a0:	ebfffffe 	bl	0 <printf>
 1a4:	e5943004 	ldr	r3, [r4, #4]
 1a8:	e3130004 	tst	r3, #4
 1ac:	0a000003 	beq	1c0 <PixelDmxParams::Dump()+0x1c0>
 1b0:	e1d420bb 	ldrh	r2, [r4, #11]
 1b4:	e59f10b4 	ldr	r1, [pc, #180]	; 270 <PixelDmxParams::Dump()+0x270>
 1b8:	e59f0098 	ldr	r0, [pc, #152]	; 258 <PixelDmxParams::Dump()+0x258>
 1bc:	ebfffffe 	bl	0 <printf>
 1c0:	e5943004 	ldr	r3, [r4, #4]
 1c4:	e3130008 	tst	r3, #8
 1c8:	0a000003 	beq	1dc <PixelDmxParams::Dump()+0x1dc>
 1cc:	e5d42014 	ldrb	r2, [r4, #20]
 1d0:	e59f109c 	ldr	r1, [pc, #156]	; 274 <PixelDmxParams::Dump()+0x274>
 1d4:	e59f007c 	ldr	r0, [pc, #124]	; 258 <PixelDmxParams::Dump()+0x258>
 1d8:	ebfffffe 	bl	0 <printf>
 1dc:	e5943004 	ldr	r3, [r4, #4]
 1e0:	e3130080 	tst	r3, #128	; 0x80
 1e4:	0a00000d 	beq	220 <PixelDmxParams::Dump()+0x220>
 1e8:	e59f1088 	ldr	r1, [pc, #136]	; 278 <PixelDmxParams::Dump()+0x278>
 1ec:	e59f0088 	ldr	r0, [pc, #136]	; 27c <PixelDmxParams::Dump()+0x27c>
 1f0:	ebfffffe 	bl	0 <printf>
 1f4:	e5d4300d 	ldrb	r3, [r4, #13]
 1f8:	eeb27a04 	vmov.f32	s14, #36	; 0x41200000  10.0
 1fc:	ee073a90 	vmov	s15, r3
 200:	e58d3000 	str	r3, [sp]
 204:	e59f1074 	ldr	r1, [pc, #116]	; 280 <PixelDmxParams::Dump()+0x280>
 208:	e59f0074 	ldr	r0, [pc, #116]	; 284 <PixelDmxParams::Dump()+0x284>
 20c:	eef86a67 	vcvt.f32.u32	s13, s15
 210:	eec67a87 	vdiv.f32	s15, s13, s14
 214:	eef70ae7 	vcvt.f64.f32	d16, s15
 218:	ec532b30 	vmov	r2, r3, d16
 21c:	ebfffffe 	bl	0 <printf>
 220:	e28dd00c 	add	sp, sp, #12
 224:	e8bd83f0 	pop	{r4, r5, r6, r7, r8, r9, pc}
	...
 230:	00000005 	.word	0x00000005
 234:	00000027 	.word	0x00000027
 238:	00000000 	.word	0x00000000
 23c:	00000035 	.word	0x00000035
 240:	00000000 	.word	0x00000000
 244:	00000042 	.word	0x00000042
 248:	00000000 	.word	0x00000000
 24c:	0000004f 	.word	0x0000004f
	...
 258:	00000060 	.word	0x00000060
	...
 27c:	00000068 	.word	0x00000068
 280:	00000000 	.word	0x00000000
 284:	00000075 	.word	0x00000075

pixeldmxparamsrdm.o:     file format elf32-littlearm


Disassembly of section .text._ZN8LightSet8BlackoutEb:

00000000 <LightSet::Blackout(bool)>:
   0:	e12fff1e 	bx	lr

Disassembly of section .text._ZN8LightSet6FullOnEv:

00000000 <LightSet::FullOn()>:
   0:	e12fff1e 	bx	lr

Disassembly of section .text._ZN8LightSet5PrintEv:

00000000 <LightSet::Print()>:
   0:	e12fff1e 	bx	lr

Disassembly of section .text._ZN17PixelDmxParamsRdm18SetDmxStartAddressEt:

00000000 <PixelDmxParamsRdm::SetDmxStartAddress(unsigned short)>:
   0:	e3a00000 	mov	r0, #0
   4:	e12fff1e 	bx	lr

Disassembly of section .text._ZN17PixelDmxParamsRdm18GetDmxStartAddressEv:

00000000 <PixelDmxParamsRdm::GetDmxStartAddress()>:
   0:	e3a00001 	mov	r0, #1
   4:	e12fff1e 	bx	lr

Disassembly of section .text._ZN17PixelDmxParamsRdm15GetDmxFootprintEv:

00000000 <PixelDmxParamsRdm::GetDmxFootprint()>:
   0:	e3a00006 	mov	r0, #6
   4:	e12fff1e 	bx	lr

Disassembly of section .text._ZN17PixelDmxParamsRdm11GetSlotInfoEtRN8lightset8SlotInfoE:

00000000 <PixelDmxParamsRdm::GetSlotInfo(unsigned short, lightset::SlotInfo&)>:
   0:	e3510005 	cmp	r1, #5
   4:	93a01000 	movls	r1, #0
   8:	93e03000 	mvnls	r3, #0
   c:	95c21002 	strbls	r1, [r2, #2]
  10:	93a00001 	movls	r0, #1
  14:	91c230b0 	strhls	r3, [r2]
  18:	83a00000 	movhi	r0, #0
  1c:	e12fff1e 	bx	lr

Disassembly of section .text._ZN17PixelDmxParamsRdmD2Ev:

00000000 <PixelDmxParamsRdm::~PixelDmxParamsRdm()>:
   0:	e12fff1e 	bx	lr

Disassembly of section .text._ZN17PixelDmxParamsRdm5StartEj:

00000000 <PixelDmxParamsRdm::Start(unsigned int)>:
   0:	e92d4010 	push	{r4, lr}
   4:	e3002000 	movw	r2, #0
   8:	e3402000 	movt	r2, #0
   c:	e1a04001 	mov	r4, r1
  10:	e3000000 	movw	r0, #0
  14:	e3001000 	movw	r1, #0
  18:	e3401000 	movt	r1, #0
  1c:	e3a03034 	mov	r3, #52	; 0x34
  20:	e3400000 	movt	r0, #0
  24:	ebfffffe 	bl	0 <printf>
  28:	e3540000 	cmp	r4, #0
  2c:	1a000008 	bne	54 <PixelDmxParamsRdm::Start(unsigned int)+0x54>
  30:	e3002000 	movw	r2, #0
  34:	e3001000 	movw	r1, #0
  38:	e3402000 	movt	r2, #0
  3c:	e3000000 	movw	r0, #0
  40:	e8bd4010 	pop	{r4, lr}
  44:	e3401000 	movt	r1, #0
  48:	e3a03037 	mov	r3, #55	; 0x37
  4c:	e3400000 	movt	r0, #0
  50:	eafffffe 	b	0 <printf>
  54:	e3003000 	movw	r3, #0
  58:	e3002000 	movw	r2, #0
  5c:	e3403000 	movt	r3, #0
  60:	e3000000 	movw	r0, #0
  64:	e3402000 	movt	r2, #0
  68:	e3a01035 	mov	r1, #53	; 0x35
  6c:	e3400000 	movt	r0, #0
  70:	ebfffffe 	bl	0 <__assert_func>
  74:	eaffffed 	b	30 <PixelDmxParamsRdm::Start(unsigned int)+0x30>

Disassembly of section .text._ZN17PixelDmxParamsRdm4StopEj:

00000000 <PixelDmxParamsRdm::Stop(unsigned int)>:
   0:	e92d4010 	push	{r4, lr}
   4:	e3002000 	movw	r2, #0
   8:	e3402000 	movt	r2, #0
   c:	e1a04001 	mov	r4, r1
  10:	e3000000 	movw	r0, #0
  14:	e3001000 	movw	r1, #0
  18:	e3401000 	movt	r1, #0
  1c:	e3a0303b 	mov	r3, #59	; 0x3b
  20:	e3400000 	movt	r0, #0
  24:	ebfffffe 	bl	0 <printf>
  28:	e3540000 	cmp	r4, #0
  2c:	1a000008 	bne	54 <PixelDmxParamsRdm::Stop(unsigned int)+0x54>
  30:	e3002000 	movw	r2, #0
  34:	e3001000 	movw	r1, #0
  38:	e3402000 	movt	r2, #0
  3c:	e3000000 	movw	r0, #0
  40:	e8bd4010 	pop	{r4, lr}
  44:	e3401000 	movt	r1, #0
  48:	e3a0303e 	mov	r3, #62	; 0x3e
  4c:	e3400000 	movt	r0, #0
  50:	eafffffe 	b	0 <printf>
  54:	e3003000 	movw	r3, #0
  58:	e3002000 	movw	r2, #0
  5c:	e3403000 	movt	r3, #0
  60:	e3000000 	movw	r0, #0
  64:	e3402000 	movt	r2, #0
  68:	e3a0103c 	mov	r1, #60	; 0x3c
  6c:	e3400000 	movt	r0, #0
  70:	ebfffffe 	bl	0 <__assert_func>
  74:	eaffffed 	b	30 <PixelDmxParamsRdm::Stop(unsigned int)+0x30>

Disassembly of section .text._ZN17PixelDmxParamsRdmD0Ev:

00000000 <PixelDmxParamsRdm::~PixelDmxParamsRdm()>:
   0:	e92d4010 	push	{r4, lr}
   4:	e1a04000 	mov	r4, r0
   8:	ebfffffe 	bl	0 <operator delete(void*)>
   c:	e1a00004 	mov	r0, r4
  10:	e8bd8010 	pop	{r4, pc}

Disassembly of section .text._ZN17PixelDmxParamsRdmC2EP13PixelDmxStore:

00000000 <PixelDmxParamsRdm::PixelDmxParamsRdm(PixelDmxStore*)>:
   0:	e59f3060 	ldr	r3, [pc, #96]	; 68 <PixelDmxParamsRdm::PixelDmxParamsRdm(PixelDmxStore*)+0x68>
   4:	e92d41f0 	push	{r4, r5, r6, r7, r8, lr}
   8:	e3006000 	movw	r6, #0
   c:	e3406000 	movt	r6, #0
  10:	e3005000 	movw	r5, #0
  14:	e3405000 	movt	r5, #0
  18:	e1a04000 	mov	r4, r0
  1c:	e5803000 	str	r3, [r0]
  20:	e3000000 	movw	r0, #0
  24:	e3400000 	movt	r0, #0
  28:	e1a07001 	mov	r7, r1
  2c:	e1a02006 	mov	r2, r6
  30:	e1a01005 	mov	r1, r5
  34:	e3a0302c 	mov	r3, #44	; 0x2c
  38:	ebfffffe 	bl	0 <printf>
  3c:	e3003000 	movw	r3, #0
  40:	e3000000 	movw	r0, #0
  44:	e3403000 	movt	r3, #0
  48:	e1a02006 	mov	r2, r6
  4c:	e3400000 	movt	r0, #0
  50:	e1a01005 	mov	r1, r5
  54:	e5837000 	str	r7, [r3]
  58:	e3a03030 	mov	r3, #48	; 0x30
  5c:	ebfffffe 	bl	0 <printf>
  60:	e1a00004 	mov	r0, r4
  64:	e8bd81f0 	pop	{r4, r5, r6, r7, r8, pc}
  68:	00000008 	.word	0x00000008

Disassembly of section .text._ZN17PixelDmxParamsRdm7DisplayEPKh:

00000000 <PixelDmxParamsRdm::Display(unsigned char const*)>:
   0:	e12fff1e 	bx	lr

Disassembly of section .text._ZN17PixelDmxParamsRdm7SetDataEjPKhj:

00000000 <PixelDmxParamsRdm::SetData(unsigned int, unsigned char const*, unsigned int)>:
   0:	e3510000 	cmp	r1, #0
   4:	e92d40f0 	push	{r4, r5, r6, r7, lr}
   8:	e1a06000 	mov	r6, r0
   c:	e24dd00c 	sub	sp, sp, #12
  10:	e1a04002 	mov	r4, r2
  14:	e1a05003 	mov	r5, r3
  18:	1a000047 	bne	13c <PixelDmxParamsRdm::SetData(unsigned int, unsigned char const*, unsigned int)+0x13c>
  1c:	e3550005 	cmp	r5, #5
  20:	9a000008 	bls	48 <PixelDmxParamsRdm::SetData(unsigned int, unsigned char const*, unsigned int)+0x48>
  24:	e5d43005 	ldrb	r3, [r4, #5]
  28:	e3530000 	cmp	r3, #0
  2c:	1a000007 	bne	50 <PixelDmxParamsRdm::SetData(unsigned int, unsigned char const*, unsigned int)+0x50>
  30:	e3002000 	movw	r2, #0
  34:	e3402000 	movt	r2, #0
  38:	e5c23000 	strb	r3, [r2]
  3c:	e1a01004 	mov	r1, r4
  40:	e1a00006 	mov	r0, r6
  44:	ebfffffe 	bl	0 <PixelDmxParamsRdm::SetData(unsigned int, unsigned char const*, unsigned int)>
  48:	e28dd00c 	add	sp, sp, #12
  4c:	e8bd80f0 	pop	{r4, r5, r6, r7, pc}
  50:	e35300ff 	cmp	r3, #255	; 0xff
  54:	0a000005 	beq	70 <PixelDmxParamsRdm::SetData(unsigned int, unsigned char const*, unsigned int)+0x70>
  58:	e2433001 	sub	r3, r3, #1
  5c:	e6ef3073 	uxtb	r3, r3
  60:	e35300fd 	cmp	r3, #253	; 0xfd
  64:	8afffff4 	bhi	3c <PixelDmxParamsRdm::SetData(unsigned int, unsigned char const*, unsigned int)+0x3c>
  68:	e28dd00c 	add	sp, sp, #12
  6c:	e8bd80f0 	pop	{r4, r5, r6, r7, pc}
  70:	e3005000 	movw	r5, #0
  74:	e3405000 	movt	r5, #0
  78:	e5d53000 	ldrb	r3, [r5]
  7c:	e3530000 	cmp	r3, #0
  80:	1affffed 	bne	3c <PixelDmxParamsRdm::SetData(unsigned int, unsigned char const*, unsigned int)+0x3c>
  84:	e3001000 	movw	r1, #0
  88:	e3007000 	movw	r7, #0
  8c:	e3401000 	movt	r1, #0
  90:	e3002000 	movw	r2, #0
  94:	e3407000 	movt	r7, #0
  98:	e3000000 	movw	r0, #0
  9c:	e58d1000 	str	r1, [sp]
  a0:	e3001000 	movw	r1, #0
  a4:	e3402000 	movt	r2, #0
  a8:	e3a03059 	mov	r3, #89	; 0x59
  ac:	e3401000 	movt	r1, #0
  b0:	e3400000 	movt	r0, #0
  b4:	ebfffffe 	bl	0 <printf>
  b8:	e5970000 	ldr	r0, [r7]
  bc:	e3e03000 	mvn	r3, #0
  c0:	e5c53000 	strb	r3, [r5]
  c4:	e5d41000 	ldrb	r1, [r4]
  c8:	e5903000 	ldr	r3, [r0]
  cc:	e351000e 	cmp	r1, #14
  d0:	e5933008 	ldr	r3, [r3, #8]
  d4:	23a0100e 	movcs	r1, #14
  d8:	e12fff33 	blx	r3
  dc:	e5970000 	ldr	r0, [r7]
  e0:	e5d41001 	ldrb	r1, [r4, #1]
  e4:	e5903000 	ldr	r3, [r0]
  e8:	e593300c 	ldr	r3, [r3, #12]
  ec:	e12fff33 	blx	r3
  f0:	e5970000 	ldr	r0, [r7]
  f4:	e5d41002 	ldrb	r1, [r4, #2]
  f8:	e5903000 	ldr	r3, [r0]
  fc:	e5933010 	ldr	r3, [r3, #16]
 100:	e12fff33 	blx	r3
 104:	e5970000 	ldr	r0, [r7]
 108:	e5d41003 	ldrb	r1, [r4, #3]
 10c:	e5903000 	ldr	r3, [r0]
 110:	e3510006 	cmp	r1, #6
 114:	e5933014 	ldr	r3, [r3, #20]
 118:	23a01006 	movcs	r1, #6
 11c:	e12fff33 	blx	r3
 120:	e5970000 	ldr	r0, [r7]
 124:	e5d41004 	ldrb	r1, [r4, #4]
 128:	e5903000 	ldr	r3, [r0]
 12c:	e5933018 	ldr	r3, [r3, #24]
 130:	e12fff33 	blx	r3
 134:	e5d43005 	ldrb	r3, [r4, #5]
 138:	eaffffc6 	b	58 <PixelDmxParamsRdm::SetData(unsigned int, unsigned char const*, unsigned int)+0x58>
 13c:	e3003000 	movw	r3, #0
 140:	e3002000 	movw	r2, #0
 144:	e3403000 	movt	r3, #0
 148:	e3000000 	movw	r0, #0
 14c:	e3402000 	movt	r2, #0
 150:	e3a01042 	mov	r1, #66	; 0x42
 154:	e3400000 	movt	r0, #0
 158:	ebfffffe 	bl	0 <__assert_func>
 15c:	eaffffae 	b	1c <PixelDmxParamsRdm::SetData(unsigned int, unsigned char const*, unsigned int)+0x1c>
