In archive lib7/libhal.a:

font.o:     file format elf32-littlearm


Disassembly of section .text:

00000000 <FONT>:
	...
 210:	08000000 	stmdaeq	r0, {}	; <UNPREDICTABLE>
 214:	08080808 	stmdaeq	r8, {r3, fp}
 218:	08080008 	stmdaeq	r8, {r3}
 21c:	00000000 	andeq	r0, r0, r0
 220:	14000000 	strne	r0, [r0], #-0
 224:	00141414 	andseq	r1, r4, r4, lsl r4
	...
 230:	48480000 	stmdami	r8, {}^	; <UNPREDICTABLE>
 234:	2424fe68 	strtcs	pc, [r4], #-3688	; 0xfffff198
 238:	1212147f 	andsne	r1, r2, #2130706432	; 0x7f000000
 23c:	00000000 	andeq	r0, r0, r0
 240:	10000000 	andne	r0, r0, r0
 244:	1c12927c 	lfmne	f1, 1, [r2], {124}	; 0x7c
 248:	7c929070 	ldcvc	0, cr9, [r2], {112}	; 0x70
 24c:	00001010 	andeq	r1, r0, r0, lsl r0
 250:	06000000 	streq	r0, [r0], -r0
 254:	38460909 	stmdacc	r6, {r0, r3, r8, fp}^
 258:	60909066 	addsvs	r9, r0, r6, rrx
 25c:	00000000 	andeq	r0, r0, r0
 260:	38000000 	stmdacc	r0, {}	; <UNPREDICTABLE>
 264:	920c0404 	andls	r0, ip, #4, 8	; 0x4000000
 268:	bc46a2b2 	sfmlt	f2, 3, [r6], {178}	; 0xb2
 26c:	00000000 	andeq	r0, r0, r0
 270:	08000000 	stmdaeq	r0, {}	; <UNPREDICTABLE>
 274:	00080808 	andeq	r0, r8, r8, lsl #16
	...
 280:	10103000 	andsne	r3, r0, r0
 284:	08080808 	stmdaeq	r8, {r3, fp}
 288:	10100808 	andsne	r0, r0, r8, lsl #16
 28c:	00000020 	andeq	r0, r0, r0, lsr #32
 290:	08080c00 	stmdaeq	r8, {sl, fp}
 294:	10101010 	andsne	r1, r0, r0, lsl r0
 298:	08081010 	stmdaeq	r8, {r4, ip}
 29c:	0000000c 	andeq	r0, r0, ip
 2a0:	10000000 	andne	r0, r0, r0
 2a4:	d6387c92 			; <UNDEFINED> instruction: 0xd6387c92
 2a8:	00000010 	andeq	r0, r0, r0, lsl r0
	...
 2b4:	7f080808 	svcvc	0x00080808
 2b8:	00080808 	andeq	r0, r8, r8, lsl #16
	...
 2c8:	18180000 	ldmdane	r8, {}	; <UNPREDICTABLE>
 2cc:	00000408 	andeq	r0, r0, r8, lsl #8
	...
 2d8:	0000001c 	andeq	r0, r0, ip, lsl r0
	...
 2e8:	18180000 	ldmdane	r8, {}	; <UNPREDICTABLE>
 2ec:	00000000 	andeq	r0, r0, r0
 2f0:	40000000 	andmi	r0, r0, r0
 2f4:	10102020 	andsne	r2, r0, r0, lsr #32
 2f8:	04080818 	streq	r0, [r8], #-2072	; 0xfffff7e8
 2fc:	00000204 	andeq	r0, r0, r4, lsl #4
 300:	38000000 	stmdacc	r0, {}	; <UNPREDICTABLE>
 304:	92828244 	addls	r8, r2, #68, 4	; 0x40000004
 308:	38448282 	stmdacc	r4, {r1, r7, r9, pc}^
 30c:	00000000 	andeq	r0, r0, r0
 310:	1c000000 	stcne	0, cr0, [r0], {-0}
 314:	10101010 	andsne	r1, r0, r0, lsl r0
 318:	7c101010 	ldcvc	0, cr1, [r0], {16}
 31c:	00000000 	andeq	r0, r0, r0
 320:	7c000000 	stcvc	0, cr0, [r0], {-0}
 324:	408080c2 	addmi	r8, r0, r2, asr #1
 328:	fe041830 	vfmal.f16	d1, s8, s1[0]
 32c:	00000000 	andeq	r0, r0, r0
 330:	7c000000 	stcvc	0, cr0, [r0], {-0}
 334:	38c08082 	stmiacc	r0, {r1, r7, pc}^
 338:	7cc280c0 	stclvc	0, cr8, [r2], {192}	; 0xc0
 33c:	00000000 	andeq	r0, r0, r0
 340:	60000000 	andvs	r0, r0, r0
 344:	44485850 	strbmi	r5, [r8], #-2128	; 0xfffff7b0
 348:	4040fe42 	submi	pc, r0, r2, asr #28
 34c:	00000000 	andeq	r0, r0, r0
 350:	7e000000 	cdpvc	0, 0, cr0, cr0, cr0, {0}
 354:	c03e0202 	eorsgt	r0, lr, r2, lsl #4
 358:	3cc28080 	stclcc	0, cr8, [r2], {128}	; 0x80
 35c:	00000000 	andeq	r0, r0, r0
 360:	78000000 	stmdavc	r0, {}	; <UNPREDICTABLE>
 364:	c67a0284 	ldrbtgt	r0, [sl], -r4, lsl #5
 368:	78c48282 	stmiavc	r4, {r1, r7, r9, pc}^
 36c:	00000000 	andeq	r0, r0, r0
 370:	fe000000 	cdp2	0, 0, cr0, cr0, cr0, {0}
 374:	20204040 	eorcs	r4, r0, r0, asr #32
 378:	04081810 	streq	r1, [r8], #-2064	; 0xfffff7f0
 37c:	00000000 	andeq	r0, r0, r0
 380:	7c000000 	stcvc	0, cr0, [r0], {-0}
 384:	7c828282 	sfmvc	f0, 1, [r2], {130}	; 0x82
 388:	7c868282 	sfmvc	f0, 1, [r6], {130}	; 0x82
 38c:	00000000 	andeq	r0, r0, r0
 390:	3c000000 	stccc	0, cr0, [r0], {-0}
 394:	c6828246 	strgt	r8, [r2], r6, asr #4
 398:	3c4280bc 	mcrrcc	0, 11, r8, r2, cr12
	...
 3a4:	00181800 	andseq	r1, r8, r0, lsl #16
 3a8:	18180000 	ldmdane	r8, {}	; <UNPREDICTABLE>
	...
 3b4:	00181800 	andseq	r1, r8, r0, lsl #16
 3b8:	18180000 	ldmdane	r8, {}	; <UNPREDICTABLE>
 3bc:	00000408 	andeq	r0, r0, r8, lsl #8
 3c0:	00000000 	andeq	r0, r0, r0
 3c4:	0e708000 	cdpeq	0, 7, cr8, cr0, cr0, {0}
 3c8:	0080700e 	addeq	r7, r0, lr
	...
 3d4:	00fe0000 	rscseq	r0, lr, r0
 3d8:	0000fe00 	andeq	pc, r0, r0, lsl #28
	...
 3e4:	e01c0200 	ands	r0, ip, r0, lsl #4
 3e8:	00021ce0 	andeq	r1, r2, r0, ror #25
 3ec:	00000000 	andeq	r0, r0, r0
 3f0:	1c000000 	stcne	0, cr0, [r0], {-0}
 3f4:	08102022 	ldmdaeq	r0, {r1, r5, sp}
 3f8:	08080008 	stmdaeq	r8, {r3}
 3fc:	00000000 	andeq	r0, r0, r0
 400:	78000000 	stmdavc	r0, {}	; <UNPREDICTABLE>
 404:	92e284cc 	rscls	r8, r2, #204, 8	; 0xcc000000
 408:	04e29292 	strbteq	r9, [r2], #658	; 0x292
 40c:	0000780c 	andeq	r7, r0, ip, lsl #16
 410:	10000000 	andne	r0, r0, r0
 414:	44282828 	strtmi	r2, [r8], #-2088	; 0xfffff7d8
 418:	82c67c44 	sbchi	r7, r6, #68, 24	; 0x4400
 41c:	00000000 	andeq	r0, r0, r0
 420:	7e000000 	cdpvc	0, 0, cr0, cr0, cr0, {0}
 424:	7e828282 	cdpvc	2, 8, cr8, cr2, cr2, {4}
 428:	7e828282 	cdpvc	2, 8, cr8, cr2, cr2, {4}
 42c:	00000000 	andeq	r0, r0, r0
 430:	78000000 	stmdavc	r0, {}	; <UNPREDICTABLE>
 434:	02020284 	andeq	r0, r2, #132, 4	; 0x40000008
 438:	78840202 	stmvc	r4, {r1, r9}
 43c:	00000000 	andeq	r0, r0, r0
 440:	3e000000 	cdpcc	0, 0, cr0, cr0, cr0, {0}
 444:	82828242 	addhi	r8, r2, #536870916	; 0x20000004
 448:	3e428282 	cdpcc	2, 4, cr8, cr2, cr2, {4}
 44c:	00000000 	andeq	r0, r0, r0
 450:	fe000000 	cdp2	0, 0, cr0, cr0, cr0, {0}
 454:	fe020202 	cdp2	2, 0, cr0, cr2, cr2, {0}
 458:	fe020202 	cdp2	2, 0, cr0, cr2, cr2, {0}
 45c:	00000000 	andeq	r0, r0, r0
 460:	fe000000 	cdp2	0, 0, cr0, cr0, cr0, {0}
 464:	fe020202 	cdp2	2, 0, cr0, cr2, cr2, {0}
 468:	02020202 	andeq	r0, r2, #536870912	; 0x20000000
 46c:	00000000 	andeq	r0, r0, r0
 470:	78000000 	stmdavc	r0, {}	; <UNPREDICTABLE>
 474:	c2020284 	andgt	r0, r2, #132, 4	; 0x40000008
 478:	78848282 	stmvc	r4, {r1, r7, r9, pc}
 47c:	00000000 	andeq	r0, r0, r0
 480:	82000000 	andhi	r0, r0, #0
 484:	fe828282 	cdp2	2, 8, cr8, cr2, cr2, {4}
 488:	82828282 	addhi	r8, r2, #536870920	; 0x20000008
 48c:	00000000 	andeq	r0, r0, r0
 490:	3e000000 	cdpcc	0, 0, cr0, cr0, cr0, {0}
 494:	08080808 	stmdaeq	r8, {r3, fp}
 498:	3e080808 	cdpcc	8, 0, cr0, cr8, cr8, {0}
 49c:	00000000 	andeq	r0, r0, r0
 4a0:	38000000 	stmdacc	r0, {}	; <UNPREDICTABLE>
 4a4:	20202020 	eorcs	r2, r0, r0, lsr #32
 4a8:	1c222020 	stcne	0, cr2, [r2], #-128	; 0xffffff80
 4ac:	00000000 	andeq	r0, r0, r0
 4b0:	42000000 	andmi	r0, r0, #0
 4b4:	0e0a1222 	cdpeq	2, 0, cr1, cr10, cr2, {1}
 4b8:	42222212 	eormi	r2, r2, #536870913	; 0x20000001
 4bc:	00000000 	andeq	r0, r0, r0
 4c0:	02000000 	andeq	r0, r0, #0
 4c4:	02020202 	andeq	r0, r2, #536870912	; 0x20000000
 4c8:	fe020202 	cdp2	2, 0, cr0, cr2, cr2, {0}
 4cc:	00000000 	andeq	r0, r0, r0
 4d0:	c6000000 	strgt	r0, [r0], -r0
 4d4:	aaaaaac6 	bge	feaaaff4 <FONT+0xfeaaaff4>
 4d8:	82828292 	addhi	r8, r2, #536870921	; 0x20000009
 4dc:	00000000 	andeq	r0, r0, r0
 4e0:	86000000 	strhi	r0, [r0], -r0
 4e4:	928a8a86 	addls	r8, sl, #548864	; 0x86000
 4e8:	c2c2a2a2 	sbcgt	sl, r2, #536870922	; 0x2000000a
 4ec:	00000000 	andeq	r0, r0, r0
 4f0:	38000000 	stmdacc	r0, {}	; <UNPREDICTABLE>
 4f4:	82828244 	addhi	r8, r2, #68, 4	; 0x40000004
 4f8:	38448282 	stmdacc	r4, {r1, r7, r9, pc}^
 4fc:	00000000 	andeq	r0, r0, r0
 500:	7e000000 	cdpvc	0, 0, cr0, cr0, cr0, {0}
 504:	c28282c2 	addgt	r8, r2, #536870924	; 0x2000000c
 508:	0202027e 	andeq	r0, r2, #-536870905	; 0xe0000007
 50c:	00000000 	andeq	r0, r0, r0
 510:	38000000 	stmdacc	r0, {}	; <UNPREDICTABLE>
 514:	82828244 	addhi	r8, r2, #68, 4	; 0x40000004
 518:	78448282 	stmdavc	r4, {r1, r7, r9, pc}^
 51c:	00004060 	andeq	r4, r0, r0, rrx
 520:	7e000000 	cdpvc	0, 0, cr0, cr0, cr0, {0}
 524:	7e8282c2 	cdpvc	2, 8, cr8, cr2, cr2, {6}
 528:	02828242 	addeq	r8, r2, #536870916	; 0x20000004
 52c:	00000000 	andeq	r0, r0, r0
 530:	7c000000 	stcvc	0, cr0, [r0], {-0}
 534:	7c060286 	sfmvc	f0, 4, [r6], {134}	; 0x86
 538:	7dc280c0 	stclvc	0, cr8, [r2, #768]	; 0x300
 53c:	00000000 	andeq	r0, r0, r0
 540:	7f000000 	svcvc	0x00000000
 544:	08080808 	stmdaeq	r8, {r3, fp}
 548:	08080808 	stmdaeq	r8, {r3, fp}
 54c:	00000000 	andeq	r0, r0, r0
 550:	82000000 	andhi	r0, r0, #0
 554:	82828282 	addhi	r8, r2, #536870920	; 0x20000008
 558:	7c828282 	sfmvc	f0, 1, [r2], {130}	; 0x82
 55c:	00000000 	andeq	r0, r0, r0
 560:	82000000 	andhi	r0, r0, #0
 564:	444444c6 	strbmi	r4, [r4], #-1222	; 0xfffffb3a
 568:	10282828 	eorne	r2, r8, r8, lsr #16
 56c:	00000000 	andeq	r0, r0, r0
 570:	81000000 	mrshi	r0, (UNDEF: 0)
 574:	5a5a8181 	bpl	16a0b80 <FONT+0x16a0b80>
 578:	6666665a 			; <UNDEFINED> instruction: 0x6666665a
 57c:	00000000 	andeq	r0, r0, r0
 580:	c6000000 	strgt	r0, [r0], -r0
 584:	10382844 	eorsne	r2, r8, r4, asr #16
 588:	82446c28 	subhi	r6, r4, #40, 24	; 0x2800
 58c:	00000000 	andeq	r0, r0, r0
 590:	41000000 	mrsmi	r0, (UNDEF: 0)
 594:	08141422 	ldmdaeq	r4, {r1, r5, sl, ip}
 598:	08080808 	stmdaeq	r8, {r3, fp}
 59c:	00000000 	andeq	r0, r0, r0
 5a0:	fe000000 	cdp2	0, 0, cr0, cr0, cr0, {0}
 5a4:	102060c0 	eorne	r6, r0, r0, asr #1
 5a8:	fe060c08 	cdp2	12, 0, cr0, cr6, cr8, {0}
 5ac:	00000000 	andeq	r0, r0, r0
 5b0:	08083800 	stmdaeq	r8, {fp, ip, sp}
 5b4:	08080808 	stmdaeq	r8, {r3, fp}
 5b8:	08080808 	stmdaeq	r8, {r3, fp}
 5bc:	00000038 	andeq	r0, r0, r8, lsr r0
 5c0:	02000000 	andeq	r0, r0, #0
 5c4:	08080404 	stmdaeq	r8, {r2, sl}
 5c8:	20101018 	andscs	r1, r0, r8, lsl r0
 5cc:	00004020 	andeq	r4, r0, r0, lsr #32
 5d0:	10101c00 	andsne	r1, r0, r0, lsl #24
 5d4:	10101010 	andsne	r1, r0, r0, lsl r0
 5d8:	10101010 	andsne	r1, r0, r0, lsl r0
 5dc:	0000001c 	andeq	r0, r0, ip, lsl r0
 5e0:	08000000 	stmdaeq	r0, {}	; <UNPREDICTABLE>
 5e4:	00632214 	rsbeq	r2, r3, r4, lsl r2
	...
 5fc:	007f0000 	rsbseq	r0, pc, r0
 600:	10080000 	andne	r0, r8, r0
	...
 614:	40443800 	submi	r3, r4, r0, lsl #16
 618:	5c62427c 	sfmpl	f4, 2, [r2], #-496	; 0xfffffe10
 61c:	00000000 	andeq	r0, r0, r0
 620:	02020200 	andeq	r0, r2, #0, 4
 624:	42663e02 	rsbmi	r3, r6, #2, 28
 628:	3e664242 	cdpcc	2, 6, cr4, cr6, cr2, {2}
	...
 634:	02443800 	subeq	r3, r4, #0, 16
 638:	38440202 	stmdacc	r4, {r1, r9}^
 63c:	00000000 	andeq	r0, r0, r0
 640:	40404000 	submi	r4, r0, r0
 644:	42667c40 	rsbmi	r7, r6, #64, 24	; 0x4000
 648:	7c664242 	sfmvc	f4, 2, [r6], #-264	; 0xfffffef8
	...
 654:	42663c00 	rsbmi	r3, r6, #0, 24
 658:	3c46027e 	sfmcc	f0, 2, [r6], {126}	; 0x7e
 65c:	00000000 	andeq	r0, r0, r0
 660:	08083000 	stmdaeq	r8, {ip, sp}
 664:	08083e08 	stmdaeq	r8, {r3, r9, sl, fp, ip, sp}
 668:	08080808 	stmdaeq	r8, {r3, fp}
	...
 674:	42667c00 	rsbmi	r7, r6, #0, 24
 678:	5c664242 	sfmpl	f4, 2, [r6], #-264	; 0xfffffef8
 67c:	00384440 	eorseq	r4, r8, r0, asr #8
 680:	02020200 	andeq	r0, r2, #0, 4
 684:	42463a02 	submi	r3, r6, #8192	; 0x2000
 688:	42424242 	submi	r4, r2, #536870916	; 0x20000004
 68c:	00000000 	andeq	r0, r0, r0
 690:	00000800 	andeq	r0, r0, r0, lsl #16
 694:	08080e00 	stmdaeq	r8, {r9, sl, fp}
 698:	3e080808 	cdpcc	8, 0, cr0, cr8, cr8, {0}
 69c:	00000000 	andeq	r0, r0, r0
 6a0:	00001000 	andeq	r1, r0, r0
 6a4:	10101c00 	andsne	r1, r0, r0, lsl #24
 6a8:	10101010 	andsne	r1, r0, r0, lsl r0
 6ac:	000e1010 	andeq	r1, lr, r0, lsl r0
 6b0:	02020200 	andeq	r0, r2, #0, 4
 6b4:	0a122202 	beq	488ec4 <FONT+0x488ec4>
 6b8:	4222120e 	eormi	r1, r2, #-536870912	; 0xe0000000
 6bc:	00000000 	andeq	r0, r0, r0
 6c0:	08080e00 	stmdaeq	r8, {r9, sl, fp}
 6c4:	08080808 	stmdaeq	r8, {r3, fp}
 6c8:	70080808 	andvc	r0, r8, r8, lsl #16
	...
 6d4:	9292fe00 	addsls	pc, r2, #0, 28
 6d8:	92929292 	addsls	r9, r2, #536870921	; 0x20000009
	...
 6e4:	42463a00 	submi	r3, r6, #0, 20
 6e8:	42424242 	submi	r4, r2, #536870916	; 0x20000004
	...
 6f4:	42663c00 	rsbmi	r3, r6, #0, 24
 6f8:	3c664242 	sfmcc	f4, 2, [r6], #-264	; 0xfffffef8
	...
 704:	42663e00 	rsbmi	r3, r6, #0, 28
 708:	3e664242 	cdpcc	2, 6, cr4, cr6, cr2, {2}
 70c:	00020202 	andeq	r0, r2, r2, lsl #4
 710:	00000000 	andeq	r0, r0, r0
 714:	42667c00 	rsbmi	r7, r6, #0, 24
 718:	5c664242 	sfmpl	f4, 2, [r6], #-264	; 0xfffffef8
 71c:	00404040 	subeq	r4, r0, r0, asr #32
 720:	00000000 	andeq	r0, r0, r0
 724:	044c3c00 	strbeq	r3, [ip], #-3072	; 0xfffff400
 728:	04040404 	streq	r0, [r4], #-1028	; 0xfffffbfc
	...
 734:	02423c00 	subeq	r3, r2, #0, 24
 738:	3c42403c 	mcrrcc	0, 3, r4, r2, cr12
 73c:	00000000 	andeq	r0, r0, r0
 740:	08000000 	stmdaeq	r0, {}	; <UNPREDICTABLE>
 744:	08087e08 	stmdaeq	r8, {r3, r9, sl, fp, ip, sp, lr}
 748:	70080808 	andvc	r0, r8, r8, lsl #16
	...
 754:	42424200 	submi	r4, r2, #0, 4
 758:	5c624242 	sfmpl	f4, 2, [r2], #-264	; 0xfffffef8
	...
 764:	24664200 	strbtcs	r4, [r6], #-512	; 0xfffffe00
 768:	18183c24 	ldmdane	r8, {r2, r5, sl, fp, ip, sp}
	...
 774:	5a818100 	bpl	fe060b7c <FONT+0xfe060b7c>
 778:	24245a5a 	strtcs	r5, [r4], #-2650	; 0xfffff5a6
	...
 784:	18246600 	stmdane	r4!, {r9, sl, sp, lr}
 788:	66241818 			; <UNDEFINED> instruction: 0x66241818
	...
 794:	24444200 	strbcs	r4, [r4], #-512	; 0xfffffe00
 798:	10182824 	andsne	r2, r8, r4, lsr #16
 79c:	000c0810 	andeq	r0, ip, r0, lsl r8
 7a0:	00000000 	andeq	r0, r0, r0
 7a4:	20407e00 	subcs	r7, r0, r0, lsl #28
 7a8:	7e020418 	cfmvdlrvc	mvd2, r0
 7ac:	00000000 	andeq	r0, r0, r0
 7b0:	08083800 	stmdaeq	r8, {fp, ip, sp}
 7b4:	08060808 	stmdaeq	r6, {r3, fp}
 7b8:	08080808 	stmdaeq	r8, {r3, fp}
 7bc:	00000030 	andeq	r0, r0, r0, lsr r0
 7c0:	08080800 	stmdaeq	r8, {fp}
 7c4:	08080808 	stmdaeq	r8, {r3, fp}
 7c8:	08080808 	stmdaeq	r8, {r3, fp}
 7cc:	00000808 	andeq	r0, r0, r8, lsl #16
 7d0:	08080e00 	stmdaeq	r8, {r9, sl, fp}
 7d4:	08300808 	ldmdaeq	r0!, {r3, fp}
 7d8:	08080808 	stmdaeq	r8, {r3, fp}
 7dc:	00000006 	andeq	r0, r0, r6
 7e0:	00000000 	andeq	r0, r0, r0
 7e4:	9c000000 	stcls	0, cr0, [r0], {-0}
 7e8:	00000062 	andeq	r0, r0, r2, rrx
 7ec:	00000000 	andeq	r0, r0, r0
 7f0:	ffffffff 			; <UNDEFINED> instruction: 0xffffffff
 7f4:	ffffffff 			; <UNDEFINED> instruction: 0xffffffff
 7f8:	ffffffff 			; <UNDEFINED> instruction: 0xffffffff
 7fc:	ffffffff 			; <UNDEFINED> instruction: 0xffffffff

Disassembly of section .ARM.attributes:

00000000 <.ARM.attributes>:
   0:	00002041 	andeq	r2, r0, r1, asr #32
   4:	61656100 	cmnvs	r5, r0, lsl #2
   8:	01006962 	tsteq	r0, r2, ror #18
   c:	00000016 	andeq	r0, r0, r6, lsl r0
  10:	412d3705 			; <UNDEFINED> instruction: 0x412d3705
  14:	070a0600 	streq	r0, [sl, -r0, lsl #12]
  18:	09010841 	stmdbeq	r1, {r0, r6, fp}
  1c:	0c050a02 			; <UNDEFINED> instruction: 0x0c050a02
  20:	Address 0x0000000000000020 is out of bounds.


console_fb.o:     file format elf32-littlearm


Disassembly of section .text:

00000000 <console_init>:
   0:	eafffffe 	b	0 <fb_init>

00000004 <console_get_line_width>:
   4:	e3a00064 	mov	r0, #100	; 0x64
   8:	e12fff1e 	bx	lr

0000000c <console_set_top_row>:
   c:	e3003000 	movw	r3, #0
  10:	e3a02000 	mov	r2, #0
  14:	e3403000 	movt	r3, #0
  18:	e350001f 	cmp	r0, #31
  1c:	e5830008 	str	r0, [r3, #8]
  20:	21a00002 	movcs	r0, r2
  24:	e8830005 	stm	r3, {r0, r2}
  28:	e12fff1e 	bx	lr

0000002c <console_draw_char>:
  2c:	e92d47f0 	push	{r4, r5, r6, r7, r8, r9, sl, lr}
  30:	e3005000 	movw	r5, #0
  34:	e3405000 	movt	r5, #0
  38:	e3a0ee32 	mov	lr, #800	; 0x320
  3c:	e1a06181 	lsl	r6, r1, #3
  40:	e3001000 	movw	r1, #0
  44:	e1a02202 	lsl	r2, r2, #4
  48:	e2868008 	add	r8, r6, #8
  4c:	e0855200 	add	r5, r5, r0, lsl #4
  50:	e02e629e 	mla	lr, lr, r2, r6
  54:	e1dd42b0 	ldrh	r4, [sp, #32]
  58:	e2866001 	add	r6, r6, #1
  5c:	e3401000 	movt	r1, #0
  60:	e2857010 	add	r7, r5, #16
  64:	e1560008 	cmp	r6, r8
  68:	e4d59001 	ldrb	r9, [r5], #1
  6c:	83a0c001 	movhi	ip, #1
  70:	e1a0208e 	lsl	r2, lr, #1
  74:	93a0c008 	movls	ip, #8
  78:	e08cc00e 	add	ip, ip, lr
  7c:	e1a0a08c 	lsl	sl, ip, #1
  80:	e591c000 	ldr	ip, [r1]
  84:	e3190001 	tst	r9, #1
  88:	e1a090a9 	lsr	r9, r9, #1
  8c:	118230bc 	strhne	r3, [r2, ip]
  90:	018240bc 	strheq	r4, [r2, ip]
  94:	e2822002 	add	r2, r2, #2
  98:	e152000a 	cmp	r2, sl
  9c:	1afffff7 	bne	80 <console_draw_char+0x54>
  a0:	e1550007 	cmp	r5, r7
  a4:	e28eee32 	add	lr, lr, #800	; 0x320
  a8:	1affffed 	bne	64 <console_draw_char+0x38>
  ac:	e8bd87f0 	pop	{r4, r5, r6, r7, r8, r9, sl, pc}

000000b0 <console_putc>:
  b0:	e350000a 	cmp	r0, #10
  b4:	e92d4ff8 	push	{r3, r4, r5, r6, r7, r8, r9, sl, fp, lr}
  b8:	0a000060 	beq	240 <console_putc+0x190>
  bc:	e350000d 	cmp	r0, #13
  c0:	0a000059 	beq	22c <console_putc+0x17c>
  c4:	e3006000 	movw	r6, #0
  c8:	e3500009 	cmp	r0, #9
  cc:	e3406000 	movt	r6, #0
  d0:	e596a004 	ldr	sl, [r6, #4]
  d4:	1a000002 	bne	e4 <console_putc+0x34>
  d8:	e28aa004 	add	sl, sl, #4
  dc:	e586a004 	str	sl, [r6, #4]
  e0:	e8bd8ff8 	pop	{r3, r4, r5, r6, r7, r8, r9, sl, fp, pc}
  e4:	e1a0818a 	lsl	r8, sl, #3
  e8:	e3003000 	movw	r3, #0
  ec:	e596b008 	ldr	fp, [r6, #8]
  f0:	e3005000 	movw	r5, #0
  f4:	e3403000 	movt	r3, #0
  f8:	e2887008 	add	r7, r8, #8
  fc:	e3405000 	movt	r5, #0
 100:	e3a01c32 	mov	r1, #12800	; 0x3200
 104:	e0217b91 	mla	r1, r1, fp, r7
 108:	e0855200 	add	r5, r5, r0, lsl #4
 10c:	e3000000 	movw	r0, #0
 110:	e1d640bc 	ldrh	r4, [r6, #12]
 114:	e2859010 	add	r9, r5, #16
 118:	e1d3e0b0 	ldrh	lr, [r3]
 11c:	e1a01081 	lsl	r1, r1, #1
 120:	e3400000 	movt	r0, #0
 124:	e1580007 	cmp	r8, r7
 128:	e4d52001 	ldrb	r2, [r5], #1
 12c:	32413010 	subcc	r3, r1, #16
 130:	2a000007 	bcs	154 <console_putc+0xa4>
 134:	e590c000 	ldr	ip, [r0]
 138:	e3120001 	tst	r2, #1
 13c:	e1a020a2 	lsr	r2, r2, #1
 140:	118ce0b3 	strhne	lr, [ip, r3]
 144:	018c40b3 	strheq	r4, [ip, r3]
 148:	e2833002 	add	r3, r3, #2
 14c:	e1530001 	cmp	r3, r1
 150:	1afffff7 	bne	134 <console_putc+0x84>
 154:	e1550009 	cmp	r5, r9
 158:	e2811d19 	add	r1, r1, #1600	; 0x640
 15c:	1afffff0 	bne	124 <console_putc+0x74>
 160:	e28aa001 	add	sl, sl, #1
 164:	e586a004 	str	sl, [r6, #4]
 168:	e35a0064 	cmp	sl, #100	; 0x64
 16c:	18bd8ff8 	popne	{r3, r4, r5, r6, r7, r8, r9, sl, fp, pc}
 170:	e28bb001 	add	fp, fp, #1
 174:	e3a03000 	mov	r3, #0
 178:	e586b008 	str	fp, [r6, #8]
 17c:	e35b001e 	cmp	fp, #30
 180:	e5863004 	str	r3, [r6, #4]
 184:	18bd8ff8 	popne	{r3, r4, r5, r6, r7, r8, r9, sl, fp, pc}
 188:	e5963000 	ldr	r3, [r6]
 18c:	e3530000 	cmp	r3, #0
 190:	1a000064 	bne	328 <console_putc+0x278>
 194:	e3004000 	movw	r4, #0
 198:	e3052aa0 	movw	r2, #23200	; 0x5aa0
 19c:	e3404000 	movt	r4, #0
 1a0:	e5940000 	ldr	r0, [r4]
 1a4:	e2801b19 	add	r1, r0, #25600	; 0x6400
 1a8:	ebfffffe 	bl	0 <memcpy_blk>
 1ac:	e5940000 	ldr	r0, [r4]
 1b0:	e3a0c000 	mov	ip, #0
 1b4:	e1d620bc 	ldrh	r2, [r6, #12]
 1b8:	e2803ab5 	add	r3, r0, #741376	; 0xb5000
 1bc:	e2800abb 	add	r0, r0, #765952	; 0xbb000
 1c0:	e2833b01 	add	r3, r3, #1024	; 0x400
 1c4:	e2800e7e 	add	r0, r0, #2016	; 0x7e0
 1c8:	e1822802 	orr	r2, r2, r2, lsl #16
 1cc:	e5832000 	str	r2, [r3]
 1d0:	e28cc008 	add	ip, ip, #8
 1d4:	e5832004 	str	r2, [r3, #4]
 1d8:	e6ffc07c 	uxth	ip, ip
 1dc:	e5832008 	str	r2, [r3, #8]
 1e0:	e26c1c19 	rsb	r1, ip, #6400	; 0x1900
 1e4:	e583200c 	str	r2, [r3, #12]
 1e8:	e6ff1071 	uxth	r1, r1
 1ec:	e5832010 	str	r2, [r3, #16]
 1f0:	e5832014 	str	r2, [r3, #20]
 1f4:	e5832018 	str	r2, [r3, #24]
 1f8:	e583201c 	str	r2, [r3, #28]
 1fc:	f5d3f088 	pld	[r3, #136]	; 0x88
 200:	e2833020 	add	r3, r3, #32
 204:	e1530000 	cmp	r3, r0
 208:	1affffef 	bne	1cc <console_putc+0x11c>
 20c:	e0831101 	add	r1, r3, r1, lsl #2
 210:	e4832004 	str	r2, [r3], #4
 214:	e1510003 	cmp	r1, r3
 218:	1afffffc 	bne	210 <console_putc+0x160>
 21c:	e5963008 	ldr	r3, [r6, #8]
 220:	e2433001 	sub	r3, r3, #1
 224:	e5863008 	str	r3, [r6, #8]
 228:	e8bd8ff8 	pop	{r3, r4, r5, r6, r7, r8, r9, sl, fp, pc}
 22c:	e3003000 	movw	r3, #0
 230:	e3a02000 	mov	r2, #0
 234:	e3403000 	movt	r3, #0
 238:	e5832004 	str	r2, [r3, #4]
 23c:	e8bd8ff8 	pop	{r3, r4, r5, r6, r7, r8, r9, sl, fp, pc}
 240:	e3006000 	movw	r6, #0
 244:	e3a02000 	mov	r2, #0
 248:	e3406000 	movt	r6, #0
 24c:	e5963008 	ldr	r3, [r6, #8]
 250:	e5862004 	str	r2, [r6, #4]
 254:	e2833001 	add	r3, r3, #1
 258:	e5863008 	str	r3, [r6, #8]
 25c:	e353001e 	cmp	r3, #30
 260:	18bd8ff8 	popne	{r3, r4, r5, r6, r7, r8, r9, sl, fp, pc}
 264:	e5963000 	ldr	r3, [r6]
 268:	e1530002 	cmp	r3, r2
 26c:	0a000027 	beq	310 <console_putc+0x260>
 270:	e3004000 	movw	r4, #0
 274:	e3a02c32 	mov	r2, #12800	; 0x3200
 278:	e3404000 	movt	r4, #0
 27c:	e0030392 	mul	r3, r2, r3
 280:	e5940000 	ldr	r0, [r4]
 284:	e0800083 	add	r0, r0, r3, lsl #1
 288:	e2633a5a 	rsb	r3, r3, #368640	; 0x5a000
 28c:	e2833c0a 	add	r3, r3, #2560	; 0xa00
 290:	e2801b19 	add	r1, r0, #25600	; 0x6400
 294:	e1a02223 	lsr	r2, r3, #4
 298:	ebfffffe 	bl	0 <memcpy_blk>
 29c:	e5940000 	ldr	r0, [r4]
 2a0:	e3a0c000 	mov	ip, #0
 2a4:	e1d620bc 	ldrh	r2, [r6, #12]
 2a8:	e2803ab5 	add	r3, r0, #741376	; 0xb5000
 2ac:	e2800abb 	add	r0, r0, #765952	; 0xbb000
 2b0:	e2833b01 	add	r3, r3, #1024	; 0x400
 2b4:	e2800e7e 	add	r0, r0, #2016	; 0x7e0
 2b8:	e1822802 	orr	r2, r2, r2, lsl #16
 2bc:	e5832000 	str	r2, [r3]
 2c0:	e28cc008 	add	ip, ip, #8
 2c4:	e5832004 	str	r2, [r3, #4]
 2c8:	e6ffc07c 	uxth	ip, ip
 2cc:	e5832008 	str	r2, [r3, #8]
 2d0:	e26c1c19 	rsb	r1, ip, #6400	; 0x1900
 2d4:	e583200c 	str	r2, [r3, #12]
 2d8:	e6ff1071 	uxth	r1, r1
 2dc:	e5832010 	str	r2, [r3, #16]
 2e0:	e5832014 	str	r2, [r3, #20]
 2e4:	e5832018 	str	r2, [r3, #24]
 2e8:	e583201c 	str	r2, [r3, #28]
 2ec:	f5d3f088 	pld	[r3, #136]	; 0x88
 2f0:	e2833020 	add	r3, r3, #32
 2f4:	e1500003 	cmp	r0, r3
 2f8:	1affffef 	bne	2bc <console_putc+0x20c>
 2fc:	e0831101 	add	r1, r3, r1, lsl #2
 300:	e4832004 	str	r2, [r3], #4
 304:	e1530001 	cmp	r3, r1
 308:	1afffffc 	bne	300 <console_putc+0x250>
 30c:	eaffffc2 	b	21c <console_putc+0x16c>
 310:	e3004000 	movw	r4, #0
 314:	e3052aa0 	movw	r2, #23200	; 0x5aa0
 318:	e3404000 	movt	r4, #0
 31c:	e5940000 	ldr	r0, [r4]
 320:	e2801b19 	add	r1, r0, #25600	; 0x6400
 324:	eaffffdb 	b	298 <console_putc+0x1e8>
 328:	e3004000 	movw	r4, #0
 32c:	e3a02c32 	mov	r2, #12800	; 0x3200
 330:	e3404000 	movt	r4, #0
 334:	e0030392 	mul	r3, r2, r3
 338:	e5940000 	ldr	r0, [r4]
 33c:	e0800083 	add	r0, r0, r3, lsl #1
 340:	e2633a5a 	rsb	r3, r3, #368640	; 0x5a000
 344:	e2833c0a 	add	r3, r3, #2560	; 0xa00
 348:	e2801b19 	add	r1, r0, #25600	; 0x6400
 34c:	e1a02223 	lsr	r2, r3, #4
 350:	eaffff94 	b	1a8 <console_putc+0xf8>

00000354 <console_puts>:
 354:	e92d4010 	push	{r4, lr}
 358:	e1a04000 	mov	r4, r0
 35c:	e4d40001 	ldrb	r0, [r4], #1
 360:	e3500000 	cmp	r0, #0
 364:	08bd8010 	popeq	{r4, pc}
 368:	ebfffffe 	bl	b0 <console_putc>
 36c:	e4d40001 	ldrb	r0, [r4], #1
 370:	e3500000 	cmp	r0, #0
 374:	1afffffb 	bne	368 <console_puts+0x14>
 378:	e8bd8010 	pop	{r4, pc}

0000037c <console_write>:
 37c:	e92d4070 	push	{r4, r5, r6, lr}
 380:	e1a04000 	mov	r4, r0
 384:	e1a05000 	mov	r5, r0
 388:	e4d40001 	ldrb	r0, [r4], #1
 38c:	e3500000 	cmp	r0, #0
 390:	08bd8070 	popeq	{r4, r5, r6, pc}
 394:	e3510000 	cmp	r1, #0
 398:	08bd8070 	popeq	{r4, r5, r6, pc}
 39c:	e2811001 	add	r1, r1, #1
 3a0:	e0855001 	add	r5, r5, r1
 3a4:	ebfffffe 	bl	b0 <console_putc>
 3a8:	e4d40001 	ldrb	r0, [r4], #1
 3ac:	e3500000 	cmp	r0, #0
 3b0:	08bd8070 	popeq	{r4, r5, r6, pc}
 3b4:	e1550004 	cmp	r5, r4
 3b8:	1afffff9 	bne	3a4 <console_write+0x28>
 3bc:	e8bd8070 	pop	{r4, r5, r6, pc}

000003c0 <console_error>:
 3c0:	e92d47f0 	push	{r4, r5, r6, r7, r8, r9, sl, lr}
 3c4:	e3006000 	movw	r6, #0
 3c8:	e3406000 	movt	r6, #0
 3cc:	e3005000 	movw	r5, #0
 3d0:	e3405000 	movt	r5, #0
 3d4:	e3a03b3e 	mov	r3, #63488	; 0xf800
 3d8:	e59f9068 	ldr	r9, [pc, #104]	; 448 <console_error+0x88>
 3dc:	e1a04000 	mov	r4, r0
 3e0:	e1d680b0 	ldrh	r8, [r6]
 3e4:	e3a00045 	mov	r0, #69	; 0x45
 3e8:	e1c630b0 	strh	r3, [r6]
 3ec:	e3a03000 	mov	r3, #0
 3f0:	e1d570bc 	ldrh	r7, [r5, #12]
 3f4:	e1c530bc 	strh	r3, [r5, #12]
 3f8:	ebfffffe 	bl	b0 <console_putc>
 3fc:	e4d90001 	ldrb	r0, [r9], #1
 400:	e3500000 	cmp	r0, #0
 404:	1afffffb 	bne	3f8 <console_error+0x38>
 408:	e4d40001 	ldrb	r0, [r4], #1
 40c:	e3500000 	cmp	r0, #0
 410:	0a000003 	beq	424 <console_error+0x64>
 414:	ebfffffe 	bl	b0 <console_putc>
 418:	e4d40001 	ldrb	r0, [r4], #1
 41c:	e3500000 	cmp	r0, #0
 420:	1afffffb 	bne	414 <console_error+0x54>
 424:	e59f4020 	ldr	r4, [pc, #32]	; 44c <console_error+0x8c>
 428:	e3a0003e 	mov	r0, #62	; 0x3e
 42c:	ebfffffe 	bl	b0 <console_putc>
 430:	e4d40001 	ldrb	r0, [r4], #1
 434:	e3500000 	cmp	r0, #0
 438:	1afffffb 	bne	42c <console_error+0x6c>
 43c:	e1c680b0 	strh	r8, [r6]
 440:	e1c570bc 	strh	r7, [r5, #12]
 444:	e8bd87f0 	pop	{r4, r5, r6, r7, r8, r9, sl, pc}
 448:	00000001 	andeq	r0, r0, r1
 44c:	00000001 	andeq	r0, r0, r1

00000450 <console_status>:
 450:	e3003000 	movw	r3, #0
 454:	e3a0c01d 	mov	ip, #29
 458:	e92d47f0 	push	{r4, r5, r6, r7, r8, r9, sl, lr}
 45c:	e3004000 	movw	r4, #0
 460:	e3403000 	movt	r3, #0
 464:	e3005000 	movw	r5, #0
 468:	e3404000 	movt	r4, #0
 46c:	e1a0a001 	mov	sl, r1
 470:	e593e000 	ldr	lr, [r3]
 474:	e3a01000 	mov	r1, #0
 478:	e3405000 	movt	r5, #0
 47c:	e1d460bc 	ldrh	r6, [r4, #12]
 480:	e28e3ab5 	add	r3, lr, #741376	; 0xb5000
 484:	e1d590b0 	ldrh	r9, [r5]
 488:	e28eeabb 	add	lr, lr, #765952	; 0xbb000
 48c:	e2833b01 	add	r3, r3, #1024	; 0x400
 490:	e28eee7e 	add	lr, lr, #2016	; 0x7e0
 494:	e1862806 	orr	r2, r6, r6, lsl #16
 498:	e9940180 	ldmib	r4, {r7, r8}
 49c:	e5841004 	str	r1, [r4, #4]
 4a0:	e584c008 	str	ip, [r4, #8]
 4a4:	e5832000 	str	r2, [r3]
 4a8:	e2811008 	add	r1, r1, #8
 4ac:	e5832004 	str	r2, [r3, #4]
 4b0:	e6ff1071 	uxth	r1, r1
 4b4:	e5832008 	str	r2, [r3, #8]
 4b8:	e261cc19 	rsb	ip, r1, #6400	; 0x1900
 4bc:	e583200c 	str	r2, [r3, #12]
 4c0:	e6ffc07c 	uxth	ip, ip
 4c4:	e5832010 	str	r2, [r3, #16]
 4c8:	e5832014 	str	r2, [r3, #20]
 4cc:	e5832018 	str	r2, [r3, #24]
 4d0:	e583201c 	str	r2, [r3, #28]
 4d4:	f5d3f088 	pld	[r3, #136]	; 0x88
 4d8:	e2833020 	add	r3, r3, #32
 4dc:	e153000e 	cmp	r3, lr
 4e0:	1affffef 	bne	4a4 <console_status+0x54>
 4e4:	e083c10c 	add	ip, r3, ip, lsl #2
 4e8:	e4832004 	str	r2, [r3], #4
 4ec:	e153000c 	cmp	r3, ip
 4f0:	1afffffc 	bne	4e8 <console_status+0x98>
 4f4:	e1c500b0 	strh	r0, [r5]
 4f8:	e3a03000 	mov	r3, #0
 4fc:	e4da0001 	ldrb	r0, [sl], #1
 500:	e1c430bc 	strh	r3, [r4, #12]
 504:	e3500000 	cmp	r0, #0
 508:	0a000003 	beq	51c <console_status+0xcc>
 50c:	ebfffffe 	bl	b0 <console_putc>
 510:	e4da0001 	ldrb	r0, [sl], #1
 514:	e3500000 	cmp	r0, #0
 518:	1afffffb 	bne	50c <console_status+0xbc>
 51c:	e1c590b0 	strh	r9, [r5]
 520:	e6ff8078 	uxth	r8, r8
 524:	e5848008 	str	r8, [r4, #8]
 528:	e6ff7077 	uxth	r7, r7
 52c:	e5847004 	str	r7, [r4, #4]
 530:	e1c460bc 	strh	r6, [r4, #12]
 534:	e8bd87f0 	pop	{r4, r5, r6, r7, r8, r9, sl, pc}

00000538 <console_puthex>:
 538:	e350009f 	cmp	r0, #159	; 0x9f
 53c:	e92d4010 	push	{r4, lr}
 540:	e1a04000 	mov	r4, r0
 544:	e1a00220 	lsr	r0, r0, #4
 548:	e204400f 	and	r4, r4, #15
 54c:	92800030 	addls	r0, r0, #48	; 0x30
 550:	82800037 	addhi	r0, r0, #55	; 0x37
 554:	ebfffffe 	bl	b0 <console_putc>
 558:	e3540009 	cmp	r4, #9
 55c:	92840030 	addls	r0, r4, #48	; 0x30
 560:	82840037 	addhi	r0, r4, #55	; 0x37
 564:	e8bd4010 	pop	{r4, lr}
 568:	eafffffe 	b	b0 <console_putc>

0000056c <console_puthex_fg_bg>:
 56c:	e92d41f0 	push	{r4, r5, r6, r7, r8, lr}
 570:	e3006000 	movw	r6, #0
 574:	e3406000 	movt	r6, #0
 578:	e3005000 	movw	r5, #0
 57c:	e3405000 	movt	r5, #0
 580:	e350009f 	cmp	r0, #159	; 0x9f
 584:	e1d680b0 	ldrh	r8, [r6]
 588:	e1a04000 	mov	r4, r0
 58c:	e1a00220 	lsr	r0, r0, #4
 590:	e204400f 	and	r4, r4, #15
 594:	e1d570bc 	ldrh	r7, [r5, #12]
 598:	92800030 	addls	r0, r0, #48	; 0x30
 59c:	e1c610b0 	strh	r1, [r6]
 5a0:	82800037 	addhi	r0, r0, #55	; 0x37
 5a4:	e1c520bc 	strh	r2, [r5, #12]
 5a8:	ebfffffe 	bl	b0 <console_putc>
 5ac:	e3540009 	cmp	r4, #9
 5b0:	92840030 	addls	r0, r4, #48	; 0x30
 5b4:	82840037 	addhi	r0, r4, #55	; 0x37
 5b8:	ebfffffe 	bl	b0 <console_putc>
 5bc:	e1c680b0 	strh	r8, [r6]
 5c0:	e1c570bc 	strh	r7, [r5, #12]
 5c4:	e8bd81f0 	pop	{r4, r5, r6, r7, r8, pc}

000005c8 <console_putpct_fg_bg>:
 5c8:	e92d47f0 	push	{r4, r5, r6, r7, r8, r9, sl, lr}
 5cc:	e3006000 	movw	r6, #0
 5d0:	e3406000 	movt	r6, #0
 5d4:	e3005000 	movw	r5, #0
 5d8:	e3405000 	movt	r5, #0
 5dc:	e3500063 	cmp	r0, #99	; 0x63
 5e0:	e1d680b0 	ldrh	r8, [r6]
 5e4:	e1d570bc 	ldrh	r7, [r5, #12]
 5e8:	e1c610b0 	strh	r1, [r6]
 5ec:	e1c520bc 	strh	r2, [r5, #12]
 5f0:	8a00000e 	bhi	630 <console_putpct_fg_bg+0x68>
 5f4:	e1a04000 	mov	r4, r0
 5f8:	e30c0ccd 	movw	r0, #52429	; 0xcccd
 5fc:	e34c0ccc 	movt	r0, #52428	; 0xcccc
 600:	e0803490 	umull	r3, r0, r0, r4
 604:	e1a091a0 	lsr	r9, r0, #3
 608:	e2890030 	add	r0, r9, #48	; 0x30
 60c:	ebfffffe 	bl	b0 <console_putc>
 610:	e3a0000a 	mov	r0, #10
 614:	e0604990 	mls	r0, r0, r9, r4
 618:	e2800030 	add	r0, r0, #48	; 0x30
 61c:	e6ef0070 	uxtb	r0, r0
 620:	ebfffffe 	bl	b0 <console_putc>
 624:	e1c680b0 	strh	r8, [r6]
 628:	e1c570bc 	strh	r7, [r5, #12]
 62c:	e8bd87f0 	pop	{r4, r5, r6, r7, r8, r9, sl, pc}
 630:	e59f4014 	ldr	r4, [pc, #20]	; 64c <console_putpct_fg_bg+0x84>
 634:	e3a00025 	mov	r0, #37	; 0x25
 638:	ebfffffe 	bl	b0 <console_putc>
 63c:	e4d40001 	ldrb	r0, [r4], #1
 640:	e3500000 	cmp	r0, #0
 644:	1afffffb 	bne	638 <console_putpct_fg_bg+0x70>
 648:	eafffff5 	b	624 <console_putpct_fg_bg+0x5c>
 64c:	00000001 	andeq	r0, r0, r1

00000650 <console_put3dec_fg_bg>:
 650:	e92d47f0 	push	{r4, r5, r6, r7, r8, r9, sl, lr}
 654:	e308551f 	movw	r5, #34079	; 0x851f
 658:	e34551eb 	movt	r5, #20971	; 0x51eb
 65c:	e3006000 	movw	r6, #0
 660:	e0853095 	umull	r3, r5, r5, r0
 664:	e3406000 	movt	r6, #0
 668:	e3008000 	movw	r8, #0
 66c:	e1a052a5 	lsr	r5, r5, #5
 670:	e1a04000 	mov	r4, r0
 674:	e3408000 	movt	r8, #0
 678:	e2850030 	add	r0, r5, #48	; 0x30
 67c:	e1d670b0 	ldrh	r7, [r6]
 680:	e1d890bc 	ldrh	r9, [r8, #12]
 684:	e1c610b0 	strh	r1, [r6]
 688:	e1c820bc 	strh	r2, [r8, #12]
 68c:	ebfffffe 	bl	b0 <console_putc>
 690:	e1a00105 	lsl	r0, r5, #2
 694:	e0850000 	add	r0, r5, r0
 698:	e0655180 	rsb	r5, r5, r0, lsl #3
 69c:	e0844105 	add	r4, r4, r5, lsl #2
 6a0:	e30c5ccd 	movw	r5, #52429	; 0xcccd
 6a4:	e34c5ccc 	movt	r5, #52428	; 0xcccc
 6a8:	e6ef4074 	uxtb	r4, r4
 6ac:	e0853495 	umull	r3, r5, r5, r4
 6b0:	e1a051a5 	lsr	r5, r5, #3
 6b4:	e2850030 	add	r0, r5, #48	; 0x30
 6b8:	ebfffffe 	bl	b0 <console_putc>
 6bc:	e3a0000a 	mov	r0, #10
 6c0:	e0644590 	mls	r4, r0, r5, r4
 6c4:	e2840030 	add	r0, r4, #48	; 0x30
 6c8:	e6ef0070 	uxtb	r0, r0
 6cc:	ebfffffe 	bl	b0 <console_putc>
 6d0:	e1c670b0 	strh	r7, [r6]
 6d4:	e1c890bc 	strh	r9, [r8, #12]
 6d8:	e8bd87f0 	pop	{r4, r5, r6, r7, r8, r9, sl, pc}

000006dc <console_newline>:
 6dc:	e92d4070 	push	{r4, r5, r6, lr}
 6e0:	e3004000 	movw	r4, #0
 6e4:	e3404000 	movt	r4, #0
 6e8:	e3a02000 	mov	r2, #0
 6ec:	e5943008 	ldr	r3, [r4, #8]
 6f0:	e5842004 	str	r2, [r4, #4]
 6f4:	e2833001 	add	r3, r3, #1
 6f8:	e5843008 	str	r3, [r4, #8]
 6fc:	e353001e 	cmp	r3, #30
 700:	18bd8070 	popne	{r4, r5, r6, pc}
 704:	e5943000 	ldr	r3, [r4]
 708:	e1530002 	cmp	r3, r2
 70c:	0a00002a 	beq	7bc <console_newline+0xe0>
 710:	e3005000 	movw	r5, #0
 714:	e3a02c32 	mov	r2, #12800	; 0x3200
 718:	e3405000 	movt	r5, #0
 71c:	e0020392 	mul	r2, r2, r3
 720:	e5950000 	ldr	r0, [r5]
 724:	e0800082 	add	r0, r0, r2, lsl #1
 728:	e2622a5a 	rsb	r2, r2, #368640	; 0x5a000
 72c:	e2822c0a 	add	r2, r2, #2560	; 0xa00
 730:	e2801b19 	add	r1, r0, #25600	; 0x6400
 734:	e1a02222 	lsr	r2, r2, #4
 738:	ebfffffe 	bl	0 <memcpy_blk>
 73c:	e5950000 	ldr	r0, [r5]
 740:	e3a0c000 	mov	ip, #0
 744:	e1d420bc 	ldrh	r2, [r4, #12]
 748:	e2803ab5 	add	r3, r0, #741376	; 0xb5000
 74c:	e2800abb 	add	r0, r0, #765952	; 0xbb000
 750:	e2833b01 	add	r3, r3, #1024	; 0x400
 754:	e2800e7e 	add	r0, r0, #2016	; 0x7e0
 758:	e1822802 	orr	r2, r2, r2, lsl #16
 75c:	e5832000 	str	r2, [r3]
 760:	e28cc008 	add	ip, ip, #8
 764:	e5832004 	str	r2, [r3, #4]
 768:	e6ffc07c 	uxth	ip, ip
 76c:	e5832008 	str	r2, [r3, #8]
 770:	e26c1c19 	rsb	r1, ip, #6400	; 0x1900
 774:	e583200c 	str	r2, [r3, #12]
 778:	e6ff1071 	uxth	r1, r1
 77c:	e5832010 	str	r2, [r3, #16]
 780:	e5832014 	str	r2, [r3, #20]
 784:	e5832018 	str	r2, [r3, #24]
 788:	e583201c 	str	r2, [r3, #28]
 78c:	f5d3f088 	pld	[r3, #136]	; 0x88
 790:	e2833020 	add	r3, r3, #32
 794:	e1530000 	cmp	r3, r0
 798:	1affffef 	bne	75c <console_newline+0x80>
 79c:	e0831101 	add	r1, r3, r1, lsl #2
 7a0:	e4832004 	str	r2, [r3], #4
 7a4:	e1530001 	cmp	r3, r1
 7a8:	1afffffc 	bne	7a0 <console_newline+0xc4>
 7ac:	e5943008 	ldr	r3, [r4, #8]
 7b0:	e2433001 	sub	r3, r3, #1
 7b4:	e5843008 	str	r3, [r4, #8]
 7b8:	e8bd8070 	pop	{r4, r5, r6, pc}
 7bc:	e3005000 	movw	r5, #0
 7c0:	e3052aa0 	movw	r2, #23200	; 0x5aa0
 7c4:	e3405000 	movt	r5, #0
 7c8:	e5950000 	ldr	r0, [r5]
 7cc:	e2801b19 	add	r1, r0, #25600	; 0x6400
 7d0:	eaffffd8 	b	738 <console_newline+0x5c>

000007d4 <console_clear>:
 7d4:	e3003000 	movw	r3, #0
 7d8:	e3000000 	movw	r0, #0
 7dc:	e3403000 	movt	r3, #0
 7e0:	e3400000 	movt	r0, #0
 7e4:	e5933000 	ldr	r3, [r3]
 7e8:	e92d4010 	push	{r4, lr}
 7ec:	e283cabb 	add	ip, r3, #765952	; 0xbb000
 7f0:	e1d020bc 	ldrh	r2, [r0, #12]
 7f4:	e3a04b37 	mov	r4, #56320	; 0xdc00
 7f8:	e3404005 	movt	r4, #5
 7fc:	e3a0e000 	mov	lr, #0
 800:	e28cce7e 	add	ip, ip, #2016	; 0x7e0
 804:	e1c320b0 	strh	r2, [r3]
 808:	e28ee010 	add	lr, lr, #16
 80c:	e1c320b2 	strh	r2, [r3, #2]
 810:	e1c320b4 	strh	r2, [r3, #4]
 814:	e1c320b6 	strh	r2, [r3, #6]
 818:	e1c320b8 	strh	r2, [r3, #8]
 81c:	e1c320ba 	strh	r2, [r3, #10]
 820:	e1c320bc 	strh	r2, [r3, #12]
 824:	e1c320be 	strh	r2, [r3, #14]
 828:	e1c321b0 	strh	r2, [r3, #16]
 82c:	e1c321b2 	strh	r2, [r3, #18]
 830:	e1c321b4 	strh	r2, [r3, #20]
 834:	e1c321b6 	strh	r2, [r3, #22]
 838:	e1c321b8 	strh	r2, [r3, #24]
 83c:	e1c321ba 	strh	r2, [r3, #26]
 840:	e1c321bc 	strh	r2, [r3, #28]
 844:	e1c321be 	strh	r2, [r3, #30]
 848:	f5d3f044 	pld	[r3, #68]	; 0x44
 84c:	e2833020 	add	r3, r3, #32
 850:	e15c0003 	cmp	ip, r3
 854:	e044100e 	sub	r1, r4, lr
 858:	1affffe9 	bne	804 <console_clear+0x30>
 85c:	e0831081 	add	r1, r3, r1, lsl #1
 860:	e0c320b2 	strh	r2, [r3], #2
 864:	e1530001 	cmp	r3, r1
 868:	1afffffc 	bne	860 <console_clear+0x8c>
 86c:	e3a03000 	mov	r3, #0
 870:	e5803004 	str	r3, [r0, #4]
 874:	e5803008 	str	r3, [r0, #8]
 878:	e8bd8010 	pop	{r4, pc}

0000087c <console_set_cursor>:
 87c:	e3500065 	cmp	r0, #101	; 0x65
 880:	e3003000 	movw	r3, #0
 884:	e3403000 	movt	r3, #0
 888:	23a00000 	movcs	r0, #0
 88c:	e351001f 	cmp	r1, #31
 890:	e5830004 	str	r0, [r3, #4]
 894:	23a01000 	movcs	r1, #0
 898:	e5831008 	str	r1, [r3, #8]
 89c:	e12fff1e 	bx	lr

000008a0 <console_save_cursor>:
 8a0:	e3003000 	movw	r3, #0
 8a4:	e3002000 	movw	r2, #0
 8a8:	e3403000 	movt	r3, #0
 8ac:	e3402000 	movt	r2, #0
 8b0:	e9931002 	ldmib	r3, {r1, ip}
 8b4:	e1d300bc 	ldrh	r0, [r3, #12]
 8b8:	e5831014 	str	r1, [r3, #20]
 8bc:	e1d210b0 	ldrh	r1, [r2]
 8c0:	e583c010 	str	ip, [r3, #16]
 8c4:	e1c301b8 	strh	r0, [r3, #24]
 8c8:	e1c210b2 	strh	r1, [r2, #2]
 8cc:	e12fff1e 	bx	lr

000008d0 <console_restore_cursor>:
 8d0:	e3003000 	movw	r3, #0
 8d4:	e3002000 	movw	r2, #0
 8d8:	e3403000 	movt	r3, #0
 8dc:	e3402000 	movt	r2, #0
 8e0:	e5931014 	ldr	r1, [r3, #20]
 8e4:	e593c010 	ldr	ip, [r3, #16]
 8e8:	e1d301b8 	ldrh	r0, [r3, #24]
 8ec:	e9831002 	stmib	r3, {r1, ip}
 8f0:	e1d210b2 	ldrh	r1, [r2, #2]
 8f4:	e1c300bc 	strh	r0, [r3, #12]
 8f8:	e1c210b0 	strh	r1, [r2]
 8fc:	e12fff1e 	bx	lr

00000900 <console_save_color>:
 900:	e3002000 	movw	r2, #0
 904:	e3003000 	movw	r3, #0
 908:	e3402000 	movt	r2, #0
 90c:	e3403000 	movt	r3, #0
 910:	e1d200bc 	ldrh	r0, [r2, #12]
 914:	e1d310b0 	ldrh	r1, [r3]
 918:	e1c201b8 	strh	r0, [r2, #24]
 91c:	e1c310b2 	strh	r1, [r3, #2]
 920:	e12fff1e 	bx	lr

00000924 <console_restore_color>:
 924:	e3002000 	movw	r2, #0
 928:	e3003000 	movw	r3, #0
 92c:	e3402000 	movt	r2, #0
 930:	e3403000 	movt	r3, #0
 934:	e1d201b8 	ldrh	r0, [r2, #24]
 938:	e1d310b2 	ldrh	r1, [r3, #2]
 93c:	e1c200bc 	strh	r0, [r2, #12]
 940:	e1c310b0 	strh	r1, [r3]
 944:	e12fff1e 	bx	lr

00000948 <console_set_fg_color>:
 948:	e3003000 	movw	r3, #0
 94c:	e3403000 	movt	r3, #0
 950:	e1c300b0 	strh	r0, [r3]
 954:	e12fff1e 	bx	lr

00000958 <console_set_bg_color>:
 958:	e3003000 	movw	r3, #0
 95c:	e3403000 	movt	r3, #0
 960:	e1c300bc 	strh	r0, [r3, #12]
 964:	e12fff1e 	bx	lr

00000968 <console_set_fg_bg_color>:
 968:	e3002000 	movw	r2, #0
 96c:	e3003000 	movw	r3, #0
 970:	e3402000 	movt	r2, #0
 974:	e3403000 	movt	r3, #0
 978:	e1c200b0 	strh	r0, [r2]
 97c:	e1c310bc 	strh	r1, [r3, #12]
 980:	e12fff1e 	bx	lr

00000984 <console_clear_line>:
 984:	e350001e 	cmp	r0, #30
 988:	e1a01000 	mov	r1, r0
 98c:	812fff1e 	bxhi	lr
 990:	e3000000 	movw	r0, #0
 994:	e3a03c32 	mov	r3, #12800	; 0x3200
 998:	e3400000 	movt	r0, #0
 99c:	e300c000 	movw	ip, #0
 9a0:	e340c000 	movt	ip, #0
 9a4:	e0020193 	mul	r2, r3, r1
 9a8:	e5903000 	ldr	r3, [r0]
 9ac:	e3a00000 	mov	r0, #0
 9b0:	e1cc00f4 	strd	r0, [ip, #4]
 9b4:	e0833082 	add	r3, r3, r2, lsl #1
 9b8:	e1dc20bc 	ldrh	r2, [ip, #12]
 9bc:	e283cc63 	add	ip, r3, #25344	; 0x6300
 9c0:	e28cc0e0 	add	ip, ip, #224	; 0xe0
 9c4:	e1822802 	orr	r2, r2, r2, lsl #16
 9c8:	e5832000 	str	r2, [r3]
 9cc:	e2800008 	add	r0, r0, #8
 9d0:	e5832004 	str	r2, [r3, #4]
 9d4:	e6ff0070 	uxth	r0, r0
 9d8:	e5832008 	str	r2, [r3, #8]
 9dc:	e2601c19 	rsb	r1, r0, #6400	; 0x1900
 9e0:	e583200c 	str	r2, [r3, #12]
 9e4:	e6ff1071 	uxth	r1, r1
 9e8:	e5832010 	str	r2, [r3, #16]
 9ec:	e5832014 	str	r2, [r3, #20]
 9f0:	e5832018 	str	r2, [r3, #24]
 9f4:	e583201c 	str	r2, [r3, #28]
 9f8:	f5d3f088 	pld	[r3, #136]	; 0x88
 9fc:	e2833020 	add	r3, r3, #32
 a00:	e153000c 	cmp	r3, ip
 a04:	1affffef 	bne	9c8 <console_clear_line+0x44>
 a08:	e0831101 	add	r1, r3, r1, lsl #2
 a0c:	e4832004 	str	r2, [r3], #4
 a10:	e1530001 	cmp	r3, r1
 a14:	1afffffc 	bne	a0c <console_clear_line+0x88>
 a18:	e12fff1e 	bx	lr

Disassembly of section .data:

00000000 <cur_fore>:
   0:	 			; <UNDEFINED> instruction: 0xffffffff

00000002 <saved_fore>:
   2:	Address 0x0000000000000002 is out of bounds.


Disassembly of section .bss:

00000000 <top_row>:
   0:	00000000 	andeq	r0, r0, r0

00000004 <current_x>:
   4:	00000000 	andeq	r0, r0, r0

00000008 <current_y>:
   8:	00000000 	andeq	r0, r0, r0

0000000c <cur_back>:
   c:	00000000 	andeq	r0, r0, r0

00000010 <saved_y>:
  10:	00000000 	andeq	r0, r0, r0

00000014 <saved_x>:
  14:	00000000 	andeq	r0, r0, r0

00000018 <saved_back>:
	...

Disassembly of section .rodata.str1.4:

00000000 <.LC0>:
   0:	6f727245 	svcvs	0x00727245
   4:	003c2072 	eorseq	r2, ip, r2, ror r0

00000008 <.LC1>:
   8:	00000a3e 	andeq	r0, r0, lr, lsr sl

0000000c <.LC2>:
   c:	Address 0x000000000000000c is out of bounds.


Disassembly of section .comment:

00000000 <.comment>:
   0:	43434700 	movtmi	r4, #14080	; 0x3700
   4:	4728203a 			; <UNDEFINED> instruction: 0x4728203a
   8:	2029554e 	eorcs	r5, r9, lr, asr #10
   c:	322e3031 	eorcc	r3, lr, #49	; 0x31
  10:	Address 0x0000000000000010 is out of bounds.


Disassembly of section .ARM.attributes:

00000000 <.ARM.attributes>:
   0:	00003441 	andeq	r3, r0, r1, asr #8
   4:	61656100 	cmnvs	r5, r0, lsl #2
   8:	01006962 	tsteq	r0, r2, ror #18
   c:	0000002a 	andeq	r0, r0, sl, lsr #32
  10:	412d3705 			; <UNDEFINED> instruction: 0x412d3705
  14:	070a0600 	streq	r0, [sl, -r0, lsl #12]
  18:	09010841 	stmdbeq	r1, {r0, r6, fp}
  1c:	0c050a02 			; <UNDEFINED> instruction: 0x0c050a02
  20:	14041202 	strne	r1, [r4], #-514	; 0xfffffdfe
  24:	17011501 	strne	r1, [r1, -r1, lsl #10]
  28:	19011803 	stmdbne	r1, {r0, r1, fp, ip}
  2c:	1c011a01 			; <UNDEFINED> instruction: 0x1c011a01
  30:	22021e01 	andcs	r1, r2, #1, 28
  34:	Address 0x0000000000000034 is out of bounds.


hardware_firmware.o:     file format elf32-littlearm


Disassembly of section .text:

00000000 <hardware_firmware_get_revision>:
   0:	eafffffe 	b	0 <bcm2835_vc_get_get_firmware_revision>

00000004 <hardware_firmware_get_copyright>:
   4:	e3000000 	movw	r0, #0
   8:	e3400000 	movt	r0, #0
   c:	e12fff1e 	bx	lr

00000010 <hardware_firmware_get_copyright_length>:
  10:	e3a0001b 	mov	r0, #27
  14:	e12fff1e 	bx	lr

Disassembly of section .rodata:

00000000 <BROADCOM_COPYRIGHT>:
   0:	79706f43 	ldmdbvc	r0!, {r0, r1, r6, r8, r9, sl, fp, sp, lr}^
   4:	68676972 	stmdavs	r7!, {r1, r4, r5, r6, r8, fp, sp, lr}^
   8:	63282074 			; <UNDEFINED> instruction: 0x63282074
   c:	30322029 	eorscc	r2, r2, r9, lsr #32
  10:	42203231 	eormi	r3, r0, #268435459	; 0x10000003
  14:	64616f72 	strbtvs	r6, [r1], #-3954	; 0xfffff08e
  18:	006d6f63 	rsbeq	r6, sp, r3, ror #30

Disassembly of section .comment:

00000000 <.comment>:
   0:	43434700 	movtmi	r4, #14080	; 0x3700
   4:	4728203a 			; <UNDEFINED> instruction: 0x4728203a
   8:	2029554e 	eorcs	r5, r9, lr, asr #10
   c:	322e3031 	eorcc	r3, lr, #49	; 0x31
  10:	Address 0x0000000000000010 is out of bounds.


Disassembly of section .ARM.attributes:

00000000 <.ARM.attributes>:
   0:	00003441 	andeq	r3, r0, r1, asr #8
   4:	61656100 	cmnvs	r5, r0, lsl #2
   8:	01006962 	tsteq	r0, r2, ror #18
   c:	0000002a 	andeq	r0, r0, sl, lsr #32
  10:	412d3705 			; <UNDEFINED> instruction: 0x412d3705
  14:	070a0600 	streq	r0, [sl, -r0, lsl #12]
  18:	09010841 	stmdbeq	r1, {r0, r6, fp}
  1c:	0c050a02 			; <UNDEFINED> instruction: 0x0c050a02
  20:	14041202 	strne	r1, [r4], #-514	; 0xfffffdfe
  24:	17011501 	strne	r1, [r1, -r1, lsl #10]
  28:	19011803 	stmdbne	r1, {r0, r1, fp, ip}
  2c:	1c011a01 			; <UNDEFINED> instruction: 0x1c011a01
  30:	22021e01 	andcs	r1, r2, #1, 28
  34:	Address 0x0000000000000034 is out of bounds.


hardware_init.o:     file format elf32-littlearm


Disassembly of section .text:

00000000 <hardware_uptime_seconds>:
   0:	e92d4070 	push	{r4, r5, r6, lr}
   4:	ebfffffe 	bl	0 <bcm2835_st_read>
   8:	e3003000 	movw	r3, #0
   c:	e30d2e83 	movw	r2, #56963	; 0xde83
  10:	e3403000 	movt	r3, #0
  14:	e344231b 	movt	r2, #17179	; 0x431b
  18:	e1c340d0 	ldrd	r4, [r3]
  1c:	e0400004 	sub	r0, r0, r4
  20:	e0803092 	umull	r3, r0, r2, r0
  24:	e1a00920 	lsr	r0, r0, #18
  28:	e8bd8070 	pop	{r4, r5, r6, pc}

0000002c <hardware_get_mac_address>:
  2c:	eafffffe 	b	0 <bcm2835_vc_get_board_mac_address>

00000030 <hardware_led_init>:
  30:	e3003000 	movw	r3, #0
  34:	e3403000 	movt	r3, #0
  38:	e5933000 	ldr	r3, [r3]
  3c:	e12fff13 	bx	r3

00000040 <hardware_led_set>:
  40:	e3003000 	movw	r3, #0
  44:	e3403000 	movt	r3, #0
  48:	e5933004 	ldr	r3, [r3, #4]
  4c:	e12fff13 	bx	r3

00000050 <hardware_get_core_temperature>:
  50:	e92d4010 	push	{r4, lr}
  54:	ebfffffe 	bl	0 <bcm2835_vc_get_temperature>
  58:	e3043dd3 	movw	r3, #19923	; 0x4dd3
  5c:	e3413062 	movt	r3, #4194	; 0x1062
  60:	e0c32093 	smull	r2, r3, r3, r0
  64:	e1a00fc0 	asr	r0, r0, #31
  68:	e0600343 	rsb	r0, r0, r3, asr #6
  6c:	e8bd8010 	pop	{r4, pc}

00000070 <hardware_init>:
  70:	e3a02101 	mov	r2, #1073741824	; 0x40000000
  74:	e3003000 	movw	r3, #0
  78:	e92d4010 	push	{r4, lr}
  7c:	e3004000 	movw	r4, #0
  80:	e3403000 	movt	r3, #0
  84:	e24dd020 	sub	sp, sp, #32
  88:	e582309c 	str	r3, [r2, #156]	; 0x9c
  8c:	e58230ac 	str	r3, [r2, #172]	; 0xac
  90:	e58230bc 	str	r3, [r2, #188]	; 0xbc
  94:	e3404000 	movt	r4, #0
  98:	ebfffffe 	bl	0 <console_init>
  9c:	ebfffffe 	bl	0 <bcm2835_st_read>
  a0:	e1c400f0 	strd	r0, [r4]
  a4:	ebfffffe 	bl	0 <sys_time_init>
  a8:	ebfffffe 	bl	0 <bcm2835_rng_init>
  ac:	e3a01003 	mov	r1, #3
  b0:	e3a00000 	mov	r0, #0
  b4:	ebfffffe 	bl	0 <bcm2835_vc_set_power_state>
  b8:	e3001000 	movw	r1, #0
  bc:	e3a02001 	mov	r2, #1
  c0:	e3401000 	movt	r1, #0
  c4:	e2840008 	add	r0, r4, #8
  c8:	ebfffffe 	bl	0 <f_mount>
  cc:	e2503000 	subs	r3, r0, #0
  d0:	1a000016 	bne	130 <hardware_init+0xc0>
  d4:	ebfffffe 	bl	0 <bcm2835_vc_get_get_board_revision>
  d8:	e3c01802 	bic	r1, r0, #131072	; 0x20000
  dc:	e3022082 	movw	r2, #8322	; 0x2082
  e0:	e34020a0 	movt	r2, #160	; 0xa0
  e4:	e30230d3 	movw	r3, #8403	; 0x20d3
  e8:	e34030a0 	movt	r3, #160	; 0xa0
  ec:	e1500003 	cmp	r0, r3
  f0:	11510002 	cmpne	r1, r2
  f4:	1a000015 	bne	150 <hardware_init+0xe0>
  f8:	e3004000 	movw	r4, #0
  fc:	e3003000 	movw	r3, #0
 100:	e3404000 	movt	r4, #0
 104:	e3002000 	movw	r2, #0
 108:	e3403000 	movt	r3, #0
 10c:	e3402000 	movt	r2, #0
 110:	e5843000 	str	r3, [r4]
 114:	e5842004 	str	r2, [r4, #4]
 118:	e12fff33 	blx	r3
 11c:	e5943004 	ldr	r3, [r4, #4]
 120:	e3a00001 	mov	r0, #1
 124:	e28dd020 	add	sp, sp, #32
 128:	e8bd4010 	pop	{r4, lr}
 12c:	e12fff13 	bx	r3
 130:	e3002000 	movw	r2, #0
 134:	e3a0101f 	mov	r1, #31
 138:	e3402000 	movt	r2, #0
 13c:	e1a0000d 	mov	r0, sp
 140:	ebfffffe 	bl	0 <snprintf>
 144:	e1a0000d 	mov	r0, sp
 148:	ebfffffe 	bl	0 <console_error>
 14c:	eaffffe0 	b	d4 <hardware_init+0x64>
 150:	e350000f 	cmp	r0, #15
 154:	da000008 	ble	17c <hardware_init+0x10c>
 158:	e3004000 	movw	r4, #0
 15c:	e3003000 	movw	r3, #0
 160:	e3404000 	movt	r4, #0
 164:	e3002000 	movw	r2, #0
 168:	e3403000 	movt	r3, #0
 16c:	e3402000 	movt	r2, #0
 170:	e5843000 	str	r3, [r4]
 174:	e5842004 	str	r2, [r4, #4]
 178:	eaffffe6 	b	118 <hardware_init+0xa8>
 17c:	e3004000 	movw	r4, #0
 180:	e3404000 	movt	r4, #0
 184:	e5943000 	ldr	r3, [r4]
 188:	eaffffe2 	b	118 <hardware_init+0xa8>

Disassembly of section .data:

00000000 <_hardware_led_f>:
	...

Disassembly of section .bss:

00000000 <hardware_init_startup_micros>:
	...

00000008 <fat_fs>:
	...

Disassembly of section .rodata.str1.4:

00000000 <.LC0>:
   0:	00000000 	andeq	r0, r0, r0

00000004 <.LC1>:
   4:	6f6d5f66 	svcvs	0x006d5f66
   8:	20746e75 	rsbscs	r6, r4, r5, ror lr
   c:	6c696166 	stfvse	f6, [r9], #-408	; 0xfffffe68
  10:	20216465 	eorcs	r6, r1, r5, ror #8
  14:	000a6425 	andeq	r6, sl, r5, lsr #8

Disassembly of section .comment:

00000000 <.comment>:
   0:	43434700 	movtmi	r4, #14080	; 0x3700
   4:	4728203a 			; <UNDEFINED> instruction: 0x4728203a
   8:	2029554e 	eorcs	r5, r9, lr, asr #10
   c:	322e3031 	eorcc	r3, lr, #49	; 0x31
  10:	Address 0x0000000000000010 is out of bounds.


Disassembly of section .ARM.attributes:

00000000 <.ARM.attributes>:
   0:	00003441 	andeq	r3, r0, r1, asr #8
   4:	61656100 	cmnvs	r5, r0, lsl #2
   8:	01006962 	tsteq	r0, r2, ror #18
   c:	0000002a 	andeq	r0, r0, sl, lsr #32
  10:	412d3705 			; <UNDEFINED> instruction: 0x412d3705
  14:	070a0600 	streq	r0, [sl, -r0, lsl #12]
  18:	09010841 	stmdbeq	r1, {r0, r6, fp}
  1c:	0c050a02 			; <UNDEFINED> instruction: 0x0c050a02
  20:	14041202 	strne	r1, [r4], #-514	; 0xfffffdfe
  24:	17011501 	strne	r1, [r1, -r1, lsl #10]
  28:	19011803 	stmdbne	r1, {r0, r1, fp, ip}
  2c:	1c011a01 			; <UNDEFINED> instruction: 0x1c011a01
  30:	22021e01 	andcs	r1, r2, #1, 28
  34:	Address 0x0000000000000034 is out of bounds.


hardware_reboot.o:     file format elf32-littlearm


Disassembly of section .text:

00000000 <hardware_reboot>:
   0:	e3a00001 	mov	r0, #1
   4:	e92d4010 	push	{r4, lr}
   8:	ebfffffe 	bl	0 <hardware_led_set>
   c:	ebfffffe 	bl	0 <bcm2835_watchdog_init>
  10:	e3a03000 	mov	r3, #0
  14:	ee073f15 	mcr	15, 0, r3, cr7, cr5, {0}
  18:	ebfffffe 	bl	0 <clean_data_cache>
  1c:	ebfffffe 	bl	0 <invalidate_data_cache>
  20:	eafffffe 	b	20 <hardware_reboot+0x20>

Disassembly of section .comment:

00000000 <.comment>:
   0:	43434700 	movtmi	r4, #14080	; 0x3700
   4:	4728203a 			; <UNDEFINED> instruction: 0x4728203a
   8:	2029554e 	eorcs	r5, r9, lr, asr #10
   c:	322e3031 	eorcc	r3, lr, #49	; 0x31
  10:	Address 0x0000000000000010 is out of bounds.


Disassembly of section .ARM.attributes:

00000000 <.ARM.attributes>:
   0:	00003441 	andeq	r3, r0, r1, asr #8
   4:	61656100 	cmnvs	r5, r0, lsl #2
   8:	01006962 	tsteq	r0, r2, ror #18
   c:	0000002a 	andeq	r0, r0, sl, lsr #32
  10:	412d3705 			; <UNDEFINED> instruction: 0x412d3705
  14:	070a0600 	streq	r0, [sl, -r0, lsl #12]
  18:	09010841 	stmdbeq	r1, {r0, r6, fp}
  1c:	0c050a02 			; <UNDEFINED> instruction: 0x0c050a02
  20:	14041202 	strne	r1, [r4], #-514	; 0xfffffdfe
  24:	17011501 	strne	r1, [r1, -r1, lsl #10]
  28:	19011803 	stmdbne	r1, {r0, r1, fp, ip}
  2c:	1c011a01 			; <UNDEFINED> instruction: 0x1c011a01
  30:	22021e01 	andcs	r1, r2, #1, 28
  34:	Address 0x0000000000000034 is out of bounds.


hardware_rtc.o:     file format elf32-littlearm


Disassembly of section .text:

00000000 <hardware_rtc_set>:
   0:	e92d4010 	push	{r4, lr}
   4:	e1a04000 	mov	r4, r0
   8:	e3a00002 	mov	r0, #2
   c:	ebfffffe 	bl	0 <rtc_start>
  10:	e3500000 	cmp	r0, #0
  14:	1a000002 	bne	24 <hardware_rtc_set+0x24>
  18:	e1a00004 	mov	r0, r4
  1c:	e8bd4010 	pop	{r4, lr}
  20:	eafffffe 	b	0 <sys_time_set>
  24:	e1a00004 	mov	r0, r4
  28:	ebfffffe 	bl	0 <rtc_set_date_time>
  2c:	e1a00004 	mov	r0, r4
  30:	e8bd4010 	pop	{r4, lr}
  34:	eafffffe 	b	0 <sys_time_set>

Disassembly of section .comment:

00000000 <.comment>:
   0:	43434700 	movtmi	r4, #14080	; 0x3700
   4:	4728203a 			; <UNDEFINED> instruction: 0x4728203a
   8:	2029554e 	eorcs	r5, r9, lr, asr #10
   c:	322e3031 	eorcc	r3, lr, #49	; 0x31
  10:	Address 0x0000000000000010 is out of bounds.


Disassembly of section .ARM.attributes:

00000000 <.ARM.attributes>:
   0:	00003441 	andeq	r3, r0, r1, asr #8
   4:	61656100 	cmnvs	r5, r0, lsl #2
   8:	01006962 	tsteq	r0, r2, ror #18
   c:	0000002a 	andeq	r0, r0, sl, lsr #32
  10:	412d3705 			; <UNDEFINED> instruction: 0x412d3705
  14:	070a0600 	streq	r0, [sl, -r0, lsl #12]
  18:	09010841 	stmdbeq	r1, {r0, r6, fp}
  1c:	0c050a02 			; <UNDEFINED> instruction: 0x0c050a02
  20:	14041202 	strne	r1, [r4], #-514	; 0xfffffdfe
  24:	17011501 	strne	r1, [r1, -r1, lsl #10]
  28:	19011803 	stmdbne	r1, {r0, r1, fp, ip}
  2c:	1c011a01 			; <UNDEFINED> instruction: 0x1c011a01
  30:	22021e01 	andcs	r1, r2, #1, 28
  34:	Address 0x0000000000000034 is out of bounds.


rtc.o:     file format elf32-littlearm


Disassembly of section .text:

00000000 <rtc_start>:
   0:	e3500001 	cmp	r0, #1
   4:	e92d4030 	push	{r4, r5, lr}
   8:	e24dd00c 	sub	sp, sp, #12
   c:	0a000036 	beq	ec <rtc_start+0xec>
  10:	e3500002 	cmp	r0, #2
  14:	1a00001f 	bne	98 <rtc_start+0x98>
  18:	e30806a0 	movw	r0, #34464	; 0x86a0
  1c:	e3a04901 	mov	r4, #16384	; 0x4000
  20:	e3400001 	movt	r0, #1
  24:	e3434f80 	movt	r4, #16256	; 0x3f80
  28:	ebfffffe 	bl	0 <bcm2835_i2c_set_baudrate>
  2c:	e3a01000 	mov	r1, #0
  30:	e3a0306f 	mov	r3, #111	; 0x6f
  34:	e584300c 	str	r3, [r4, #12]
  38:	e1a00001 	mov	r0, r1
  3c:	ebfffffe 	bl	0 <bcm2835_i2c_write>
  40:	e3500000 	cmp	r0, #0
  44:	03a00001 	moveq	r0, #1
  48:	0a000025 	beq	e4 <rtc_start+0xe4>
  4c:	e30806a0 	movw	r0, #34464	; 0x86a0
  50:	e3a05068 	mov	r5, #104	; 0x68
  54:	e3400001 	movt	r0, #1
  58:	ebfffffe 	bl	0 <bcm2835_i2c_set_baudrate>
  5c:	e584500c 	str	r5, [r4, #12]
  60:	e3a01000 	mov	r1, #0
  64:	e1a00001 	mov	r0, r1
  68:	ebfffffe 	bl	0 <bcm2835_i2c_write>
  6c:	e3500000 	cmp	r0, #0
  70:	13a00000 	movne	r0, #0
  74:	1a00001a 	bne	e4 <rtc_start+0xe4>
  78:	e3002000 	movw	r2, #0
  7c:	e3003000 	movw	r3, #0
  80:	e3402000 	movt	r2, #0
  84:	e3a00001 	mov	r0, #1
  88:	e3403000 	movt	r3, #0
  8c:	e5825000 	str	r5, [r2]
  90:	e5c30000 	strb	r0, [r3]
  94:	ea000012 	b	e4 <rtc_start+0xe4>
  98:	e3003000 	movw	r3, #0
  9c:	e30806a0 	movw	r0, #34464	; 0x86a0
  a0:	e3403000 	movt	r3, #0
  a4:	e3400001 	movt	r0, #1
  a8:	e5d34000 	ldrb	r4, [r3]
  ac:	ebfffffe 	bl	0 <bcm2835_i2c_set_baudrate>
  b0:	e3a03901 	mov	r3, #16384	; 0x4000
  b4:	e3433f80 	movt	r3, #16256	; 0x3f80
  b8:	e2442030 	sub	r2, r4, #48	; 0x30
  bc:	e583400c 	str	r4, [r3, #12]
  c0:	e2444050 	sub	r4, r4, #80	; 0x50
  c4:	e354000f 	cmp	r4, #15
  c8:	83520007 	cmphi	r2, #7
  cc:	8a000013 	bhi	120 <rtc_start+0x120>
  d0:	e3a01001 	mov	r1, #1
  d4:	e28d0007 	add	r0, sp, #7
  d8:	ebfffffe 	bl	0 <bcm2835_i2c_read>
  dc:	e16f0f10 	clz	r0, r0
  e0:	e1a002a0 	lsr	r0, r0, #5
  e4:	e28dd00c 	add	sp, sp, #12
  e8:	e8bd8030 	pop	{r4, r5, pc}
  ec:	e3002000 	movw	r2, #0
  f0:	e3003000 	movw	r3, #0
  f4:	e3402000 	movt	r2, #0
  f8:	e3a04068 	mov	r4, #104	; 0x68
  fc:	e3403000 	movt	r3, #0
 100:	e5c20000 	strb	r0, [r2]
 104:	e30806a0 	movw	r0, #34464	; 0x86a0
 108:	e3400001 	movt	r0, #1
 10c:	e5834000 	str	r4, [r3]
 110:	ebfffffe 	bl	0 <bcm2835_i2c_set_baudrate>
 114:	e3a03901 	mov	r3, #16384	; 0x4000
 118:	e3433f80 	movt	r3, #16256	; 0x3f80
 11c:	e583400c 	str	r4, [r3, #12]
 120:	e3a01000 	mov	r1, #0
 124:	e1a00001 	mov	r0, r1
 128:	ebfffffe 	bl	0 <bcm2835_i2c_write>
 12c:	eaffffea 	b	dc <rtc_start+0xdc>

00000130 <rtc_is_connected>:
 130:	e92d4030 	push	{r4, r5, lr}
 134:	e3004000 	movw	r4, #0
 138:	e3404000 	movt	r4, #0
 13c:	e3a05901 	mov	r5, #16384	; 0x4000
 140:	e3435f80 	movt	r5, #16256	; 0x3f80
 144:	e3a00d6a 	mov	r0, #6784	; 0x1a80
 148:	e5d43000 	ldrb	r3, [r4]
 14c:	e24dd00c 	sub	sp, sp, #12
 150:	e3400006 	movt	r0, #6
 154:	e585300c 	str	r3, [r5, #12]
 158:	ebfffffe 	bl	0 <bcm2835_i2c_set_baudrate>
 15c:	e5d44000 	ldrb	r4, [r4]
 160:	e30806a0 	movw	r0, #34464	; 0x86a0
 164:	e3400001 	movt	r0, #1
 168:	ebfffffe 	bl	0 <bcm2835_i2c_set_baudrate>
 16c:	e585400c 	str	r4, [r5, #12]
 170:	e2441030 	sub	r1, r4, #48	; 0x30
 174:	e2444050 	sub	r4, r4, #80	; 0x50
 178:	e354000f 	cmp	r4, #15
 17c:	83510007 	cmphi	r1, #7
 180:	93a01001 	movls	r1, #1
 184:	83a01000 	movhi	r1, #0
 188:	8a000006 	bhi	1a8 <rtc_is_connected+0x78>
 18c:	e3a01001 	mov	r1, #1
 190:	e28d0007 	add	r0, sp, #7
 194:	ebfffffe 	bl	0 <bcm2835_i2c_read>
 198:	e16f0f10 	clz	r0, r0
 19c:	e1a002a0 	lsr	r0, r0, #5
 1a0:	e28dd00c 	add	sp, sp, #12
 1a4:	e8bd8030 	pop	{r4, r5, pc}
 1a8:	e1a00001 	mov	r0, r1
 1ac:	ebfffffe 	bl	0 <bcm2835_i2c_write>
 1b0:	e16f0f10 	clz	r0, r0
 1b4:	e1a002a0 	lsr	r0, r0, #5
 1b8:	e28dd00c 	add	sp, sp, #12
 1bc:	e8bd8030 	pop	{r4, r5, pc}

000001c0 <rtc_get_type>:
 1c0:	e3003000 	movw	r3, #0
 1c4:	e3403000 	movt	r3, #0
 1c8:	e5d30000 	ldrb	r0, [r3]
 1cc:	e12fff1e 	bx	lr

000001d0 <rtc_get_date_time>:
 1d0:	e3003000 	movw	r3, #0
 1d4:	e3a02901 	mov	r2, #16384	; 0x4000
 1d8:	e3403000 	movt	r3, #0
 1dc:	e92d4030 	push	{r4, r5, lr}
 1e0:	e24dd00c 	sub	sp, sp, #12
 1e4:	e3432f80 	movt	r2, #16256	; 0x3f80
 1e8:	e1a04000 	mov	r4, r0
 1ec:	e5d33000 	ldrb	r3, [r3]
 1f0:	e3a05000 	mov	r5, #0
 1f4:	e5cd5000 	strb	r5, [sp]
 1f8:	e3a00d6a 	mov	r0, #6784	; 0x1a80
 1fc:	e582300c 	str	r3, [r2, #12]
 200:	e3400006 	movt	r0, #6
 204:	ebfffffe 	bl	0 <bcm2835_i2c_set_baudrate>
 208:	e3a01001 	mov	r1, #1
 20c:	e1a0000d 	mov	r0, sp
 210:	ebfffffe 	bl	0 <bcm2835_i2c_write>
 214:	e3a01007 	mov	r1, #7
 218:	e1a0000d 	mov	r0, sp
 21c:	ebfffffe 	bl	0 <bcm2835_i2c_read>
 220:	e5dd1000 	ldrb	r1, [sp]
 224:	e3a0300a 	mov	r3, #10
 228:	e5dd2001 	ldrb	r2, [sp, #1]
 22c:	e7e20251 	ubfx	r0, r1, #4, #3
 230:	e201100f 	and	r1, r1, #15
 234:	e0211093 	mla	r1, r3, r0, r1
 238:	e7e20252 	ubfx	r0, r2, #4, #3
 23c:	e202200f 	and	r2, r2, #15
 240:	e0202093 	mla	r0, r3, r0, r2
 244:	e5dd2002 	ldrb	r2, [sp, #2]
 248:	e5841000 	str	r1, [r4]
 24c:	e7e11252 	ubfx	r1, r2, #4, #2
 250:	e202200f 	and	r2, r2, #15
 254:	e0222193 	mla	r2, r3, r1, r2
 258:	e5dd1004 	ldrb	r1, [sp, #4]
 25c:	e9840005 	stmib	r4, {r0, r2}
 260:	e7e10251 	ubfx	r0, r1, #4, #2
 264:	e201100f 	and	r1, r1, #15
 268:	e0211093 	mla	r1, r3, r0, r1
 26c:	e5ddc003 	ldrb	ip, [sp, #3]
 270:	e5dd2005 	ldrb	r2, [sp, #5]
 274:	e584100c 	str	r1, [r4, #12]
 278:	e20c0007 	and	r0, ip, #7
 27c:	e5dd1006 	ldrb	r1, [sp, #6]
 280:	e5840018 	str	r0, [r4, #24]
 284:	e7e00252 	ubfx	r0, r2, #4, #1
 288:	e202200f 	and	r2, r2, #15
 28c:	e0222093 	mla	r2, r3, r0, r2
 290:	e1a00221 	lsr	r0, r1, #4
 294:	e201100f 	and	r1, r1, #15
 298:	e1031083 	smlabb	r3, r3, r0, r1
 29c:	e5845020 	str	r5, [r4, #32]
 2a0:	e2422001 	sub	r2, r2, #1
 2a4:	e5842010 	str	r2, [r4, #16]
 2a8:	e2833064 	add	r3, r3, #100	; 0x64
 2ac:	e5843014 	str	r3, [r4, #20]
 2b0:	e28dd00c 	add	sp, sp, #12
 2b4:	e8bd8030 	pop	{r4, r5, pc}

000002b8 <rtc_set_date_time>:
 2b8:	e92d43f0 	push	{r4, r5, r6, r7, r8, r9, lr}
 2bc:	e30c2ccd 	movw	r2, #52429	; 0xcccd
 2c0:	e590e000 	ldr	lr, [r0]
 2c4:	e3a0600a 	mov	r6, #10
 2c8:	e34c2ccc 	movt	r2, #52428	; 0xcccc
 2cc:	e24dd00c 	sub	sp, sp, #12
 2d0:	e5903010 	ldr	r3, [r0, #16]
 2d4:	e20ee07f 	and	lr, lr, #127	; 0x7f
 2d8:	e5905004 	ldr	r5, [r0, #4]
 2dc:	e5908008 	ldr	r8, [r0, #8]
 2e0:	e2833001 	add	r3, r3, #1
 2e4:	e590100c 	ldr	r1, [r0, #12]
 2e8:	e205507f 	and	r5, r5, #127	; 0x7f
 2ec:	e590c014 	ldr	ip, [r0, #20]
 2f0:	e208801f 	and	r8, r8, #31
 2f4:	e5904018 	ldr	r4, [r0, #24]
 2f8:	e201103f 	and	r1, r1, #63	; 0x3f
 2fc:	e0807e92 	umull	r7, r0, r2, lr
 300:	e3067667 	movw	r7, #26215	; 0x6667
 304:	e24cc064 	sub	ip, ip, #100	; 0x64
 308:	e1a001a0 	lsr	r0, r0, #3
 30c:	e203301f 	and	r3, r3, #31
 310:	e06ee096 	mls	lr, r6, r0, lr
 314:	e3467666 	movt	r7, #26214	; 0x6666
 318:	e2044007 	and	r4, r4, #7
 31c:	e08ee200 	add	lr, lr, r0, lsl #4
 320:	e0c70c97 	smull	r0, r7, r7, ip
 324:	e3000000 	movw	r0, #0
 328:	e6efe07e 	uxtb	lr, lr
 32c:	e3400000 	movt	r0, #0
 330:	e5d00000 	ldrb	r0, [r0]
 334:	e3500000 	cmp	r0, #0
 338:	e0809592 	umull	r9, r0, r2, r5
 33c:	038ee080 	orreq	lr, lr, #128	; 0x80
 340:	03844008 	orreq	r4, r4, #8
 344:	e1a001a0 	lsr	r0, r0, #3
 348:	e0655096 	mls	r5, r6, r0, r5
 34c:	e5cde001 	strb	lr, [sp, #1]
 350:	e0855200 	add	r5, r5, r0, lsl #4
 354:	e0809892 	umull	r9, r0, r2, r8
 358:	e5cd4004 	strb	r4, [sp, #4]
 35c:	e6ef5075 	uxtb	r5, r5
 360:	e1a091a0 	lsr	r9, r0, #3
 364:	e0608996 	mls	r0, r6, r9, r8
 368:	e5cd5002 	strb	r5, [sp, #2]
 36c:	e0800209 	add	r0, r0, r9, lsl #4
 370:	e0889192 	umull	r9, r8, r2, r1
 374:	e0829392 	umull	r9, r2, r2, r3
 378:	e1a081a8 	lsr	r8, r8, #3
 37c:	e6ef0070 	uxtb	r0, r0
 380:	e1a021a2 	lsr	r2, r2, #3
 384:	e0633296 	mls	r3, r6, r2, r3
 388:	e0611896 	mls	r1, r6, r8, r1
 38c:	e0832202 	add	r2, r3, r2, lsl #4
 390:	e1a03fcc 	asr	r3, ip, #31
 394:	e6ef2072 	uxtb	r2, r2
 398:	e0637147 	rsb	r7, r3, r7, asr #2
 39c:	e3003000 	movw	r3, #0
 3a0:	e0811208 	add	r1, r1, r8, lsl #4
 3a4:	e3403000 	movt	r3, #0
 3a8:	e6ef1071 	uxtb	r1, r1
 3ac:	e06cc796 	mls	ip, r6, r7, ip
 3b0:	e5cd1005 	strb	r1, [sp, #5]
 3b4:	e3a01901 	mov	r1, #16384	; 0x4000
 3b8:	e5d33000 	ldrb	r3, [r3]
 3bc:	e3431f80 	movt	r1, #16256	; 0x3f80
 3c0:	e08cc207 	add	ip, ip, r7, lsl #4
 3c4:	e5cd0003 	strb	r0, [sp, #3]
 3c8:	e6efc07c 	uxtb	ip, ip
 3cc:	e5cd2006 	strb	r2, [sp, #6]
 3d0:	e3a00d6a 	mov	r0, #6784	; 0x1a80
 3d4:	e5cdc007 	strb	ip, [sp, #7]
 3d8:	e3a02000 	mov	r2, #0
 3dc:	e5cd2000 	strb	r2, [sp]
 3e0:	e3400006 	movt	r0, #6
 3e4:	e581300c 	str	r3, [r1, #12]
 3e8:	ebfffffe 	bl	0 <bcm2835_i2c_set_baudrate>
 3ec:	e3a01008 	mov	r1, #8
 3f0:	e1a0000d 	mov	r0, sp
 3f4:	ebfffffe 	bl	0 <bcm2835_i2c_write>
 3f8:	e28dd00c 	add	sp, sp, #12
 3fc:	e8bd83f0 	pop	{r4, r5, r6, r7, r8, r9, pc}

Disassembly of section .data:

00000000 <s_i2c_address>:
   0:	0000006f 	andeq	r0, r0, pc, rrx

Disassembly of section .bss:

00000000 <s_type>:
	...

Disassembly of section .comment:

00000000 <.comment>:
   0:	43434700 	movtmi	r4, #14080	; 0x3700
   4:	4728203a 			; <UNDEFINED> instruction: 0x4728203a
   8:	2029554e 	eorcs	r5, r9, lr, asr #10
   c:	322e3031 	eorcc	r3, lr, #49	; 0x31
  10:	Address 0x0000000000000010 is out of bounds.


Disassembly of section .ARM.attributes:

00000000 <.ARM.attributes>:
   0:	00003441 	andeq	r3, r0, r1, asr #8
   4:	61656100 	cmnvs	r5, r0, lsl #2
   8:	01006962 	tsteq	r0, r2, ror #18
   c:	0000002a 	andeq	r0, r0, sl, lsr #32
  10:	412d3705 			; <UNDEFINED> instruction: 0x412d3705
  14:	070a0600 	streq	r0, [sl, -r0, lsl #12]
  18:	09010841 	stmdbeq	r1, {r0, r6, fp}
  1c:	0c050a02 			; <UNDEFINED> instruction: 0x0c050a02
  20:	14041202 	strne	r1, [r4], #-514	; 0xfffffdfe
  24:	17011501 	strne	r1, [r1, -r1, lsl #10]
  28:	19011803 	stmdbne	r1, {r0, r1, fp, ip}
  2c:	1c011a01 			; <UNDEFINED> instruction: 0x1c011a01
  30:	22021e01 	andcs	r1, r2, #1, 28
  34:	Address 0x0000000000000034 is out of bounds.


sys_time.o:     file format elf32-littlearm


Disassembly of section .text:

00000000 <sys_time_init>:
   0:	e92d4010 	push	{r4, lr}
   4:	e3004000 	movw	r4, #0
   8:	e3404000 	movt	r4, #0
   c:	e24dd028 	sub	sp, sp, #40	; 0x28
  10:	ebfffffe 	bl	0 <bcm2835_st_read>
  14:	e1a02000 	mov	r2, r0
  18:	e1a03001 	mov	r3, r1
  1c:	e3a00002 	mov	r0, #2
  20:	e1c420f0 	strd	r2, [r4]
  24:	ebfffffe 	bl	0 <rtc_start>
  28:	e2503000 	subs	r3, r0, #0
  2c:	0a000006 	beq	4c <sys_time_init+0x4c>
  30:	e28d0004 	add	r0, sp, #4
  34:	ebfffffe 	bl	0 <rtc_get_date_time>
  38:	e28d0004 	add	r0, sp, #4
  3c:	ebfffffe 	bl	0 <mktime>
  40:	e5840008 	str	r0, [r4, #8]
  44:	e28dd028 	add	sp, sp, #40	; 0x28
  48:	e8bd8010 	pop	{r4, pc}
  4c:	e58d300c 	str	r3, [sp, #12]
  50:	e3a01001 	mov	r1, #1
  54:	e58d3008 	str	r3, [sp, #8]
  58:	e3a02014 	mov	r2, #20
  5c:	e58d3004 	str	r3, [sp, #4]
  60:	e28d0004 	add	r0, sp, #4
  64:	e58d1010 	str	r1, [sp, #16]
  68:	e58d3014 	str	r3, [sp, #20]
  6c:	e58d2018 	str	r2, [sp, #24]
  70:	e58d3024 	str	r3, [sp, #36]	; 0x24
  74:	ebfffffe 	bl	0 <mktime>
  78:	e5840008 	str	r0, [r4, #8]
  7c:	e28dd028 	add	sp, sp, #40	; 0x28
  80:	e8bd8010 	pop	{r4, pc}

00000084 <sys_time_set>:
  84:	e92d4070 	push	{r4, r5, r6, lr}
  88:	e3004000 	movw	r4, #0
  8c:	e3404000 	movt	r4, #0
  90:	e1a05000 	mov	r5, r0
  94:	ebfffffe 	bl	0 <bcm2835_st_read>
  98:	e1a02000 	mov	r2, r0
  9c:	e1a03001 	mov	r3, r1
  a0:	e1a00005 	mov	r0, r5
  a4:	e1c420f0 	strd	r2, [r4]
  a8:	ebfffffe 	bl	0 <mktime>
  ac:	e5840008 	str	r0, [r4, #8]
  b0:	e8bd8070 	pop	{r4, r5, r6, pc}

000000b4 <sys_time_set_systime>:
  b4:	e92d4010 	push	{r4, lr}
  b8:	e1a04000 	mov	r4, r0
  bc:	ebfffffe 	bl	0 <bcm2835_st_read>
  c0:	e3003000 	movw	r3, #0
  c4:	e3403000 	movt	r3, #0
  c8:	e1c300f0 	strd	r0, [r3]
  cc:	e5834008 	str	r4, [r3, #8]
  d0:	e8bd8010 	pop	{r4, pc}

000000d4 <millis>:
  d4:	e92d4010 	push	{r4, lr}
  d8:	f57ff05f 	dmb	sy
  dc:	ebfffffe 	bl	0 <bcm2835_st_read>
  e0:	e3003000 	movw	r3, #0
  e4:	e3403000 	movt	r3, #0
  e8:	e1c320d0 	ldrd	r2, [r3]
  ec:	f57ff05f 	dmb	sy
  f0:	e0400002 	sub	r0, r0, r2
  f4:	e3043dd3 	movw	r3, #19923	; 0x4dd3
  f8:	e3413062 	movt	r3, #4194	; 0x1062
  fc:	e0803093 	umull	r3, r0, r3, r0
 100:	e1a00320 	lsr	r0, r0, #6
 104:	e8bd8010 	pop	{r4, pc}

00000108 <time>:
 108:	e92d4070 	push	{r4, r5, r6, lr}
 10c:	e1a05000 	mov	r5, r0
 110:	f57ff05f 	dmb	sy
 114:	e3004000 	movw	r4, #0
 118:	ebfffffe 	bl	0 <bcm2835_st_read>
 11c:	e3404000 	movt	r4, #0
 120:	e1c420d0 	ldrd	r2, [r4]
 124:	e0500002 	subs	r0, r0, r2
 128:	e3042240 	movw	r2, #16960	; 0x4240
 12c:	e0c11003 	sbc	r1, r1, r3
 130:	e3a03000 	mov	r3, #0
 134:	e340200f 	movt	r2, #15
 138:	ebfffffe 	bl	0 <__aeabi_uldivmod>
 13c:	f57ff05f 	dmb	sy
 140:	e5943008 	ldr	r3, [r4, #8]
 144:	e3550000 	cmp	r5, #0
 148:	e0830000 	add	r0, r3, r0
 14c:	15850000 	strne	r0, [r5]
 150:	e8bd8070 	pop	{r4, r5, r6, pc}

Disassembly of section .bss:

00000000 <sys_time_init_startup_micros>:
	...

00000008 <rtc_startup_seconds>:
   8:	00000000 	andeq	r0, r0, r0

Disassembly of section .comment:

00000000 <.comment>:
   0:	43434700 	movtmi	r4, #14080	; 0x3700
   4:	4728203a 			; <UNDEFINED> instruction: 0x4728203a
   8:	2029554e 	eorcs	r5, r9, lr, asr #10
   c:	322e3031 	eorcc	r3, lr, #49	; 0x31
  10:	Address 0x0000000000000010 is out of bounds.


Disassembly of section .ARM.attributes:

00000000 <.ARM.attributes>:
   0:	00003441 	andeq	r3, r0, r1, asr #8
   4:	61656100 	cmnvs	r5, r0, lsl #2
   8:	01006962 	tsteq	r0, r2, ror #18
   c:	0000002a 	andeq	r0, r0, sl, lsr #32
  10:	412d3705 			; <UNDEFINED> instruction: 0x412d3705
  14:	070a0600 	streq	r0, [sl, -r0, lsl #12]
  18:	09010841 	stmdbeq	r1, {r0, r6, fp}
  1c:	0c050a02 			; <UNDEFINED> instruction: 0x0c050a02
  20:	14041202 	strne	r1, [r4], #-514	; 0xfffffdfe
  24:	17011501 	strne	r1, [r1, -r1, lsl #10]
  28:	19011803 	stmdbne	r1, {r0, r1, fp, ip}
  2c:	1c011a01 			; <UNDEFINED> instruction: 0x1c011a01
  30:	22021e01 	andcs	r1, r2, #1, 28
  34:	Address 0x0000000000000034 is out of bounds.


file.o:     file format elf32-littlearm


Disassembly of section .text:

00000000 <fopen>:
   0:	e92d4070 	push	{r4, r5, r6, lr}
   4:	e3005000 	movw	r5, #0
   8:	e3405000 	movt	r5, #0
   c:	e3a03000 	mov	r3, #0
  10:	e1a02001 	mov	r2, r1
  14:	e5853000 	str	r3, [r5]
  18:	e5d13000 	ldrb	r3, [r1]
  1c:	e1a01000 	mov	r1, r0
  20:	e3530072 	cmp	r3, #114	; 0x72
  24:	1a000017 	bne	88 <fopen+0x88>
  28:	e5d23001 	ldrb	r3, [r2, #1]
  2c:	e3530000 	cmp	r3, #0
  30:	03a02001 	moveq	r2, #1
  34:	1a000021 	bne	c0 <fopen+0xc0>
  38:	e3004000 	movw	r4, #0
  3c:	e3404000 	movt	r4, #0
  40:	e1a00004 	mov	r0, r4
  44:	ebfffffe 	bl	0 <f_open>
  48:	e5c40228 	strb	r0, [r4, #552]	; 0x228
  4c:	e3500013 	cmp	r0, #19
  50:	e1a03000 	mov	r3, r0
  54:	9a000003 	bls	68 <fopen+0x68>
  58:	e3a03028 	mov	r3, #40	; 0x28
  5c:	e3a00000 	mov	r0, #0
  60:	e5853000 	str	r3, [r5]
  64:	e8bd8070 	pop	{r4, r5, r6, pc}
  68:	e3002000 	movw	r2, #0
  6c:	e3500000 	cmp	r0, #0
  70:	e3402000 	movt	r2, #0
  74:	01a00004 	moveq	r0, r4
  78:	13a00000 	movne	r0, #0
  7c:	e7923103 	ldr	r3, [r2, r3, lsl #2]
  80:	e5853000 	str	r3, [r5]
  84:	e8bd8070 	pop	{r4, r5, r6, pc}
  88:	e3530077 	cmp	r3, #119	; 0x77
  8c:	1a00000b 	bne	c0 <fopen+0xc0>
  90:	e59f4044 	ldr	r4, [pc, #68]	; dc <fopen+0xdc>
  94:	e1a0c002 	mov	ip, r2
  98:	e3a0302b 	mov	r3, #43	; 0x2b
  9c:	ea000000 	b	a4 <fopen+0xa4>
  a0:	e5f43001 	ldrb	r3, [r4, #1]!
  a4:	e5fce001 	ldrb	lr, [ip, #1]!
  a8:	e15e0003 	cmp	lr, r3
  ac:	1a000003 	bne	c0 <fopen+0xc0>
  b0:	e3530000 	cmp	r3, #0
  b4:	1afffff9 	bne	a0 <fopen+0xa0>
  b8:	e3a0200b 	mov	r2, #11
  bc:	eaffffdd 	b	38 <fopen+0x38>
  c0:	e1a00002 	mov	r0, r2
  c4:	ebfffffe 	bl	0 <console_error>
  c8:	e3000000 	movw	r0, #0
  cc:	e3400000 	movt	r0, #0
  d0:	ebfffffe 	bl	0 <console_error>
  d4:	e3a00000 	mov	r0, #0
  d8:	e8bd8070 	pop	{r4, r5, r6, pc}
  dc:	00000001 	andeq	r0, r0, r1

000000e0 <fclose>:
  e0:	e92d4070 	push	{r4, r5, r6, lr}
  e4:	e3004000 	movw	r4, #0
  e8:	e3404000 	movt	r4, #0
  ec:	e3500000 	cmp	r0, #0
  f0:	e3a03000 	mov	r3, #0
  f4:	e5843000 	str	r3, [r4]
  f8:	08bd8070 	popeq	{r4, r5, r6, pc}
  fc:	e3005000 	movw	r5, #0
 100:	e3405000 	movt	r5, #0
 104:	e1a00005 	mov	r0, r5
 108:	ebfffffe 	bl	0 <f_close>
 10c:	e5c50228 	strb	r0, [r5, #552]	; 0x228
 110:	e3500013 	cmp	r0, #19
 114:	e1a02000 	mov	r2, r0
 118:	9a000003 	bls	12c <fclose+0x4c>
 11c:	e3a03028 	mov	r3, #40	; 0x28
 120:	e3e00000 	mvn	r0, #0
 124:	e5843000 	str	r3, [r4]
 128:	e8bd8070 	pop	{r4, r5, r6, pc}
 12c:	e2503000 	subs	r3, r0, #0
 130:	e3001000 	movw	r1, #0
 134:	e3401000 	movt	r1, #0
 138:	13a03001 	movne	r3, #1
 13c:	e2630000 	rsb	r0, r3, #0
 140:	e7913102 	ldr	r3, [r1, r2, lsl #2]
 144:	e5843000 	str	r3, [r4]
 148:	e8bd8070 	pop	{r4, r5, r6, pc}

0000014c <fgetc>:
 14c:	e92d4030 	push	{r4, r5, lr}
 150:	e3005000 	movw	r5, #0
 154:	e3405000 	movt	r5, #0
 158:	e3500000 	cmp	r0, #0
 15c:	e3a03000 	mov	r3, #0
 160:	e24dd00c 	sub	sp, sp, #12
 164:	e5853000 	str	r3, [r5]
 168:	0a000017 	beq	1cc <fgetc+0x80>
 16c:	e3004000 	movw	r4, #0
 170:	e28d3004 	add	r3, sp, #4
 174:	e3404000 	movt	r4, #0
 178:	e3a02001 	mov	r2, #1
 17c:	e28d1003 	add	r1, sp, #3
 180:	e1a00004 	mov	r0, r4
 184:	ebfffffe 	bl	0 <f_read>
 188:	e5c40228 	strb	r0, [r4, #552]	; 0x228
 18c:	e3500000 	cmp	r0, #0
 190:	1a000005 	bne	1ac <fgetc+0x60>
 194:	e59d3004 	ldr	r3, [sp, #4]
 198:	e3530000 	cmp	r3, #0
 19c:	0a000007 	beq	1c0 <fgetc+0x74>
 1a0:	e5dd0003 	ldrb	r0, [sp, #3]
 1a4:	e28dd00c 	add	sp, sp, #12
 1a8:	e8bd8030 	pop	{r4, r5, pc}
 1ac:	e3500013 	cmp	r0, #19
 1b0:	93003000 	movwls	r3, #0
 1b4:	83a03028 	movhi	r3, #40	; 0x28
 1b8:	93403000 	movtls	r3, #0
 1bc:	97933100 	ldrls	r3, [r3, r0, lsl #2]
 1c0:	e5853000 	str	r3, [r5]
 1c4:	e3e00000 	mvn	r0, #0
 1c8:	eafffff5 	b	1a4 <fgetc+0x58>
 1cc:	e3e00000 	mvn	r0, #0
 1d0:	eafffff3 	b	1a4 <fgetc+0x58>

000001d4 <fread>:
 1d4:	e92d4010 	push	{r4, lr}
 1d8:	e3004000 	movw	r4, #0
 1dc:	e3404000 	movt	r4, #0
 1e0:	e24dd008 	sub	sp, sp, #8
 1e4:	e0020192 	mul	r2, r2, r1
 1e8:	e28d3004 	add	r3, sp, #4
 1ec:	e1a01000 	mov	r1, r0
 1f0:	e1a00004 	mov	r0, r4
 1f4:	ebfffffe 	bl	0 <f_read>
 1f8:	e5c40228 	strb	r0, [r4, #552]	; 0x228
 1fc:	e3500013 	cmp	r0, #19
 200:	8a00000a 	bhi	230 <fread+0x5c>
 204:	e3002000 	movw	r2, #0
 208:	e3500000 	cmp	r0, #0
 20c:	e3402000 	movt	r2, #0
 210:	e3003000 	movw	r3, #0
 214:	e3403000 	movt	r3, #0
 218:	e7922100 	ldr	r2, [r2, r0, lsl #2]
 21c:	13a00000 	movne	r0, #0
 220:	059d0004 	ldreq	r0, [sp, #4]
 224:	e5832000 	str	r2, [r3]
 228:	e28dd008 	add	sp, sp, #8
 22c:	e8bd8010 	pop	{r4, pc}
 230:	e3003000 	movw	r3, #0
 234:	e3a02028 	mov	r2, #40	; 0x28
 238:	e3403000 	movt	r3, #0
 23c:	e3a00000 	mov	r0, #0
 240:	e5832000 	str	r2, [r3]
 244:	e28dd008 	add	sp, sp, #8
 248:	e8bd8010 	pop	{r4, pc}

0000024c <fseek>:
 24c:	e3520000 	cmp	r2, #0
 250:	e92d4010 	push	{r4, lr}
 254:	0a000016 	beq	2b4 <fseek+0x68>
 258:	e3520002 	cmp	r2, #2
 25c:	0a00001a 	beq	2cc <fseek+0x80>
 260:	e3003000 	movw	r3, #0
 264:	e3403000 	movt	r3, #0
 268:	e5d30228 	ldrb	r0, [r3, #552]	; 0x228
 26c:	e3500013 	cmp	r0, #19
 270:	9a000005 	bls	28c <fseek+0x40>
 274:	e3003000 	movw	r3, #0
 278:	e3a02028 	mov	r2, #40	; 0x28
 27c:	e3403000 	movt	r3, #0
 280:	e3e00000 	mvn	r0, #0
 284:	e5832000 	str	r2, [r3]
 288:	e8bd8010 	pop	{r4, pc}
 28c:	e2503000 	subs	r3, r0, #0
 290:	e3001000 	movw	r1, #0
 294:	e3401000 	movt	r1, #0
 298:	e3002000 	movw	r2, #0
 29c:	e3402000 	movt	r2, #0
 2a0:	13a03001 	movne	r3, #1
 2a4:	e7911100 	ldr	r1, [r1, r0, lsl #2]
 2a8:	e2630000 	rsb	r0, r3, #0
 2ac:	e5821000 	str	r1, [r2]
 2b0:	e8bd8010 	pop	{r4, pc}
 2b4:	e3004000 	movw	r4, #0
 2b8:	e3404000 	movt	r4, #0
 2bc:	e1a00004 	mov	r0, r4
 2c0:	ebfffffe 	bl	0 <f_lseek>
 2c4:	e5c40228 	strb	r0, [r4, #552]	; 0x228
 2c8:	eaffffe7 	b	26c <fseek+0x20>
 2cc:	e3004000 	movw	r4, #0
 2d0:	e3404000 	movt	r4, #0
 2d4:	e1a00004 	mov	r0, r4
 2d8:	e594100c 	ldr	r1, [r4, #12]
 2dc:	ebfffffe 	bl	0 <f_lseek>
 2e0:	e5c40228 	strb	r0, [r4, #552]	; 0x228
 2e4:	eaffffe0 	b	26c <fseek+0x20>

000002e8 <ftell>:
 2e8:	e3003000 	movw	r3, #0
 2ec:	e3403000 	movt	r3, #0
 2f0:	e5930014 	ldr	r0, [r3, #20]
 2f4:	e12fff1e 	bx	lr

000002f8 <fgets>:
 2f8:	e92d41f0 	push	{r4, r5, r6, r7, r8, lr}
 2fc:	e3005000 	movw	r5, #0
 300:	e3405000 	movt	r5, #0
 304:	e3520000 	cmp	r2, #0
 308:	e3a07000 	mov	r7, #0
 30c:	e1a04000 	mov	r4, r0
 310:	e5857000 	str	r7, [r5]
 314:	01a04002 	moveq	r4, r2
 318:	05c02000 	strbeq	r2, [r0]
 31c:	0a000005 	beq	338 <fgets+0x40>
 320:	e3006000 	movw	r6, #0
 324:	e3406000 	movt	r6, #0
 328:	e1a02006 	mov	r2, r6
 32c:	ebfffffe 	bl	0 <f_gets>
 330:	e1540000 	cmp	r4, r0
 334:	1a000001 	bne	340 <fgets+0x48>
 338:	e1a00004 	mov	r0, r4
 33c:	e8bd81f0 	pop	{r4, r5, r6, r7, r8, pc}
 340:	e5c47000 	strb	r7, [r4]
 344:	e3a04000 	mov	r4, #0
 348:	e5d63011 	ldrb	r3, [r6, #17]
 34c:	e1a00004 	mov	r0, r4
 350:	e3530013 	cmp	r3, #19
 354:	93002000 	movwls	r2, #0
 358:	83a03028 	movhi	r3, #40	; 0x28
 35c:	93402000 	movtls	r2, #0
 360:	97923103 	ldrls	r3, [r2, r3, lsl #2]
 364:	e5853000 	str	r3, [r5]
 368:	e8bd81f0 	pop	{r4, r5, r6, r7, r8, pc}

0000036c <clearerr>:
 36c:	e3003000 	movw	r3, #0
 370:	e3a02000 	mov	r2, #0
 374:	e3403000 	movt	r3, #0
 378:	e5c32228 	strb	r2, [r3, #552]	; 0x228
 37c:	e12fff1e 	bx	lr

00000380 <ferror>:
 380:	e3003000 	movw	r3, #0
 384:	e3403000 	movt	r3, #0
 388:	e5d30228 	ldrb	r0, [r3, #552]	; 0x228
 38c:	e2500000 	subs	r0, r0, #0
 390:	13a00001 	movne	r0, #1
 394:	e2600000 	rsb	r0, r0, #0
 398:	e12fff1e 	bx	lr

0000039c <fputs>:
 39c:	e3003000 	movw	r3, #0
 3a0:	e3510000 	cmp	r1, #0
 3a4:	e3403000 	movt	r3, #0
 3a8:	e3a02000 	mov	r2, #0
 3ac:	e5832000 	str	r2, [r3]
 3b0:	0a000002 	beq	3c0 <fputs+0x24>
 3b4:	e3001000 	movw	r1, #0
 3b8:	e3401000 	movt	r1, #0
 3bc:	eafffffe 	b	0 <f_puts>
 3c0:	e1a00001 	mov	r0, r1
 3c4:	e12fff1e 	bx	lr

000003c8 <fwrite>:
 3c8:	e92d4010 	push	{r4, lr}
 3cc:	e3004000 	movw	r4, #0
 3d0:	e3404000 	movt	r4, #0
 3d4:	e24dd008 	sub	sp, sp, #8
 3d8:	e0020192 	mul	r2, r2, r1
 3dc:	e28d3004 	add	r3, sp, #4
 3e0:	e1a01000 	mov	r1, r0
 3e4:	e1a00004 	mov	r0, r4
 3e8:	ebfffffe 	bl	0 <f_write>
 3ec:	e5c40228 	strb	r0, [r4, #552]	; 0x228
 3f0:	e3500013 	cmp	r0, #19
 3f4:	8a00000a 	bhi	424 <fwrite+0x5c>
 3f8:	e3002000 	movw	r2, #0
 3fc:	e3500000 	cmp	r0, #0
 400:	e3402000 	movt	r2, #0
 404:	e3003000 	movw	r3, #0
 408:	e3403000 	movt	r3, #0
 40c:	e7922100 	ldr	r2, [r2, r0, lsl #2]
 410:	13a00000 	movne	r0, #0
 414:	059d0004 	ldreq	r0, [sp, #4]
 418:	e5832000 	str	r2, [r3]
 41c:	e28dd008 	add	sp, sp, #8
 420:	e8bd8010 	pop	{r4, pc}
 424:	e3003000 	movw	r3, #0
 428:	e3a02028 	mov	r2, #40	; 0x28
 42c:	e3403000 	movt	r3, #0
 430:	e3a00000 	mov	r0, #0
 434:	e5832000 	str	r2, [r3]
 438:	e28dd008 	add	sp, sp, #8
 43c:	e8bd8010 	pop	{r4, pc}

00000440 <unlink>:
 440:	e92d4010 	push	{r4, lr}
 444:	ebfffffe 	bl	0 <f_unlink>
 448:	e3003000 	movw	r3, #0
 44c:	e3500013 	cmp	r0, #19
 450:	e3403000 	movt	r3, #0
 454:	e5c30228 	strb	r0, [r3, #552]	; 0x228
 458:	9a000005 	bls	474 <unlink+0x34>
 45c:	e3003000 	movw	r3, #0
 460:	e3a02028 	mov	r2, #40	; 0x28
 464:	e3403000 	movt	r3, #0
 468:	e3e00000 	mvn	r0, #0
 46c:	e5832000 	str	r2, [r3]
 470:	e8bd8010 	pop	{r4, pc}
 474:	e2503000 	subs	r3, r0, #0
 478:	e3001000 	movw	r1, #0
 47c:	e3401000 	movt	r1, #0
 480:	e3002000 	movw	r2, #0
 484:	e3402000 	movt	r2, #0
 488:	13a03001 	movne	r3, #1
 48c:	e7911100 	ldr	r1, [r1, r0, lsl #2]
 490:	e2630000 	rsb	r0, r3, #0
 494:	e5821000 	str	r1, [r2]
 498:	e8bd8010 	pop	{r4, pc}

0000049c <opendir>:
 49c:	e92d4010 	push	{r4, lr}
 4a0:	e1a01000 	mov	r1, r0
 4a4:	e5d03000 	ldrb	r3, [r0]
 4a8:	e3530000 	cmp	r3, #0
 4ac:	0a000009 	beq	4d8 <opendir+0x3c>
 4b0:	e1a03000 	mov	r3, r0
 4b4:	e5f32001 	ldrb	r2, [r3, #1]!
 4b8:	e3520000 	cmp	r2, #0
 4bc:	1afffffc 	bne	4b4 <opendir+0x18>
 4c0:	e0533001 	subs	r3, r3, r1
 4c4:	0a000003 	beq	4d8 <opendir+0x3c>
 4c8:	e2433001 	sub	r3, r3, #1
 4cc:	e7d10003 	ldrb	r0, [r1, r3]
 4d0:	e350002e 	cmp	r0, #46	; 0x2e
 4d4:	07c12003 	strbeq	r2, [r1, r3]
 4d8:	e3004000 	movw	r4, #0
 4dc:	e3404000 	movt	r4, #0
 4e0:	e2840f8b 	add	r0, r4, #556	; 0x22c
 4e4:	ebfffffe 	bl	0 <f_opendir>
 4e8:	e5c40228 	strb	r0, [r4, #552]	; 0x228
 4ec:	e3500013 	cmp	r0, #19
 4f0:	9a000005 	bls	50c <opendir+0x70>
 4f4:	e3003000 	movw	r3, #0
 4f8:	e3a02028 	mov	r2, #40	; 0x28
 4fc:	e3403000 	movt	r3, #0
 500:	e3a00000 	mov	r0, #0
 504:	e5832000 	str	r2, [r3]
 508:	e8bd8010 	pop	{r4, pc}
 50c:	e59f3024 	ldr	r3, [pc, #36]	; 538 <opendir+0x9c>
 510:	e3001000 	movw	r1, #0
 514:	e3401000 	movt	r1, #0
 518:	e3002000 	movw	r2, #0
 51c:	e3402000 	movt	r2, #0
 520:	e3500000 	cmp	r0, #0
 524:	e7911100 	ldr	r1, [r1, r0, lsl #2]
 528:	01a00003 	moveq	r0, r3
 52c:	13a00000 	movne	r0, #0
 530:	e5821000 	str	r1, [r2]
 534:	e8bd8010 	pop	{r4, pc}
 538:	0000022c 	andeq	r0, r0, ip, lsr #4

0000053c <readdir>:
 53c:	e92d4010 	push	{r4, lr}
 540:	e3004000 	movw	r4, #0
 544:	e3404000 	movt	r4, #0
 548:	e24dd058 	sub	sp, sp, #88	; 0x58
 54c:	e3a03000 	mov	r3, #0
 550:	e1a0100d 	mov	r1, sp
 554:	e5cd3016 	strb	r3, [sp, #22]
 558:	e2840f8b 	add	r0, r4, #556	; 0x22c
 55c:	ebfffffe 	bl	0 <f_readdir>
 560:	e5c40228 	strb	r0, [r4, #552]	; 0x228
 564:	e3500000 	cmp	r0, #0
 568:	1a000026 	bne	608 <readdir+0xcc>
 56c:	e5dd2016 	ldrb	r2, [sp, #22]
 570:	e3520000 	cmp	r2, #0
 574:	01a00002 	moveq	r0, r2
 578:	0a000014 	beq	5d0 <readdir+0x94>
 57c:	e59f30b0 	ldr	r3, [pc, #176]	; 634 <readdir+0xf8>
 580:	e3001000 	movw	r1, #0
 584:	e3401000 	movt	r1, #0
 588:	e28dc016 	add	ip, sp, #22
 58c:	e5810000 	str	r0, [r1]
 590:	e3a0100f 	mov	r1, #15
 594:	ea000002 	b	5a4 <readdir+0x68>
 598:	e5fc2001 	ldrb	r2, [ip, #1]!
 59c:	e3520000 	cmp	r2, #0
 5a0:	0a00000c 	beq	5d8 <readdir+0x9c>
 5a4:	e1a0e001 	mov	lr, r1
 5a8:	e2511001 	subs	r1, r1, #1
 5ac:	e1a00003 	mov	r0, r3
 5b0:	e4c32001 	strb	r2, [r3], #1
 5b4:	1afffff7 	bne	598 <readdir+0x5c>
 5b8:	e5dd3008 	ldrb	r3, [sp, #8]
 5bc:	e3530010 	cmp	r3, #16
 5c0:	0a00000b 	beq	5f4 <readdir+0xb8>
 5c4:	e59f006c 	ldr	r0, [pc, #108]	; 638 <readdir+0xfc>
 5c8:	e3a03008 	mov	r3, #8
 5cc:	e5c4325c 	strb	r3, [r4, #604]	; 0x25c
 5d0:	e28dd058 	add	sp, sp, #88	; 0x58
 5d4:	e8bd8010 	pop	{r4, pc}
 5d8:	e080000e 	add	r0, r0, lr
 5dc:	e4c32001 	strb	r2, [r3], #1
 5e0:	e1530000 	cmp	r3, r0
 5e4:	1afffffc 	bne	5dc <readdir+0xa0>
 5e8:	e5dd3008 	ldrb	r3, [sp, #8]
 5ec:	e3530010 	cmp	r3, #16
 5f0:	1afffff3 	bne	5c4 <readdir+0x88>
 5f4:	e59f003c 	ldr	r0, [pc, #60]	; 638 <readdir+0xfc>
 5f8:	e3a03004 	mov	r3, #4
 5fc:	e5c4325c 	strb	r3, [r4, #604]	; 0x25c
 600:	e28dd058 	add	sp, sp, #88	; 0x58
 604:	e8bd8010 	pop	{r4, pc}
 608:	e3500013 	cmp	r0, #19
 60c:	93003000 	movwls	r3, #0
 610:	83a02028 	movhi	r2, #40	; 0x28
 614:	93403000 	movtls	r3, #0
 618:	97932100 	ldrls	r2, [r3, r0, lsl #2]
 61c:	e3003000 	movw	r3, #0
 620:	e3403000 	movt	r3, #0
 624:	e3a00000 	mov	r0, #0
 628:	e5832000 	str	r2, [r3]
 62c:	e28dd058 	add	sp, sp, #88	; 0x58
 630:	e8bd8010 	pop	{r4, pc}
 634:	0000025d 	andeq	r0, r0, sp, asr r2
 638:	0000025c 	andeq	r0, r0, ip, asr r2

0000063c <closedir>:
 63c:	e92d4010 	push	{r4, lr}
 640:	e3004000 	movw	r4, #0
 644:	e3404000 	movt	r4, #0
 648:	e2840f8b 	add	r0, r4, #556	; 0x22c
 64c:	ebfffffe 	bl	0 <f_closedir>
 650:	e5c40228 	strb	r0, [r4, #552]	; 0x228
 654:	e3500013 	cmp	r0, #19
 658:	9a000005 	bls	674 <closedir+0x38>
 65c:	e3003000 	movw	r3, #0
 660:	e3a02028 	mov	r2, #40	; 0x28
 664:	e3403000 	movt	r3, #0
 668:	e3e00000 	mvn	r0, #0
 66c:	e5832000 	str	r2, [r3]
 670:	e8bd8010 	pop	{r4, pc}
 674:	e2503000 	subs	r3, r0, #0
 678:	e3001000 	movw	r1, #0
 67c:	e3401000 	movt	r1, #0
 680:	e3002000 	movw	r2, #0
 684:	e3402000 	movt	r2, #0
 688:	13a03001 	movne	r3, #1
 68c:	e7911100 	ldr	r1, [r1, r0, lsl #2]
 690:	e2630000 	rsb	r0, r3, #0
 694:	e5821000 	str	r1, [r2]
 698:	e8bd8010 	pop	{r4, pc}

Disassembly of section .bss:

00000000 <file_object>:
	...

00000228 <s_fresult>:
 228:	00000000 	andeq	r0, r0, r0

0000022c <s_dir>:
	...

0000025c <s_dirent>:
	...

Disassembly of section .rodata.str1.4:

00000000 <.LC0>:
   0:	00002b77 	andeq	r2, r0, r7, ror fp

00000004 <.LC1>:
   4:	20736920 	rsbscs	r6, r3, r0, lsr #18
   8:	20746f6e 	rsbscs	r6, r4, lr, ror #30
   c:	6c706d69 	ldclvs	13, cr6, [r0], #-420	; 0xfffffe5c
  10:	6e656d65 	cdpvs	13, 6, cr6, cr5, cr5, {3}
  14:	0a646574 	beq	19195ec <closedir+0x1918fb0>
	...

Disassembly of section .rodata:

00000000 <CSWTCH.34>:
   0:	00000000 	andeq	r0, r0, r0
   4:	00000005 	andeq	r0, r0, r5
   8:	00000001 	andeq	r0, r0, r1
   c:	00000010 	andeq	r0, r0, r0, lsl r0
  10:	00000002 	andeq	r0, r0, r2
  14:	00000002 	andeq	r0, r0, r2
  18:	00000016 	andeq	r0, r0, r6, lsl r0
  1c:	0000000d 	andeq	r0, r0, sp
  20:	0000000d 	andeq	r0, r0, sp
  24:	00000016 	andeq	r0, r0, r6, lsl r0
  28:	0000001e 	andeq	r0, r0, lr, lsl r0
  2c:	00000006 	andeq	r0, r0, r6
  30:	0000001c 	andeq	r0, r0, ip, lsl r0
  34:	00000006 	andeq	r0, r0, r6
  38:	00000016 	andeq	r0, r0, r6, lsl r0
  3c:	00000010 	andeq	r0, r0, r0, lsl r0
  40:	00000010 	andeq	r0, r0, r0, lsl r0
  44:	0000000c 	andeq	r0, r0, ip
  48:	00000018 	andeq	r0, r0, r8, lsl r0
  4c:	00000016 	andeq	r0, r0, r6, lsl r0

Disassembly of section .comment:

00000000 <.comment>:
   0:	43434700 	movtmi	r4, #14080	; 0x3700
   4:	4728203a 			; <UNDEFINED> instruction: 0x4728203a
   8:	2029554e 	eorcs	r5, r9, lr, asr #10
   c:	322e3031 	eorcc	r3, lr, #49	; 0x31
  10:	Address 0x0000000000000010 is out of bounds.


Disassembly of section .ARM.attributes:

00000000 <.ARM.attributes>:
   0:	00003441 	andeq	r3, r0, r1, asr #8
   4:	61656100 	cmnvs	r5, r0, lsl #2
   8:	01006962 	tsteq	r0, r2, ror #18
   c:	0000002a 	andeq	r0, r0, sl, lsr #32
  10:	412d3705 			; <UNDEFINED> instruction: 0x412d3705
  14:	070a0600 	streq	r0, [sl, -r0, lsl #12]
  18:	09010841 	stmdbeq	r1, {r0, r6, fp}
  1c:	0c050a02 			; <UNDEFINED> instruction: 0x0c050a02
  20:	14041202 	strne	r1, [r4], #-514	; 0xfffffdfe
  24:	17011501 	strne	r1, [r1, -r1, lsl #10]
  28:	19011803 	stmdbne	r1, {r0, r1, fp, ip}
  2c:	1c011a01 			; <UNDEFINED> instruction: 0x1c011a01
  30:	22021e01 	andcs	r1, r2, #1, 28
  34:	Address 0x0000000000000034 is out of bounds.


ff.o:     file format elf32-littlearm


Disassembly of section .text:

00000000 <ld_dword>:
       0:	e5900000 	ldr	r0, [r0]
       4:	e12fff1e 	bx	lr

00000008 <st_dword>:
       8:	e1a03421 	lsr	r3, r1, #8
       c:	e5c01000 	strb	r1, [r0]
      10:	e5c03001 	strb	r3, [r0, #1]
      14:	e1a03821 	lsr	r3, r1, #16
      18:	e1a01c21 	lsr	r1, r1, #24
      1c:	e5c03002 	strb	r3, [r0, #2]
      20:	e5c01003 	strb	r1, [r0, #3]
      24:	e12fff1e 	bx	lr

00000028 <clust2sect>:
      28:	e5903018 	ldr	r3, [r0, #24]
      2c:	e2411002 	sub	r1, r1, #2
      30:	e2433002 	sub	r3, r3, #2
      34:	e1530001 	cmp	r3, r1
      38:	81d030ba 	ldrhhi	r3, [r0, #10]
      3c:	8590002c 	ldrhi	r0, [r0, #44]	; 0x2c
      40:	80200391 	mlahi	r0, r1, r3, r0
      44:	93a00000 	movls	r0, #0
      48:	e12fff1e 	bx	lr

0000004c <st_clust>:
      4c:	e7e73452 	ubfx	r3, r2, #8, #8
      50:	e5c1201a 	strb	r2, [r1, #26]
      54:	e5c1301b 	strb	r3, [r1, #27]
      58:	e5d03000 	ldrb	r3, [r0]
      5c:	e3530003 	cmp	r3, #3
      60:	01a02822 	lsreq	r2, r2, #16
      64:	05c12014 	strbeq	r2, [r1, #20]
      68:	01a02422 	lsreq	r2, r2, #8
      6c:	05c12015 	strbeq	r2, [r1, #21]
      70:	e12fff1e 	bx	lr

00000074 <sum_sfn>:
      74:	e1a03000 	mov	r3, r0
      78:	e280100b 	add	r1, r0, #11
      7c:	e3a00000 	mov	r0, #0
      80:	e1a02380 	lsl	r2, r0, #7
      84:	e18200a0 	orr	r0, r2, r0, lsr #1
      88:	e4d32001 	ldrb	r2, [r3], #1
      8c:	e1530001 	cmp	r3, r1
      90:	e6e20070 	uxtab	r0, r2, r0
      94:	e6ef0070 	uxtb	r0, r0
      98:	1afffff8 	bne	80 <sum_sfn+0xc>
      9c:	e12fff1e 	bx	lr

000000a0 <get_ldnumber>:
      a0:	e590c000 	ldr	ip, [r0]
      a4:	e35c0000 	cmp	ip, #0
      a8:	0a000013 	beq	fc <get_ldnumber+0x5c>
      ac:	e52de004 	push	{lr}		; (str lr, [sp, #-4]!)
      b0:	e1a02000 	mov	r2, r0
      b4:	e1a0e00c 	mov	lr, ip
      b8:	e1a0100e 	mov	r1, lr
      bc:	e4de3001 	ldrb	r3, [lr], #1
      c0:	e353003a 	cmp	r3, #58	; 0x3a
      c4:	1353001f 	cmpne	r3, #31
      c8:	83a00001 	movhi	r0, #1
      cc:	93a00000 	movls	r0, #0
      d0:	8afffff8 	bhi	b8 <get_ldnumber+0x18>
      d4:	e353003a 	cmp	r3, #58	; 0x3a
      d8:	149df004 	popne	{pc}		; (ldrne pc, [sp], #4)
      dc:	e5dc3000 	ldrb	r3, [ip]
      e0:	e28ce001 	add	lr, ip, #1
      e4:	e151000e 	cmp	r1, lr
      e8:	03530030 	cmpeq	r3, #48	; 0x30
      ec:	1a000004 	bne	104 <get_ldnumber+0x64>
      f0:	e2811001 	add	r1, r1, #1
      f4:	e5821000 	str	r1, [r2]
      f8:	e49df004 	pop	{pc}		; (ldr pc, [sp], #4)
      fc:	e3e00000 	mvn	r0, #0
     100:	e12fff1e 	bx	lr
     104:	e3e00000 	mvn	r0, #0
     108:	e49df004 	pop	{pc}		; (ldr pc, [sp], #4)

0000010c <validate>:
     10c:	e92d4070 	push	{r4, r5, r6, lr}
     110:	e2504000 	subs	r4, r0, #0
     114:	e1a05001 	mov	r5, r1
     118:	1a000002 	bne	128 <validate+0x1c>
     11c:	e3a03000 	mov	r3, #0
     120:	e3a00009 	mov	r0, #9
     124:	ea00000e 	b	164 <validate+0x58>
     128:	e5943000 	ldr	r3, [r4]
     12c:	e3530000 	cmp	r3, #0
     130:	0afffff9 	beq	11c <validate+0x10>
     134:	e5d32000 	ldrb	r2, [r3]
     138:	e3520000 	cmp	r2, #0
     13c:	0afffff6 	beq	11c <validate+0x10>
     140:	e1d310b6 	ldrh	r1, [r3, #6]
     144:	e1d420b4 	ldrh	r2, [r4, #4]
     148:	e1510002 	cmp	r1, r2
     14c:	1afffff2 	bne	11c <validate+0x10>
     150:	e5d30001 	ldrb	r0, [r3, #1]
     154:	ebfffffe 	bl	0 <disk_status>
     158:	e2100001 	ands	r0, r0, #1
     15c:	1affffee 	bne	11c <validate+0x10>
     160:	e5943000 	ldr	r3, [r4]
     164:	e5853000 	str	r3, [r5]
     168:	e8bd8070 	pop	{r4, r5, r6, pc}

0000016c <get_fileinfo>:
     16c:	e92d41f0 	push	{r4, r5, r6, r7, r8, lr}
     170:	e3a05000 	mov	r5, #0
     174:	e5908000 	ldr	r8, [r0]
     178:	e5c15016 	strb	r5, [r1, #22]
     17c:	e5903018 	ldr	r3, [r0, #24]
     180:	e1530005 	cmp	r3, r5
     184:	08bd81f0 	popeq	{r4, r5, r6, r7, r8, pc}
     188:	e590302c 	ldr	r3, [r0, #44]	; 0x2c
     18c:	e1a06000 	mov	r6, r0
     190:	e1a04001 	mov	r4, r1
     194:	e3730001 	cmn	r3, #1
     198:	12817016 	addne	r7, r1, #22
     19c:	0a000012 	beq	1ec <get_fileinfo+0x80>
     1a0:	e598200c 	ldr	r2, [r8, #12]
     1a4:	e1a03085 	lsl	r3, r5, #1
     1a8:	e19200b3 	ldrh	r0, [r2, r3]
     1ac:	e3500000 	cmp	r0, #0
     1b0:	0a00000a 	beq	1e0 <get_fileinfo+0x74>
     1b4:	e3a01000 	mov	r1, #0
     1b8:	ebfffffe 	bl	0 <ff_convert>
     1bc:	e3550040 	cmp	r5, #64	; 0x40
     1c0:	13500000 	cmpne	r0, #0
     1c4:	e2855001 	add	r5, r5, #1
     1c8:	03a03001 	moveq	r3, #1
     1cc:	13a03000 	movne	r3, #0
     1d0:	e3530000 	cmp	r3, #0
     1d4:	04c70001 	strbeq	r0, [r7], #1
     1d8:	0afffff0 	beq	1a0 <get_fileinfo+0x34>
     1dc:	e3a05000 	mov	r5, #0
     1e0:	e0845005 	add	r5, r4, r5
     1e4:	e3a03000 	mov	r3, #0
     1e8:	e5c53016 	strb	r3, [r5, #22]
     1ec:	e596501c 	ldr	r5, [r6, #28]
     1f0:	e3a03000 	mov	r3, #0
     1f4:	e5d4e016 	ldrb	lr, [r4, #22]
     1f8:	e1a01003 	mov	r1, r3
     1fc:	e245c001 	sub	ip, r5, #1
     200:	e3a0002e 	mov	r0, #46	; 0x2e
     204:	e5fc2001 	ldrb	r2, [ip, #1]!
     208:	e2811001 	add	r1, r1, #1
     20c:	e3520020 	cmp	r2, #32
     210:	0a000018 	beq	278 <get_fileinfo+0x10c>
     214:	e3520005 	cmp	r2, #5
     218:	03a020e5 	moveq	r2, #229	; 0xe5
     21c:	e3510009 	cmp	r1, #9
     220:	1a000004 	bne	238 <get_fileinfo+0xcc>
     224:	e0846003 	add	r6, r4, r3
     228:	e2833001 	add	r3, r3, #1
     22c:	e35e0000 	cmp	lr, #0
     230:	05c60016 	strbeq	r0, [r6, #22]
     234:	e5c60009 	strb	r0, [r6, #9]
     238:	e0846003 	add	r6, r4, r3
     23c:	e35e0000 	cmp	lr, #0
     240:	e5c62009 	strb	r2, [r6, #9]
     244:	1a00000a 	bne	274 <get_fileinfo+0x108>
     248:	e2427041 	sub	r7, r2, #65	; 0x41
     24c:	e3570019 	cmp	r7, #25
     250:	8a000006 	bhi	270 <get_fileinfo+0x104>
     254:	e5d5800c 	ldrb	r8, [r5, #12]
     258:	e3510008 	cmp	r1, #8
     25c:	83a07010 	movhi	r7, #16
     260:	93a07008 	movls	r7, #8
     264:	e1180007 	tst	r8, r7
     268:	12822020 	addne	r2, r2, #32
     26c:	16ef2072 	uxtbne	r2, r2
     270:	e5c62016 	strb	r2, [r6, #22]
     274:	e2833001 	add	r3, r3, #1
     278:	e351000b 	cmp	r1, #11
     27c:	1affffe0 	bne	204 <get_fileinfo+0x98>
     280:	e35e0000 	cmp	lr, #0
     284:	1a000004 	bne	29c <get_fileinfo+0x130>
     288:	e0842003 	add	r2, r4, r3
     28c:	e5c2e016 	strb	lr, [r2, #22]
     290:	e5d5200c 	ldrb	r2, [r5, #12]
     294:	e3520000 	cmp	r2, #0
     298:	03a03000 	moveq	r3, #0
     29c:	e0843003 	add	r3, r4, r3
     2a0:	e3a02000 	mov	r2, #0
     2a4:	e285001c 	add	r0, r5, #28
     2a8:	e5c32009 	strb	r2, [r3, #9]
     2ac:	e5d5300b 	ldrb	r3, [r5, #11]
     2b0:	e5c43008 	strb	r3, [r4, #8]
     2b4:	ebffff51 	bl	0 <ld_dword>
     2b8:	e5840000 	str	r0, [r4]
     2bc:	e2850016 	add	r0, r5, #22
     2c0:	ebffff4e 	bl	0 <ld_dword>
     2c4:	e1c400b6 	strh	r0, [r4, #6]
     2c8:	e1a00820 	lsr	r0, r0, #16
     2cc:	e1c400b4 	strh	r0, [r4, #4]
     2d0:	e8bd81f0 	pop	{r4, r5, r6, r7, r8, pc}

000002d4 <mem_cpy.part.0>:
     2d4:	e0812002 	add	r2, r1, r2
     2d8:	e2400001 	sub	r0, r0, #1
     2dc:	e4d13001 	ldrb	r3, [r1], #1
     2e0:	e1510002 	cmp	r1, r2
     2e4:	e5e03001 	strb	r3, [r0, #1]!
     2e8:	1afffffb 	bne	2dc <mem_cpy.part.0+0x8>
     2ec:	e12fff1e 	bx	lr

000002f0 <sync_window.part.0>:
     2f0:	e92d41f0 	push	{r4, r5, r6, r7, r8, lr}
     2f4:	e2808034 	add	r8, r0, #52	; 0x34
     2f8:	e5907030 	ldr	r7, [r0, #48]	; 0x30
     2fc:	e1a04000 	mov	r4, r0
     300:	e5d00001 	ldrb	r0, [r0, #1]
     304:	e3a03001 	mov	r3, #1
     308:	e1a02007 	mov	r2, r7
     30c:	e1a01008 	mov	r1, r8
     310:	ebfffffe 	bl	0 <disk_write>
     314:	e2505000 	subs	r5, r0, #0
     318:	13a05001 	movne	r5, #1
     31c:	1a000011 	bne	368 <sync_window.part.0+0x78>
     320:	e5943024 	ldr	r3, [r4, #36]	; 0x24
     324:	e594201c 	ldr	r2, [r4, #28]
     328:	e0473003 	sub	r3, r7, r3
     32c:	e1530002 	cmp	r3, r2
     330:	e5c45003 	strb	r5, [r4, #3]
     334:	35d46002 	ldrbcc	r6, [r4, #2]
     338:	2a00000a 	bcs	368 <sync_window.part.0+0x78>
     33c:	e3560001 	cmp	r6, #1
     340:	9a000008 	bls	368 <sync_window.part.0+0x78>
     344:	e594301c 	ldr	r3, [r4, #28]
     348:	e1a01008 	mov	r1, r8
     34c:	e5d40001 	ldrb	r0, [r4, #1]
     350:	e2466001 	sub	r6, r6, #1
     354:	e0877003 	add	r7, r7, r3
     358:	e3a03001 	mov	r3, #1
     35c:	e1a02007 	mov	r2, r7
     360:	ebfffffe 	bl	0 <disk_write>
     364:	eafffff4 	b	33c <sync_window.part.0+0x4c>
     368:	e1a00005 	mov	r0, r5
     36c:	e8bd81f0 	pop	{r4, r5, r6, r7, r8, pc}

00000370 <sync_window>:
     370:	e5d03003 	ldrb	r3, [r0, #3]
     374:	e3530000 	cmp	r3, #0
     378:	0a000000 	beq	380 <sync_window+0x10>
     37c:	eaffffdb 	b	2f0 <sync_window.part.0>
     380:	e1a00003 	mov	r0, r3
     384:	e12fff1e 	bx	lr

00000388 <move_window>:
     388:	e5903030 	ldr	r3, [r0, #48]	; 0x30
     38c:	e1530001 	cmp	r3, r1
     390:	0a00000f 	beq	3d4 <move_window+0x4c>
     394:	e92d4070 	push	{r4, r5, r6, lr}
     398:	e1a05000 	mov	r5, r0
     39c:	e1a04001 	mov	r4, r1
     3a0:	ebfffff2 	bl	370 <sync_window>
     3a4:	e2503000 	subs	r3, r0, #0
     3a8:	1a00000c 	bne	3e0 <move_window+0x58>
     3ac:	e5d50001 	ldrb	r0, [r5, #1]
     3b0:	e3a03001 	mov	r3, #1
     3b4:	e1a02004 	mov	r2, r4
     3b8:	e2851034 	add	r1, r5, #52	; 0x34
     3bc:	ebfffffe 	bl	0 <disk_read>
     3c0:	e2503000 	subs	r3, r0, #0
     3c4:	13e04000 	mvnne	r4, #0
     3c8:	13a03001 	movne	r3, #1
     3cc:	e5854030 	str	r4, [r5, #48]	; 0x30
     3d0:	ea000002 	b	3e0 <move_window+0x58>
     3d4:	e3a03000 	mov	r3, #0
     3d8:	e1a00003 	mov	r0, r3
     3dc:	e12fff1e 	bx	lr
     3e0:	e1a00003 	mov	r0, r3
     3e4:	e8bd8070 	pop	{r4, r5, r6, pc}

000003e8 <check_fs>:
     3e8:	e3a03000 	mov	r3, #0
     3ec:	e92d4010 	push	{r4, lr}
     3f0:	e1a04000 	mov	r4, r0
     3f4:	e5c03003 	strb	r3, [r0, #3]
     3f8:	e3e03000 	mvn	r3, #0
     3fc:	e5803030 	str	r3, [r0, #48]	; 0x30
     400:	ebffffe0 	bl	388 <move_window>
     404:	e2503000 	subs	r3, r0, #0
     408:	13a03004 	movne	r3, #4
     40c:	1a00001a 	bne	47c <check_fs+0x94>
     410:	e3002232 	movw	r2, #562	; 0x232
     414:	e19410b2 	ldrh	r1, [r4, r2]
     418:	e30a2a55 	movw	r2, #43605	; 0xaa55
     41c:	e1510002 	cmp	r1, r2
     420:	13a03003 	movne	r3, #3
     424:	1a000014 	bne	47c <check_fs+0x94>
     428:	e5d42034 	ldrb	r2, [r4, #52]	; 0x34
     42c:	e35200e9 	cmp	r2, #233	; 0xe9
     430:	0a000006 	beq	450 <check_fs+0x68>
     434:	e5942034 	ldr	r2, [r4, #52]	; 0x34
     438:	e59f1044 	ldr	r1, [pc, #68]	; 484 <check_fs+0x9c>
     43c:	e3c224ff 	bic	r2, r2, #-16777216	; 0xff000000
     440:	e3c22cff 	bic	r2, r2, #65280	; 0xff00
     444:	e1520001 	cmp	r2, r1
     448:	13a03002 	movne	r3, #2
     44c:	1a00000a 	bne	47c <check_fs+0x94>
     450:	e59f1030 	ldr	r1, [pc, #48]	; 488 <check_fs+0xa0>
     454:	e284006a 	add	r0, r4, #106	; 0x6a
     458:	ebfffee8 	bl	0 <ld_dword>
     45c:	e3c024ff 	bic	r2, r0, #-16777216	; 0xff000000
     460:	e1520001 	cmp	r2, r1
     464:	0a000004 	beq	47c <check_fs+0x94>
     468:	e59f201c 	ldr	r2, [pc, #28]	; 48c <check_fs+0xa4>
     46c:	e2840086 	add	r0, r4, #134	; 0x86
     470:	ebfffee2 	bl	0 <ld_dword>
     474:	e1500002 	cmp	r0, r2
     478:	13a03002 	movne	r3, #2
     47c:	e1a00003 	mov	r0, r3
     480:	e8bd8010 	pop	{r4, pc}
     484:	009000eb 	addseq	r0, r0, fp, ror #1
     488:	00544146 	subseq	r4, r4, r6, asr #2
     48c:	33544146 	cmpcc	r4, #-2147483631	; 0x80000011

00000490 <find_volume>:
     490:	e3a03000 	mov	r3, #0
     494:	e92d4ff0 	push	{r4, r5, r6, r7, r8, r9, sl, fp, lr}
     498:	e24dd01c 	sub	sp, sp, #28
     49c:	e5813000 	str	r3, [r1]
     4a0:	e1a05002 	mov	r5, r2
     4a4:	e1a08001 	mov	r8, r1
     4a8:	ebfffefc 	bl	a0 <get_ldnumber>
     4ac:	e2507000 	subs	r7, r0, #0
     4b0:	b3a0500b 	movlt	r5, #11
     4b4:	ba0000d3 	blt	808 <find_volume+0x378>
     4b8:	e59f6354 	ldr	r6, [pc, #852]	; 814 <find_volume+0x384>
     4bc:	e7964107 	ldr	r4, [r6, r7, lsl #2]
     4c0:	e3540000 	cmp	r4, #0
     4c4:	03a0500c 	moveq	r5, #12
     4c8:	0a0000ce 	beq	808 <find_volume+0x378>
     4cc:	e5884000 	str	r4, [r8]
     4d0:	e20550fe 	and	r5, r5, #254	; 0xfe
     4d4:	e5d43000 	ldrb	r3, [r4]
     4d8:	e3530000 	cmp	r3, #0
     4dc:	0a000009 	beq	508 <find_volume+0x78>
     4e0:	e5d40001 	ldrb	r0, [r4, #1]
     4e4:	ebfffffe 	bl	0 <disk_status>
     4e8:	e3100001 	tst	r0, #1
     4ec:	1a000005 	bne	508 <find_volume+0x78>
     4f0:	e3550000 	cmp	r5, #0
     4f4:	0a0000c3 	beq	808 <find_volume+0x378>
     4f8:	e2105004 	ands	r5, r0, #4
     4fc:	0a0000c1 	beq	808 <find_volume+0x378>
     500:	e3a0500a 	mov	r5, #10
     504:	ea0000bf 	b	808 <find_volume+0x378>
     508:	e3a03000 	mov	r3, #0
     50c:	e6ef0077 	uxtb	r0, r7
     510:	e5c43000 	strb	r3, [r4]
     514:	e5c40001 	strb	r0, [r4, #1]
     518:	ebfffffe 	bl	0 <disk_initialize>
     51c:	e3100001 	tst	r0, #1
     520:	13a05003 	movne	r5, #3
     524:	1a0000b7 	bne	808 <find_volume+0x378>
     528:	e3550000 	cmp	r5, #0
     52c:	0a000001 	beq	538 <find_volume+0xa8>
     530:	e3100004 	tst	r0, #4
     534:	1afffff1 	bne	500 <find_volume+0x70>
     538:	e3a01000 	mov	r1, #0
     53c:	e1a00004 	mov	r0, r4
     540:	ebffffa8 	bl	3e8 <check_fs>
     544:	e3500002 	cmp	r0, #2
     548:	1a00001c 	bne	5c0 <find_volume+0x130>
     54c:	e28d5008 	add	r5, sp, #8
     550:	e2843f7e 	add	r3, r4, #504	; 0x1f8
     554:	e2842f8e 	add	r2, r4, #568	; 0x238
     558:	e2833002 	add	r3, r3, #2
     55c:	e2822002 	add	r2, r2, #2
     560:	e1a01005 	mov	r1, r5
     564:	e5530004 	ldrb	r0, [r3, #-4]
     568:	e3500000 	cmp	r0, #0
     56c:	0a000001 	beq	578 <find_volume+0xe8>
     570:	e1a00003 	mov	r0, r3
     574:	ebfffea1 	bl	0 <ld_dword>
     578:	e4810004 	str	r0, [r1], #4
     57c:	e2833010 	add	r3, r3, #16
     580:	e1530002 	cmp	r3, r2
     584:	1afffff6 	bne	564 <find_volume+0xd4>
     588:	e3a08000 	mov	r8, #0
     58c:	e4957004 	ldr	r7, [r5], #4
     590:	e3570000 	cmp	r7, #0
     594:	03a00003 	moveq	r0, #3
     598:	0a000004 	beq	5b0 <find_volume+0x120>
     59c:	e1a01007 	mov	r1, r7
     5a0:	e1a00004 	mov	r0, r4
     5a4:	ebffff8f 	bl	3e8 <check_fs>
     5a8:	e3500001 	cmp	r0, #1
     5ac:	9a00000a 	bls	5dc <find_volume+0x14c>
     5b0:	e2888001 	add	r8, r8, #1
     5b4:	e3580004 	cmp	r8, #4
     5b8:	1afffff3 	bne	58c <find_volume+0xfc>
     5bc:	ea00008e 	b	7fc <find_volume+0x36c>
     5c0:	e3500004 	cmp	r0, #4
     5c4:	0a00008e 	beq	804 <find_volume+0x374>
     5c8:	e3500001 	cmp	r0, #1
     5cc:	93a07000 	movls	r7, #0
     5d0:	9a000001 	bls	5dc <find_volume+0x14c>
     5d4:	e3a0500d 	mov	r5, #13
     5d8:	ea00008a 	b	808 <find_volume+0x378>
     5dc:	e1d433bf 	ldrh	r3, [r4, #63]	; 0x3f
     5e0:	e3530c02 	cmp	r3, #512	; 0x200
     5e4:	1afffffa 	bne	5d4 <find_volume+0x144>
     5e8:	e1d484ba 	ldrh	r8, [r4, #74]	; 0x4a
     5ec:	e3580000 	cmp	r8, #0
     5f0:	1a000002 	bne	600 <find_volume+0x170>
     5f4:	e2840058 	add	r0, r4, #88	; 0x58
     5f8:	ebfffe80 	bl	0 <ld_dword>
     5fc:	e1a08000 	mov	r8, r0
     600:	e5d4b044 	ldrb	fp, [r4, #68]	; 0x44
     604:	e584801c 	str	r8, [r4, #28]
     608:	e5c4b002 	strb	fp, [r4, #2]
     60c:	e24b3001 	sub	r3, fp, #1
     610:	e3530001 	cmp	r3, #1
     614:	8affffee 	bhi	5d4 <find_volume+0x144>
     618:	e5d41041 	ldrb	r1, [r4, #65]	; 0x41
     61c:	e1c410ba 	strh	r1, [r4, #10]
     620:	e3510000 	cmp	r1, #0
     624:	0affffea 	beq	5d4 <find_volume+0x144>
     628:	e2413001 	sub	r3, r1, #1
     62c:	e1130001 	tst	r3, r1
     630:	1affffe7 	bne	5d4 <find_volume+0x144>
     634:	e1d424b5 	ldrh	r2, [r4, #69]	; 0x45
     638:	e1c420b8 	strh	r2, [r4, #8]
     63c:	e312000f 	tst	r2, #15
     640:	1affffe3 	bne	5d4 <find_volume+0x144>
     644:	e1d404b7 	ldrh	r0, [r4, #71]	; 0x47
     648:	e3500000 	cmp	r0, #0
     64c:	1a000001 	bne	658 <find_volume+0x1c8>
     650:	e2840054 	add	r0, r4, #84	; 0x54
     654:	ebfffe69 	bl	0 <ld_dword>
     658:	e1d494b2 	ldrh	r9, [r4, #66]	; 0x42
     65c:	e3590000 	cmp	r9, #0
     660:	0affffdb 	beq	5d4 <find_volume+0x144>
     664:	e00b0b98 	mul	fp, r8, fp
     668:	e089a222 	add	sl, r9, r2, lsr #4
     66c:	e08aa00b 	add	sl, sl, fp
     670:	e150000a 	cmp	r0, sl
     674:	e58d2004 	str	r2, [sp, #4]
     678:	3affffd5 	bcc	5d4 <find_volume+0x144>
     67c:	e040500a 	sub	r5, r0, sl
     680:	e58d1000 	str	r1, [sp]
     684:	e1a00005 	mov	r0, r5
     688:	ebfffffe 	bl	0 <__aeabi_uidiv>
     68c:	e59d1000 	ldr	r1, [sp]
     690:	e1550001 	cmp	r5, r1
     694:	3affffce 	bcc	5d4 <find_volume+0x144>
     698:	e59d2004 	ldr	r2, [sp, #4]
     69c:	e30f3ff5 	movw	r3, #65525	; 0xfff5
     6a0:	e1500003 	cmp	r0, r3
     6a4:	83a05003 	movhi	r5, #3
     6a8:	8a000003 	bhi	6bc <find_volume+0x22c>
     6ac:	e3005ff5 	movw	r5, #4085	; 0xff5
     6b0:	e1500005 	cmp	r0, r5
     6b4:	83a05002 	movhi	r5, #2
     6b8:	93a05001 	movls	r5, #1
     6bc:	e0899007 	add	r9, r9, r7
     6c0:	e3550003 	cmp	r5, #3
     6c4:	e08aa007 	add	sl, sl, r7
     6c8:	e2803002 	add	r3, r0, #2
     6cc:	e5843018 	str	r3, [r4, #24]
     6d0:	e5847020 	str	r7, [r4, #32]
     6d4:	e5849024 	str	r9, [r4, #36]	; 0x24
     6d8:	e584a02c 	str	sl, [r4, #44]	; 0x2c
     6dc:	1a000007 	bne	700 <find_volume+0x270>
     6e0:	e1d415be 	ldrh	r1, [r4, #94]	; 0x5e
     6e4:	e1912002 	orrs	r2, r1, r2
     6e8:	1affffb9 	bne	5d4 <find_volume+0x144>
     6ec:	e1a03103 	lsl	r3, r3, #2
     6f0:	e2840060 	add	r0, r4, #96	; 0x60
     6f4:	ebfffe41 	bl	0 <ld_dword>
     6f8:	e5840028 	str	r0, [r4, #40]	; 0x28
     6fc:	ea000009 	b	728 <find_volume+0x298>
     700:	e3520000 	cmp	r2, #0
     704:	0affffb2 	beq	5d4 <find_volume+0x144>
     708:	e089900b 	add	r9, r9, fp
     70c:	e3550002 	cmp	r5, #2
     710:	e1a02083 	lsl	r2, r3, #1
     714:	10822003 	addne	r2, r2, r3
     718:	12033001 	andne	r3, r3, #1
     71c:	e5849028 	str	r9, [r4, #40]	; 0x28
     720:	01a03002 	moveq	r3, r2
     724:	108330a2 	addne	r3, r3, r2, lsr #1
     728:	e2833f7f 	add	r3, r3, #508	; 0x1fc
     72c:	e2833003 	add	r3, r3, #3
     730:	e15804a3 	cmp	r8, r3, lsr #9
     734:	3affffa6 	bcc	5d4 <find_volume+0x144>
     738:	e3e03000 	mvn	r3, #0
     73c:	e3550003 	cmp	r5, #3
     740:	e5843014 	str	r3, [r4, #20]
     744:	e5843010 	str	r3, [r4, #16]
     748:	e3e0307f 	mvn	r3, #127	; 0x7f
     74c:	e5c43004 	strb	r3, [r4, #4]
     750:	1a00001f 	bne	7d4 <find_volume+0x344>
     754:	e1d436b4 	ldrh	r3, [r4, #100]	; 0x64
     758:	e3530001 	cmp	r3, #1
     75c:	1a00001c 	bne	7d4 <find_volume+0x344>
     760:	e2871001 	add	r1, r7, #1
     764:	e1a00004 	mov	r0, r4
     768:	ebffff06 	bl	388 <move_window>
     76c:	e3500000 	cmp	r0, #0
     770:	1a000017 	bne	7d4 <find_volume+0x344>
     774:	e5c40004 	strb	r0, [r4, #4]
     778:	e3003232 	movw	r3, #562	; 0x232
     77c:	e19420b3 	ldrh	r2, [r4, r3]
     780:	e30a3a55 	movw	r3, #43605	; 0xaa55
     784:	e1520003 	cmp	r2, r3
     788:	1a000011 	bne	7d4 <find_volume+0x344>
     78c:	e24333ef 	sub	r3, r3, #-1140850685	; 0xbc000003
     790:	e2840034 	add	r0, r4, #52	; 0x34
     794:	e24337a7 	sub	r3, r3, #43778048	; 0x29c0000
     798:	ebfffe18 	bl	0 <ld_dword>
     79c:	e2433bd6 	sub	r3, r3, #219136	; 0x35800
     7a0:	e1500003 	cmp	r0, r3
     7a4:	1a00000a 	bne	7d4 <find_volume+0x344>
     7a8:	e59f3068 	ldr	r3, [pc, #104]	; 818 <find_volume+0x388>
     7ac:	e2840f86 	add	r0, r4, #536	; 0x218
     7b0:	ebfffe12 	bl	0 <ld_dword>
     7b4:	e1500003 	cmp	r0, r3
     7b8:	1a000005 	bne	7d4 <find_volume+0x344>
     7bc:	e2840f87 	add	r0, r4, #540	; 0x21c
     7c0:	ebfffe0e 	bl	0 <ld_dword>
     7c4:	e5840014 	str	r0, [r4, #20]
     7c8:	e2840e22 	add	r0, r4, #544	; 0x220
     7cc:	ebfffe0b 	bl	0 <ld_dword>
     7d0:	e5840010 	str	r0, [r4, #16]
     7d4:	e1d630b4 	ldrh	r3, [r6, #4]
     7d8:	e5c45000 	strb	r5, [r4]
     7dc:	e3a05000 	mov	r5, #0
     7e0:	e2833001 	add	r3, r3, #1
     7e4:	e6ff3073 	uxth	r3, r3
     7e8:	e1c630b4 	strh	r3, [r6, #4]
     7ec:	e1c430b6 	strh	r3, [r4, #6]
     7f0:	e59f3024 	ldr	r3, [pc, #36]	; 81c <find_volume+0x38c>
     7f4:	e584300c 	str	r3, [r4, #12]
     7f8:	ea000002 	b	808 <find_volume+0x378>
     7fc:	e3500004 	cmp	r0, #4
     800:	1affff73 	bne	5d4 <find_volume+0x144>
     804:	e3a05001 	mov	r5, #1
     808:	e1a00005 	mov	r0, r5
     80c:	e28dd01c 	add	sp, sp, #28
     810:	e8bd8ff0 	pop	{r4, r5, r6, r7, r8, r9, sl, fp, pc}
     814:	00000000 	andeq	r0, r0, r0
     818:	61417272 	hvcvs	5922	; 0x1722
     81c:	00000008 	andeq	r0, r0, r8

00000820 <put_fat>:
     820:	e3510001 	cmp	r1, #1
     824:	e92d47f0 	push	{r4, r5, r6, r7, r8, r9, sl, lr}
     828:	9a00004f 	bls	96c <put_fat+0x14c>
     82c:	e5903018 	ldr	r3, [r0, #24]
     830:	e1a06000 	mov	r6, r0
     834:	e1a05001 	mov	r5, r1
     838:	e1530001 	cmp	r3, r1
     83c:	9a00004a 	bls	96c <put_fat+0x14c>
     840:	e5d03000 	ldrb	r3, [r0]
     844:	e1a07002 	mov	r7, r2
     848:	e3530002 	cmp	r3, #2
     84c:	0a000026 	beq	8ec <put_fat+0xcc>
     850:	e3530003 	cmp	r3, #3
     854:	0a000031 	beq	920 <put_fat+0x100>
     858:	e3530001 	cmp	r3, #1
     85c:	1a000042 	bne	96c <put_fat+0x14c>
     860:	e08180a1 	add	r8, r1, r1, lsr #1
     864:	e5901024 	ldr	r1, [r0, #36]	; 0x24
     868:	e08114a8 	add	r1, r1, r8, lsr #9
     86c:	ebfffec5 	bl	388 <move_window>
     870:	e3500000 	cmp	r0, #0
     874:	e1a04000 	mov	r4, r0
     878:	1a00003c 	bne	970 <put_fat+0x150>
     87c:	e2155001 	ands	r5, r5, #1
     880:	e2869034 	add	r9, r6, #52	; 0x34
     884:	e288a001 	add	sl, r8, #1
     888:	06ef3077 	uxtbeq	r3, r7
     88c:	e7e88058 	ubfx	r8, r8, #0, #9
     890:	e1a00006 	mov	r0, r6
     894:	17d93008 	ldrbne	r3, [r9, r8]
     898:	1203200f 	andne	r2, r3, #15
     89c:	11a03207 	lslne	r3, r7, #4
     8a0:	120330f0 	andne	r3, r3, #240	; 0xf0
     8a4:	11833002 	orrne	r3, r3, r2
     8a8:	e7c93008 	strb	r3, [r9, r8]
     8ac:	e3a03001 	mov	r3, #1
     8b0:	e5961024 	ldr	r1, [r6, #36]	; 0x24
     8b4:	e5c63003 	strb	r3, [r6, #3]
     8b8:	e08114aa 	add	r1, r1, sl, lsr #9
     8bc:	ebfffeb1 	bl	388 <move_window>
     8c0:	e2504000 	subs	r4, r0, #0
     8c4:	1a000029 	bne	970 <put_fat+0x150>
     8c8:	e7e8a05a 	ubfx	sl, sl, #0, #9
     8cc:	e3550000 	cmp	r5, #0
     8d0:	07e37457 	ubfxeq	r7, r7, #8, #4
     8d4:	07d9300a 	ldrbeq	r3, [r9, sl]
     8d8:	17e77257 	ubfxne	r7, r7, #4, #8
     8dc:	03c3300f 	biceq	r3, r3, #15
     8e0:	01837007 	orreq	r7, r3, r7
     8e4:	e7c9700a 	strb	r7, [r9, sl]
     8e8:	ea00001c 	b	960 <put_fat+0x140>
     8ec:	e5901024 	ldr	r1, [r0, #36]	; 0x24
     8f0:	e0811425 	add	r1, r1, r5, lsr #8
     8f4:	ebfffea3 	bl	388 <move_window>
     8f8:	e2504000 	subs	r4, r0, #0
     8fc:	1a00001b 	bne	970 <put_fat+0x150>
     900:	e30011fe 	movw	r1, #510	; 0x1fe
     904:	e2863034 	add	r3, r6, #52	; 0x34
     908:	e0015085 	and	r5, r1, r5, lsl #1
     90c:	e0830005 	add	r0, r3, r5
     910:	e7c37005 	strb	r7, [r3, r5]
     914:	e7e77457 	ubfx	r7, r7, #8, #8
     918:	e5c07001 	strb	r7, [r0, #1]
     91c:	ea00000f 	b	960 <put_fat+0x140>
     920:	e5901024 	ldr	r1, [r0, #36]	; 0x24
     924:	e08113a5 	add	r1, r1, r5, lsr #7
     928:	ebfffe96 	bl	388 <move_window>
     92c:	e2504000 	subs	r4, r0, #0
     930:	1a00000e 	bne	970 <put_fat+0x150>
     934:	e1a05105 	lsl	r5, r5, #2
     938:	e2863034 	add	r3, r6, #52	; 0x34
     93c:	e3c7720f 	bic	r7, r7, #-268435456	; 0xf0000000
     940:	e2055f7f 	and	r5, r5, #508	; 0x1fc
     944:	e0835005 	add	r5, r3, r5
     948:	e1a00005 	mov	r0, r5
     94c:	ebfffdab 	bl	0 <ld_dword>
     950:	e200120f 	and	r1, r0, #-268435456	; 0xf0000000
     954:	e1a00005 	mov	r0, r5
     958:	e1871001 	orr	r1, r7, r1
     95c:	ebfffda9 	bl	8 <st_dword>
     960:	e3a03001 	mov	r3, #1
     964:	e5c63003 	strb	r3, [r6, #3]
     968:	ea000000 	b	970 <put_fat+0x150>
     96c:	e3a04002 	mov	r4, #2
     970:	e1a00004 	mov	r0, r4
     974:	e8bd87f0 	pop	{r4, r5, r6, r7, r8, r9, sl, pc}

00000978 <ld_clust.isra.0>:
     978:	e1d131ba 	ldrh	r3, [r1, #26]
     97c:	e3500003 	cmp	r0, #3
     980:	01d121b4 	ldrheq	r2, [r1, #20]
     984:	01833802 	orreq	r3, r3, r2, lsl #16
     988:	e1a00003 	mov	r0, r3
     98c:	e12fff1e 	bx	lr

00000990 <get_fat.isra.0>:
     990:	e3510001 	cmp	r1, #1
     994:	9a00003c 	bls	a8c <get_fat.isra.0+0xfc>
     998:	e5903018 	ldr	r3, [r0, #24]
     99c:	e92d41f0 	push	{r4, r5, r6, r7, r8, lr}
     9a0:	e1a06000 	mov	r6, r0
     9a4:	e1510003 	cmp	r1, r3
     9a8:	e1a05001 	mov	r5, r1
     9ac:	2a000038 	bcs	a94 <get_fat.isra.0+0x104>
     9b0:	e5d03000 	ldrb	r3, [r0]
     9b4:	e3530002 	cmp	r3, #2
     9b8:	0a00001d 	beq	a34 <get_fat.isra.0+0xa4>
     9bc:	e3530003 	cmp	r3, #3
     9c0:	0a000025 	beq	a5c <get_fat.isra.0+0xcc>
     9c4:	e3530001 	cmp	r3, #1
     9c8:	1a000031 	bne	a94 <get_fat.isra.0+0x104>
     9cc:	e08140a1 	add	r4, r1, r1, lsr #1
     9d0:	e5901024 	ldr	r1, [r0, #36]	; 0x24
     9d4:	e08114a4 	add	r1, r1, r4, lsr #9
     9d8:	ebfffe6a 	bl	388 <move_window>
     9dc:	e3500000 	cmp	r0, #0
     9e0:	0a000001 	beq	9ec <get_fat.isra.0+0x5c>
     9e4:	e3e00000 	mvn	r0, #0
     9e8:	e8bd81f0 	pop	{r4, r5, r6, r7, r8, pc}
     9ec:	e5961024 	ldr	r1, [r6, #36]	; 0x24
     9f0:	e2847001 	add	r7, r4, #1
     9f4:	e7e84054 	ubfx	r4, r4, #0, #9
     9f8:	e1a00006 	mov	r0, r6
     9fc:	e0864004 	add	r4, r6, r4
     a00:	e08114a7 	add	r1, r1, r7, lsr #9
     a04:	e5d44034 	ldrb	r4, [r4, #52]	; 0x34
     a08:	ebfffe5e 	bl	388 <move_window>
     a0c:	e3500000 	cmp	r0, #0
     a10:	1afffff3 	bne	9e4 <get_fat.isra.0+0x54>
     a14:	e7e87057 	ubfx	r7, r7, #0, #9
     a18:	e3150001 	tst	r5, #1
     a1c:	e0866007 	add	r6, r6, r7
     a20:	e5d60034 	ldrb	r0, [r6, #52]	; 0x34
     a24:	e1840400 	orr	r0, r4, r0, lsl #8
     a28:	11a00220 	lsrne	r0, r0, #4
     a2c:	07eb0050 	ubfxeq	r0, r0, #0, #12
     a30:	e8bd81f0 	pop	{r4, r5, r6, r7, r8, pc}
     a34:	e5901024 	ldr	r1, [r0, #36]	; 0x24
     a38:	e0811425 	add	r1, r1, r5, lsr #8
     a3c:	ebfffe51 	bl	388 <move_window>
     a40:	e3500000 	cmp	r0, #0
     a44:	1affffe6 	bne	9e4 <get_fat.isra.0+0x54>
     a48:	e30011fe 	movw	r1, #510	; 0x1fe
     a4c:	e0015085 	and	r5, r1, r5, lsl #1
     a50:	e0866005 	add	r6, r6, r5
     a54:	e1d603b4 	ldrh	r0, [r6, #52]	; 0x34
     a58:	e8bd81f0 	pop	{r4, r5, r6, r7, r8, pc}
     a5c:	e5901024 	ldr	r1, [r0, #36]	; 0x24
     a60:	e08113a5 	add	r1, r1, r5, lsr #7
     a64:	ebfffe47 	bl	388 <move_window>
     a68:	e3500000 	cmp	r0, #0
     a6c:	1affffdc 	bne	9e4 <get_fat.isra.0+0x54>
     a70:	e1a05105 	lsl	r5, r5, #2
     a74:	e2860034 	add	r0, r6, #52	; 0x34
     a78:	e2055f7f 	and	r5, r5, #508	; 0x1fc
     a7c:	e0800005 	add	r0, r0, r5
     a80:	ebfffd5e 	bl	0 <ld_dword>
     a84:	e3c0020f 	bic	r0, r0, #-268435456	; 0xf0000000
     a88:	e8bd81f0 	pop	{r4, r5, r6, r7, r8, pc}
     a8c:	e3a00001 	mov	r0, #1
     a90:	e12fff1e 	bx	lr
     a94:	e3a00001 	mov	r0, #1
     a98:	e8bd81f0 	pop	{r4, r5, r6, r7, r8, pc}

00000a9c <remove_chain.isra.0>:
     a9c:	e3510001 	cmp	r1, #1
     aa0:	e92d4070 	push	{r4, r5, r6, lr}
     aa4:	e1a04001 	mov	r4, r1
     aa8:	9a000028 	bls	b50 <remove_chain.isra.0+0xb4>
     aac:	e5903018 	ldr	r3, [r0, #24]
     ab0:	e1a05000 	mov	r5, r0
     ab4:	e1510003 	cmp	r1, r3
     ab8:	2a000024 	bcs	b50 <remove_chain.isra.0+0xb4>
     abc:	e3520000 	cmp	r2, #0
     ac0:	e1a01002 	mov	r1, r2
     ac4:	0a000003 	beq	ad8 <remove_chain.isra.0+0x3c>
     ac8:	e3e02000 	mvn	r2, #0
     acc:	ebffff53 	bl	820 <put_fat>
     ad0:	e3500000 	cmp	r0, #0
     ad4:	18bd8070 	popne	{r4, r5, r6, pc}
     ad8:	e1a01004 	mov	r1, r4
     adc:	e1a00005 	mov	r0, r5
     ae0:	e1a06004 	mov	r6, r4
     ae4:	ebffffa9 	bl	990 <get_fat.isra.0>
     ae8:	e2504000 	subs	r4, r0, #0
     aec:	1a000001 	bne	af8 <remove_chain.isra.0+0x5c>
     af0:	e3a00000 	mov	r0, #0
     af4:	e8bd8070 	pop	{r4, r5, r6, pc}
     af8:	e3540001 	cmp	r4, #1
     afc:	0a000013 	beq	b50 <remove_chain.isra.0+0xb4>
     b00:	e3740001 	cmn	r4, #1
     b04:	0a000013 	beq	b58 <remove_chain.isra.0+0xbc>
     b08:	e3a02000 	mov	r2, #0
     b0c:	e1a01006 	mov	r1, r6
     b10:	e1a00005 	mov	r0, r5
     b14:	ebffff41 	bl	820 <put_fat>
     b18:	e3500000 	cmp	r0, #0
     b1c:	18bd8070 	popne	{r4, r5, r6, pc}
     b20:	e5952018 	ldr	r2, [r5, #24]
     b24:	e5953014 	ldr	r3, [r5, #20]
     b28:	e2421002 	sub	r1, r2, #2
     b2c:	e1530001 	cmp	r3, r1
     b30:	32833001 	addcc	r3, r3, #1
     b34:	35853014 	strcc	r3, [r5, #20]
     b38:	35d53004 	ldrbcc	r3, [r5, #4]
     b3c:	33833001 	orrcc	r3, r3, #1
     b40:	35c53004 	strbcc	r3, [r5, #4]
     b44:	e1540002 	cmp	r4, r2
     b48:	3affffe2 	bcc	ad8 <remove_chain.isra.0+0x3c>
     b4c:	eaffffe7 	b	af0 <remove_chain.isra.0+0x54>
     b50:	e3a00002 	mov	r0, #2
     b54:	e8bd8070 	pop	{r4, r5, r6, pc}
     b58:	e3a00001 	mov	r0, #1
     b5c:	e8bd8070 	pop	{r4, r5, r6, pc}

00000b60 <create_chain.isra.0>:
     b60:	e92d41f0 	push	{r4, r5, r6, r7, r8, lr}
     b64:	e2517000 	subs	r7, r1, #0
     b68:	e1a04000 	mov	r4, r0
     b6c:	1a000007 	bne	b90 <create_chain.isra.0+0x30>
     b70:	e5906010 	ldr	r6, [r0, #16]
     b74:	e3560000 	cmp	r6, #0
     b78:	03a06001 	moveq	r6, #1
     b7c:	0a00000e 	beq	bbc <create_chain.isra.0+0x5c>
     b80:	e5903018 	ldr	r3, [r0, #24]
     b84:	e1530006 	cmp	r3, r6
     b88:	93a06001 	movls	r6, #1
     b8c:	ea00000a 	b	bbc <create_chain.isra.0+0x5c>
     b90:	ebffff7e 	bl	990 <get_fat.isra.0>
     b94:	e3500001 	cmp	r0, #1
     b98:	8a000001 	bhi	ba4 <create_chain.isra.0+0x44>
     b9c:	e3a00001 	mov	r0, #1
     ba0:	e8bd81f0 	pop	{r4, r5, r6, r7, r8, pc}
     ba4:	e3700001 	cmn	r0, #1
     ba8:	0a000036 	beq	c88 <create_chain.isra.0+0x128>
     bac:	e5943018 	ldr	r3, [r4, #24]
     bb0:	e1500003 	cmp	r0, r3
     bb4:	21a06007 	movcs	r6, r7
     bb8:	38bd81f0 	popcc	{r4, r5, r6, r7, r8, pc}
     bbc:	e1a05006 	mov	r5, r6
     bc0:	e5943018 	ldr	r3, [r4, #24]
     bc4:	e2855001 	add	r5, r5, #1
     bc8:	e1550003 	cmp	r5, r3
     bcc:	3a000004 	bcc	be4 <create_chain.isra.0+0x84>
     bd0:	e3560001 	cmp	r6, #1
     bd4:	8a000001 	bhi	be0 <create_chain.isra.0+0x80>
     bd8:	e3a00000 	mov	r0, #0
     bdc:	e8bd81f0 	pop	{r4, r5, r6, r7, r8, pc}
     be0:	e3a05002 	mov	r5, #2
     be4:	e1a01005 	mov	r1, r5
     be8:	e1a00004 	mov	r0, r4
     bec:	ebffff67 	bl	990 <get_fat.isra.0>
     bf0:	e3500000 	cmp	r0, #0
     bf4:	0a000005 	beq	c10 <create_chain.isra.0+0xb0>
     bf8:	e3700001 	cmn	r0, #1
     bfc:	13500001 	cmpne	r0, #1
     c00:	08bd81f0 	popeq	{r4, r5, r6, r7, r8, pc}
     c04:	e1560005 	cmp	r6, r5
     c08:	1affffec 	bne	bc0 <create_chain.isra.0+0x60>
     c0c:	eafffff1 	b	bd8 <create_chain.isra.0+0x78>
     c10:	e3e02000 	mvn	r2, #0
     c14:	e1a01005 	mov	r1, r5
     c18:	e1a00004 	mov	r0, r4
     c1c:	ebfffeff 	bl	820 <put_fat>
     c20:	e16f3f10 	clz	r3, r0
     c24:	e3570000 	cmp	r7, #0
     c28:	e1a032a3 	lsr	r3, r3, #5
     c2c:	03a03000 	moveq	r3, #0
     c30:	e3530000 	cmp	r3, #0
     c34:	0a000003 	beq	c48 <create_chain.isra.0+0xe8>
     c38:	e1a02005 	mov	r2, r5
     c3c:	e1a01007 	mov	r1, r7
     c40:	e1a00004 	mov	r0, r4
     c44:	ebfffef5 	bl	820 <put_fat>
     c48:	e3500000 	cmp	r0, #0
     c4c:	1a00000b 	bne	c80 <create_chain.isra.0+0x120>
     c50:	e5942018 	ldr	r2, [r4, #24]
     c54:	e1a00005 	mov	r0, r5
     c58:	e5943014 	ldr	r3, [r4, #20]
     c5c:	e5845010 	str	r5, [r4, #16]
     c60:	e2422002 	sub	r2, r2, #2
     c64:	e1530002 	cmp	r3, r2
     c68:	92433001 	subls	r3, r3, #1
     c6c:	95843014 	strls	r3, [r4, #20]
     c70:	e5d43004 	ldrb	r3, [r4, #4]
     c74:	e3833001 	orr	r3, r3, #1
     c78:	e5c43004 	strb	r3, [r4, #4]
     c7c:	e8bd81f0 	pop	{r4, r5, r6, r7, r8, pc}
     c80:	e3500001 	cmp	r0, #1
     c84:	1affffc4 	bne	b9c <create_chain.isra.0+0x3c>
     c88:	e3e00000 	mvn	r0, #0
     c8c:	e8bd81f0 	pop	{r4, r5, r6, r7, r8, pc}

00000c90 <dir_sdi>:
     c90:	e3510602 	cmp	r1, #2097152	; 0x200000
     c94:	2a00003a 	bcs	d84 <dir_sdi+0xf4>
     c98:	e311001f 	tst	r1, #31
     c9c:	e92d41f0 	push	{r4, r5, r6, r7, r8, lr}
     ca0:	e1a04001 	mov	r4, r1
     ca4:	0a000001 	beq	cb0 <dir_sdi+0x20>
     ca8:	e3a00002 	mov	r0, #2
     cac:	e8bd81f0 	pop	{r4, r5, r6, r7, r8, pc}
     cb0:	e5902008 	ldr	r2, [r0, #8]
     cb4:	e1a06000 	mov	r6, r0
     cb8:	e5905000 	ldr	r5, [r0]
     cbc:	e5801010 	str	r1, [r0, #16]
     cc0:	e3520000 	cmp	r2, #0
     cc4:	1a00000c 	bne	cfc <dir_sdi+0x6c>
     cc8:	e5d53000 	ldrb	r3, [r5]
     ccc:	e3530002 	cmp	r3, #2
     cd0:	9a000002 	bls	ce0 <dir_sdi+0x50>
     cd4:	e5953028 	ldr	r3, [r5, #40]	; 0x28
     cd8:	e3530000 	cmp	r3, #0
     cdc:	1a000005 	bne	cf8 <dir_sdi+0x68>
     ce0:	e1d530b8 	ldrh	r3, [r5, #8]
     ce4:	e15302a4 	cmp	r3, r4, lsr #5
     ce8:	85953028 	ldrhi	r3, [r5, #40]	; 0x28
     cec:	85863018 	strhi	r3, [r6, #24]
     cf0:	8a000015 	bhi	d4c <dir_sdi+0xbc>
     cf4:	eaffffeb 	b	ca8 <dir_sdi+0x18>
     cf8:	e1a02003 	mov	r2, r3
     cfc:	e1d570ba 	ldrh	r7, [r5, #10]
     d00:	e1a07487 	lsl	r7, r7, #9
     d04:	e1540007 	cmp	r4, r7
     d08:	e1a01002 	mov	r1, r2
     d0c:	3a00000b 	bcc	d40 <dir_sdi+0xb0>
     d10:	e5960000 	ldr	r0, [r6]
     d14:	ebffff1d 	bl	990 <get_fat.isra.0>
     d18:	e3700001 	cmn	r0, #1
     d1c:	e1a02000 	mov	r2, r0
     d20:	0a000015 	beq	d7c <dir_sdi+0xec>
     d24:	e3500001 	cmp	r0, #1
     d28:	9affffde 	bls	ca8 <dir_sdi+0x18>
     d2c:	e5953018 	ldr	r3, [r5, #24]
     d30:	e1530000 	cmp	r3, r0
     d34:	9affffdb 	bls	ca8 <dir_sdi+0x18>
     d38:	e0444007 	sub	r4, r4, r7
     d3c:	eafffff0 	b	d04 <dir_sdi+0x74>
     d40:	e1a00005 	mov	r0, r5
     d44:	ebfffcb7 	bl	28 <clust2sect>
     d48:	e5860018 	str	r0, [r6, #24]
     d4c:	e5963018 	ldr	r3, [r6, #24]
     d50:	e5862014 	str	r2, [r6, #20]
     d54:	e3530000 	cmp	r3, #0
     d58:	0affffd2 	beq	ca8 <dir_sdi+0x18>
     d5c:	e08334a4 	add	r3, r3, r4, lsr #9
     d60:	e2855034 	add	r5, r5, #52	; 0x34
     d64:	e7e84054 	ubfx	r4, r4, #0, #9
     d68:	e3a00000 	mov	r0, #0
     d6c:	e0854004 	add	r4, r5, r4
     d70:	e5863018 	str	r3, [r6, #24]
     d74:	e586401c 	str	r4, [r6, #28]
     d78:	e8bd81f0 	pop	{r4, r5, r6, r7, r8, pc}
     d7c:	e3a00001 	mov	r0, #1
     d80:	e8bd81f0 	pop	{r4, r5, r6, r7, r8, pc}
     d84:	e3a00002 	mov	r0, #2
     d88:	e12fff1e 	bx	lr

00000d8c <dir_next>:
     d8c:	e92d47f0 	push	{r4, r5, r6, r7, r8, r9, sl, lr}
     d90:	e5908010 	ldr	r8, [r0, #16]
     d94:	e5903018 	ldr	r3, [r0, #24]
     d98:	e2888020 	add	r8, r8, #32
     d9c:	e3530000 	cmp	r3, #0
     da0:	13580602 	cmpne	r8, #2097152	; 0x200000
     da4:	2a000054 	bcs	efc <dir_next+0x170>
     da8:	e7e89058 	ubfx	r9, r8, #0, #9
     dac:	e1a05000 	mov	r5, r0
     db0:	e5904000 	ldr	r4, [r0]
     db4:	e3590000 	cmp	r9, #0
     db8:	1a000049 	bne	ee4 <dir_next+0x158>
     dbc:	e1a0a001 	mov	sl, r1
     dc0:	e2833001 	add	r3, r3, #1
     dc4:	e5901014 	ldr	r1, [r0, #20]
     dc8:	e5803018 	str	r3, [r0, #24]
     dcc:	e3510000 	cmp	r1, #0
     dd0:	1a000005 	bne	dec <dir_next+0x60>
     dd4:	e1d430b8 	ldrh	r3, [r4, #8]
     dd8:	e15302a8 	cmp	r3, r8, lsr #5
     ddc:	8a000040 	bhi	ee4 <dir_next+0x158>
     de0:	e3a03000 	mov	r3, #0
     de4:	e5853018 	str	r3, [r5, #24]
     de8:	ea000043 	b	efc <dir_next+0x170>
     dec:	e1d470ba 	ldrh	r7, [r4, #10]
     df0:	e2477001 	sub	r7, r7, #1
     df4:	e01774a8 	ands	r7, r7, r8, lsr #9
     df8:	1a000039 	bne	ee4 <dir_next+0x158>
     dfc:	e1a00004 	mov	r0, r4
     e00:	ebfffee2 	bl	990 <get_fat.isra.0>
     e04:	e3500001 	cmp	r0, #1
     e08:	e1a06000 	mov	r6, r0
     e0c:	8a000001 	bhi	e18 <dir_next+0x8c>
     e10:	e3a00002 	mov	r0, #2
     e14:	e8bd87f0 	pop	{r4, r5, r6, r7, r8, r9, sl, pc}
     e18:	e3700001 	cmn	r0, #1
     e1c:	1a000001 	bne	e28 <dir_next+0x9c>
     e20:	e3a00001 	mov	r0, #1
     e24:	e8bd87f0 	pop	{r4, r5, r6, r7, r8, r9, sl, pc}
     e28:	e5943018 	ldr	r3, [r4, #24]
     e2c:	e1530000 	cmp	r3, r0
     e30:	8a000026 	bhi	ed0 <dir_next+0x144>
     e34:	e35a0000 	cmp	sl, #0
     e38:	0affffe8 	beq	de0 <dir_next+0x54>
     e3c:	e5951014 	ldr	r1, [r5, #20]
     e40:	e5950000 	ldr	r0, [r5]
     e44:	ebffff45 	bl	b60 <create_chain.isra.0>
     e48:	e2506000 	subs	r6, r0, #0
     e4c:	0a00002c 	beq	f04 <dir_next+0x178>
     e50:	e3560001 	cmp	r6, #1
     e54:	0affffed 	beq	e10 <dir_next+0x84>
     e58:	e3760001 	cmn	r6, #1
     e5c:	0affffef 	beq	e20 <dir_next+0x94>
     e60:	e1a00004 	mov	r0, r4
     e64:	ebfffd41 	bl	370 <sync_window>
     e68:	e2501000 	subs	r1, r0, #0
     e6c:	1affffeb 	bne	e20 <dir_next+0x94>
     e70:	e3a02c02 	mov	r2, #512	; 0x200
     e74:	e2840034 	add	r0, r4, #52	; 0x34
     e78:	e3a0a001 	mov	sl, #1
     e7c:	ebfffffe 	bl	0 <memset>
     e80:	e1a01006 	mov	r1, r6
     e84:	e1a00004 	mov	r0, r4
     e88:	ebfffc66 	bl	28 <clust2sect>
     e8c:	e5840030 	str	r0, [r4, #48]	; 0x30
     e90:	e1d430ba 	ldrh	r3, [r4, #10]
     e94:	e1570003 	cmp	r7, r3
     e98:	2a000009 	bcs	ec4 <dir_next+0x138>
     e9c:	e5c4a003 	strb	sl, [r4, #3]
     ea0:	e1a00004 	mov	r0, r4
     ea4:	ebfffd11 	bl	2f0 <sync_window.part.0>
     ea8:	e3500000 	cmp	r0, #0
     eac:	1affffdb 	bne	e20 <dir_next+0x94>
     eb0:	e5943030 	ldr	r3, [r4, #48]	; 0x30
     eb4:	e2877001 	add	r7, r7, #1
     eb8:	e2833001 	add	r3, r3, #1
     ebc:	e5843030 	str	r3, [r4, #48]	; 0x30
     ec0:	eafffff2 	b	e90 <dir_next+0x104>
     ec4:	e5943030 	ldr	r3, [r4, #48]	; 0x30
     ec8:	e0437007 	sub	r7, r3, r7
     ecc:	e5847030 	str	r7, [r4, #48]	; 0x30
     ed0:	e5856014 	str	r6, [r5, #20]
     ed4:	e1a01006 	mov	r1, r6
     ed8:	e1a00004 	mov	r0, r4
     edc:	ebfffc51 	bl	28 <clust2sect>
     ee0:	e5850018 	str	r0, [r5, #24]
     ee4:	e5858010 	str	r8, [r5, #16]
     ee8:	e2844034 	add	r4, r4, #52	; 0x34
     eec:	e0844009 	add	r4, r4, r9
     ef0:	e3a00000 	mov	r0, #0
     ef4:	e585401c 	str	r4, [r5, #28]
     ef8:	e8bd87f0 	pop	{r4, r5, r6, r7, r8, r9, sl, pc}
     efc:	e3a00004 	mov	r0, #4
     f00:	e8bd87f0 	pop	{r4, r5, r6, r7, r8, r9, sl, pc}
     f04:	e3a00007 	mov	r0, #7
     f08:	e8bd87f0 	pop	{r4, r5, r6, r7, r8, r9, sl, pc}

00000f0c <dir_remove>:
     f0c:	e590102c 	ldr	r1, [r0, #44]	; 0x2c
     f10:	e92d41f0 	push	{r4, r5, r6, r7, r8, lr}
     f14:	e3710001 	cmn	r1, #1
     f18:	e5905000 	ldr	r5, [r0]
     f1c:	e1a04000 	mov	r4, r0
     f20:	e5906010 	ldr	r6, [r0, #16]
     f24:	1a000002 	bne	f34 <dir_remove+0x28>
     f28:	e3e0801a 	mvn	r8, #26
     f2c:	e3a07001 	mov	r7, #1
     f30:	ea00000e 	b	f70 <dir_remove+0x64>
     f34:	ebffff55 	bl	c90 <dir_sdi>
     f38:	e3500000 	cmp	r0, #0
     f3c:	18bd81f0 	popne	{r4, r5, r6, r7, r8, pc}
     f40:	eafffff8 	b	f28 <dir_remove+0x1c>
     f44:	e594301c 	ldr	r3, [r4, #28]
     f48:	e5c38000 	strb	r8, [r3]
     f4c:	e5c57003 	strb	r7, [r5, #3]
     f50:	e5943010 	ldr	r3, [r4, #16]
     f54:	e1530006 	cmp	r3, r6
     f58:	28bd81f0 	popcs	{r4, r5, r6, r7, r8, pc}
     f5c:	e1a01000 	mov	r1, r0
     f60:	e1a00004 	mov	r0, r4
     f64:	ebffff88 	bl	d8c <dir_next>
     f68:	e3500000 	cmp	r0, #0
     f6c:	1a000004 	bne	f84 <dir_remove+0x78>
     f70:	e5941018 	ldr	r1, [r4, #24]
     f74:	e1a00005 	mov	r0, r5
     f78:	ebfffd02 	bl	388 <move_window>
     f7c:	e3500000 	cmp	r0, #0
     f80:	0affffef 	beq	f44 <dir_remove+0x38>
     f84:	e3500004 	cmp	r0, #4
     f88:	03a00002 	moveq	r0, #2
     f8c:	e8bd81f0 	pop	{r4, r5, r6, r7, r8, pc}

00000f90 <dir_find>:
     f90:	e92d4ff0 	push	{r4, r5, r6, r7, r8, r9, sl, fp, lr}
     f94:	e24dd014 	sub	sp, sp, #20
     f98:	e5903000 	ldr	r3, [r0]
     f9c:	e3a01000 	mov	r1, #0
     fa0:	e1a05000 	mov	r5, r0
     fa4:	e58d3008 	str	r3, [sp, #8]
     fa8:	ebffff38 	bl	c90 <dir_sdi>
     fac:	e2509000 	subs	r9, r0, #0
     fb0:	1a000081 	bne	11bc <dir_find+0x22c>
     fb4:	e3a080ff 	mov	r8, #255	; 0xff
     fb8:	e3e0b000 	mvn	fp, #0
     fbc:	e585b02c 	str	fp, [r5, #44]	; 0x2c
     fc0:	e1a06008 	mov	r6, r8
     fc4:	e5951018 	ldr	r1, [r5, #24]
     fc8:	e59d0008 	ldr	r0, [sp, #8]
     fcc:	ebfffced 	bl	388 <move_window>
     fd0:	e2509000 	subs	r9, r0, #0
     fd4:	1a000078 	bne	11bc <dir_find+0x22c>
     fd8:	e595701c 	ldr	r7, [r5, #28]
     fdc:	e5d7a000 	ldrb	sl, [r7]
     fe0:	e35a0000 	cmp	sl, #0
     fe4:	0a000073 	beq	11b8 <dir_find+0x228>
     fe8:	e5d7200b 	ldrb	r2, [r7, #11]
     fec:	e35a00e5 	cmp	sl, #229	; 0xe5
     ff0:	e202303f 	and	r3, r2, #63	; 0x3f
     ff4:	e5c53006 	strb	r3, [r5, #6]
     ff8:	0a000063 	beq	118c <dir_find+0x1fc>
     ffc:	e3120008 	tst	r2, #8
    1000:	0a000002 	beq	1010 <dir_find+0x80>
    1004:	e353000f 	cmp	r3, #15
    1008:	1a00005f 	bne	118c <dir_find+0x1fc>
    100c:	ea000001 	b	1018 <dir_find+0x88>
    1010:	e353000f 	cmp	r3, #15
    1014:	1a000047 	bne	1138 <dir_find+0x1a8>
    1018:	e5d5302b 	ldrb	r3, [r5, #43]	; 0x2b
    101c:	e3130040 	tst	r3, #64	; 0x40
    1020:	1a00005e 	bne	11a0 <dir_find+0x210>
    1024:	e31a0040 	tst	sl, #64	; 0x40
    1028:	0a000004 	beq	1040 <dir_find+0xb0>
    102c:	e5953010 	ldr	r3, [r5, #16]
    1030:	e20aa0bf 	and	sl, sl, #191	; 0xbf
    1034:	e5d7800d 	ldrb	r8, [r7, #13]
    1038:	e585302c 	str	r3, [r5, #44]	; 0x2c
    103c:	ea000001 	b	1048 <dir_find+0xb8>
    1040:	e156000a 	cmp	r6, sl
    1044:	1a000054 	bne	119c <dir_find+0x20c>
    1048:	e5d7300d 	ldrb	r3, [r7, #13]
    104c:	e1530008 	cmp	r3, r8
    1050:	1a000051 	bne	119c <dir_find+0x20c>
    1054:	e1d731ba 	ldrh	r3, [r7, #26]
    1058:	e3530000 	cmp	r3, #0
    105c:	1a00004e 	bne	119c <dir_find+0x20c>
    1060:	e5d74000 	ldrb	r4, [r7]
    1064:	e3a02001 	mov	r2, #1
    1068:	e59d3008 	ldr	r3, [sp, #8]
    106c:	e59f6154 	ldr	r6, [pc, #340]	; 11c8 <dir_find+0x238>
    1070:	e204403f 	and	r4, r4, #63	; 0x3f
    1074:	e593900c 	ldr	r9, [r3, #12]
    1078:	e2444001 	sub	r4, r4, #1
    107c:	e58da00c 	str	sl, [sp, #12]
    1080:	e3a0300d 	mov	r3, #13
    1084:	e58d8000 	str	r8, [sp]
    1088:	e1a0a007 	mov	sl, r7
    108c:	e0040493 	mul	r4, r3, r4
    1090:	e58d5004 	str	r5, [sp, #4]
    1094:	e1a07006 	mov	r7, r6
    1098:	e4d70001 	ldrb	r0, [r7], #1
    109c:	e3520000 	cmp	r2, #0
    10a0:	e19a50b0 	ldrh	r5, [sl, r0]
    10a4:	0a00000d 	beq	10e0 <dir_find+0x150>
    10a8:	e354003f 	cmp	r4, #63	; 0x3f
    10ac:	8a000038 	bhi	1194 <dir_find+0x204>
    10b0:	e1a00005 	mov	r0, r5
    10b4:	e2848001 	add	r8, r4, #1
    10b8:	e1a04084 	lsl	r4, r4, #1
    10bc:	ebfffffe 	bl	0 <ff_wtoupper>
    10c0:	e1a06000 	mov	r6, r0
    10c4:	e19900b4 	ldrh	r0, [r9, r4]
    10c8:	ebfffffe 	bl	0 <ff_wtoupper>
    10cc:	e1560000 	cmp	r6, r0
    10d0:	1a00002f 	bne	1194 <dir_find+0x204>
    10d4:	e1a02005 	mov	r2, r5
    10d8:	e1a04008 	mov	r4, r8
    10dc:	ea000002 	b	10ec <dir_find+0x15c>
    10e0:	e30f3fff 	movw	r3, #65535	; 0xffff
    10e4:	e1550003 	cmp	r5, r3
    10e8:	1a000029 	bne	1194 <dir_find+0x204>
    10ec:	e59f30d8 	ldr	r3, [pc, #216]	; 11cc <dir_find+0x23c>
    10f0:	e1570003 	cmp	r7, r3
    10f4:	1affffe7 	bne	1098 <dir_find+0x108>
    10f8:	e2522000 	subs	r2, r2, #0
    10fc:	e1a0700a 	mov	r7, sl
    1100:	e59d8000 	ldr	r8, [sp]
    1104:	13a02001 	movne	r2, #1
    1108:	e5d73000 	ldrb	r3, [r7]
    110c:	e59da00c 	ldr	sl, [sp, #12]
    1110:	e0123323 	ands	r3, r2, r3, lsr #6
    1114:	e59d5004 	ldr	r5, [sp, #4]
    1118:	0a000003 	beq	112c <dir_find+0x19c>
    111c:	e1a04084 	lsl	r4, r4, #1
    1120:	e19930b4 	ldrh	r3, [r9, r4]
    1124:	e3530000 	cmp	r3, #0
    1128:	1a00001b 	bne	119c <dir_find+0x20c>
    112c:	e24a6001 	sub	r6, sl, #1
    1130:	e6ef6076 	uxtb	r6, r6
    1134:	ea000019 	b	11a0 <dir_find+0x210>
    1138:	e3560000 	cmp	r6, #0
    113c:	1a000003 	bne	1150 <dir_find+0x1c0>
    1140:	e1a00007 	mov	r0, r7
    1144:	ebfffbca 	bl	74 <sum_sfn>
    1148:	e1500008 	cmp	r0, r8
    114c:	0a00001a 	beq	11bc <dir_find+0x22c>
    1150:	e5d5902b 	ldrb	r9, [r5, #43]	; 0x2b
    1154:	e2199001 	ands	r9, r9, #1
    1158:	1a00000b 	bne	118c <dir_find+0x1fc>
    115c:	e2852020 	add	r2, r5, #32
    1160:	e287100b 	add	r1, r7, #11
    1164:	e4d73001 	ldrb	r3, [r7], #1
    1168:	e4d20001 	ldrb	r0, [r2], #1
    116c:	e1570001 	cmp	r7, r1
    1170:	e0433000 	sub	r3, r3, r0
    1174:	0a000002 	beq	1184 <dir_find+0x1f4>
    1178:	e3530000 	cmp	r3, #0
    117c:	0afffff8 	beq	1164 <dir_find+0x1d4>
    1180:	ea000001 	b	118c <dir_find+0x1fc>
    1184:	e3530000 	cmp	r3, #0
    1188:	0a00000b 	beq	11bc <dir_find+0x22c>
    118c:	e585b02c 	str	fp, [r5, #44]	; 0x2c
    1190:	ea000001 	b	119c <dir_find+0x20c>
    1194:	e59d8000 	ldr	r8, [sp]
    1198:	e59d5004 	ldr	r5, [sp, #4]
    119c:	e3a060ff 	mov	r6, #255	; 0xff
    11a0:	e3a01000 	mov	r1, #0
    11a4:	e1a00005 	mov	r0, r5
    11a8:	ebfffef7 	bl	d8c <dir_next>
    11ac:	e2509000 	subs	r9, r0, #0
    11b0:	0affff83 	beq	fc4 <dir_find+0x34>
    11b4:	ea000000 	b	11bc <dir_find+0x22c>
    11b8:	e3a09004 	mov	r9, #4
    11bc:	e1a00009 	mov	r0, r9
    11c0:	e28dd014 	add	sp, sp, #20
    11c4:	e8bd8ff0 	pop	{r4, r5, r6, r7, r8, r9, sl, fp, pc}
    11c8:	00000000 	andeq	r0, r0, r0
    11cc:	0000000d 	andeq	r0, r0, sp

000011d0 <dir_read.constprop.0>:
    11d0:	e92d47f0 	push	{r4, r5, r6, r7, r8, r9, sl, lr}
    11d4:	e3a050ff 	mov	r5, #255	; 0xff
    11d8:	e5906000 	ldr	r6, [r0]
    11dc:	e1a08000 	mov	r8, r0
    11e0:	e1a04005 	mov	r4, r5
    11e4:	e3a09004 	mov	r9, #4
    11e8:	e30f7fff 	movw	r7, #65535	; 0xffff
    11ec:	e5981018 	ldr	r1, [r8, #24]
    11f0:	e3510000 	cmp	r1, #0
    11f4:	0a000055 	beq	1350 <dir_read.constprop.0+0x180>
    11f8:	e1a00006 	mov	r0, r6
    11fc:	ebfffc61 	bl	388 <move_window>
    1200:	e2509000 	subs	r9, r0, #0
    1204:	1a000055 	bne	1360 <dir_read.constprop.0+0x190>
    1208:	e598001c 	ldr	r0, [r8, #28]
    120c:	e5d03000 	ldrb	r3, [r0]
    1210:	e3530000 	cmp	r3, #0
    1214:	0a000050 	beq	135c <dir_read.constprop.0+0x18c>
    1218:	e5d0200b 	ldrb	r2, [r0, #11]
    121c:	e353002e 	cmp	r3, #46	; 0x2e
    1220:	135300e5 	cmpne	r3, #229	; 0xe5
    1224:	e202203f 	and	r2, r2, #63	; 0x3f
    1228:	e5c82006 	strb	r2, [r8, #6]
    122c:	0a000040 	beq	1334 <dir_read.constprop.0+0x164>
    1230:	e3c21020 	bic	r1, r2, #32
    1234:	e3510008 	cmp	r1, #8
    1238:	0a00003d 	beq	1334 <dir_read.constprop.0+0x164>
    123c:	e352000f 	cmp	r2, #15
    1240:	1a000031 	bne	130c <dir_read.constprop.0+0x13c>
    1244:	e3130040 	tst	r3, #64	; 0x40
    1248:	0a000004 	beq	1260 <dir_read.constprop.0+0x90>
    124c:	e5d0500d 	ldrb	r5, [r0, #13]
    1250:	e20340bf 	and	r4, r3, #191	; 0xbf
    1254:	e5983010 	ldr	r3, [r8, #16]
    1258:	e588302c 	str	r3, [r8, #44]	; 0x2c
    125c:	ea000001 	b	1268 <dir_read.constprop.0+0x98>
    1260:	e1530004 	cmp	r3, r4
    1264:	1a000032 	bne	1334 <dir_read.constprop.0+0x164>
    1268:	e5d0300d 	ldrb	r3, [r0, #13]
    126c:	e1530005 	cmp	r3, r5
    1270:	1a00002f 	bne	1334 <dir_read.constprop.0+0x164>
    1274:	e1d021ba 	ldrh	r2, [r0, #26]
    1278:	e3520000 	cmp	r2, #0
    127c:	1a00002c 	bne	1334 <dir_read.constprop.0+0x164>
    1280:	e5d03000 	ldrb	r3, [r0]
    1284:	e3a0c00d 	mov	ip, #13
    1288:	e596100c 	ldr	r1, [r6, #12]
    128c:	e3a0e001 	mov	lr, #1
    1290:	e3c33040 	bic	r3, r3, #64	; 0x40
    1294:	e59f90d4 	ldr	r9, [pc, #212]	; 1370 <dir_read.constprop.0+0x1a0>
    1298:	e2433001 	sub	r3, r3, #1
    129c:	e003039c 	mul	r3, ip, r3
    12a0:	e4d9c001 	ldrb	ip, [r9], #1
    12a4:	e35e0000 	cmp	lr, #0
    12a8:	e190c0bc 	ldrh	ip, [r0, ip]
    12ac:	0a000006 	beq	12cc <dir_read.constprop.0+0xfc>
    12b0:	e353003f 	cmp	r3, #63	; 0x3f
    12b4:	8a00001e 	bhi	1334 <dir_read.constprop.0+0x164>
    12b8:	e1a0e083 	lsl	lr, r3, #1
    12bc:	e2833001 	add	r3, r3, #1
    12c0:	e181c0be 	strh	ip, [r1, lr]
    12c4:	e1a0e00c 	mov	lr, ip
    12c8:	ea000001 	b	12d4 <dir_read.constprop.0+0x104>
    12cc:	e15c0007 	cmp	ip, r7
    12d0:	1a000017 	bne	1334 <dir_read.constprop.0+0x164>
    12d4:	e2822001 	add	r2, r2, #1
    12d8:	e352000d 	cmp	r2, #13
    12dc:	1affffef 	bne	12a0 <dir_read.constprop.0+0xd0>
    12e0:	e5d02000 	ldrb	r2, [r0]
    12e4:	e3120040 	tst	r2, #64	; 0x40
    12e8:	0a000004 	beq	1300 <dir_read.constprop.0+0x130>
    12ec:	e353003f 	cmp	r3, #63	; 0x3f
    12f0:	8a00000f 	bhi	1334 <dir_read.constprop.0+0x164>
    12f4:	e1a03083 	lsl	r3, r3, #1
    12f8:	e3a02000 	mov	r2, #0
    12fc:	e18120b3 	strh	r2, [r1, r3]
    1300:	e2444001 	sub	r4, r4, #1
    1304:	e6ef4074 	uxtb	r4, r4
    1308:	ea00000a 	b	1338 <dir_read.constprop.0+0x168>
    130c:	e3540000 	cmp	r4, #0
    1310:	1a000004 	bne	1328 <dir_read.constprop.0+0x158>
    1314:	ebfffb56 	bl	74 <sum_sfn>
    1318:	e1500005 	cmp	r0, r5
    131c:	1a000001 	bne	1328 <dir_read.constprop.0+0x158>
    1320:	e3a09000 	mov	r9, #0
    1324:	ea00000f 	b	1368 <dir_read.constprop.0+0x198>
    1328:	e3e03000 	mvn	r3, #0
    132c:	e588302c 	str	r3, [r8, #44]	; 0x2c
    1330:	ea00000c 	b	1368 <dir_read.constprop.0+0x198>
    1334:	e3a040ff 	mov	r4, #255	; 0xff
    1338:	e3a01000 	mov	r1, #0
    133c:	e1a00008 	mov	r0, r8
    1340:	ebfffe91 	bl	d8c <dir_next>
    1344:	e2509000 	subs	r9, r0, #0
    1348:	0affffa7 	beq	11ec <dir_read.constprop.0+0x1c>
    134c:	ea000003 	b	1360 <dir_read.constprop.0+0x190>
    1350:	e3590000 	cmp	r9, #0
    1354:	0afffff1 	beq	1320 <dir_read.constprop.0+0x150>
    1358:	ea000000 	b	1360 <dir_read.constprop.0+0x190>
    135c:	e3a09004 	mov	r9, #4
    1360:	e3a03000 	mov	r3, #0
    1364:	e5883018 	str	r3, [r8, #24]
    1368:	e1a00009 	mov	r0, r9
    136c:	e8bd87f0 	pop	{r4, r5, r6, r7, r8, r9, sl, pc}
    1370:	00000000 	andeq	r0, r0, r0

00001374 <sync_fs>:
    1374:	e92d41f0 	push	{r4, r5, r6, r7, r8, lr}
    1378:	e1a04000 	mov	r4, r0
    137c:	ebfffbfb 	bl	370 <sync_window>
    1380:	e3500000 	cmp	r0, #0
    1384:	18bd81f0 	popne	{r4, r5, r6, r7, r8, pc}
    1388:	e5d43000 	ldrb	r3, [r4]
    138c:	e3530003 	cmp	r3, #3
    1390:	1a000026 	bne	1430 <sync_fs+0xbc>
    1394:	e5d47004 	ldrb	r7, [r4, #4]
    1398:	e3570001 	cmp	r7, #1
    139c:	1a000023 	bne	1430 <sync_fs+0xbc>
    13a0:	e2846034 	add	r6, r4, #52	; 0x34
    13a4:	e1a01000 	mov	r1, r0
    13a8:	e1a05000 	mov	r5, r0
    13ac:	e3a02c02 	mov	r2, #512	; 0x200
    13b0:	e1a00006 	mov	r0, r6
    13b4:	ebfffffe 	bl	0 <memset>
    13b8:	e3a03055 	mov	r3, #85	; 0x55
    13bc:	e3a02041 	mov	r2, #65	; 0x41
    13c0:	e5c43232 	strb	r3, [r4, #562]	; 0x232
    13c4:	e3e03055 	mvn	r3, #85	; 0x55
    13c8:	e5c43233 	strb	r3, [r4, #563]	; 0x233
    13cc:	e3a03052 	mov	r3, #82	; 0x52
    13d0:	e5c43034 	strb	r3, [r4, #52]	; 0x34
    13d4:	e3a01072 	mov	r1, #114	; 0x72
    13d8:	e5c43035 	strb	r3, [r4, #53]	; 0x35
    13dc:	e3a03061 	mov	r3, #97	; 0x61
    13e0:	e5c43036 	strb	r3, [r4, #54]	; 0x36
    13e4:	e2840f87 	add	r0, r4, #540	; 0x21c
    13e8:	e5c4321b 	strb	r3, [r4, #539]	; 0x21b
    13ec:	e5c42037 	strb	r2, [r4, #55]	; 0x37
    13f0:	e5c41218 	strb	r1, [r4, #536]	; 0x218
    13f4:	e5c41219 	strb	r1, [r4, #537]	; 0x219
    13f8:	e5c4221a 	strb	r2, [r4, #538]	; 0x21a
    13fc:	e5941014 	ldr	r1, [r4, #20]
    1400:	ebfffb00 	bl	8 <st_dword>
    1404:	e5941010 	ldr	r1, [r4, #16]
    1408:	e2840e22 	add	r0, r4, #544	; 0x220
    140c:	ebfffafd 	bl	8 <st_dword>
    1410:	e5942020 	ldr	r2, [r4, #32]
    1414:	e1a03007 	mov	r3, r7
    1418:	e5d40001 	ldrb	r0, [r4, #1]
    141c:	e1a01006 	mov	r1, r6
    1420:	e2822001 	add	r2, r2, #1
    1424:	e5842030 	str	r2, [r4, #48]	; 0x30
    1428:	ebfffffe 	bl	0 <disk_write>
    142c:	e5c45004 	strb	r5, [r4, #4]
    1430:	e5d40001 	ldrb	r0, [r4, #1]
    1434:	e3a02000 	mov	r2, #0
    1438:	e1a01002 	mov	r1, r2
    143c:	ebfffffe 	bl	0 <disk_ioctl>
    1440:	e2500000 	subs	r0, r0, #0
    1444:	13a00001 	movne	r0, #1
    1448:	e8bd81f0 	pop	{r4, r5, r6, r7, r8, pc}

0000144c <dir_register>:
    144c:	e92d4ff0 	push	{r4, r5, r6, r7, r8, r9, sl, fp, lr}
    1450:	e24dd024 	sub	sp, sp, #36	; 0x24
    1454:	e5d0502b 	ldrb	r5, [r0, #43]	; 0x2b
    1458:	e21550a0 	ands	r5, r5, #160	; 0xa0
    145c:	13a09006 	movne	r9, #6
    1460:	1a0000d6 	bne	17c0 <dir_register+0x374>
    1464:	e5906000 	ldr	r6, [r0]
    1468:	e1a04000 	mov	r4, r0
    146c:	e596300c 	ldr	r3, [r6, #12]
    1470:	e2433002 	sub	r3, r3, #2
    1474:	e1f320b2 	ldrh	r2, [r3, #2]!
    1478:	e3520000 	cmp	r2, #0
    147c:	12855001 	addne	r5, r5, #1
    1480:	1afffffb 	bne	1474 <dir_register+0x28>
    1484:	e2847020 	add	r7, r4, #32
    1488:	e3a0200c 	mov	r2, #12
    148c:	e1a01007 	mov	r1, r7
    1490:	e28d0014 	add	r0, sp, #20
    1494:	ebfffb8e 	bl	2d4 <mem_cpy.part.0>
    1498:	e5dd301f 	ldrb	r3, [sp, #31]
    149c:	e3130001 	tst	r3, #1
    14a0:	0a00004a 	beq	15d0 <dir_register+0x184>
    14a4:	e59f8320 	ldr	r8, [pc, #800]	; 17cc <dir_register+0x380>
    14a8:	e3a0a001 	mov	sl, #1
    14ac:	e3a03040 	mov	r3, #64	; 0x40
    14b0:	e5c4302b 	strb	r3, [r4, #43]	; 0x2b
    14b4:	e596900c 	ldr	r9, [r6, #12]
    14b8:	e3a0200b 	mov	r2, #11
    14bc:	e28d1014 	add	r1, sp, #20
    14c0:	e1a00007 	mov	r0, r7
    14c4:	ebfffb82 	bl	2d4 <mem_cpy.part.0>
    14c8:	e35a0005 	cmp	sl, #5
    14cc:	82492002 	subhi	r2, r9, #2
    14d0:	81a0300a 	movhi	r3, sl
    14d4:	9a00000b 	bls	1508 <dir_register+0xbc>
    14d8:	e1f210b2 	ldrh	r1, [r2, #2]!
    14dc:	e3510000 	cmp	r1, #0
    14e0:	0a000009 	beq	150c <dir_register+0xc0>
    14e4:	e3a00010 	mov	r0, #16
    14e8:	e201c001 	and	ip, r1, #1
    14ec:	e08c3083 	add	r3, ip, r3, lsl #1
    14f0:	e1a010a1 	lsr	r1, r1, #1
    14f4:	e3130801 	tst	r3, #65536	; 0x10000
    14f8:	10233008 	eorne	r3, r3, r8
    14fc:	e2500001 	subs	r0, r0, #1
    1500:	1afffff8 	bne	14e8 <dir_register+0x9c>
    1504:	eafffff3 	b	14d8 <dir_register+0x8c>
    1508:	e1a0300a 	mov	r3, sl
    150c:	e28d0013 	add	r0, sp, #19
    1510:	e3a02007 	mov	r2, #7
    1514:	e203c00f 	and	ip, r3, #15
    1518:	e2422001 	sub	r2, r2, #1
    151c:	e28c1030 	add	r1, ip, #48	; 0x30
    1520:	e3510039 	cmp	r1, #57	; 0x39
    1524:	828c1037 	addhi	r1, ip, #55	; 0x37
    1528:	e353000f 	cmp	r3, #15
    152c:	e4401001 	strb	r1, [r0], #-1
    1530:	e1a01223 	lsr	r1, r3, #4
    1534:	81a03001 	movhi	r3, r1
    1538:	8afffff5 	bhi	1514 <dir_register+0xc8>
    153c:	e28d3020 	add	r3, sp, #32
    1540:	e3a0107e 	mov	r1, #126	; 0x7e
    1544:	e0833002 	add	r3, r3, r2
    1548:	e5431014 	strb	r1, [r3, #-20]	; 0xffffffec
    154c:	e1a01007 	mov	r1, r7
    1550:	e3a03000 	mov	r3, #0
    1554:	e1520003 	cmp	r2, r3
    1558:	0a000004 	beq	1570 <dir_register+0x124>
    155c:	e4d10001 	ldrb	r0, [r1], #1
    1560:	e283c001 	add	ip, r3, #1
    1564:	e3500020 	cmp	r0, #32
    1568:	11a0300c 	movne	r3, ip
    156c:	1afffff8 	bne	1554 <dir_register+0x108>
    1570:	e284001f 	add	r0, r4, #31
    1574:	e3520007 	cmp	r2, #7
    1578:	e2833001 	add	r3, r3, #1
    157c:	928d1020 	addls	r1, sp, #32
    1580:	83a01020 	movhi	r1, #32
    1584:	90811002 	addls	r1, r1, r2
    1588:	92822001 	addls	r2, r2, #1
    158c:	95511014 	ldrbls	r1, [r1, #-20]	; 0xffffffec
    1590:	e3530007 	cmp	r3, #7
    1594:	e7c01003 	strb	r1, [r0, r3]
    1598:	9afffff5 	bls	1574 <dir_register+0x128>
    159c:	e1a00004 	mov	r0, r4
    15a0:	ebfffe7a 	bl	f90 <dir_find>
    15a4:	e2509000 	subs	r9, r0, #0
    15a8:	1a000004 	bne	15c0 <dir_register+0x174>
    15ac:	e28aa001 	add	sl, sl, #1
    15b0:	e35a0064 	cmp	sl, #100	; 0x64
    15b4:	1affffbe 	bne	14b4 <dir_register+0x68>
    15b8:	e3a09007 	mov	r9, #7
    15bc:	ea00007f 	b	17c0 <dir_register+0x374>
    15c0:	e3500004 	cmp	r0, #4
    15c4:	1a00007d 	bne	17c0 <dir_register+0x374>
    15c8:	e5dd301f 	ldrb	r3, [sp, #31]
    15cc:	e5c4302b 	strb	r3, [r4, #43]	; 0x2b
    15d0:	e5dd301f 	ldrb	r3, [sp, #31]
    15d4:	e3a01000 	mov	r1, #0
    15d8:	e5948000 	ldr	r8, [r4]
    15dc:	e1a00004 	mov	r0, r4
    15e0:	e3130002 	tst	r3, #2
    15e4:	1285500c 	addne	r5, r5, #12
    15e8:	03a05001 	moveq	r5, #1
    15ec:	159f31dc 	ldrne	r3, [pc, #476]	; 17d0 <dir_register+0x384>
    15f0:	10853395 	umullne	r3, r5, r5, r3
    15f4:	11a05125 	lsrne	r5, r5, #2
    15f8:	12855001 	addne	r5, r5, #1
    15fc:	ebfffda3 	bl	c90 <dir_sdi>
    1600:	e2509000 	subs	r9, r0, #0
    1604:	1a00006b 	bne	17b8 <dir_register+0x36c>
    1608:	e1a0a009 	mov	sl, r9
    160c:	e5941018 	ldr	r1, [r4, #24]
    1610:	e1a00008 	mov	r0, r8
    1614:	ebfffb5b 	bl	388 <move_window>
    1618:	e2509000 	subs	r9, r0, #0
    161c:	1a000065 	bne	17b8 <dir_register+0x36c>
    1620:	e594301c 	ldr	r3, [r4, #28]
    1624:	e5d33000 	ldrb	r3, [r3]
    1628:	e3530000 	cmp	r3, #0
    162c:	135300e5 	cmpne	r3, #229	; 0xe5
    1630:	03a03001 	moveq	r3, #1
    1634:	13a03000 	movne	r3, #0
    1638:	1a000005 	bne	1654 <dir_register+0x208>
    163c:	e28aa001 	add	sl, sl, #1
    1640:	e155000a 	cmp	r5, sl
    1644:	1a000003 	bne	1658 <dir_register+0x20c>
    1648:	e2555001 	subs	r5, r5, #1
    164c:	0a000043 	beq	1760 <dir_register+0x314>
    1650:	ea000006 	b	1670 <dir_register+0x224>
    1654:	e1a0a003 	mov	sl, r3
    1658:	e3a01001 	mov	r1, #1
    165c:	e1a00004 	mov	r0, r4
    1660:	ebfffdc9 	bl	d8c <dir_next>
    1664:	e2509000 	subs	r9, r0, #0
    1668:	0affffe7 	beq	160c <dir_register+0x1c0>
    166c:	ea000051 	b	17b8 <dir_register+0x36c>
    1670:	e5941010 	ldr	r1, [r4, #16]
    1674:	e1a00004 	mov	r0, r4
    1678:	e0411285 	sub	r1, r1, r5, lsl #5
    167c:	ebfffd83 	bl	c90 <dir_sdi>
    1680:	e2509000 	subs	r9, r0, #0
    1684:	1a00004d 	bne	17c0 <dir_register+0x374>
    1688:	e1a00007 	mov	r0, r7
    168c:	e30f8fff 	movw	r8, #65535	; 0xffff
    1690:	ebfffa77 	bl	74 <sum_sfn>
    1694:	e58d0004 	str	r0, [sp, #4]
    1698:	e5941018 	ldr	r1, [r4, #24]
    169c:	e1a00006 	mov	r0, r6
    16a0:	ebfffb38 	bl	388 <move_window>
    16a4:	e2509000 	subs	r9, r0, #0
    16a8:	1a000044 	bne	17c0 <dir_register+0x374>
    16ac:	e594301c 	ldr	r3, [r4, #28]
    16b0:	e6ef1075 	uxtb	r1, r5
    16b4:	e59d2004 	ldr	r2, [sp, #4]
    16b8:	e3a0c00d 	mov	ip, #13
    16bc:	e596e00c 	ldr	lr, [r6, #12]
    16c0:	e5c3200d 	strb	r2, [r3, #13]
    16c4:	e3a0200f 	mov	r2, #15
    16c8:	e5c3200b 	strb	r2, [r3, #11]
    16cc:	e2412001 	sub	r2, r1, #1
    16d0:	e002029c 	mul	r2, ip, r2
    16d4:	e59fa0f8 	ldr	sl, [pc, #248]	; 17d4 <dir_register+0x388>
    16d8:	e1a0c000 	mov	ip, r0
    16dc:	e5c3000c 	strb	r0, [r3, #12]
    16e0:	e5c3001a 	strb	r0, [r3, #26]
    16e4:	e5c3001b 	strb	r0, [r3, #27]
    16e8:	e1500008 	cmp	r0, r8
    16ec:	e28cc001 	add	ip, ip, #1
    16f0:	11a00082 	lslne	r0, r2, #1
    16f4:	12822001 	addne	r2, r2, #1
    16f8:	e4da9001 	ldrb	r9, [sl], #1
    16fc:	119e00b0 	ldrhne	r0, [lr, r0]
    1700:	e083b009 	add	fp, r3, r9
    1704:	e7c30009 	strb	r0, [r3, r9]
    1708:	e3500000 	cmp	r0, #0
    170c:	e1a09420 	lsr	r9, r0, #8
    1710:	01a00008 	moveq	r0, r8
    1714:	e5cb9001 	strb	r9, [fp, #1]
    1718:	e35c000d 	cmp	ip, #13
    171c:	1afffff1 	bne	16e8 <dir_register+0x29c>
    1720:	e1500008 	cmp	r0, r8
    1724:	0a000021 	beq	17b0 <dir_register+0x364>
    1728:	e1a02082 	lsl	r2, r2, #1
    172c:	e19e20b2 	ldrh	r2, [lr, r2]
    1730:	e3520000 	cmp	r2, #0
    1734:	0a00001d 	beq	17b0 <dir_register+0x364>
    1738:	e5c31000 	strb	r1, [r3]
    173c:	e3a03001 	mov	r3, #1
    1740:	e5c63003 	strb	r3, [r6, #3]
    1744:	e3a01000 	mov	r1, #0
    1748:	e1a00004 	mov	r0, r4
    174c:	ebfffd8e 	bl	d8c <dir_next>
    1750:	e2509000 	subs	r9, r0, #0
    1754:	1a000019 	bne	17c0 <dir_register+0x374>
    1758:	e2555001 	subs	r5, r5, #1
    175c:	1affffcd 	bne	1698 <dir_register+0x24c>
    1760:	e5941018 	ldr	r1, [r4, #24]
    1764:	e1a00006 	mov	r0, r6
    1768:	ebfffb06 	bl	388 <move_window>
    176c:	e2509000 	subs	r9, r0, #0
    1770:	1a000012 	bne	17c0 <dir_register+0x374>
    1774:	f2c00050 	vmov.i32	q8, #0	; 0x00000000
    1778:	e594301c 	ldr	r3, [r4, #28]
    177c:	e3a0200b 	mov	r2, #11
    1780:	e1a01007 	mov	r1, r7
    1784:	f4430a0d 	vst1.8	{d16-d17}, [r3]!
    1788:	f4430a0f 	vst1.8	{d16-d17}, [r3]
    178c:	e594001c 	ldr	r0, [r4, #28]
    1790:	ebfffacf 	bl	2d4 <mem_cpy.part.0>
    1794:	e5d4302b 	ldrb	r3, [r4, #43]	; 0x2b
    1798:	e594201c 	ldr	r2, [r4, #28]
    179c:	e2033018 	and	r3, r3, #24
    17a0:	e5c2300c 	strb	r3, [r2, #12]
    17a4:	e3a03001 	mov	r3, #1
    17a8:	e5c63003 	strb	r3, [r6, #3]
    17ac:	ea000003 	b	17c0 <dir_register+0x374>
    17b0:	e3811040 	orr	r1, r1, #64	; 0x40
    17b4:	eaffffdf 	b	1738 <dir_register+0x2ec>
    17b8:	e3590004 	cmp	r9, #4
    17bc:	0affff7d 	beq	15b8 <dir_register+0x16c>
    17c0:	e1a00009 	mov	r0, r9
    17c4:	e28dd024 	add	sp, sp, #36	; 0x24
    17c8:	e8bd8ff0 	pop	{r4, r5, r6, r7, r8, r9, sl, fp, pc}
    17cc:	00011021 	andeq	r1, r1, r1, lsr #32
    17d0:	4ec4ec4f 	cdpmi	12, 12, cr14, cr4, cr15, {2}
    17d4:	00000000 	andeq	r0, r0, r0

000017d8 <follow_path>:
    17d8:	e92d4ff7 	push	{r0, r1, r2, r4, r5, r6, r7, r8, r9, sl, fp, lr}
    17dc:	e1a05000 	mov	r5, r0
    17e0:	e5903000 	ldr	r3, [r0]
    17e4:	e1a02001 	mov	r2, r1
    17e8:	e58d3000 	str	r3, [sp]
    17ec:	e1a0a002 	mov	sl, r2
    17f0:	e4d21001 	ldrb	r1, [r2], #1
    17f4:	e351005c 	cmp	r1, #92	; 0x5c
    17f8:	1351002f 	cmpne	r1, #47	; 0x2f
    17fc:	03a01001 	moveq	r1, #1
    1800:	13a01000 	movne	r1, #0
    1804:	0afffff8 	beq	17ec <follow_path+0x14>
    1808:	e5851008 	str	r1, [r5, #8]
    180c:	e5da3000 	ldrb	r3, [sl]
    1810:	e353001f 	cmp	r3, #31
    1814:	8a00007e 	bhi	1a14 <follow_path+0x23c>
    1818:	e3e0307f 	mvn	r3, #127	; 0x7f
    181c:	e1a00005 	mov	r0, r5
    1820:	e5c5302b 	strb	r3, [r5, #43]	; 0x2b
    1824:	e28dd00c 	add	sp, sp, #12
    1828:	e8bd4ff0 	pop	{r4, r5, r6, r7, r8, r9, sl, fp, lr}
    182c:	eafffd17 	b	c90 <dir_sdi>
    1830:	e3540041 	cmp	r4, #65	; 0x41
    1834:	0a0000cb 	beq	1b68 <follow_path+0x390>
    1838:	e3a01001 	mov	r1, #1
    183c:	ebfffffe 	bl	0 <ff_convert>
    1840:	e3500000 	cmp	r0, #0
    1844:	0a0000c7 	beq	1b68 <follow_path+0x390>
    1848:	e350007f 	cmp	r0, #127	; 0x7f
    184c:	8a000003 	bhi	1860 <follow_path+0x88>
    1850:	e59f3324 	ldr	r3, [pc, #804]	; 1b7c <follow_path+0x3a4>
    1854:	e4d32001 	ldrb	r2, [r3], #1
    1858:	e3520000 	cmp	r2, #0
    185c:	1a00007e 	bne	1a5c <follow_path+0x284>
    1860:	e1e800b2 	strh	r0, [r8, #2]!
    1864:	e1a07004 	mov	r7, r4
    1868:	e5f90001 	ldrb	r0, [r9, #1]!
    186c:	e2874001 	add	r4, r7, #1
    1870:	e350001f 	cmp	r0, #31
    1874:	8a00006e 	bhi	1a34 <follow_path+0x25c>
    1878:	e1a0200b 	mov	r2, fp
    187c:	e08aa004 	add	sl, sl, r4
    1880:	e3500020 	cmp	r0, #32
    1884:	33a04004 	movcc	r4, #4
    1888:	23a04000 	movcs	r4, #0
    188c:	e0823087 	add	r3, r2, r7, lsl #1
    1890:	e3570000 	cmp	r7, #0
    1894:	1a000073 	bne	1a68 <follow_path+0x290>
    1898:	e1a01087 	lsl	r1, r7, #1
    189c:	e3a00000 	mov	r0, #0
    18a0:	e1570000 	cmp	r7, r0
    18a4:	e0823087 	add	r3, r2, r7, lsl #1
    18a8:	e18200b1 	strh	r0, [r2, r1]
    18ac:	0a0000ad 	beq	1b68 <follow_path+0x390>
    18b0:	f2c20e10 	vmov.i8	d16, #32	; 0x20
    18b4:	e2851020 	add	r1, r5, #32
    18b8:	f441070f 	vst1.8	{d16}, [r1]
    18bc:	e2851023 	add	r1, r5, #35	; 0x23
    18c0:	f441070f 	vst1.8	{d16}, [r1]
    18c4:	e1f6c0b2 	ldrh	ip, [r6, #2]!
    18c8:	e1a01000 	mov	r1, r0
    18cc:	e2800001 	add	r0, r0, #1
    18d0:	e35c002e 	cmp	ip, #46	; 0x2e
    18d4:	135c0020 	cmpne	ip, #32
    18d8:	0afffff9 	beq	18c4 <follow_path+0xec>
    18dc:	e3510000 	cmp	r1, #0
    18e0:	13844003 	orrne	r4, r4, #3
    18e4:	e15300b2 	ldrh	r0, [r3, #-2]
    18e8:	e350002e 	cmp	r0, #46	; 0x2e
    18ec:	0a000002 	beq	18fc <follow_path+0x124>
    18f0:	e2577001 	subs	r7, r7, #1
    18f4:	e2433002 	sub	r3, r3, #2
    18f8:	1afffff9 	bne	18e4 <follow_path+0x10c>
    18fc:	e3a08000 	mov	r8, #0
    1900:	e1a0300a 	mov	r3, sl
    1904:	e3a0b008 	mov	fp, #8
    1908:	e1a0a005 	mov	sl, r5
    190c:	e1a06008 	mov	r6, r8
    1910:	e1a05002 	mov	r5, r2
    1914:	e2819001 	add	r9, r1, #1
    1918:	e1a01081 	lsl	r1, r1, #1
    191c:	e19500b1 	ldrh	r0, [r5, r1]
    1920:	e3500000 	cmp	r0, #0
    1924:	0a000085 	beq	1b40 <follow_path+0x368>
    1928:	e3500020 	cmp	r0, #32
    192c:	0a000053 	beq	1a80 <follow_path+0x2a8>
    1930:	e1590007 	cmp	r9, r7
    1934:	e240202e 	sub	r2, r0, #46	; 0x2e
    1938:	e16f2f12 	clz	r2, r2
    193c:	e1a022a2 	lsr	r2, r2, #5
    1940:	03a02000 	moveq	r2, #0
    1944:	e3520000 	cmp	r2, #0
    1948:	1a00004c 	bne	1a80 <follow_path+0x2a8>
    194c:	e1590007 	cmp	r9, r7
    1950:	1158000b 	cmpne	r8, fp
    1954:	23a01001 	movcs	r1, #1
    1958:	33a01000 	movcc	r1, #0
    195c:	3a000054 	bcc	1ab4 <follow_path+0x2dc>
    1960:	e35b000b 	cmp	fp, #11
    1964:	1a000048 	bne	1a8c <follow_path+0x2b4>
    1968:	e1a0500a 	mov	r5, sl
    196c:	e3844003 	orr	r4, r4, #3
    1970:	e1a0a003 	mov	sl, r3
    1974:	e5d52020 	ldrb	r2, [r5, #32]
    1978:	e35200e5 	cmp	r2, #229	; 0xe5
    197c:	03a02005 	moveq	r2, #5
    1980:	05c52020 	strbeq	r2, [r5, #32]
    1984:	e35b0008 	cmp	fp, #8
    1988:	01a06106 	lsleq	r6, r6, #2
    198c:	06ef6076 	uxtbeq	r6, r6
    1990:	e206300c 	and	r3, r6, #12
    1994:	e353000c 	cmp	r3, #12
    1998:	0a00006b 	beq	1b4c <follow_path+0x374>
    199c:	e2062003 	and	r2, r6, #3
    19a0:	e3520003 	cmp	r2, #3
    19a4:	0a000068 	beq	1b4c <follow_path+0x374>
    19a8:	e3140002 	tst	r4, #2
    19ac:	1a000004 	bne	19c4 <follow_path+0x1ec>
    19b0:	e2066003 	and	r6, r6, #3
    19b4:	e3560001 	cmp	r6, #1
    19b8:	03844010 	orreq	r4, r4, #16
    19bc:	e3530004 	cmp	r3, #4
    19c0:	03844008 	orreq	r4, r4, #8
    19c4:	e5c5402b 	strb	r4, [r5, #43]	; 0x2b
    19c8:	e1a00005 	mov	r0, r5
    19cc:	ebfffd6f 	bl	f90 <dir_find>
    19d0:	e5d5302b 	ldrb	r3, [r5, #43]	; 0x2b
    19d4:	e3500000 	cmp	r0, #0
    19d8:	1a00005d 	bne	1b54 <follow_path+0x37c>
    19dc:	e3130004 	tst	r3, #4
    19e0:	1a000063 	bne	1b74 <follow_path+0x39c>
    19e4:	e5d53006 	ldrb	r3, [r5, #6]
    19e8:	e3130010 	tst	r3, #16
    19ec:	0a00005f 	beq	1b70 <follow_path+0x398>
    19f0:	e59d3000 	ldr	r3, [sp]
    19f4:	e2831034 	add	r1, r3, #52	; 0x34
    19f8:	e5953010 	ldr	r3, [r5, #16]
    19fc:	e7e83053 	ubfx	r3, r3, #0, #9
    1a00:	e0811003 	add	r1, r1, r3
    1a04:	e59d3000 	ldr	r3, [sp]
    1a08:	e5d30000 	ldrb	r0, [r3]
    1a0c:	ebfffbd9 	bl	978 <ld_clust.isra.0>
    1a10:	e5850008 	str	r0, [r5, #8]
    1a14:	e5953000 	ldr	r3, [r5]
    1a18:	e24a9001 	sub	r9, sl, #1
    1a1c:	e3a07000 	mov	r7, #0
    1a20:	e593200c 	ldr	r2, [r3, #12]
    1a24:	e2426002 	sub	r6, r2, #2
    1a28:	e1a0b002 	mov	fp, r2
    1a2c:	e1a08006 	mov	r8, r6
    1a30:	eaffff8c 	b	1868 <follow_path+0x90>
    1a34:	e350005c 	cmp	r0, #92	; 0x5c
    1a38:	1350002f 	cmpne	r0, #47	; 0x2f
    1a3c:	1affff7b 	bne	1830 <follow_path+0x58>
    1a40:	e1a0200b 	mov	r2, fp
    1a44:	e7da3004 	ldrb	r3, [sl, r4]
    1a48:	e353005c 	cmp	r3, #92	; 0x5c
    1a4c:	1353002f 	cmpne	r3, #47	; 0x2f
    1a50:	1affff89 	bne	187c <follow_path+0xa4>
    1a54:	e2844001 	add	r4, r4, #1
    1a58:	eafffff9 	b	1a44 <follow_path+0x26c>
    1a5c:	e1500002 	cmp	r0, r2
    1a60:	1affff7b 	bne	1854 <follow_path+0x7c>
    1a64:	ea00003f 	b	1b68 <follow_path+0x390>
    1a68:	e17310b2 	ldrh	r1, [r3, #-2]!
    1a6c:	e3510020 	cmp	r1, #32
    1a70:	1351002e 	cmpne	r1, #46	; 0x2e
    1a74:	1affff87 	bne	1898 <follow_path+0xc0>
    1a78:	e2477001 	sub	r7, r7, #1
    1a7c:	eaffff83 	b	1890 <follow_path+0xb8>
    1a80:	e3844003 	orr	r4, r4, #3
    1a84:	e1a01009 	mov	r1, r9
    1a88:	eaffffa1 	b	1914 <follow_path+0x13c>
    1a8c:	e1590007 	cmp	r9, r7
    1a90:	0a000001 	beq	1a9c <follow_path+0x2c4>
    1a94:	e3844003 	orr	r4, r4, #3
    1a98:	8a000028 	bhi	1b40 <follow_path+0x368>
    1a9c:	e1a06106 	lsl	r6, r6, #2
    1aa0:	e1a09007 	mov	r9, r7
    1aa4:	e6ef6076 	uxtb	r6, r6
    1aa8:	e3a0b00b 	mov	fp, #11
    1aac:	e3a08008 	mov	r8, #8
    1ab0:	eafffff3 	b	1a84 <follow_path+0x2ac>
    1ab4:	e350007f 	cmp	r0, #127	; 0x7f
    1ab8:	9a00000a 	bls	1ae8 <follow_path+0x310>
    1abc:	e58d3004 	str	r3, [sp, #4]
    1ac0:	ebfffffe 	bl	0 <ff_convert>
    1ac4:	e59d3004 	ldr	r3, [sp, #4]
    1ac8:	e3500000 	cmp	r0, #0
    1acc:	e3844002 	orr	r4, r4, #2
    1ad0:	0a00000a 	beq	1b00 <follow_path+0x328>
    1ad4:	e59f20a4 	ldr	r2, [pc, #164]	; 1b80 <follow_path+0x3a8>
    1ad8:	e0820000 	add	r0, r2, r0
    1adc:	e5500070 	ldrb	r0, [r0, #-112]	; 0xffffff90
    1ae0:	e3500000 	cmp	r0, #0
    1ae4:	0a000005 	beq	1b00 <follow_path+0x328>
    1ae8:	e59f2094 	ldr	r2, [pc, #148]	; 1b84 <follow_path+0x3ac>
    1aec:	e4d21001 	ldrb	r1, [r2], #1
    1af0:	e3510000 	cmp	r1, #0
    1af4:	0a000004 	beq	1b0c <follow_path+0x334>
    1af8:	e1510000 	cmp	r1, r0
    1afc:	1afffffa 	bne	1aec <follow_path+0x314>
    1b00:	e3844003 	orr	r4, r4, #3
    1b04:	e3a0005f 	mov	r0, #95	; 0x5f
    1b08:	ea000008 	b	1b30 <follow_path+0x358>
    1b0c:	e2402041 	sub	r2, r0, #65	; 0x41
    1b10:	e3520019 	cmp	r2, #25
    1b14:	93866002 	orrls	r6, r6, #2
    1b18:	9a000004 	bls	1b30 <follow_path+0x358>
    1b1c:	e2402061 	sub	r2, r0, #97	; 0x61
    1b20:	e3520019 	cmp	r2, #25
    1b24:	92400020 	subls	r0, r0, #32
    1b28:	93866001 	orrls	r6, r6, #1
    1b2c:	96ff0070 	uxthls	r0, r0
    1b30:	e08a2008 	add	r2, sl, r8
    1b34:	e2888001 	add	r8, r8, #1
    1b38:	e5c20020 	strb	r0, [r2, #32]
    1b3c:	eaffffd0 	b	1a84 <follow_path+0x2ac>
    1b40:	e1a0500a 	mov	r5, sl
    1b44:	e1a0a003 	mov	sl, r3
    1b48:	eaffff89 	b	1974 <follow_path+0x19c>
    1b4c:	e3844002 	orr	r4, r4, #2
    1b50:	eaffff94 	b	19a8 <follow_path+0x1d0>
    1b54:	e3500004 	cmp	r0, #4
    1b58:	1a000005 	bne	1b74 <follow_path+0x39c>
    1b5c:	e3130004 	tst	r3, #4
    1b60:	03a00005 	moveq	r0, #5
    1b64:	ea000002 	b	1b74 <follow_path+0x39c>
    1b68:	e3a00006 	mov	r0, #6
    1b6c:	ea000000 	b	1b74 <follow_path+0x39c>
    1b70:	e3a00005 	mov	r0, #5
    1b74:	e28dd00c 	add	sp, sp, #12
    1b78:	e8bd8ff0 	pop	{r4, r5, r6, r7, r8, r9, sl, fp, pc}
	...
    1b84:	00000009 	andeq	r0, r0, r9

00001b88 <f_mount>:
    1b88:	e92d401f 	push	{r0, r1, r2, r3, r4, lr}
    1b8c:	e1a04002 	mov	r4, r2
    1b90:	e58d0004 	str	r0, [sp, #4]
    1b94:	e28d000c 	add	r0, sp, #12
    1b98:	e58d1000 	str	r1, [sp]
    1b9c:	e58d100c 	str	r1, [sp, #12]
    1ba0:	ebfff93e 	bl	a0 <get_ldnumber>
    1ba4:	e3500000 	cmp	r0, #0
    1ba8:	b3a0000b 	movlt	r0, #11
    1bac:	ba000013 	blt	1c00 <f_mount+0x78>
    1bb0:	e59f2050 	ldr	r2, [pc, #80]	; 1c08 <f_mount+0x80>
    1bb4:	e7923100 	ldr	r3, [r2, r0, lsl #2]
    1bb8:	e3530000 	cmp	r3, #0
    1bbc:	13a01000 	movne	r1, #0
    1bc0:	15c31000 	strbne	r1, [r3]
    1bc4:	e59d3004 	ldr	r3, [sp, #4]
    1bc8:	e3530000 	cmp	r3, #0
    1bcc:	13a01000 	movne	r1, #0
    1bd0:	15c31000 	strbne	r1, [r3]
    1bd4:	e7823100 	str	r3, [r2, r0, lsl #2]
    1bd8:	e2542001 	subs	r2, r4, #1
    1bdc:	13a02001 	movne	r2, #1
    1be0:	e3530000 	cmp	r3, #0
    1be4:	03822001 	orreq	r2, r2, #1
    1be8:	e3520000 	cmp	r2, #0
    1bec:	13a00000 	movne	r0, #0
    1bf0:	1a000002 	bne	1c00 <f_mount+0x78>
    1bf4:	e28d1004 	add	r1, sp, #4
    1bf8:	e1a0000d 	mov	r0, sp
    1bfc:	ebfffa23 	bl	490 <find_volume>
    1c00:	e28dd010 	add	sp, sp, #16
    1c04:	e8bd8010 	pop	{r4, pc}
    1c08:	00000000 	andeq	r0, r0, r0

00001c0c <f_open>:
    1c0c:	e92d4ff0 	push	{r4, r5, r6, r7, r8, r9, sl, fp, lr}
    1c10:	e2505000 	subs	r5, r0, #0
    1c14:	e24dd044 	sub	sp, sp, #68	; 0x44
    1c18:	03a07009 	moveq	r7, #9
    1c1c:	e58d1004 	str	r1, [sp, #4]
    1c20:	0a0000b2 	beq	1ef0 <f_open+0x2e4>
    1c24:	e202603f 	and	r6, r2, #63	; 0x3f
    1c28:	e28d100c 	add	r1, sp, #12
    1c2c:	e1a04002 	mov	r4, r2
    1c30:	e28d0004 	add	r0, sp, #4
    1c34:	e1a02006 	mov	r2, r6
    1c38:	ebfffa14 	bl	490 <find_volume>
    1c3c:	e2507000 	subs	r7, r0, #0
    1c40:	11a01007 	movne	r1, r7
    1c44:	1a0000a6 	bne	1ee4 <f_open+0x2d8>
    1c48:	e59d300c 	ldr	r3, [sp, #12]
    1c4c:	e28d0010 	add	r0, sp, #16
    1c50:	e59d1004 	ldr	r1, [sp, #4]
    1c54:	e58d3010 	str	r3, [sp, #16]
    1c58:	ebfffede 	bl	17d8 <follow_path>
    1c5c:	e2501000 	subs	r1, r0, #0
    1c60:	1a000002 	bne	1c70 <f_open+0x64>
    1c64:	e1dd33db 	ldrsb	r3, [sp, #59]	; 0x3b
    1c68:	e3530000 	cmp	r3, #0
    1c6c:	b3a01006 	movlt	r1, #6
    1c70:	e314001c 	tst	r4, #28
    1c74:	0a00003f 	beq	1d78 <f_open+0x16c>
    1c78:	e3510000 	cmp	r1, #0
    1c7c:	0a000007 	beq	1ca0 <f_open+0x94>
    1c80:	e3510004 	cmp	r1, #4
    1c84:	1a000096 	bne	1ee4 <f_open+0x2d8>
    1c88:	e28d0010 	add	r0, sp, #16
    1c8c:	ebfffdee 	bl	144c <dir_register>
    1c90:	e2501000 	subs	r1, r0, #0
    1c94:	03866008 	orreq	r6, r6, #8
    1c98:	0a000007 	beq	1cbc <f_open+0xb0>
    1c9c:	ea000090 	b	1ee4 <f_open+0x2d8>
    1ca0:	e5dd3016 	ldrb	r3, [sp, #22]
    1ca4:	e3130011 	tst	r3, #17
    1ca8:	1a00008c 	bne	1ee0 <f_open+0x2d4>
    1cac:	e3140004 	tst	r4, #4
    1cb0:	1a000086 	bne	1ed0 <f_open+0x2c4>
    1cb4:	e3140008 	tst	r4, #8
    1cb8:	0a000037 	beq	1d9c <f_open+0x190>
    1cbc:	ebfffffe 	bl	0 <get_fattime>
    1cc0:	e1a02000 	mov	r2, r0
    1cc4:	e1a01000 	mov	r1, r0
    1cc8:	e59d002c 	ldr	r0, [sp, #44]	; 0x2c
    1ccc:	e280000e 	add	r0, r0, #14
    1cd0:	ebfff8cc 	bl	8 <st_dword>
    1cd4:	e59d002c 	ldr	r0, [sp, #44]	; 0x2c
    1cd8:	e1a01002 	mov	r1, r2
    1cdc:	e3a02020 	mov	r2, #32
    1ce0:	e2800016 	add	r0, r0, #22
    1ce4:	ebfff8c7 	bl	8 <st_dword>
    1ce8:	e59d302c 	ldr	r3, [sp, #44]	; 0x2c
    1cec:	e59d800c 	ldr	r8, [sp, #12]
    1cf0:	e5c3200b 	strb	r2, [r3, #11]
    1cf4:	e59d102c 	ldr	r1, [sp, #44]	; 0x2c
    1cf8:	e5d80000 	ldrb	r0, [r8]
    1cfc:	ebfffb1d 	bl	978 <ld_clust.isra.0>
    1d00:	e1a04000 	mov	r4, r0
    1d04:	e3a02000 	mov	r2, #0
    1d08:	e1a00008 	mov	r0, r8
    1d0c:	ebfff8ce 	bl	4c <st_clust>
    1d10:	e59d302c 	ldr	r3, [sp, #44]	; 0x2c
    1d14:	e3a02000 	mov	r2, #0
    1d18:	e1540002 	cmp	r4, r2
    1d1c:	e3a01001 	mov	r1, #1
    1d20:	e5c3201c 	strb	r2, [r3, #28]
    1d24:	e5c3201d 	strb	r2, [r3, #29]
    1d28:	e5c3201e 	strb	r2, [r3, #30]
    1d2c:	e5c3201f 	strb	r2, [r3, #31]
    1d30:	e59d300c 	ldr	r3, [sp, #12]
    1d34:	e5c31003 	strb	r1, [r3, #3]
    1d38:	0a000017 	beq	1d9c <f_open+0x190>
    1d3c:	e59d0010 	ldr	r0, [sp, #16]
    1d40:	e1a01004 	mov	r1, r4
    1d44:	e5938030 	ldr	r8, [r3, #48]	; 0x30
    1d48:	ebfffb53 	bl	a9c <remove_chain.isra.0>
    1d4c:	e2501000 	subs	r1, r0, #0
    1d50:	1a000063 	bne	1ee4 <f_open+0x2d8>
    1d54:	e59d000c 	ldr	r0, [sp, #12]
    1d58:	e1a01008 	mov	r1, r8
    1d5c:	e2444001 	sub	r4, r4, #1
    1d60:	ebfff988 	bl	388 <move_window>
    1d64:	e59d300c 	ldr	r3, [sp, #12]
    1d68:	e2501000 	subs	r1, r0, #0
    1d6c:	e5834010 	str	r4, [r3, #16]
    1d70:	0a000009 	beq	1d9c <f_open+0x190>
    1d74:	ea00005a 	b	1ee4 <f_open+0x2d8>
    1d78:	e3510000 	cmp	r1, #0
    1d7c:	1a000058 	bne	1ee4 <f_open+0x2d8>
    1d80:	e5dd3016 	ldrb	r3, [sp, #22]
    1d84:	e3130010 	tst	r3, #16
    1d88:	1a000052 	bne	1ed8 <f_open+0x2cc>
    1d8c:	e3140002 	tst	r4, #2
    1d90:	0a000001 	beq	1d9c <f_open+0x190>
    1d94:	e3130001 	tst	r3, #1
    1d98:	1a000050 	bne	1ee0 <f_open+0x2d4>
    1d9c:	e59db00c 	ldr	fp, [sp, #12]
    1da0:	e3160008 	tst	r6, #8
    1da4:	e59d102c 	ldr	r1, [sp, #44]	; 0x2c
    1da8:	13866040 	orrne	r6, r6, #64	; 0x40
    1dac:	e59b3030 	ldr	r3, [fp, #48]	; 0x30
    1db0:	e3a04000 	mov	r4, #0
    1db4:	e5851024 	str	r1, [r5, #36]	; 0x24
    1db8:	e285a028 	add	sl, r5, #40	; 0x28
    1dbc:	e5853020 	str	r3, [r5, #32]
    1dc0:	e5db0000 	ldrb	r0, [fp]
    1dc4:	ebfffaeb 	bl	978 <ld_clust.isra.0>
    1dc8:	e5850008 	str	r0, [r5, #8]
    1dcc:	e1a08000 	mov	r8, r0
    1dd0:	e281001c 	add	r0, r1, #28
    1dd4:	e3a02c02 	mov	r2, #512	; 0x200
    1dd8:	e1a01004 	mov	r1, r4
    1ddc:	ebfff887 	bl	0 <ld_dword>
    1de0:	e1db30b6 	ldrh	r3, [fp, #6]
    1de4:	e1a09000 	mov	r9, r0
    1de8:	e585000c 	str	r0, [r5, #12]
    1dec:	e1a0000a 	mov	r0, sl
    1df0:	e585b000 	str	fp, [r5]
    1df4:	e1c530b4 	strh	r3, [r5, #4]
    1df8:	e5c56010 	strb	r6, [r5, #16]
    1dfc:	e5c54011 	strb	r4, [r5, #17]
    1e00:	e585401c 	str	r4, [r5, #28]
    1e04:	e5854014 	str	r4, [r5, #20]
    1e08:	ebfffffe 	bl	0 <memset>
    1e0c:	e3160020 	tst	r6, #32
    1e10:	0a000036 	beq	1ef0 <f_open+0x2e4>
    1e14:	e1590004 	cmp	r9, r4
    1e18:	0a000034 	beq	1ef0 <f_open+0x2e4>
    1e1c:	e1db60ba 	ldrh	r6, [fp, #10]
    1e20:	e1a01004 	mov	r1, r4
    1e24:	e5859014 	str	r9, [r5, #20]
    1e28:	e1a06486 	lsl	r6, r6, #9
    1e2c:	e16f3f11 	clz	r3, r1
    1e30:	e1590006 	cmp	r9, r6
    1e34:	e1a032a3 	lsr	r3, r3, #5
    1e38:	93a03000 	movls	r3, #0
    1e3c:	e3530000 	cmp	r3, #0
    1e40:	0a00000b 	beq	1e74 <f_open+0x268>
    1e44:	e5950000 	ldr	r0, [r5]
    1e48:	e1a01008 	mov	r1, r8
    1e4c:	ebfffacf 	bl	990 <get_fat.isra.0>
    1e50:	e3500001 	cmp	r0, #1
    1e54:	e1a08000 	mov	r8, r0
    1e58:	93a01002 	movls	r1, #2
    1e5c:	9a000002 	bls	1e6c <f_open+0x260>
    1e60:	e3700001 	cmn	r0, #1
    1e64:	13a01000 	movne	r1, #0
    1e68:	03a01001 	moveq	r1, #1
    1e6c:	e0499006 	sub	r9, r9, r6
    1e70:	eaffffed 	b	1e2c <f_open+0x220>
    1e74:	e5858018 	str	r8, [r5, #24]
    1e78:	e3510000 	cmp	r1, #0
    1e7c:	1a000018 	bne	1ee4 <f_open+0x2d8>
    1e80:	e7e83059 	ubfx	r3, r9, #0, #9
    1e84:	e3530000 	cmp	r3, #0
    1e88:	0a000018 	beq	1ef0 <f_open+0x2e4>
    1e8c:	e59d400c 	ldr	r4, [sp, #12]
    1e90:	e1a01008 	mov	r1, r8
    1e94:	e1a00004 	mov	r0, r4
    1e98:	ebfff862 	bl	28 <clust2sect>
    1e9c:	e2502000 	subs	r2, r0, #0
    1ea0:	03a01002 	moveq	r1, #2
    1ea4:	0a00000e 	beq	1ee4 <f_open+0x2d8>
    1ea8:	e08224a9 	add	r2, r2, r9, lsr #9
    1eac:	e1a0100a 	mov	r1, sl
    1eb0:	e585201c 	str	r2, [r5, #28]
    1eb4:	e3a03001 	mov	r3, #1
    1eb8:	e5d40001 	ldrb	r0, [r4, #1]
    1ebc:	ebfffffe 	bl	0 <disk_read>
    1ec0:	e3500000 	cmp	r0, #0
    1ec4:	13a01001 	movne	r1, #1
    1ec8:	1a000005 	bne	1ee4 <f_open+0x2d8>
    1ecc:	ea000007 	b	1ef0 <f_open+0x2e4>
    1ed0:	e3a01008 	mov	r1, #8
    1ed4:	ea000002 	b	1ee4 <f_open+0x2d8>
    1ed8:	e3a01004 	mov	r1, #4
    1edc:	ea000000 	b	1ee4 <f_open+0x2d8>
    1ee0:	e3a01007 	mov	r1, #7
    1ee4:	e1a07001 	mov	r7, r1
    1ee8:	e3a03000 	mov	r3, #0
    1eec:	e5853000 	str	r3, [r5]
    1ef0:	e1a00007 	mov	r0, r7
    1ef4:	e28dd044 	add	sp, sp, #68	; 0x44
    1ef8:	e8bd8ff0 	pop	{r4, r5, r6, r7, r8, r9, sl, fp, pc}

00001efc <f_read>:
    1efc:	e92d4ff0 	push	{r4, r5, r6, r7, r8, r9, sl, fp, lr}
    1f00:	e1a09003 	mov	r9, r3
    1f04:	e24dd01c 	sub	sp, sp, #28
    1f08:	e3a03000 	mov	r3, #0
    1f0c:	e5893000 	str	r3, [r9]
    1f10:	e1a08001 	mov	r8, r1
    1f14:	e28d1014 	add	r1, sp, #20
    1f18:	e1a04000 	mov	r4, r0
    1f1c:	e1a07002 	mov	r7, r2
    1f20:	ebfff879 	bl	10c <validate>
    1f24:	e2506000 	subs	r6, r0, #0
    1f28:	1a00007a 	bne	2118 <f_read+0x21c>
    1f2c:	e5d46011 	ldrb	r6, [r4, #17]
    1f30:	e3560000 	cmp	r6, #0
    1f34:	1a000077 	bne	2118 <f_read+0x21c>
    1f38:	e5d43010 	ldrb	r3, [r4, #16]
    1f3c:	e2133001 	ands	r3, r3, #1
    1f40:	e58d3004 	str	r3, [sp, #4]
    1f44:	03a06007 	moveq	r6, #7
    1f48:	0a000072 	beq	2118 <f_read+0x21c>
    1f4c:	e594500c 	ldr	r5, [r4, #12]
    1f50:	e284a028 	add	sl, r4, #40	; 0x28
    1f54:	e5942014 	ldr	r2, [r4, #20]
    1f58:	e58d6008 	str	r6, [sp, #8]
    1f5c:	e0455002 	sub	r5, r5, r2
    1f60:	e1550007 	cmp	r5, r7
    1f64:	21a05007 	movcs	r5, r7
    1f68:	e3550000 	cmp	r5, #0
    1f6c:	0a000068 	beq	2114 <f_read+0x218>
    1f70:	e5943014 	ldr	r3, [r4, #20]
    1f74:	e7e82053 	ubfx	r2, r3, #0, #9
    1f78:	e3520000 	cmp	r2, #0
    1f7c:	1a000052 	bne	20cc <f_read+0x1d0>
    1f80:	e59d2014 	ldr	r2, [sp, #20]
    1f84:	e1d220ba 	ldrh	r2, [r2, #10]
    1f88:	e2422001 	sub	r2, r2, #1
    1f8c:	e01224a3 	ands	r2, r2, r3, lsr #9
    1f90:	1a000013 	bne	1fe4 <f_read+0xe8>
    1f94:	e3530000 	cmp	r3, #0
    1f98:	05940008 	ldreq	r0, [r4, #8]
    1f9c:	0a000004 	beq	1fb4 <f_read+0xb8>
    1fa0:	e5941018 	ldr	r1, [r4, #24]
    1fa4:	e5940000 	ldr	r0, [r4]
    1fa8:	e58d200c 	str	r2, [sp, #12]
    1fac:	ebfffa77 	bl	990 <get_fat.isra.0>
    1fb0:	e59d200c 	ldr	r2, [sp, #12]
    1fb4:	e3500001 	cmp	r0, #1
    1fb8:	8a000002 	bhi	1fc8 <f_read+0xcc>
    1fbc:	e3a06002 	mov	r6, #2
    1fc0:	e5c46011 	strb	r6, [r4, #17]
    1fc4:	ea000053 	b	2118 <f_read+0x21c>
    1fc8:	e3700001 	cmn	r0, #1
    1fcc:	1a000003 	bne	1fe0 <f_read+0xe4>
    1fd0:	e59d6004 	ldr	r6, [sp, #4]
    1fd4:	e3a03001 	mov	r3, #1
    1fd8:	e5c43011 	strb	r3, [r4, #17]
    1fdc:	ea00004d 	b	2118 <f_read+0x21c>
    1fe0:	e5840018 	str	r0, [r4, #24]
    1fe4:	e59d7014 	ldr	r7, [sp, #20]
    1fe8:	e5941018 	ldr	r1, [r4, #24]
    1fec:	e1a00007 	mov	r0, r7
    1ff0:	ebfff80c 	bl	28 <clust2sect>
    1ff4:	e3500000 	cmp	r0, #0
    1ff8:	0affffef 	beq	1fbc <f_read+0xc0>
    1ffc:	e082b000 	add	fp, r2, r0
    2000:	e3550c02 	cmp	r5, #512	; 0x200
    2004:	3a000018 	bcc	206c <f_read+0x170>
    2008:	e1d710ba 	ldrh	r1, [r7, #10]
    200c:	e08204a5 	add	r0, r2, r5, lsr #9
    2010:	e1500001 	cmp	r0, r1
    2014:	e1a064a5 	lsr	r6, r5, #9
    2018:	80416002 	subhi	r6, r1, r2
    201c:	e1a0200b 	mov	r2, fp
    2020:	e5d70001 	ldrb	r0, [r7, #1]
    2024:	e1a03006 	mov	r3, r6
    2028:	e1a01008 	mov	r1, r8
    202c:	ebfffffe 	bl	0 <disk_read>
    2030:	e3500000 	cmp	r0, #0
    2034:	1affffe5 	bne	1fd0 <f_read+0xd4>
    2038:	e1d421d0 	ldrsb	r2, [r4, #16]
    203c:	e3520000 	cmp	r2, #0
    2040:	aa000007 	bge	2064 <f_read+0x168>
    2044:	e594001c 	ldr	r0, [r4, #28]
    2048:	e040000b 	sub	r0, r0, fp
    204c:	e1500006 	cmp	r0, r6
    2050:	2a000003 	bcs	2064 <f_read+0x168>
    2054:	e3a02c02 	mov	r2, #512	; 0x200
    2058:	e1a0100a 	mov	r1, sl
    205c:	e0880480 	add	r0, r8, r0, lsl #9
    2060:	ebfff89b 	bl	2d4 <mem_cpy.part.0>
    2064:	e1a07486 	lsl	r7, r6, #9
    2068:	ea000020 	b	20f0 <f_read+0x1f4>
    206c:	e594201c 	ldr	r2, [r4, #28]
    2070:	e152000b 	cmp	r2, fp
    2074:	0a000013 	beq	20c8 <f_read+0x1cc>
    2078:	e1d431d0 	ldrsb	r3, [r4, #16]
    207c:	e3530000 	cmp	r3, #0
    2080:	aa000008 	bge	20a8 <f_read+0x1ac>
    2084:	e5d70001 	ldrb	r0, [r7, #1]
    2088:	e3a03001 	mov	r3, #1
    208c:	e1a0100a 	mov	r1, sl
    2090:	ebfffffe 	bl	0 <disk_write>
    2094:	e3500000 	cmp	r0, #0
    2098:	1affffcc 	bne	1fd0 <f_read+0xd4>
    209c:	e5d43010 	ldrb	r3, [r4, #16]
    20a0:	e203307f 	and	r3, r3, #127	; 0x7f
    20a4:	e5c43010 	strb	r3, [r4, #16]
    20a8:	e59d0014 	ldr	r0, [sp, #20]
    20ac:	e3a03001 	mov	r3, #1
    20b0:	e1a0200b 	mov	r2, fp
    20b4:	e1a0100a 	mov	r1, sl
    20b8:	e5d00001 	ldrb	r0, [r0, #1]
    20bc:	ebfffffe 	bl	0 <disk_read>
    20c0:	e3500000 	cmp	r0, #0
    20c4:	1affffc1 	bne	1fd0 <f_read+0xd4>
    20c8:	e584b01c 	str	fp, [r4, #28]
    20cc:	e5941014 	ldr	r1, [r4, #20]
    20d0:	e1a00008 	mov	r0, r8
    20d4:	e7e81051 	ubfx	r1, r1, #0, #9
    20d8:	e2617c02 	rsb	r7, r1, #512	; 0x200
    20dc:	e1550007 	cmp	r5, r7
    20e0:	e08a1001 	add	r1, sl, r1
    20e4:	31a07005 	movcc	r7, r5
    20e8:	e1a02007 	mov	r2, r7
    20ec:	ebfff878 	bl	2d4 <mem_cpy.part.0>
    20f0:	e5943014 	ldr	r3, [r4, #20]
    20f4:	e0888007 	add	r8, r8, r7
    20f8:	e0833007 	add	r3, r3, r7
    20fc:	e5843014 	str	r3, [r4, #20]
    2100:	e5993000 	ldr	r3, [r9]
    2104:	e0455007 	sub	r5, r5, r7
    2108:	e0833007 	add	r3, r3, r7
    210c:	e5893000 	str	r3, [r9]
    2110:	eaffff94 	b	1f68 <f_read+0x6c>
    2114:	e59d6008 	ldr	r6, [sp, #8]
    2118:	e1a00006 	mov	r0, r6
    211c:	e28dd01c 	add	sp, sp, #28
    2120:	e8bd8ff0 	pop	{r4, r5, r6, r7, r8, r9, sl, fp, pc}

00002124 <f_write>:
    2124:	e92d4ff0 	push	{r4, r5, r6, r7, r8, r9, sl, fp, lr}
    2128:	e1a09003 	mov	r9, r3
    212c:	e24dd014 	sub	sp, sp, #20
    2130:	e3a03000 	mov	r3, #0
    2134:	e5893000 	str	r3, [r9]
    2138:	e1a08001 	mov	r8, r1
    213c:	e28d100c 	add	r1, sp, #12
    2140:	e1a04000 	mov	r4, r0
    2144:	e1a06002 	mov	r6, r2
    2148:	ebfff7ef 	bl	10c <validate>
    214c:	e2505000 	subs	r5, r0, #0
    2150:	1a00008f 	bne	2394 <f_write+0x270>
    2154:	e5d45011 	ldrb	r5, [r4, #17]
    2158:	e3550000 	cmp	r5, #0
    215c:	1a00008c 	bne	2394 <f_write+0x270>
    2160:	e5d43010 	ldrb	r3, [r4, #16]
    2164:	e3130002 	tst	r3, #2
    2168:	03a05007 	moveq	r5, #7
    216c:	0a000088 	beq	2394 <f_write+0x270>
    2170:	e5943014 	ldr	r3, [r4, #20]
    2174:	e284a028 	add	sl, r4, #40	; 0x28
    2178:	e58d5000 	str	r5, [sp]
    217c:	e1730006 	cmn	r3, r6
    2180:	21e06003 	mvncs	r6, r3
    2184:	e3560000 	cmp	r6, #0
    2188:	0a000014 	beq	21e0 <f_write+0xbc>
    218c:	e5943014 	ldr	r3, [r4, #20]
    2190:	e7e82053 	ubfx	r2, r3, #0, #9
    2194:	e3520000 	cmp	r2, #0
    2198:	1a000063 	bne	232c <f_write+0x208>
    219c:	e59d200c 	ldr	r2, [sp, #12]
    21a0:	e1d270ba 	ldrh	r7, [r2, #10]
    21a4:	e2477001 	sub	r7, r7, #1
    21a8:	e01774a3 	ands	r7, r7, r3, lsr #9
    21ac:	1a00001d 	bne	2228 <f_write+0x104>
    21b0:	e3530000 	cmp	r3, #0
    21b4:	1a000003 	bne	21c8 <f_write+0xa4>
    21b8:	e5941008 	ldr	r1, [r4, #8]
    21bc:	e3510000 	cmp	r1, #0
    21c0:	1a00000b 	bne	21f4 <f_write+0xd0>
    21c4:	ea000000 	b	21cc <f_write+0xa8>
    21c8:	e5941018 	ldr	r1, [r4, #24]
    21cc:	e5940000 	ldr	r0, [r4]
    21d0:	ebfffa62 	bl	b60 <create_chain.isra.0>
    21d4:	e3500000 	cmp	r0, #0
    21d8:	e1a01000 	mov	r1, r0
    21dc:	1a000004 	bne	21f4 <f_write+0xd0>
    21e0:	e5d43010 	ldrb	r3, [r4, #16]
    21e4:	e59d5000 	ldr	r5, [sp]
    21e8:	e3833040 	orr	r3, r3, #64	; 0x40
    21ec:	e5c43010 	strb	r3, [r4, #16]
    21f0:	ea000067 	b	2394 <f_write+0x270>
    21f4:	e3510001 	cmp	r1, #1
    21f8:	1a000001 	bne	2204 <f_write+0xe0>
    21fc:	e3a05002 	mov	r5, #2
    2200:	ea000002 	b	2210 <f_write+0xec>
    2204:	e3710001 	cmn	r1, #1
    2208:	1a000002 	bne	2218 <f_write+0xf4>
    220c:	e3a05001 	mov	r5, #1
    2210:	e5c45011 	strb	r5, [r4, #17]
    2214:	ea00005e 	b	2394 <f_write+0x270>
    2218:	e5943008 	ldr	r3, [r4, #8]
    221c:	e5841018 	str	r1, [r4, #24]
    2220:	e3530000 	cmp	r3, #0
    2224:	05841008 	streq	r1, [r4, #8]
    2228:	e1d431d0 	ldrsb	r3, [r4, #16]
    222c:	e3530000 	cmp	r3, #0
    2230:	aa00000a 	bge	2260 <f_write+0x13c>
    2234:	e59d000c 	ldr	r0, [sp, #12]
    2238:	e3a03001 	mov	r3, #1
    223c:	e594201c 	ldr	r2, [r4, #28]
    2240:	e1a0100a 	mov	r1, sl
    2244:	e5d00001 	ldrb	r0, [r0, #1]
    2248:	ebfffffe 	bl	0 <disk_write>
    224c:	e3500000 	cmp	r0, #0
    2250:	1affffed 	bne	220c <f_write+0xe8>
    2254:	e5d43010 	ldrb	r3, [r4, #16]
    2258:	e203307f 	and	r3, r3, #127	; 0x7f
    225c:	e5c43010 	strb	r3, [r4, #16]
    2260:	e59db00c 	ldr	fp, [sp, #12]
    2264:	e5941018 	ldr	r1, [r4, #24]
    2268:	e1a0000b 	mov	r0, fp
    226c:	ebfff76d 	bl	28 <clust2sect>
    2270:	e2502000 	subs	r2, r0, #0
    2274:	0affffe0 	beq	21fc <f_write+0xd8>
    2278:	e0875002 	add	r5, r7, r2
    227c:	e3560c02 	cmp	r6, #512	; 0x200
    2280:	3a00001a 	bcc	22f0 <f_write+0x1cc>
    2284:	e1db10ba 	ldrh	r1, [fp, #10]
    2288:	e1a02005 	mov	r2, r5
    228c:	e08704a6 	add	r0, r7, r6, lsr #9
    2290:	e1500001 	cmp	r0, r1
    2294:	e1a034a6 	lsr	r3, r6, #9
    2298:	e5db0001 	ldrb	r0, [fp, #1]
    229c:	80413007 	subhi	r3, r1, r7
    22a0:	e1a01008 	mov	r1, r8
    22a4:	e58d3004 	str	r3, [sp, #4]
    22a8:	ebfffffe 	bl	0 <disk_write>
    22ac:	e3500000 	cmp	r0, #0
    22b0:	1affffd5 	bne	220c <f_write+0xe8>
    22b4:	e594101c 	ldr	r1, [r4, #28]
    22b8:	e59d3004 	ldr	r3, [sp, #4]
    22bc:	e0411005 	sub	r1, r1, r5
    22c0:	e1510003 	cmp	r1, r3
    22c4:	2a000007 	bcs	22e8 <f_write+0x1c4>
    22c8:	e3a02c02 	mov	r2, #512	; 0x200
    22cc:	e1a0000a 	mov	r0, sl
    22d0:	e0881481 	add	r1, r8, r1, lsl #9
    22d4:	ebfff7fe 	bl	2d4 <mem_cpy.part.0>
    22d8:	e5d42010 	ldrb	r2, [r4, #16]
    22dc:	e59d3004 	ldr	r3, [sp, #4]
    22e0:	e202207f 	and	r2, r2, #127	; 0x7f
    22e4:	e5c42010 	strb	r2, [r4, #16]
    22e8:	e1a07483 	lsl	r7, r3, #9
    22ec:	ea00001b 	b	2360 <f_write+0x23c>
    22f0:	e594301c 	ldr	r3, [r4, #28]
    22f4:	e1530005 	cmp	r3, r5
    22f8:	0a00000a 	beq	2328 <f_write+0x204>
    22fc:	e594100c 	ldr	r1, [r4, #12]
    2300:	e5943014 	ldr	r3, [r4, #20]
    2304:	e1510003 	cmp	r1, r3
    2308:	9a000006 	bls	2328 <f_write+0x204>
    230c:	e5db0001 	ldrb	r0, [fp, #1]
    2310:	e3a03001 	mov	r3, #1
    2314:	e1a02005 	mov	r2, r5
    2318:	e1a0100a 	mov	r1, sl
    231c:	ebfffffe 	bl	0 <disk_read>
    2320:	e3500000 	cmp	r0, #0
    2324:	1affffb8 	bne	220c <f_write+0xe8>
    2328:	e584501c 	str	r5, [r4, #28]
    232c:	e5940014 	ldr	r0, [r4, #20]
    2330:	e1a01008 	mov	r1, r8
    2334:	e7e80050 	ubfx	r0, r0, #0, #9
    2338:	e2607c02 	rsb	r7, r0, #512	; 0x200
    233c:	e1560007 	cmp	r6, r7
    2340:	e08a0000 	add	r0, sl, r0
    2344:	31a07006 	movcc	r7, r6
    2348:	e1a02007 	mov	r2, r7
    234c:	ebfff7e0 	bl	2d4 <mem_cpy.part.0>
    2350:	e5d43010 	ldrb	r3, [r4, #16]
    2354:	e1e03c83 	mvn	r3, r3, lsl #25
    2358:	e1e03ca3 	mvn	r3, r3, lsr #25
    235c:	e5c43010 	strb	r3, [r4, #16]
    2360:	e5943014 	ldr	r3, [r4, #20]
    2364:	e594200c 	ldr	r2, [r4, #12]
    2368:	e0873003 	add	r3, r7, r3
    236c:	e5843014 	str	r3, [r4, #20]
    2370:	e1520003 	cmp	r2, r3
    2374:	2584200c 	strcs	r2, [r4, #12]
    2378:	3584300c 	strcc	r3, [r4, #12]
    237c:	e5993000 	ldr	r3, [r9]
    2380:	e0888007 	add	r8, r8, r7
    2384:	e0833007 	add	r3, r3, r7
    2388:	e0466007 	sub	r6, r6, r7
    238c:	e5893000 	str	r3, [r9]
    2390:	eaffff7b 	b	2184 <f_write+0x60>
    2394:	e1a00005 	mov	r0, r5
    2398:	e28dd014 	add	sp, sp, #20
    239c:	e8bd8ff0 	pop	{r4, r5, r6, r7, r8, r9, sl, fp, pc}

000023a0 <putc_bfd>:
    23a0:	e351000a 	cmp	r1, #10
    23a4:	e92d4073 	push	{r0, r1, r4, r5, r6, lr}
    23a8:	e1a04000 	mov	r4, r0
    23ac:	e1a06001 	mov	r6, r1
    23b0:	1a000001 	bne	23bc <putc_bfd+0x1c>
    23b4:	e3a0100d 	mov	r1, #13
    23b8:	ebfffff8 	bl	23a0 <putc_bfd>
    23bc:	e5943004 	ldr	r3, [r4, #4]
    23c0:	e3530000 	cmp	r3, #0
    23c4:	ba000010 	blt	240c <putc_bfd+0x6c>
    23c8:	e2835001 	add	r5, r3, #1
    23cc:	e0843003 	add	r3, r4, r3
    23d0:	e355003c 	cmp	r5, #60	; 0x3c
    23d4:	e5c3600c 	strb	r6, [r3, #12]
    23d8:	da000007 	ble	23fc <putc_bfd+0x5c>
    23dc:	e5940000 	ldr	r0, [r4]
    23e0:	e28d3004 	add	r3, sp, #4
    23e4:	e1a02005 	mov	r2, r5
    23e8:	e284100c 	add	r1, r4, #12
    23ec:	ebfffffe 	bl	2124 <f_write>
    23f0:	e59d3004 	ldr	r3, [sp, #4]
    23f4:	e0535005 	subs	r5, r3, r5
    23f8:	13e05000 	mvnne	r5, #0
    23fc:	e5943008 	ldr	r3, [r4, #8]
    2400:	e5845004 	str	r5, [r4, #4]
    2404:	e2833001 	add	r3, r3, #1
    2408:	e5843008 	str	r3, [r4, #8]
    240c:	e28dd008 	add	sp, sp, #8
    2410:	e8bd8070 	pop	{r4, r5, r6, pc}

00002414 <putc_flush>:
    2414:	e5902004 	ldr	r2, [r0, #4]
    2418:	e92d4013 	push	{r0, r1, r4, lr}
    241c:	e3520000 	cmp	r2, #0
    2420:	aa000001 	bge	242c <putc_flush+0x18>
    2424:	e3e00000 	mvn	r0, #0
    2428:	ea00000b 	b	245c <putc_flush+0x48>
    242c:	e280100c 	add	r1, r0, #12
    2430:	e1a04000 	mov	r4, r0
    2434:	e5900000 	ldr	r0, [r0]
    2438:	e28d3004 	add	r3, sp, #4
    243c:	ebfffffe 	bl	2124 <f_write>
    2440:	e3500000 	cmp	r0, #0
    2444:	1afffff6 	bne	2424 <putc_flush+0x10>
    2448:	e5942004 	ldr	r2, [r4, #4]
    244c:	e59d3004 	ldr	r3, [sp, #4]
    2450:	e1520003 	cmp	r2, r3
    2454:	1afffff2 	bne	2424 <putc_flush+0x10>
    2458:	e5940008 	ldr	r0, [r4, #8]
    245c:	e28dd008 	add	sp, sp, #8
    2460:	e8bd8010 	pop	{r4, pc}

00002464 <f_sync>:
    2464:	e92d40f7 	push	{r0, r1, r2, r4, r5, r6, r7, lr}
    2468:	e28d1004 	add	r1, sp, #4
    246c:	e1a05000 	mov	r5, r0
    2470:	ebfff725 	bl	10c <validate>
    2474:	e2504000 	subs	r4, r0, #0
    2478:	1a00002f 	bne	253c <f_sync+0xd8>
    247c:	e5d53010 	ldrb	r3, [r5, #16]
    2480:	e2134040 	ands	r4, r3, #64	; 0x40
    2484:	0a00002c 	beq	253c <f_sync+0xd8>
    2488:	e3130080 	tst	r3, #128	; 0x80
    248c:	0a00000b 	beq	24c0 <f_sync+0x5c>
    2490:	e59d0004 	ldr	r0, [sp, #4]
    2494:	e3a03001 	mov	r3, #1
    2498:	e595201c 	ldr	r2, [r5, #28]
    249c:	e2851028 	add	r1, r5, #40	; 0x28
    24a0:	e5d00001 	ldrb	r0, [r0, #1]
    24a4:	ebfffffe 	bl	0 <disk_write>
    24a8:	e3500000 	cmp	r0, #0
    24ac:	13a04001 	movne	r4, #1
    24b0:	1a000021 	bne	253c <f_sync+0xd8>
    24b4:	e5d53010 	ldrb	r3, [r5, #16]
    24b8:	e203307f 	and	r3, r3, #127	; 0x7f
    24bc:	e5c53010 	strb	r3, [r5, #16]
    24c0:	ebfffffe 	bl	0 <get_fattime>
    24c4:	e5951020 	ldr	r1, [r5, #32]
    24c8:	e1a07000 	mov	r7, r0
    24cc:	e59d0004 	ldr	r0, [sp, #4]
    24d0:	ebfff7ac 	bl	388 <move_window>
    24d4:	e2504000 	subs	r4, r0, #0
    24d8:	1a000017 	bne	253c <f_sync+0xd8>
    24dc:	e5956024 	ldr	r6, [r5, #36]	; 0x24
    24e0:	e5d6300b 	ldrb	r3, [r6, #11]
    24e4:	e1a01006 	mov	r1, r6
    24e8:	e3833020 	orr	r3, r3, #32
    24ec:	e5c6300b 	strb	r3, [r6, #11]
    24f0:	e5952008 	ldr	r2, [r5, #8]
    24f4:	e5950000 	ldr	r0, [r5]
    24f8:	ebfff6d3 	bl	4c <st_clust>
    24fc:	e595100c 	ldr	r1, [r5, #12]
    2500:	e286001c 	add	r0, r6, #28
    2504:	ebfff6bf 	bl	8 <st_dword>
    2508:	e1a01007 	mov	r1, r7
    250c:	e2860016 	add	r0, r6, #22
    2510:	ebfff6bc 	bl	8 <st_dword>
    2514:	e59d0004 	ldr	r0, [sp, #4]
    2518:	e3a03001 	mov	r3, #1
    251c:	e5c64012 	strb	r4, [r6, #18]
    2520:	e5c64013 	strb	r4, [r6, #19]
    2524:	e5c03003 	strb	r3, [r0, #3]
    2528:	ebfffb91 	bl	1374 <sync_fs>
    252c:	e5d53010 	ldrb	r3, [r5, #16]
    2530:	e1a04000 	mov	r4, r0
    2534:	e3c33040 	bic	r3, r3, #64	; 0x40
    2538:	e5c53010 	strb	r3, [r5, #16]
    253c:	e1a00004 	mov	r0, r4
    2540:	e28dd00c 	add	sp, sp, #12
    2544:	e8bd80f0 	pop	{r4, r5, r6, r7, pc}

00002548 <f_close>:
    2548:	e92d4013 	push	{r0, r1, r4, lr}
    254c:	e1a04000 	mov	r4, r0
    2550:	ebfffffe 	bl	2464 <f_sync>
    2554:	e3500000 	cmp	r0, #0
    2558:	1a000004 	bne	2570 <f_close+0x28>
    255c:	e28d1004 	add	r1, sp, #4
    2560:	e1a00004 	mov	r0, r4
    2564:	ebfff6e8 	bl	10c <validate>
    2568:	e3500000 	cmp	r0, #0
    256c:	05840000 	streq	r0, [r4]
    2570:	e28dd008 	add	sp, sp, #8
    2574:	e8bd8010 	pop	{r4, pc}

00002578 <f_lseek>:
    2578:	e92d43f7 	push	{r0, r1, r2, r4, r5, r6, r7, r8, r9, lr}
    257c:	e1a05001 	mov	r5, r1
    2580:	e28d1004 	add	r1, sp, #4
    2584:	e1a04000 	mov	r4, r0
    2588:	ebfff6df 	bl	10c <validate>
    258c:	e2506000 	subs	r6, r0, #0
    2590:	1a000083 	bne	27a4 <f_lseek+0x22c>
    2594:	e5d46011 	ldrb	r6, [r4, #17]
    2598:	e3560000 	cmp	r6, #0
    259c:	1a000080 	bne	27a4 <f_lseek+0x22c>
    25a0:	e594300c 	ldr	r3, [r4, #12]
    25a4:	e1530005 	cmp	r3, r5
    25a8:	2a000002 	bcs	25b8 <f_lseek+0x40>
    25ac:	e5d42010 	ldrb	r2, [r4, #16]
    25b0:	e3120002 	tst	r2, #2
    25b4:	01a05003 	moveq	r5, r3
    25b8:	e5947014 	ldr	r7, [r4, #20]
    25bc:	e3a03000 	mov	r3, #0
    25c0:	e1550003 	cmp	r5, r3
    25c4:	e5843014 	str	r3, [r4, #20]
    25c8:	1a000001 	bne	25d4 <f_lseek+0x5c>
    25cc:	e3a05000 	mov	r5, #0
    25d0:	ea00004f 	b	2714 <f_lseek+0x19c>
    25d4:	e59d3004 	ldr	r3, [sp, #4]
    25d8:	e3570000 	cmp	r7, #0
    25dc:	e1d380ba 	ldrh	r8, [r3, #10]
    25e0:	e1a08488 	lsl	r8, r8, #9
    25e4:	0a00000f 	beq	2628 <f_lseek+0xb0>
    25e8:	e1a01008 	mov	r1, r8
    25ec:	e2450001 	sub	r0, r5, #1
    25f0:	e2477001 	sub	r7, r7, #1
    25f4:	ebfffffe 	bl	0 <__aeabi_uidiv>
    25f8:	e1a09000 	mov	r9, r0
    25fc:	e1a01008 	mov	r1, r8
    2600:	e1a00007 	mov	r0, r7
    2604:	ebfffffe 	bl	0 <__aeabi_uidiv>
    2608:	e1590000 	cmp	r9, r0
    260c:	3a000005 	bcc	2628 <f_lseek+0xb0>
    2610:	e5941018 	ldr	r1, [r4, #24]
    2614:	e2683000 	rsb	r3, r8, #0
    2618:	e0077003 	and	r7, r7, r3
    261c:	e0455007 	sub	r5, r5, r7
    2620:	e5847014 	str	r7, [r4, #20]
    2624:	ea000010 	b	266c <f_lseek+0xf4>
    2628:	e5941008 	ldr	r1, [r4, #8]
    262c:	e3510000 	cmp	r1, #0
    2630:	1a00000c 	bne	2668 <f_lseek+0xf0>
    2634:	e5940000 	ldr	r0, [r4]
    2638:	ebfff948 	bl	b60 <create_chain.isra.0>
    263c:	e3500001 	cmp	r0, #1
    2640:	e1a01000 	mov	r1, r0
    2644:	1a000001 	bne	2650 <f_lseek+0xd8>
    2648:	e3a06002 	mov	r6, #2
    264c:	ea000003 	b	2660 <f_lseek+0xe8>
    2650:	e3700001 	cmn	r0, #1
    2654:	15840008 	strne	r0, [r4, #8]
    2658:	1a000002 	bne	2668 <f_lseek+0xf0>
    265c:	e3a06001 	mov	r6, #1
    2660:	e5c46011 	strb	r6, [r4, #17]
    2664:	ea00004e 	b	27a4 <f_lseek+0x22c>
    2668:	e5841018 	str	r1, [r4, #24]
    266c:	e3510000 	cmp	r1, #0
    2670:	0affffd5 	beq	25cc <f_lseek+0x54>
    2674:	e1550008 	cmp	r5, r8
    2678:	e5943014 	ldr	r3, [r4, #20]
    267c:	9a000019 	bls	26e8 <f_lseek+0x170>
    2680:	e0883003 	add	r3, r8, r3
    2684:	e5843014 	str	r3, [r4, #20]
    2688:	e5d43010 	ldrb	r3, [r4, #16]
    268c:	e0457008 	sub	r7, r5, r8
    2690:	e5940000 	ldr	r0, [r4]
    2694:	e3130002 	tst	r3, #2
    2698:	0a000003 	beq	26ac <f_lseek+0x134>
    269c:	ebfff92f 	bl	b60 <create_chain.isra.0>
    26a0:	e2505000 	subs	r5, r0, #0
    26a4:	1a000002 	bne	26b4 <f_lseek+0x13c>
    26a8:	ea00000d 	b	26e4 <f_lseek+0x16c>
    26ac:	ebfff8b7 	bl	990 <get_fat.isra.0>
    26b0:	e1a05000 	mov	r5, r0
    26b4:	e3750001 	cmn	r5, #1
    26b8:	0affffe7 	beq	265c <f_lseek+0xe4>
    26bc:	e3550001 	cmp	r5, #1
    26c0:	9affffe0 	bls	2648 <f_lseek+0xd0>
    26c4:	e59d3004 	ldr	r3, [sp, #4]
    26c8:	e5933018 	ldr	r3, [r3, #24]
    26cc:	e1530005 	cmp	r3, r5
    26d0:	9affffdc 	bls	2648 <f_lseek+0xd0>
    26d4:	e5845018 	str	r5, [r4, #24]
    26d8:	e1a01005 	mov	r1, r5
    26dc:	e1a05007 	mov	r5, r7
    26e0:	eaffffe3 	b	2674 <f_lseek+0xfc>
    26e4:	e1a01005 	mov	r1, r5
    26e8:	e5943014 	ldr	r3, [r4, #20]
    26ec:	e0833005 	add	r3, r3, r5
    26f0:	e5843014 	str	r3, [r4, #20]
    26f4:	e7e83055 	ubfx	r3, r5, #0, #9
    26f8:	e3530000 	cmp	r3, #0
    26fc:	0affffb2 	beq	25cc <f_lseek+0x54>
    2700:	e59d0004 	ldr	r0, [sp, #4]
    2704:	ebfff647 	bl	28 <clust2sect>
    2708:	e3500000 	cmp	r0, #0
    270c:	0affffcd 	beq	2648 <f_lseek+0xd0>
    2710:	e08054a5 	add	r5, r0, r5, lsr #9
    2714:	e594200c 	ldr	r2, [r4, #12]
    2718:	e5943014 	ldr	r3, [r4, #20]
    271c:	e1530002 	cmp	r3, r2
    2720:	8584300c 	strhi	r3, [r4, #12]
    2724:	85d42010 	ldrbhi	r2, [r4, #16]
    2728:	e7e83053 	ubfx	r3, r3, #0, #9
    272c:	83822040 	orrhi	r2, r2, #64	; 0x40
    2730:	85c42010 	strbhi	r2, [r4, #16]
    2734:	e3530000 	cmp	r3, #0
    2738:	0a000019 	beq	27a4 <f_lseek+0x22c>
    273c:	e594201c 	ldr	r2, [r4, #28]
    2740:	e1520005 	cmp	r2, r5
    2744:	0a000016 	beq	27a4 <f_lseek+0x22c>
    2748:	e1d431d0 	ldrsb	r3, [r4, #16]
    274c:	e2846028 	add	r6, r4, #40	; 0x28
    2750:	e3530000 	cmp	r3, #0
    2754:	aa000009 	bge	2780 <f_lseek+0x208>
    2758:	e59d0004 	ldr	r0, [sp, #4]
    275c:	e3a03001 	mov	r3, #1
    2760:	e1a01006 	mov	r1, r6
    2764:	e5d00001 	ldrb	r0, [r0, #1]
    2768:	ebfffffe 	bl	0 <disk_write>
    276c:	e3500000 	cmp	r0, #0
    2770:	1affffb9 	bne	265c <f_lseek+0xe4>
    2774:	e5d43010 	ldrb	r3, [r4, #16]
    2778:	e203307f 	and	r3, r3, #127	; 0x7f
    277c:	e5c43010 	strb	r3, [r4, #16]
    2780:	e59d0004 	ldr	r0, [sp, #4]
    2784:	e1a01006 	mov	r1, r6
    2788:	e3a03001 	mov	r3, #1
    278c:	e1a02005 	mov	r2, r5
    2790:	e5d00001 	ldrb	r0, [r0, #1]
    2794:	ebfffffe 	bl	0 <disk_read>
    2798:	e2506000 	subs	r6, r0, #0
    279c:	1affffae 	bne	265c <f_lseek+0xe4>
    27a0:	e584501c 	str	r5, [r4, #28]
    27a4:	e1a00006 	mov	r0, r6
    27a8:	e28dd00c 	add	sp, sp, #12
    27ac:	e8bd83f0 	pop	{r4, r5, r6, r7, r8, r9, pc}

000027b0 <f_opendir>:
    27b0:	e92d401f 	push	{r0, r1, r2, r3, r4, lr}
    27b4:	e2504000 	subs	r4, r0, #0
    27b8:	e58d1004 	str	r1, [sp, #4]
    27bc:	03a00009 	moveq	r0, #9
    27c0:	0a000029 	beq	286c <f_opendir+0xbc>
    27c4:	e3a02000 	mov	r2, #0
    27c8:	e28d100c 	add	r1, sp, #12
    27cc:	e28d0004 	add	r0, sp, #4
    27d0:	ebfff72e 	bl	490 <find_volume>
    27d4:	e3500000 	cmp	r0, #0
    27d8:	1a00001d 	bne	2854 <f_opendir+0xa4>
    27dc:	e59d300c 	ldr	r3, [sp, #12]
    27e0:	e1a00004 	mov	r0, r4
    27e4:	e59d1004 	ldr	r1, [sp, #4]
    27e8:	e5843000 	str	r3, [r4]
    27ec:	ebfffbf9 	bl	17d8 <follow_path>
    27f0:	e3500000 	cmp	r0, #0
    27f4:	1a000019 	bne	2860 <f_opendir+0xb0>
    27f8:	e1d432db 	ldrsb	r3, [r4, #43]	; 0x2b
    27fc:	e3530000 	cmp	r3, #0
    2800:	ba000009 	blt	282c <f_opendir+0x7c>
    2804:	e5d43006 	ldrb	r3, [r4, #6]
    2808:	e3130010 	tst	r3, #16
    280c:	1a000001 	bne	2818 <f_opendir+0x68>
    2810:	e3a00005 	mov	r0, #5
    2814:	ea00000e 	b	2854 <f_opendir+0xa4>
    2818:	e59d300c 	ldr	r3, [sp, #12]
    281c:	e594101c 	ldr	r1, [r4, #28]
    2820:	e5d30000 	ldrb	r0, [r3]
    2824:	ebfff853 	bl	978 <ld_clust.isra.0>
    2828:	e5840008 	str	r0, [r4, #8]
    282c:	e59d300c 	ldr	r3, [sp, #12]
    2830:	e3a01000 	mov	r1, #0
    2834:	e1a00004 	mov	r0, r4
    2838:	e1d330b6 	ldrh	r3, [r3, #6]
    283c:	e1c430b4 	strh	r3, [r4, #4]
    2840:	ebfff912 	bl	c90 <dir_sdi>
    2844:	e3500004 	cmp	r0, #4
    2848:	0afffff0 	beq	2810 <f_opendir+0x60>
    284c:	e3500000 	cmp	r0, #0
    2850:	0a000005 	beq	286c <f_opendir+0xbc>
    2854:	e3a03000 	mov	r3, #0
    2858:	e5843000 	str	r3, [r4]
    285c:	ea000002 	b	286c <f_opendir+0xbc>
    2860:	e3500004 	cmp	r0, #4
    2864:	0affffe9 	beq	2810 <f_opendir+0x60>
    2868:	eafffff9 	b	2854 <f_opendir+0xa4>
    286c:	e28dd010 	add	sp, sp, #16
    2870:	e8bd8010 	pop	{r4, pc}

00002874 <f_closedir>:
    2874:	e92d4013 	push	{r0, r1, r4, lr}
    2878:	e28d1004 	add	r1, sp, #4
    287c:	e1a04000 	mov	r4, r0
    2880:	ebfff621 	bl	10c <validate>
    2884:	e3500000 	cmp	r0, #0
    2888:	05840000 	streq	r0, [r4]
    288c:	e28dd008 	add	sp, sp, #8
    2890:	e8bd8010 	pop	{r4, pc}

00002894 <f_readdir>:
    2894:	e92d4073 	push	{r0, r1, r4, r5, r6, lr}
    2898:	e1a05001 	mov	r5, r1
    289c:	e28d1004 	add	r1, sp, #4
    28a0:	e1a04000 	mov	r4, r0
    28a4:	ebfff618 	bl	10c <validate>
    28a8:	e3500000 	cmp	r0, #0
    28ac:	1a000011 	bne	28f8 <f_readdir+0x64>
    28b0:	e3550000 	cmp	r5, #0
    28b4:	1a000003 	bne	28c8 <f_readdir+0x34>
    28b8:	e1a01000 	mov	r1, r0
    28bc:	e1a00004 	mov	r0, r4
    28c0:	ebfff8f2 	bl	c90 <dir_sdi>
    28c4:	ea00000b 	b	28f8 <f_readdir+0x64>
    28c8:	e1a00004 	mov	r0, r4
    28cc:	ebfffa3f 	bl	11d0 <dir_read.constprop.0>
    28d0:	e21060fb 	ands	r6, r0, #251	; 0xfb
    28d4:	1a000007 	bne	28f8 <f_readdir+0x64>
    28d8:	e1a01005 	mov	r1, r5
    28dc:	e1a00004 	mov	r0, r4
    28e0:	ebfff621 	bl	16c <get_fileinfo>
    28e4:	e1a01006 	mov	r1, r6
    28e8:	e1a00004 	mov	r0, r4
    28ec:	ebfff926 	bl	d8c <dir_next>
    28f0:	e3500004 	cmp	r0, #4
    28f4:	03a00000 	moveq	r0, #0
    28f8:	e28dd008 	add	sp, sp, #8
    28fc:	e8bd8070 	pop	{r4, r5, r6, pc}

00002900 <f_stat>:
    2900:	e92d4030 	push	{r4, r5, lr}
    2904:	e24dd03c 	sub	sp, sp, #60	; 0x3c
    2908:	e1a05001 	mov	r5, r1
    290c:	e3a02000 	mov	r2, #0
    2910:	e58d0004 	str	r0, [sp, #4]
    2914:	e28d1008 	add	r1, sp, #8
    2918:	e28d0004 	add	r0, sp, #4
    291c:	ebfff6db 	bl	490 <find_volume>
    2920:	e2504000 	subs	r4, r0, #0
    2924:	1a00000d 	bne	2960 <f_stat+0x60>
    2928:	e59d1004 	ldr	r1, [sp, #4]
    292c:	e28d0008 	add	r0, sp, #8
    2930:	ebfffba8 	bl	17d8 <follow_path>
    2934:	e2504000 	subs	r4, r0, #0
    2938:	1a000008 	bne	2960 <f_stat+0x60>
    293c:	e1dd33d3 	ldrsb	r3, [sp, #51]	; 0x33
    2940:	e3530000 	cmp	r3, #0
    2944:	b3a04006 	movlt	r4, #6
    2948:	ba000004 	blt	2960 <f_stat+0x60>
    294c:	e3550000 	cmp	r5, #0
    2950:	0a000002 	beq	2960 <f_stat+0x60>
    2954:	e1a01005 	mov	r1, r5
    2958:	e28d0008 	add	r0, sp, #8
    295c:	ebfff602 	bl	16c <get_fileinfo>
    2960:	e1a00004 	mov	r0, r4
    2964:	e28dd03c 	add	sp, sp, #60	; 0x3c
    2968:	e8bd8030 	pop	{r4, r5, pc}

0000296c <f_getfree>:
    296c:	e92d41ff 	push	{r0, r1, r2, r3, r4, r5, r6, r7, r8, lr}
    2970:	e1a07001 	mov	r7, r1
    2974:	e58d0004 	str	r0, [sp, #4]
    2978:	e1a05002 	mov	r5, r2
    297c:	e28d100c 	add	r1, sp, #12
    2980:	e3a02000 	mov	r2, #0
    2984:	e28d0004 	add	r0, sp, #4
    2988:	ebfff6c0 	bl	490 <find_volume>
    298c:	e2504000 	subs	r4, r0, #0
    2990:	1a000048 	bne	2ab8 <f_getfree+0x14c>
    2994:	e59d600c 	ldr	r6, [sp, #12]
    2998:	e5968018 	ldr	r8, [r6, #24]
    299c:	e5963014 	ldr	r3, [r6, #20]
    29a0:	e5856000 	str	r6, [r5]
    29a4:	e2482002 	sub	r2, r8, #2
    29a8:	e1530002 	cmp	r3, r2
    29ac:	95873000 	strls	r3, [r7]
    29b0:	9a000040 	bls	2ab8 <f_getfree+0x14c>
    29b4:	e5d63000 	ldrb	r3, [r6]
    29b8:	e3530001 	cmp	r3, #1
    29bc:	1a000010 	bne	2a04 <f_getfree+0x98>
    29c0:	e3a08002 	mov	r8, #2
    29c4:	e1a05004 	mov	r5, r4
    29c8:	e1a01008 	mov	r1, r8
    29cc:	e1a00006 	mov	r0, r6
    29d0:	ebfff7ee 	bl	990 <get_fat.isra.0>
    29d4:	e3700001 	cmn	r0, #1
    29d8:	0a00002b 	beq	2a8c <f_getfree+0x120>
    29dc:	e3500001 	cmp	r0, #1
    29e0:	0a00002b 	beq	2a94 <f_getfree+0x128>
    29e4:	e59d300c 	ldr	r3, [sp, #12]
    29e8:	e3500000 	cmp	r0, #0
    29ec:	e2888001 	add	r8, r8, #1
    29f0:	02855001 	addeq	r5, r5, #1
    29f4:	e5933018 	ldr	r3, [r3, #24]
    29f8:	e1530008 	cmp	r3, r8
    29fc:	8afffff1 	bhi	29c8 <f_getfree+0x5c>
    2a00:	ea000026 	b	2aa0 <f_getfree+0x134>
    2a04:	e5961024 	ldr	r1, [r6, #36]	; 0x24
    2a08:	e1a03004 	mov	r3, r4
    2a0c:	e1a02004 	mov	r2, r4
    2a10:	e1a05004 	mov	r5, r4
    2a14:	e3520000 	cmp	r2, #0
    2a18:	1a000008 	bne	2a40 <f_getfree+0xd4>
    2a1c:	e59d000c 	ldr	r0, [sp, #12]
    2a20:	e2816001 	add	r6, r1, #1
    2a24:	ebfff657 	bl	388 <move_window>
    2a28:	e3500000 	cmp	r0, #0
    2a2c:	1a00001a 	bne	2a9c <f_getfree+0x130>
    2a30:	e59d300c 	ldr	r3, [sp, #12]
    2a34:	e1a01006 	mov	r1, r6
    2a38:	e3a02c02 	mov	r2, #512	; 0x200
    2a3c:	e2833034 	add	r3, r3, #52	; 0x34
    2a40:	e59d000c 	ldr	r0, [sp, #12]
    2a44:	e5d00000 	ldrb	r0, [r0]
    2a48:	e3500002 	cmp	r0, #2
    2a4c:	1a000005 	bne	2a68 <f_getfree+0xfc>
    2a50:	e1d300b0 	ldrh	r0, [r3]
    2a54:	e2422002 	sub	r2, r2, #2
    2a58:	e2833002 	add	r3, r3, #2
    2a5c:	e3500000 	cmp	r0, #0
    2a60:	02855001 	addeq	r5, r5, #1
    2a64:	ea000005 	b	2a80 <f_getfree+0x114>
    2a68:	e1a00003 	mov	r0, r3
    2a6c:	e2422004 	sub	r2, r2, #4
    2a70:	e2833004 	add	r3, r3, #4
    2a74:	ebfff561 	bl	0 <ld_dword>
    2a78:	e3d0020f 	bics	r0, r0, #-268435456	; 0xf0000000
    2a7c:	02855001 	addeq	r5, r5, #1
    2a80:	e2588001 	subs	r8, r8, #1
    2a84:	1affffe2 	bne	2a14 <f_getfree+0xa8>
    2a88:	ea000004 	b	2aa0 <f_getfree+0x134>
    2a8c:	e3a04001 	mov	r4, #1
    2a90:	ea000002 	b	2aa0 <f_getfree+0x134>
    2a94:	e3a04002 	mov	r4, #2
    2a98:	ea000000 	b	2aa0 <f_getfree+0x134>
    2a9c:	e1a04000 	mov	r4, r0
    2aa0:	e59d300c 	ldr	r3, [sp, #12]
    2aa4:	e5875000 	str	r5, [r7]
    2aa8:	e5d32004 	ldrb	r2, [r3, #4]
    2aac:	e5835014 	str	r5, [r3, #20]
    2ab0:	e3822001 	orr	r2, r2, #1
    2ab4:	e5c32004 	strb	r2, [r3, #4]
    2ab8:	e1a00004 	mov	r0, r4
    2abc:	e28dd010 	add	sp, sp, #16
    2ac0:	e8bd81f0 	pop	{r4, r5, r6, r7, r8, pc}

00002ac4 <f_truncate>:
    2ac4:	e92d4037 	push	{r0, r1, r2, r4, r5, lr}
    2ac8:	e28d1004 	add	r1, sp, #4
    2acc:	e1a04000 	mov	r4, r0
    2ad0:	ebfff58d 	bl	10c <validate>
    2ad4:	e2505000 	subs	r5, r0, #0
    2ad8:	1a00003a 	bne	2bc8 <f_truncate+0x104>
    2adc:	e5d45011 	ldrb	r5, [r4, #17]
    2ae0:	e3550000 	cmp	r5, #0
    2ae4:	1a000037 	bne	2bc8 <f_truncate+0x104>
    2ae8:	e5d43010 	ldrb	r3, [r4, #16]
    2aec:	e3130002 	tst	r3, #2
    2af0:	03a05007 	moveq	r5, #7
    2af4:	0a000033 	beq	2bc8 <f_truncate+0x104>
    2af8:	e5943014 	ldr	r3, [r4, #20]
    2afc:	e594200c 	ldr	r2, [r4, #12]
    2b00:	e1530002 	cmp	r3, r2
    2b04:	2a00002f 	bcs	2bc8 <f_truncate+0x104>
    2b08:	e5940000 	ldr	r0, [r4]
    2b0c:	e3530000 	cmp	r3, #0
    2b10:	1a000004 	bne	2b28 <f_truncate+0x64>
    2b14:	e5941008 	ldr	r1, [r4, #8]
    2b18:	e1a02005 	mov	r2, r5
    2b1c:	ebfff7de 	bl	a9c <remove_chain.isra.0>
    2b20:	e5845008 	str	r5, [r4, #8]
    2b24:	ea000010 	b	2b6c <f_truncate+0xa8>
    2b28:	e5941018 	ldr	r1, [r4, #24]
    2b2c:	ebfff797 	bl	990 <get_fat.isra.0>
    2b30:	e3700001 	cmn	r0, #1
    2b34:	e1a01000 	mov	r1, r0
    2b38:	03a00001 	moveq	r0, #1
    2b3c:	0a00000a 	beq	2b6c <f_truncate+0xa8>
    2b40:	e3510001 	cmp	r1, #1
    2b44:	03a00002 	moveq	r0, #2
    2b48:	0a000007 	beq	2b6c <f_truncate+0xa8>
    2b4c:	e59d3004 	ldr	r3, [sp, #4]
    2b50:	e5933018 	ldr	r3, [r3, #24]
    2b54:	e1530001 	cmp	r3, r1
    2b58:	91a00005 	movls	r0, r5
    2b5c:	9a000002 	bls	2b6c <f_truncate+0xa8>
    2b60:	e5942018 	ldr	r2, [r4, #24]
    2b64:	e5940000 	ldr	r0, [r4]
    2b68:	ebfff7cb 	bl	a9c <remove_chain.isra.0>
    2b6c:	e5943014 	ldr	r3, [r4, #20]
    2b70:	e3500000 	cmp	r0, #0
    2b74:	e584300c 	str	r3, [r4, #12]
    2b78:	e5d43010 	ldrb	r3, [r4, #16]
    2b7c:	e3833040 	orr	r3, r3, #64	; 0x40
    2b80:	e5c43010 	strb	r3, [r4, #16]
    2b84:	1a00000d 	bne	2bc0 <f_truncate+0xfc>
    2b88:	e3130080 	tst	r3, #128	; 0x80
    2b8c:	0a00000d 	beq	2bc8 <f_truncate+0x104>
    2b90:	e59d0004 	ldr	r0, [sp, #4]
    2b94:	e3a03001 	mov	r3, #1
    2b98:	e594201c 	ldr	r2, [r4, #28]
    2b9c:	e2841028 	add	r1, r4, #40	; 0x28
    2ba0:	e5d00001 	ldrb	r0, [r0, #1]
    2ba4:	ebfffffe 	bl	0 <disk_write>
    2ba8:	e2505000 	subs	r5, r0, #0
    2bac:	05d43010 	ldrbeq	r3, [r4, #16]
    2bb0:	0203307f 	andeq	r3, r3, #127	; 0x7f
    2bb4:	05c43010 	strbeq	r3, [r4, #16]
    2bb8:	0a000002 	beq	2bc8 <f_truncate+0x104>
    2bbc:	e3a00001 	mov	r0, #1
    2bc0:	e5c40011 	strb	r0, [r4, #17]
    2bc4:	e1a05000 	mov	r5, r0
    2bc8:	e1a00005 	mov	r0, r5
    2bcc:	e28dd00c 	add	sp, sp, #12
    2bd0:	e8bd8030 	pop	{r4, r5, pc}

00002bd4 <f_unlink>:
    2bd4:	e92d40f0 	push	{r4, r5, r6, r7, lr}
    2bd8:	e24dd074 	sub	sp, sp, #116	; 0x74
    2bdc:	e3a02002 	mov	r2, #2
    2be0:	e28d100c 	add	r1, sp, #12
    2be4:	e58d0004 	str	r0, [sp, #4]
    2be8:	e28d0004 	add	r0, sp, #4
    2bec:	ebfff627 	bl	490 <find_volume>
    2bf0:	e59d300c 	ldr	r3, [sp, #12]
    2bf4:	e2504000 	subs	r4, r0, #0
    2bf8:	e58d3010 	str	r3, [sp, #16]
    2bfc:	1a000036 	bne	2cdc <f_unlink+0x108>
    2c00:	e59d1004 	ldr	r1, [sp, #4]
    2c04:	e28d0010 	add	r0, sp, #16
    2c08:	ebfffaf2 	bl	17d8 <follow_path>
    2c0c:	e2504000 	subs	r4, r0, #0
    2c10:	1a000031 	bne	2cdc <f_unlink+0x108>
    2c14:	e1dd33db 	ldrsb	r3, [sp, #59]	; 0x3b
    2c18:	e3530000 	cmp	r3, #0
    2c1c:	b3a04006 	movlt	r4, #6
    2c20:	ba00002d 	blt	2cdc <f_unlink+0x108>
    2c24:	e5dd7016 	ldrb	r7, [sp, #22]
    2c28:	e3170001 	tst	r7, #1
    2c2c:	0a000001 	beq	2c38 <f_unlink+0x64>
    2c30:	e3a04007 	mov	r4, #7
    2c34:	ea000028 	b	2cdc <f_unlink+0x108>
    2c38:	e59d600c 	ldr	r6, [sp, #12]
    2c3c:	e59d102c 	ldr	r1, [sp, #44]	; 0x2c
    2c40:	e5d60000 	ldrb	r0, [r6]
    2c44:	ebfff74b 	bl	978 <ld_clust.isra.0>
    2c48:	e3170010 	tst	r7, #16
    2c4c:	e1a05000 	mov	r5, r0
    2c50:	1a00000e 	bne	2c90 <f_unlink+0xbc>
    2c54:	e28d0010 	add	r0, sp, #16
    2c58:	ebfff8ab 	bl	f0c <dir_remove>
    2c5c:	e16f3f10 	clz	r3, r0
    2c60:	e3550000 	cmp	r5, #0
    2c64:	e1a04000 	mov	r4, r0
    2c68:	e1a032a3 	lsr	r3, r3, #5
    2c6c:	03a03000 	moveq	r3, #0
    2c70:	e3530000 	cmp	r3, #0
    2c74:	0a000013 	beq	2cc8 <f_unlink+0xf4>
    2c78:	e59d0010 	ldr	r0, [sp, #16]
    2c7c:	e3a02000 	mov	r2, #0
    2c80:	e1a01005 	mov	r1, r5
    2c84:	ebfff784 	bl	a9c <remove_chain.isra.0>
    2c88:	e1a04000 	mov	r4, r0
    2c8c:	ea00000d 	b	2cc8 <f_unlink+0xf4>
    2c90:	e58d0048 	str	r0, [sp, #72]	; 0x48
    2c94:	e1a01004 	mov	r1, r4
    2c98:	e58d6040 	str	r6, [sp, #64]	; 0x40
    2c9c:	e28d0040 	add	r0, sp, #64	; 0x40
    2ca0:	ebfff7fa 	bl	c90 <dir_sdi>
    2ca4:	e2504000 	subs	r4, r0, #0
    2ca8:	1a00000b 	bne	2cdc <f_unlink+0x108>
    2cac:	e28d0040 	add	r0, sp, #64	; 0x40
    2cb0:	ebfff946 	bl	11d0 <dir_read.constprop.0>
    2cb4:	e2504000 	subs	r4, r0, #0
    2cb8:	0affffdc 	beq	2c30 <f_unlink+0x5c>
    2cbc:	e3540004 	cmp	r4, #4
    2cc0:	1a000005 	bne	2cdc <f_unlink+0x108>
    2cc4:	eaffffe2 	b	2c54 <f_unlink+0x80>
    2cc8:	e3540000 	cmp	r4, #0
    2ccc:	1a000002 	bne	2cdc <f_unlink+0x108>
    2cd0:	e59d000c 	ldr	r0, [sp, #12]
    2cd4:	ebfff9a6 	bl	1374 <sync_fs>
    2cd8:	e1a04000 	mov	r4, r0
    2cdc:	e1a00004 	mov	r0, r4
    2ce0:	e28dd074 	add	sp, sp, #116	; 0x74
    2ce4:	e8bd80f0 	pop	{r4, r5, r6, r7, pc}

00002ce8 <f_mkdir>:
    2ce8:	e92d4ff0 	push	{r4, r5, r6, r7, r8, r9, sl, fp, lr}
    2cec:	e24dd044 	sub	sp, sp, #68	; 0x44
    2cf0:	e3a02002 	mov	r2, #2
    2cf4:	e28d100c 	add	r1, sp, #12
    2cf8:	e58d0004 	str	r0, [sp, #4]
    2cfc:	e28d0004 	add	r0, sp, #4
    2d00:	ebfff5e2 	bl	490 <find_volume>
    2d04:	e59d300c 	ldr	r3, [sp, #12]
    2d08:	e3500000 	cmp	r0, #0
    2d0c:	e1a04000 	mov	r4, r0
    2d10:	e58d3010 	str	r3, [sp, #16]
    2d14:	1a000072 	bne	2ee4 <f_mkdir+0x1fc>
    2d18:	e59d1004 	ldr	r1, [sp, #4]
    2d1c:	e1a05000 	mov	r5, r0
    2d20:	e28d0010 	add	r0, sp, #16
    2d24:	ebfffaab 	bl	17d8 <follow_path>
    2d28:	e2504000 	subs	r4, r0, #0
    2d2c:	03a04008 	moveq	r4, #8
    2d30:	0a00006b 	beq	2ee4 <f_mkdir+0x1fc>
    2d34:	e3540004 	cmp	r4, #4
    2d38:	1a000069 	bne	2ee4 <f_mkdir+0x1fc>
    2d3c:	e59d0010 	ldr	r0, [sp, #16]
    2d40:	e1a01005 	mov	r1, r5
    2d44:	ebfff785 	bl	b60 <create_chain.isra.0>
    2d48:	e59d200c 	ldr	r2, [sp, #12]
    2d4c:	e2505000 	subs	r5, r0, #0
    2d50:	03a04007 	moveq	r4, #7
    2d54:	e1d230ba 	ldrh	r3, [r2, #10]
    2d58:	e1a03483 	lsl	r3, r3, #9
    2d5c:	e58d301c 	str	r3, [sp, #28]
    2d60:	0a000008 	beq	2d88 <f_mkdir+0xa0>
    2d64:	e3550001 	cmp	r5, #1
    2d68:	03a04002 	moveq	r4, #2
    2d6c:	0a000005 	beq	2d88 <f_mkdir+0xa0>
    2d70:	e3750001 	cmn	r5, #1
    2d74:	03a04001 	moveq	r4, #1
    2d78:	0a000002 	beq	2d88 <f_mkdir+0xa0>
    2d7c:	e1a00002 	mov	r0, r2
    2d80:	ebfff57a 	bl	370 <sync_window>
    2d84:	e1a04000 	mov	r4, r0
    2d88:	ebfffffe 	bl	0 <get_fattime>
    2d8c:	e3540000 	cmp	r4, #0
    2d90:	e1a07000 	mov	r7, r0
    2d94:	1a00003a 	bne	2e84 <f_mkdir+0x19c>
    2d98:	e59d900c 	ldr	r9, [sp, #12]
    2d9c:	e1a01005 	mov	r1, r5
    2da0:	e3a02c02 	mov	r2, #512	; 0x200
    2da4:	e1a00009 	mov	r0, r9
    2da8:	e2898034 	add	r8, r9, #52	; 0x34
    2dac:	e289a054 	add	sl, r9, #84	; 0x54
    2db0:	ebfff49c 	bl	28 <clust2sect>
    2db4:	e1a06000 	mov	r6, r0
    2db8:	e1a01004 	mov	r1, r4
    2dbc:	e1a00008 	mov	r0, r8
    2dc0:	e3a0402e 	mov	r4, #46	; 0x2e
    2dc4:	ebfffffe 	bl	0 <memset>
    2dc8:	f2c20e10 	vmov.i8	d16, #32	; 0x20
    2dcc:	e2893037 	add	r3, r9, #55	; 0x37
    2dd0:	e1a01007 	mov	r1, r7
    2dd4:	e289004a 	add	r0, r9, #74	; 0x4a
    2dd8:	e1a02005 	mov	r2, r5
    2ddc:	f448070f 	vst1.8	{d16}, [r8]
    2de0:	f443070f 	vst1.8	{d16}, [r3]
    2de4:	e5c94034 	strb	r4, [r9, #52]	; 0x34
    2de8:	e3a03010 	mov	r3, #16
    2dec:	e5c9303f 	strb	r3, [r9, #63]	; 0x3f
    2df0:	ebfff484 	bl	8 <st_dword>
    2df4:	e59d000c 	ldr	r0, [sp, #12]
    2df8:	e1a01008 	mov	r1, r8
    2dfc:	ebfff492 	bl	4c <st_clust>
    2e00:	e3a02020 	mov	r2, #32
    2e04:	e1a0000a 	mov	r0, sl
    2e08:	ebfff531 	bl	2d4 <mem_cpy.part.0>
    2e0c:	e59d000c 	ldr	r0, [sp, #12]
    2e10:	e5c94055 	strb	r4, [r9, #85]	; 0x55
    2e14:	e5d03000 	ldrb	r3, [r0]
    2e18:	e59d2018 	ldr	r2, [sp, #24]
    2e1c:	e3530003 	cmp	r3, #3
    2e20:	1a000002 	bne	2e30 <f_mkdir+0x148>
    2e24:	e5903028 	ldr	r3, [r0, #40]	; 0x28
    2e28:	e1530002 	cmp	r3, r2
    2e2c:	03a02000 	moveq	r2, #0
    2e30:	e1a0100a 	mov	r1, sl
    2e34:	e3a0a001 	mov	sl, #1
    2e38:	ebfff483 	bl	4c <st_clust>
    2e3c:	e59d300c 	ldr	r3, [sp, #12]
    2e40:	e1d390ba 	ldrh	r9, [r3, #10]
    2e44:	e0899006 	add	r9, r9, r6
    2e48:	e1560009 	cmp	r6, r9
    2e4c:	0a000011 	beq	2e98 <f_mkdir+0x1b0>
    2e50:	e59d000c 	ldr	r0, [sp, #12]
    2e54:	e286b001 	add	fp, r6, #1
    2e58:	e5806030 	str	r6, [r0, #48]	; 0x30
    2e5c:	e5c0a003 	strb	sl, [r0, #3]
    2e60:	ebfff522 	bl	2f0 <sync_window.part.0>
    2e64:	e2504000 	subs	r4, r0, #0
    2e68:	1a000005 	bne	2e84 <f_mkdir+0x19c>
    2e6c:	e3a02c02 	mov	r2, #512	; 0x200
    2e70:	e1a01004 	mov	r1, r4
    2e74:	e1a00008 	mov	r0, r8
    2e78:	e1a0600b 	mov	r6, fp
    2e7c:	ebfffffe 	bl	0 <memset>
    2e80:	eafffff0 	b	2e48 <f_mkdir+0x160>
    2e84:	e59d0010 	ldr	r0, [sp, #16]
    2e88:	e3a02000 	mov	r2, #0
    2e8c:	e1a01005 	mov	r1, r5
    2e90:	ebfff701 	bl	a9c <remove_chain.isra.0>
    2e94:	ea000012 	b	2ee4 <f_mkdir+0x1fc>
    2e98:	e28d0010 	add	r0, sp, #16
    2e9c:	ebfff96a 	bl	144c <dir_register>
    2ea0:	e2504000 	subs	r4, r0, #0
    2ea4:	1afffff6 	bne	2e84 <f_mkdir+0x19c>
    2ea8:	e59d402c 	ldr	r4, [sp, #44]	; 0x2c
    2eac:	e1a01007 	mov	r1, r7
    2eb0:	e1a02005 	mov	r2, r5
    2eb4:	e2840016 	add	r0, r4, #22
    2eb8:	ebfff452 	bl	8 <st_dword>
    2ebc:	e59d000c 	ldr	r0, [sp, #12]
    2ec0:	e1a01004 	mov	r1, r4
    2ec4:	ebfff460 	bl	4c <st_clust>
    2ec8:	e59d000c 	ldr	r0, [sp, #12]
    2ecc:	e3a03010 	mov	r3, #16
    2ed0:	e5c4300b 	strb	r3, [r4, #11]
    2ed4:	e3a03001 	mov	r3, #1
    2ed8:	e5c03003 	strb	r3, [r0, #3]
    2edc:	ebfff924 	bl	1374 <sync_fs>
    2ee0:	e1a04000 	mov	r4, r0
    2ee4:	e1a00004 	mov	r0, r4
    2ee8:	e28dd044 	add	sp, sp, #68	; 0x44
    2eec:	e8bd8ff0 	pop	{r4, r5, r6, r7, r8, r9, sl, fp, pc}

00002ef0 <f_rename>:
    2ef0:	e92d4070 	push	{r4, r5, r6, lr}
    2ef4:	e24dd088 	sub	sp, sp, #136	; 0x88
    2ef8:	e58d0004 	str	r0, [sp, #4]
    2efc:	e1a0000d 	mov	r0, sp
    2f00:	e58d1000 	str	r1, [sp]
    2f04:	ebfff465 	bl	a0 <get_ldnumber>
    2f08:	e3a02002 	mov	r2, #2
    2f0c:	e28d100c 	add	r1, sp, #12
    2f10:	e28d0004 	add	r0, sp, #4
    2f14:	ebfff55d 	bl	490 <find_volume>
    2f18:	e3500000 	cmp	r0, #0
    2f1c:	1a000057 	bne	3080 <f_rename+0x190>
    2f20:	e59d300c 	ldr	r3, [sp, #12]
    2f24:	e28d0028 	add	r0, sp, #40	; 0x28
    2f28:	e59d1004 	ldr	r1, [sp, #4]
    2f2c:	e58d3028 	str	r3, [sp, #40]	; 0x28
    2f30:	ebfffa28 	bl	17d8 <follow_path>
    2f34:	e3500000 	cmp	r0, #0
    2f38:	1a000050 	bne	3080 <f_rename+0x190>
    2f3c:	e5dd3053 	ldrb	r3, [sp, #83]	; 0x53
    2f40:	e31300a0 	tst	r3, #160	; 0xa0
    2f44:	13a00006 	movne	r0, #6
    2f48:	1a00004c 	bne	3080 <f_rename+0x190>
    2f4c:	e59d1044 	ldr	r1, [sp, #68]	; 0x44
    2f50:	e3a02015 	mov	r2, #21
    2f54:	e28d0010 	add	r0, sp, #16
    2f58:	e281100b 	add	r1, r1, #11
    2f5c:	ebfff4dc 	bl	2d4 <mem_cpy.part.0>
    2f60:	e3a02030 	mov	r2, #48	; 0x30
    2f64:	e28d1028 	add	r1, sp, #40	; 0x28
    2f68:	e28d0058 	add	r0, sp, #88	; 0x58
    2f6c:	ebfff4d8 	bl	2d4 <mem_cpy.part.0>
    2f70:	e59d1000 	ldr	r1, [sp]
    2f74:	e28d0058 	add	r0, sp, #88	; 0x58
    2f78:	ebfffa16 	bl	17d8 <follow_path>
    2f7c:	e3500000 	cmp	r0, #0
    2f80:	1a000008 	bne	2fa8 <f_rename+0xb8>
    2f84:	e59d2060 	ldr	r2, [sp, #96]	; 0x60
    2f88:	e59d3030 	ldr	r3, [sp, #48]	; 0x30
    2f8c:	e1520003 	cmp	r2, r3
    2f90:	1a000039 	bne	307c <f_rename+0x18c>
    2f94:	e59d2068 	ldr	r2, [sp, #104]	; 0x68
    2f98:	e59d3038 	ldr	r3, [sp, #56]	; 0x38
    2f9c:	e1520003 	cmp	r2, r3
    2fa0:	1a000035 	bne	307c <f_rename+0x18c>
    2fa4:	ea000001 	b	2fb0 <f_rename+0xc0>
    2fa8:	e3500004 	cmp	r0, #4
    2fac:	1a000033 	bne	3080 <f_rename+0x190>
    2fb0:	e28d0058 	add	r0, sp, #88	; 0x58
    2fb4:	ebfff924 	bl	144c <dir_register>
    2fb8:	e3500000 	cmp	r0, #0
    2fbc:	1a00002f 	bne	3080 <f_rename+0x190>
    2fc0:	e59d5074 	ldr	r5, [sp, #116]	; 0x74
    2fc4:	e3a02013 	mov	r2, #19
    2fc8:	e28d1012 	add	r1, sp, #18
    2fcc:	e3a06001 	mov	r6, #1
    2fd0:	e285000d 	add	r0, r5, #13
    2fd4:	ebfff4be 	bl	2d4 <mem_cpy.part.0>
    2fd8:	e5dd3010 	ldrb	r3, [sp, #16]
    2fdc:	e59d400c 	ldr	r4, [sp, #12]
    2fe0:	e3833020 	orr	r3, r3, #32
    2fe4:	e5c5300b 	strb	r3, [r5, #11]
    2fe8:	e5c46003 	strb	r6, [r4, #3]
    2fec:	e5d5300b 	ldrb	r3, [r5, #11]
    2ff0:	e3130010 	tst	r3, #16
    2ff4:	0a000019 	beq	3060 <f_rename+0x170>
    2ff8:	e59d2030 	ldr	r2, [sp, #48]	; 0x30
    2ffc:	e59d3060 	ldr	r3, [sp, #96]	; 0x60
    3000:	e1520003 	cmp	r2, r3
    3004:	0a000015 	beq	3060 <f_rename+0x170>
    3008:	e5d40000 	ldrb	r0, [r4]
    300c:	e1a01005 	mov	r1, r5
    3010:	ebfff658 	bl	978 <ld_clust.isra.0>
    3014:	e1a01000 	mov	r1, r0
    3018:	e1a00004 	mov	r0, r4
    301c:	ebfff401 	bl	28 <clust2sect>
    3020:	e2501000 	subs	r1, r0, #0
    3024:	03a00002 	moveq	r0, #2
    3028:	0a000014 	beq	3080 <f_rename+0x190>
    302c:	e1a00004 	mov	r0, r4
    3030:	ebfff4d4 	bl	388 <move_window>
    3034:	e3500000 	cmp	r0, #0
    3038:	1a000010 	bne	3080 <f_rename+0x190>
    303c:	e59d000c 	ldr	r0, [sp, #12]
    3040:	e5d03055 	ldrb	r3, [r0, #85]	; 0x55
    3044:	e353002e 	cmp	r3, #46	; 0x2e
    3048:	1a000004 	bne	3060 <f_rename+0x170>
    304c:	e59d2060 	ldr	r2, [sp, #96]	; 0x60
    3050:	e2801054 	add	r1, r0, #84	; 0x54
    3054:	ebfff3fc 	bl	4c <st_clust>
    3058:	e59d300c 	ldr	r3, [sp, #12]
    305c:	e5c36003 	strb	r6, [r3, #3]
    3060:	e28d0028 	add	r0, sp, #40	; 0x28
    3064:	ebfff7a8 	bl	f0c <dir_remove>
    3068:	e3500000 	cmp	r0, #0
    306c:	1a000003 	bne	3080 <f_rename+0x190>
    3070:	e59d000c 	ldr	r0, [sp, #12]
    3074:	ebfff8be 	bl	1374 <sync_fs>
    3078:	ea000000 	b	3080 <f_rename+0x190>
    307c:	e3a00008 	mov	r0, #8
    3080:	e28dd088 	add	sp, sp, #136	; 0x88
    3084:	e8bd8070 	pop	{r4, r5, r6, pc}

00003088 <f_gets>:
    3088:	e92d41f3 	push	{r0, r1, r4, r5, r6, r7, r8, lr}
    308c:	e1a04000 	mov	r4, r0
    3090:	e1a08002 	mov	r8, r2
    3094:	e1a06000 	mov	r6, r0
    3098:	e3a05000 	mov	r5, #0
    309c:	e2417001 	sub	r7, r1, #1
    30a0:	e1550007 	cmp	r5, r7
    30a4:	aa00000e 	bge	30e4 <f_gets+0x5c>
    30a8:	e28d3004 	add	r3, sp, #4
    30ac:	e3a02001 	mov	r2, #1
    30b0:	e1a0100d 	mov	r1, sp
    30b4:	e1a00008 	mov	r0, r8
    30b8:	ebfffffe 	bl	1efc <f_read>
    30bc:	e59d3004 	ldr	r3, [sp, #4]
    30c0:	e3530001 	cmp	r3, #1
    30c4:	1a000006 	bne	30e4 <f_gets+0x5c>
    30c8:	e5dd3000 	ldrb	r3, [sp]
    30cc:	e353000d 	cmp	r3, #13
    30d0:	0afffff2 	beq	30a0 <f_gets+0x18>
    30d4:	e4c63001 	strb	r3, [r6], #1
    30d8:	e353000a 	cmp	r3, #10
    30dc:	e2855001 	add	r5, r5, #1
    30e0:	1affffee 	bne	30a0 <f_gets+0x18>
    30e4:	e3a03000 	mov	r3, #0
    30e8:	e1550003 	cmp	r5, r3
    30ec:	e5c63000 	strb	r3, [r6]
    30f0:	11a00004 	movne	r0, r4
    30f4:	01a00003 	moveq	r0, r3
    30f8:	e28dd008 	add	sp, sp, #8
    30fc:	e8bd81f0 	pop	{r4, r5, r6, r7, r8, pc}

00003100 <f_putc>:
    3100:	e52de004 	push	{lr}		; (str lr, [sp, #-4]!)
    3104:	e24dd054 	sub	sp, sp, #84	; 0x54
    3108:	e3a03000 	mov	r3, #0
    310c:	e58d1004 	str	r1, [sp, #4]
    3110:	e1a01000 	mov	r1, r0
    3114:	e58d3008 	str	r3, [sp, #8]
    3118:	e28d0004 	add	r0, sp, #4
    311c:	e58d300c 	str	r3, [sp, #12]
    3120:	ebfffc9e 	bl	23a0 <putc_bfd>
    3124:	e28d0004 	add	r0, sp, #4
    3128:	ebfffcb9 	bl	2414 <putc_flush>
    312c:	e28dd054 	add	sp, sp, #84	; 0x54
    3130:	e49df004 	pop	{pc}		; (ldr pc, [sp], #4)

00003134 <f_puts>:
    3134:	e92d4010 	push	{r4, lr}
    3138:	e2404001 	sub	r4, r0, #1
    313c:	e24dd050 	sub	sp, sp, #80	; 0x50
    3140:	e3a03000 	mov	r3, #0
    3144:	e58d1004 	str	r1, [sp, #4]
    3148:	e58d3008 	str	r3, [sp, #8]
    314c:	e58d300c 	str	r3, [sp, #12]
    3150:	e5f41001 	ldrb	r1, [r4, #1]!
    3154:	e28d0004 	add	r0, sp, #4
    3158:	e3510000 	cmp	r1, #0
    315c:	0a000001 	beq	3168 <f_puts+0x34>
    3160:	ebfffc8e 	bl	23a0 <putc_bfd>
    3164:	eafffff9 	b	3150 <f_puts+0x1c>
    3168:	ebfffca9 	bl	2414 <putc_flush>
    316c:	e28dd050 	add	sp, sp, #80	; 0x50
    3170:	e8bd8010 	pop	{r4, pc}

00003174 <f_printf>:
    3174:	e92d000e 	push	{r1, r2, r3}
    3178:	e3a02000 	mov	r2, #0
    317c:	e92d4ff0 	push	{r4, r5, r6, r7, r8, r9, sl, fp, lr}
    3180:	e24dd078 	sub	sp, sp, #120	; 0x78
    3184:	e59d309c 	ldr	r3, [sp, #156]	; 0x9c
    3188:	e58d2030 	str	r2, [sp, #48]	; 0x30
    318c:	e58d2034 	str	r2, [sp, #52]	; 0x34
    3190:	e28d20a0 	add	r2, sp, #160	; 0xa0
    3194:	e58d002c 	str	r0, [sp, #44]	; 0x2c
    3198:	e58d2008 	str	r2, [sp, #8]
    319c:	e5d31000 	ldrb	r1, [r3]
    31a0:	e3510000 	cmp	r1, #0
    31a4:	0a0000b8 	beq	348c <f_printf+0x318>
    31a8:	e3510025 	cmp	r1, #37	; 0x25
    31ac:	12835001 	addne	r5, r3, #1
    31b0:	1a000069 	bne	335c <f_printf+0x1e8>
    31b4:	e5d31001 	ldrb	r1, [r3, #1]
    31b8:	e3510030 	cmp	r1, #48	; 0x30
    31bc:	02835003 	addeq	r5, r3, #3
    31c0:	03a04001 	moveq	r4, #1
    31c4:	05d31002 	ldrbeq	r1, [r3, #2]
    31c8:	0a000005 	beq	31e4 <f_printf+0x70>
    31cc:	e351002d 	cmp	r1, #45	; 0x2d
    31d0:	02835003 	addeq	r5, r3, #3
    31d4:	03a04002 	moveq	r4, #2
    31d8:	05d31002 	ldrbeq	r1, [r3, #2]
    31dc:	12835002 	addne	r5, r3, #2
    31e0:	13a04000 	movne	r4, #0
    31e4:	e3a07000 	mov	r7, #0
    31e8:	e2413030 	sub	r3, r1, #48	; 0x30
    31ec:	e3530009 	cmp	r3, #9
    31f0:	8a000004 	bhi	3208 <f_printf+0x94>
    31f4:	e3a0300a 	mov	r3, #10
    31f8:	e0271793 	mla	r7, r3, r7, r1
    31fc:	e4d51001 	ldrb	r1, [r5], #1
    3200:	e2477030 	sub	r7, r7, #48	; 0x30
    3204:	eafffff7 	b	31e8 <f_printf+0x74>
    3208:	e20130df 	and	r3, r1, #223	; 0xdf
    320c:	e353004c 	cmp	r3, #76	; 0x4c
    3210:	03844004 	orreq	r4, r4, #4
    3214:	04d51001 	ldrbeq	r1, [r5], #1
    3218:	e3510000 	cmp	r1, #0
    321c:	0a00009a 	beq	348c <f_printf+0x318>
    3220:	e2413061 	sub	r3, r1, #97	; 0x61
    3224:	e3530019 	cmp	r3, #25
    3228:	92413020 	subls	r3, r1, #32
    322c:	81a03001 	movhi	r3, r1
    3230:	96ef3073 	uxtbls	r3, r3
    3234:	e3530058 	cmp	r3, #88	; 0x58
    3238:	8a000047 	bhi	335c <f_printf+0x1e8>
    323c:	e353004e 	cmp	r3, #78	; 0x4e
    3240:	8a000007 	bhi	3264 <f_printf+0xf0>
    3244:	e3530043 	cmp	r3, #67	; 0x43
    3248:	0a00003c 	beq	3340 <f_printf+0x1cc>
    324c:	e3530044 	cmp	r3, #68	; 0x44
    3250:	0a000044 	beq	3368 <f_printf+0x1f4>
    3254:	e3530042 	cmp	r3, #66	; 0x42
    3258:	03a09002 	moveq	r9, #2
    325c:	0a000042 	beq	336c <f_printf+0x1f8>
    3260:	ea00003d 	b	335c <f_printf+0x1e8>
    3264:	e243204f 	sub	r2, r3, #79	; 0x4f
    3268:	e3520009 	cmp	r2, #9
    326c:	979ff102 	ldrls	pc, [pc, r2, lsl #2]
    3270:	ea000039 	b	335c <f_printf+0x1e8>
    3274:	0000329c 	muleq	r0, ip, r2
    3278:	0000335c 	andeq	r3, r0, ip, asr r3
    327c:	0000335c 	andeq	r3, r0, ip, asr r3
    3280:	0000335c 	andeq	r3, r0, ip, asr r3
    3284:	000032a4 	andeq	r3, r0, r4, lsr #5
    3288:	0000335c 	andeq	r3, r0, ip, asr r3
    328c:	00003368 	andeq	r3, r0, r8, ror #6
    3290:	0000335c 	andeq	r3, r0, ip, asr r3
    3294:	0000335c 	andeq	r3, r0, ip, asr r3
    3298:	00003354 	andeq	r3, r0, r4, asr r3
    329c:	e3a09008 	mov	r9, #8
    32a0:	ea000031 	b	336c <f_printf+0x1f8>
    32a4:	e59d3008 	ldr	r3, [sp, #8]
    32a8:	e3a09000 	mov	r9, #0
    32ac:	e5938000 	ldr	r8, [r3]
    32b0:	e2832004 	add	r2, r3, #4
    32b4:	e58d2008 	str	r2, [sp, #8]
    32b8:	e7d83009 	ldrb	r3, [r8, r9]
    32bc:	e1a06009 	mov	r6, r9
    32c0:	e2899001 	add	r9, r9, #1
    32c4:	e3530000 	cmp	r3, #0
    32c8:	1afffffa 	bne	32b8 <f_printf+0x144>
    32cc:	e3140002 	tst	r4, #2
    32d0:	1a00000b 	bne	3304 <f_printf+0x190>
    32d4:	e1a04006 	mov	r4, r6
    32d8:	e1570004 	cmp	r7, r4
    32dc:	9a000004 	bls	32f4 <f_printf+0x180>
    32e0:	e3a01020 	mov	r1, #32
    32e4:	e28d002c 	add	r0, sp, #44	; 0x2c
    32e8:	e2844001 	add	r4, r4, #1
    32ec:	ebfffc2b 	bl	23a0 <putc_bfd>
    32f0:	eafffff8 	b	32d8 <f_printf+0x164>
    32f4:	e1560007 	cmp	r6, r7
    32f8:	90476006 	subls	r6, r7, r6
    32fc:	83a06000 	movhi	r6, #0
    3300:	e0896006 	add	r6, r9, r6
    3304:	e2488001 	sub	r8, r8, #1
    3308:	e5f81001 	ldrb	r1, [r8, #1]!
    330c:	e3510000 	cmp	r1, #0
    3310:	0a000006 	beq	3330 <f_printf+0x1bc>
    3314:	e28d002c 	add	r0, sp, #44	; 0x2c
    3318:	ebfffc20 	bl	23a0 <putc_bfd>
    331c:	eafffff9 	b	3308 <f_printf+0x194>
    3320:	e3a01020 	mov	r1, #32
    3324:	e28d002c 	add	r0, sp, #44	; 0x2c
    3328:	e2866001 	add	r6, r6, #1
    332c:	ebfffc1b 	bl	23a0 <putc_bfd>
    3330:	e1560007 	cmp	r6, r7
    3334:	3afffff9 	bcc	3320 <f_printf+0x1ac>
    3338:	e1a03005 	mov	r3, r5
    333c:	eaffff96 	b	319c <f_printf+0x28>
    3340:	e59d3008 	ldr	r3, [sp, #8]
    3344:	e5d31000 	ldrb	r1, [r3]
    3348:	e2832004 	add	r2, r3, #4
    334c:	e58d2008 	str	r2, [sp, #8]
    3350:	ea000001 	b	335c <f_printf+0x1e8>
    3354:	e3a09010 	mov	r9, #16
    3358:	ea000003 	b	336c <f_printf+0x1f8>
    335c:	e28d002c 	add	r0, sp, #44	; 0x2c
    3360:	ebfffc0e 	bl	23a0 <putc_bfd>
    3364:	eafffff3 	b	3338 <f_printf+0x1c4>
    3368:	e3a0900a 	mov	r9, #10
    336c:	e59d2008 	ldr	r2, [sp, #8]
    3370:	e3a0a000 	mov	sl, #0
    3374:	e2820004 	add	r0, r2, #4
    3378:	e58d0008 	str	r0, [sp, #8]
    337c:	e5928000 	ldr	r8, [r2]
    3380:	e1a02fa8 	lsr	r2, r8, #31
    3384:	e3530044 	cmp	r3, #68	; 0x44
    3388:	13a02000 	movne	r2, #0
    338c:	02022001 	andeq	r2, r2, #1
    3390:	e28d300c 	add	r3, sp, #12
    3394:	e3520000 	cmp	r2, #0
    3398:	e1a0b003 	mov	fp, r3
    339c:	12688000 	rsbne	r8, r8, #0
    33a0:	13844008 	orrne	r4, r4, #8
    33a4:	e3510078 	cmp	r1, #120	; 0x78
    33a8:	03a02027 	moveq	r2, #39	; 0x27
    33ac:	13a02007 	movne	r2, #7
    33b0:	e58d2004 	str	r2, [sp, #4]
    33b4:	e1a00008 	mov	r0, r8
    33b8:	e58d3000 	str	r3, [sp]
    33bc:	e1a01009 	mov	r1, r9
    33c0:	e28a6001 	add	r6, sl, #1
    33c4:	ebfffffe 	bl	0 <__aeabi_uidivmod>
    33c8:	e59d2004 	ldr	r2, [sp, #4]
    33cc:	e6efc071 	uxtb	ip, r1
    33d0:	e59d3000 	ldr	r3, [sp]
    33d4:	e3510009 	cmp	r1, #9
    33d8:	8082c00c 	addhi	ip, r2, ip
    33dc:	e1a0e008 	mov	lr, r8
    33e0:	86efc07c 	uxtbhi	ip, ip
    33e4:	e1a08000 	mov	r8, r0
    33e8:	e159000e 	cmp	r9, lr
    33ec:	9356001f 	cmpls	r6, #31
    33f0:	e28cc030 	add	ip, ip, #48	; 0x30
    33f4:	e4c3c001 	strb	ip, [r3], #1
    33f8:	91a0a006 	movls	sl, r6
    33fc:	9affffeb 	bls	33b0 <f_printf+0x23c>
    3400:	e3140008 	tst	r4, #8
    3404:	128d3078 	addne	r3, sp, #120	; 0x78
    3408:	10836006 	addne	r6, r3, r6
    340c:	13a0302d 	movne	r3, #45	; 0x2d
    3410:	1546306c 	strbne	r3, [r6, #-108]	; 0xffffff94
    3414:	128a6002 	addne	r6, sl, #2
    3418:	e3140001 	tst	r4, #1
    341c:	e1a09006 	mov	r9, r6
    3420:	13a08030 	movne	r8, #48	; 0x30
    3424:	03a08020 	moveq	r8, #32
    3428:	e2044002 	and	r4, r4, #2
    342c:	e3540000 	cmp	r4, #0
    3430:	e289a001 	add	sl, r9, #1
    3434:	1a000007 	bne	3458 <f_printf+0x2e4>
    3438:	e1590007 	cmp	r9, r7
    343c:	2a000004 	bcs	3454 <f_printf+0x2e0>
    3440:	e1a01008 	mov	r1, r8
    3444:	e28d002c 	add	r0, sp, #44	; 0x2c
    3448:	e1a0900a 	mov	r9, sl
    344c:	ebfffbd3 	bl	23a0 <putc_bfd>
    3450:	eafffff5 	b	342c <f_printf+0x2b8>
    3454:	e1a0900a 	mov	r9, sl
    3458:	e2466001 	sub	r6, r6, #1
    345c:	e28d002c 	add	r0, sp, #44	; 0x2c
    3460:	e7db1006 	ldrb	r1, [fp, r6]
    3464:	ebfffbcd 	bl	23a0 <putc_bfd>
    3468:	e3560000 	cmp	r6, #0
    346c:	1afffff9 	bne	3458 <f_printf+0x2e4>
    3470:	e1570009 	cmp	r7, r9
    3474:	9affffaf 	bls	3338 <f_printf+0x1c4>
    3478:	e1a01008 	mov	r1, r8
    347c:	e28d002c 	add	r0, sp, #44	; 0x2c
    3480:	e2899001 	add	r9, r9, #1
    3484:	ebfffbc5 	bl	23a0 <putc_bfd>
    3488:	eafffff8 	b	3470 <f_printf+0x2fc>
    348c:	e28d002c 	add	r0, sp, #44	; 0x2c
    3490:	ebfffbdf 	bl	2414 <putc_flush>
    3494:	e28dd078 	add	sp, sp, #120	; 0x78
    3498:	e8bd4ff0 	pop	{r4, r5, r6, r7, r8, r9, sl, fp, lr}
    349c:	e28dd00c 	add	sp, sp, #12
    34a0:	e12fff1e 	bx	lr

Disassembly of section .bss:

00000000 <FatFs>:
   0:	00000000 	andeq	r0, r0, r0

00000004 <Fsid>:
   4:	00000000 	andeq	r0, r0, r0

00000008 <LfnBuf>:
	...

Disassembly of section .rodata.str1.1:

00000000 <.rodata.str1.1>:
   0:	3c3a2a22 			; <UNDEFINED> instruction: 0x3c3a2a22
   4:	7f7c3f3e 	svcvc	0x007c3f3e
   8:	3b2c2b00 	blcc	b0ac10 <f_printf+0xb07a9c>
   c:	005d5b3d 	subseq	r5, sp, sp, lsr fp

Disassembly of section .rodata:

00000000 <LfnOfs>:
   0:	07050301 	streq	r0, [r5, -r1, lsl #6]
   4:	12100e09 	andsne	r0, r0, #9, 28	; 0x90
   8:	1c181614 	ldcne	6, cr1, [r8], {20}
   c:	0000001e 	andeq	r0, r0, lr, lsl r0

00000010 <ExCvt>:
  10:	41455543 	cmpmi	r5, r3, asr #10
  14:	43414141 	movtmi	r4, #4417	; 0x1141
  18:	49454545 	stmdbmi	r5, {r0, r2, r6, r8, sl, lr}^
  1c:	41414949 	cmpmi	r1, r9, asr #18
  20:	4f929245 	svcmi	0x00929245
  24:	55554f4f 	ldrbpl	r4, [r5, #-3919]	; 0xfffff0b1
  28:	4f554f59 	svcmi	0x00554f59
  2c:	9f9e4f9c 	svcls	0x009e4f9c
  30:	554f4941 	strbpl	r4, [pc, #-2369]	; fffff6f7 <f_printf+0xffffc583>
  34:	a7a6a5a5 	strge	sl, [r6, r5, lsr #11]!
  38:	abaaa9a8 	blge	feaaa6e0 <f_printf+0xfeaa756c>
  3c:	afaeadac 	svcge	0x00aeadac
  40:	b3b2b1b0 			; <UNDEFINED> instruction: 0xb3b2b1b0
  44:	414141b4 	strhmi	r4, [r1, #-20]	; 0xffffffec
  48:	bbbab9b8 	bllt	feeae730 <f_printf+0xfeeab5bc>
  4c:	bfbebdbc 	svclt	0x00bebdbc
  50:	c3c2c1c0 	bicgt	ip, r2, #192, 2	; 0x30
  54:	4141c5c4 	smlalbtmi	ip, r1, r4, r5
  58:	cbcac9c8 	blgt	ff2b2780 <f_printf+0xff2af60c>
  5c:	cfcecdcc 	svcgt	0x00cecdcc
  60:	4545d1d1 	strbmi	sp, [r5, #-465]	; 0xfffffe2f
  64:	49494945 	stmdbmi	r9, {r0, r2, r6, r8, fp, lr}^
  68:	dbdad949 	blle	ff6b6594 <f_printf+0xff6b3420>
  6c:	df49dddc 	svcle	0x0049dddc
  70:	4f4fe14f 	svcmi	0x004fe14f
  74:	e8e64f4f 	stmia	r6!, {r0, r1, r2, r3, r6, r8, r9, sl, fp, lr}^
  78:	555555e8 	ldrbpl	r5, [r5, #-1512]	; 0xfffffa18
  7c:	efee5959 	svc	0x00ee5959
  80:	f3f2f1f0 	vsra.u64	<illegal reg q15.5>, q8, #14
  84:	f7f6f5f4 			; <UNDEFINED> instruction: 0xf7f6f5f4
  88:	fbfaf9f8 	blx	ffebe872 <f_printf+0xffebb6fe>
  8c:	fffefdfc 			; <UNDEFINED> instruction: 0xfffefdfc

Disassembly of section .comment:

00000000 <.comment>:
   0:	43434700 	movtmi	r4, #14080	; 0x3700
   4:	4728203a 			; <UNDEFINED> instruction: 0x4728203a
   8:	2029554e 	eorcs	r5, r9, lr, asr #10
   c:	322e3031 	eorcc	r3, lr, #49	; 0x31
  10:	Address 0x0000000000000010 is out of bounds.


Disassembly of section .ARM.attributes:

00000000 <.ARM.attributes>:
   0:	00003441 	andeq	r3, r0, r1, asr #8
   4:	61656100 	cmnvs	r5, r0, lsl #2
   8:	01006962 	tsteq	r0, r2, ror #18
   c:	0000002a 	andeq	r0, r0, sl, lsr #32
  10:	412d3705 			; <UNDEFINED> instruction: 0x412d3705
  14:	070a0600 	streq	r0, [sl, -r0, lsl #12]
  18:	09010841 	stmdbeq	r1, {r0, r6, fp}
  1c:	0c050a02 			; <UNDEFINED> instruction: 0x0c050a02
  20:	14041202 	strne	r1, [r4], #-514	; 0xfffffdfe
  24:	17011501 	strne	r1, [r1, -r1, lsl #10]
  28:	19011803 	stmdbne	r1, {r0, r1, fp, ip}
  2c:	1c011a01 			; <UNDEFINED> instruction: 0x1c011a01
  30:	22021e01 	andcs	r1, r2, #1, 28
  34:	Address 0x0000000000000034 is out of bounds.


ccsbcs.o:     file format elf32-littlearm


Disassembly of section .text:

00000000 <ff_convert>:
   0:	e350007f 	cmp	r0, #127	; 0x7f
   4:	912fff1e 	bxls	lr
   8:	e3510000 	cmp	r1, #0
   c:	0a000006 	beq	2c <ff_convert+0x2c>
  10:	e35000ff 	cmp	r0, #255	; 0xff
  14:	8a000010 	bhi	5c <ff_convert+0x5c>
  18:	e59f3044 	ldr	r3, [pc, #68]	; 64 <ff_convert+0x64>
  1c:	e2400080 	sub	r0, r0, #128	; 0x80
  20:	e1a00080 	lsl	r0, r0, #1
  24:	e19300b0 	ldrh	r0, [r3, r0]
  28:	e12fff1e 	bx	lr
  2c:	e59f2030 	ldr	r2, [pc, #48]	; 64 <ff_convert+0x64>
  30:	e0d2c0b2 	ldrh	ip, [r2], #2
  34:	e6ff3071 	uxth	r3, r1
  38:	e15c0000 	cmp	ip, r0
  3c:	0a000003 	beq	50 <ff_convert+0x50>
  40:	e2811001 	add	r1, r1, #1
  44:	e3510080 	cmp	r1, #128	; 0x80
  48:	1afffff8 	bne	30 <ff_convert+0x30>
  4c:	e1a03001 	mov	r3, r1
  50:	e2830080 	add	r0, r3, #128	; 0x80
  54:	e6ef0070 	uxtb	r0, r0
  58:	e12fff1e 	bx	lr
  5c:	e3a00000 	mov	r0, #0
  60:	e12fff1e 	bx	lr
  64:	00000000 	andeq	r0, r0, r0

00000068 <ff_wtoupper>:
  68:	e59f30ec 	ldr	r3, [pc, #236]	; 15c <ff_wtoupper+0xf4>
  6c:	e3500a01 	cmp	r0, #4096	; 0x1000
  70:	e92d4010 	push	{r4, lr}
  74:	e2832f7d 	add	r2, r3, #500	; 0x1f4
  78:	21a03002 	movcs	r3, r2
  7c:	e2831004 	add	r1, r3, #4
  80:	e15130b4 	ldrh	r3, [r1, #-4]
  84:	e1a02001 	mov	r2, r1
  88:	e1500003 	cmp	r0, r3
  8c:	23a0c000 	movcs	ip, #0
  90:	33a0c001 	movcc	ip, #1
  94:	e3530000 	cmp	r3, #0
  98:	038cc001 	orreq	ip, ip, #1
  9c:	e35c0000 	cmp	ip, #0
  a0:	18bd8010 	popne	{r4, pc}
  a4:	e151c0b2 	ldrh	ip, [r1, #-2]
  a8:	e1a0e42c 	lsr	lr, ip, #8
  ac:	e6ef407c 	uxtb	r4, ip
  b0:	e6e3c07c 	uxtab	ip, r3, ip
  b4:	e150000c 	cmp	r0, ip
  b8:	aa000021 	bge	144 <ff_wtoupper+0xdc>
  bc:	e35e0008 	cmp	lr, #8
  c0:	979ff10e 	ldrls	pc, [pc, lr, lsl #2]
  c4:	ea000023 	b	158 <ff_wtoupper+0xf0>
  c8:	000000ec 	andeq	r0, r0, ip, ror #1
  cc:	000000fc 	strdeq	r0, [r0], -ip
  d0:	0000010c 	andeq	r0, r0, ip, lsl #2
  d4:	0000013c 	andeq	r0, r0, ip, lsr r1
  d8:	00000118 	andeq	r0, r0, r8, lsl r1
  dc:	00000120 	andeq	r0, r0, r0, lsr #2
  e0:	00000128 	andeq	r0, r0, r8, lsr #2
  e4:	00000130 	andeq	r0, r0, r0, lsr r1
  e8:	00000138 	andeq	r0, r0, r8, lsr r1
  ec:	e0400003 	sub	r0, r0, r3
  f0:	e1a00080 	lsl	r0, r0, #1
  f4:	e19100b0 	ldrh	r0, [r1, r0]
  f8:	e8bd8010 	pop	{r4, pc}
  fc:	e0403003 	sub	r3, r0, r3
 100:	e2033001 	and	r3, r3, #1
 104:	e0400003 	sub	r0, r0, r3
 108:	ea000000 	b	110 <ff_wtoupper+0xa8>
 10c:	e2400010 	sub	r0, r0, #16
 110:	e6ff0070 	uxth	r0, r0
 114:	e8bd8010 	pop	{r4, pc}
 118:	e2400030 	sub	r0, r0, #48	; 0x30
 11c:	eafffffb 	b	110 <ff_wtoupper+0xa8>
 120:	e240001a 	sub	r0, r0, #26
 124:	eafffff9 	b	110 <ff_wtoupper+0xa8>
 128:	e2800008 	add	r0, r0, #8
 12c:	eafffff7 	b	110 <ff_wtoupper+0xa8>
 130:	e2400050 	sub	r0, r0, #80	; 0x50
 134:	eafffff5 	b	110 <ff_wtoupper+0xa8>
 138:	e2400d71 	sub	r0, r0, #7232	; 0x1c40
 13c:	e2400020 	sub	r0, r0, #32
 140:	eafffff2 	b	110 <ff_wtoupper+0xa8>
 144:	e35e0000 	cmp	lr, #0
 148:	e2811004 	add	r1, r1, #4
 14c:	1affffcb 	bne	80 <ff_wtoupper+0x18>
 150:	e0823084 	add	r3, r2, r4, lsl #1
 154:	eaffffc8 	b	7c <ff_wtoupper+0x14>
 158:	e8bd8010 	pop	{r4, pc}
 15c:	00000100 	andeq	r0, r0, r0, lsl #2

Disassembly of section .rodata:

00000000 <Tbl>:
   0:	00fc00c7 	rscseq	r0, ip, r7, asr #1
   4:	00e200e9 	rsceq	r0, r2, r9, ror #1
   8:	00e000e4 	rsceq	r0, r0, r4, ror #1
   c:	00e700e5 	rsceq	r0, r7, r5, ror #1
  10:	00eb00ea 	rsceq	r0, fp, sl, ror #1
  14:	00ef00e8 	rsceq	r0, pc, r8, ror #1
  18:	00ec00ee 	rsceq	r0, ip, lr, ror #1
  1c:	00c500c4 	sbceq	r0, r5, r4, asr #1
  20:	00e600c9 	rsceq	r0, r6, r9, asr #1
  24:	00f400c6 	rscseq	r0, r4, r6, asr #1
  28:	00f200f6 	ldrshteq	r0, [r2], #6
  2c:	00f900fb 	ldrshteq	r0, [r9], #11
  30:	00d600ff 	ldrsheq	r0, [r6], #15
  34:	00f800dc 	ldrsbteq	r0, [r8], #12
  38:	00d800a3 	sbcseq	r0, r8, r3, lsr #1
  3c:	019200d7 	ldrsbeq	r0, [r2, r7]
  40:	00ed00e1 	rsceq	r0, sp, r1, ror #1
  44:	00fa00f3 	ldrshteq	r0, [sl], #3
  48:	00d100f1 	ldrsheq	r0, [r1], #1
  4c:	00ba00aa 	adcseq	r0, sl, sl, lsr #1
  50:	00ae00bf 	strhteq	r0, [lr], pc
  54:	00bd00ac 	adcseq	r0, sp, ip, lsr #1
  58:	00a100bc 	strhteq	r0, [r1], ip
  5c:	00bb00ab 	adcseq	r0, fp, fp, lsr #1
  60:	25922591 	ldrcs	r2, [r2, #1425]	; 0x591
  64:	25022593 	strcs	r2, [r2, #-1427]	; 0xfffffa6d
  68:	00c12524 	sbceq	r2, r1, r4, lsr #10
  6c:	00c000c2 	sbceq	r0, r0, r2, asr #1
  70:	256300a9 	strbcs	r0, [r3, #-169]!	; 0xffffff57
  74:	25572551 	ldrbcs	r2, [r7, #-1361]	; 0xfffffaaf
  78:	00a2255d 	adceq	r2, r2, sp, asr r5
  7c:	251000a5 	ldrcs	r0, [r0, #-165]	; 0xffffff5b
  80:	25342514 	ldrcs	r2, [r4, #-1300]!	; 0xfffffaec
  84:	251c252c 	ldrcs	r2, [ip, #-1324]	; 0xfffffad4
  88:	253c2500 	ldrcs	r2, [ip, #-1280]!	; 0xfffffb00
  8c:	00c300e3 	sbceq	r0, r3, r3, ror #1
  90:	2554255a 	ldrbcs	r2, [r4, #-1370]	; 0xfffffaa6
  94:	25662569 	strbcs	r2, [r6, #-1385]!	; 0xfffffa97
  98:	25502560 	ldrbcs	r2, [r0, #-1376]	; 0xfffffaa0
  9c:	00a4256c 	adceq	r2, r4, ip, ror #10
  a0:	00d000f0 	ldrsheq	r0, [r0], #0
  a4:	00cb00ca 	sbceq	r0, fp, sl, asr #1
  a8:	013100c8 	teqeq	r1, r8, asr #1
  ac:	00ce00cd 	sbceq	r0, lr, sp, asr #1
  b0:	251800cf 	ldrcs	r0, [r8, #-207]	; 0xffffff31
  b4:	2588250c 	strcs	r2, [r8, #1292]	; 0x50c
  b8:	00a62584 	adceq	r2, r6, r4, lsl #11
  bc:	258000cc 	strcs	r0, [r0, #204]	; 0xcc
  c0:	00df00d3 	ldrsbeq	r0, [pc], #3	; <UNPREDICTABLE>
  c4:	00d200d4 	ldrsbeq	r0, [r2], #4
  c8:	00d500f5 	ldrsheq	r0, [r5], #5
  cc:	00fe00b5 	ldrhteq	r0, [lr], #5
  d0:	00da00de 	ldrsbeq	r0, [sl], #14
  d4:	00d900db 	ldrsbeq	r0, [r9], #11
  d8:	00dd00fd 	ldrsheq	r0, [sp], #13
  dc:	00b400af 	adcseq	r0, r4, pc, lsr #1
  e0:	00b100ad 	adcseq	r0, r1, sp, lsr #1
  e4:	00be2017 	adcseq	r2, lr, r7, lsl r0
  e8:	00a700b6 	strhteq	r0, [r7], r6
  ec:	00b800f7 	ldrshteq	r0, [r8], r7
  f0:	00a800b0 	strhteq	r0, [r8], r0
  f4:	00b900b7 	ldrhteq	r0, [r9], r7
  f8:	00b200b3 	ldrhteq	r0, [r2], r3
  fc:	00a025a0 	adceq	r2, r0, r0, lsr #11

00000100 <cvt1.1>:
 100:	031a0061 	tsteq	sl, #97	; 0x61
 104:	031700e0 	tsteq	r7, #224	; 0xe0
 108:	030700f8 	movweq	r0, #28920	; 0x70f8
 10c:	000100ff 	strdeq	r0, [r1], -pc	; <UNPREDICTABLE>
 110:	01000178 	tsteq	r0, r8, ror r1
 114:	01320130 	teqeq	r2, r0, lsr r1
 118:	01390106 	teqeq	r9, r6, lsl #2
 11c:	014a0110 	cmpeq	sl, r0, lsl r1
 120:	0179012e 	cmneq	r9, lr, lsr #2
 124:	01800106 	orreq	r0, r0, r6, lsl #2
 128:	0243004d 	subeq	r0, r3, #77	; 0x4d
 12c:	01820181 	orreq	r0, r2, r1, lsl #3
 130:	01840182 	orreq	r0, r4, r2, lsl #3
 134:	01860184 	orreq	r0, r6, r4, lsl #3
 138:	01870187 	orreq	r0, r7, r7, lsl #3
 13c:	018a0189 	orreq	r0, sl, r9, lsl #3
 140:	018b018b 	orreq	r0, fp, fp, lsl #3
 144:	018e018d 	orreq	r0, lr, sp, lsl #3
 148:	0190018f 	orrseq	r0, r0, pc, lsl #3
 14c:	01910191 			; <UNDEFINED> instruction: 0x01910191
 150:	01940193 			; <UNDEFINED> instruction: 0x01940193
 154:	019601f6 			; <UNDEFINED> instruction: 0x019601f6
 158:	01980197 			; <UNDEFINED> instruction: 0x01980197
 15c:	023d0198 	eorseq	r0, sp, #152, 2	; 0x26
 160:	019c019b 			; <UNDEFINED> instruction: 0x019c019b
 164:	0220019d 	eoreq	r0, r0, #1073741863	; 0x40000027
 168:	01a0019f 	lsleq	r0, pc	; <illegal shifter operand>
 16c:	01a201a0 			; <UNDEFINED> instruction: 0x01a201a0
 170:	01a401a2 			; <UNDEFINED> instruction: 0x01a401a2
 174:	01a601a4 			; <UNDEFINED> instruction: 0x01a601a4
 178:	01a701a7 			; <UNDEFINED> instruction: 0x01a701a7
 17c:	01aa01a9 			; <UNDEFINED> instruction: 0x01aa01a9
 180:	01ac01ab 			; <UNDEFINED> instruction: 0x01ac01ab
 184:	01ae01ac 			; <UNDEFINED> instruction: 0x01ae01ac
 188:	01af01af 			; <UNDEFINED> instruction: 0x01af01af
 18c:	01b201b1 			; <UNDEFINED> instruction: 0x01b201b1
 190:	01b301b3 			; <UNDEFINED> instruction: 0x01b301b3
 194:	01b501b5 			; <UNDEFINED> instruction: 0x01b501b5
 198:	01b801b7 			; <UNDEFINED> instruction: 0x01b801b7
 19c:	01ba01b8 			; <UNDEFINED> instruction: 0x01ba01b8
 1a0:	01bc01bb 			; <UNDEFINED> instruction: 0x01bc01bb
 1a4:	01be01bc 			; <UNDEFINED> instruction: 0x01be01bc
 1a8:	01c001f7 	strdeq	r0, [r0, #23]
 1ac:	01c201c1 	biceq	r0, r2, r1, asr #3
 1b0:	01c401c3 	biceq	r0, r4, r3, asr #3
 1b4:	01c401c5 	biceq	r0, r4, r5, asr #3
 1b8:	01c801c7 	biceq	r0, r8, r7, asr #3
 1bc:	01ca01c7 	biceq	r0, sl, r7, asr #3
 1c0:	01ca01cb 	biceq	r0, sl, fp, asr #3
 1c4:	011001cd 	tsteq	r0, sp, asr #3
 1c8:	000101dd 	ldrdeq	r0, [r1], -sp
 1cc:	01de018e 	bicseq	r0, lr, lr, lsl #3
 1d0:	01f30112 	mvnseq	r0, r2, lsl r1
 1d4:	01f10003 	mvnseq	r0, r3
 1d8:	01f401f4 	ldrsheq	r0, [r4, #20]!
 1dc:	012801f8 	strdeq	r0, [r8, -r8]!
 1e0:	01120222 	tsteq	r2, r2, lsr #4
 1e4:	0009023a 	andeq	r0, r9, sl, lsr r2
 1e8:	023b2c65 	eorseq	r2, fp, #25856	; 0x6500
 1ec:	023d023b 	eorseq	r0, sp, #-1342177277	; 0xb0000003
 1f0:	023f2c66 	eorseq	r2, pc, #26112	; 0x6600
 1f4:	02410240 	subeq	r0, r1, #64, 4
 1f8:	02460241 	subeq	r0, r6, #268435460	; 0x10000004
 1fc:	0253010a 	subseq	r0, r3, #-2147483646	; 0x80000002
 200:	01810040 	orreq	r0, r1, r0, asr #32
 204:	02550186 	subseq	r0, r5, #-2147483615	; 0x80000021
 208:	018a0189 	orreq	r0, sl, r9, lsl #3
 20c:	018f0258 	orreq	r0, pc, r8, asr r2	; <UNPREDICTABLE>
 210:	0190025a 	orrseq	r0, r0, sl, asr r2
 214:	025d025c 	subseq	r0, sp, #92, 4	; 0xc0000005
 218:	025f025e 	subseq	r0, pc, #-536870907	; 0xe0000005
 21c:	02610193 	rsbeq	r0, r1, #-1073741788	; 0xc0000024
 220:	01940262 	orrseq	r0, r4, r2, ror #4
 224:	02650264 	rsbeq	r0, r5, #100, 4	; 0x40000006
 228:	02670266 	rsbeq	r0, r7, #1610612742	; 0x60000006
 22c:	01960197 			; <UNDEFINED> instruction: 0x01960197
 230:	2c62026a 	sfmcs	f0, 2, [r2], #-424	; 0xfffffe58
 234:	026d026c 	rsbeq	r0, sp, #108, 4	; 0xc0000006
 238:	019c026e 	orrseq	r0, ip, lr, ror #4
 23c:	02710270 	rsbseq	r0, r1, #112, 4
 240:	0273019d 	rsbseq	r0, r3, #1073741863	; 0x40000027
 244:	019f0274 	orrseq	r0, pc, r4, ror r2	; <UNPREDICTABLE>
 248:	02770276 	rsbseq	r0, r7, #1610612743	; 0x60000007
 24c:	02790278 	rsbseq	r0, r9, #120, 4	; 0x80000007
 250:	027b027a 	rsbseq	r0, fp, #-1610612729	; 0xa0000007
 254:	2c64027c 	sfmcs	f0, 2, [r4], #-496	; 0xfffffe10
 258:	027f027e 	rsbseq	r0, pc, #-536870905	; 0xe0000007
 25c:	028101a6 	addeq	r0, r1, #-2147483607	; 0x80000029
 260:	01a90282 			; <UNDEFINED> instruction: 0x01a90282
 264:	02850284 	addeq	r0, r5, #132, 4	; 0x40000008
 268:	02870286 	addeq	r0, r7, #1610612744	; 0x60000008
 26c:	024401ae 	subeq	r0, r4, #-2147483605	; 0x8000002b
 270:	01b201b1 			; <UNDEFINED> instruction: 0x01b201b1
 274:	028d0245 	addeq	r0, sp, #1342177284	; 0x50000004
 278:	028f028e 	addeq	r0, pc, #-536870904	; 0xe0000008
 27c:	02910290 	addseq	r0, r1, #144, 4
 280:	037b01b7 	cmneq	fp, #-1073741779	; 0xc000002d
 284:	03fd0003 	mvnseq	r0, #3
 288:	03ff03fe 	mvnseq	r0, #-134217725	; 0xf8000003
 28c:	000403ac 	andeq	r0, r4, ip, lsr #7
 290:	03880386 	orreq	r0, r8, #402653186	; 0x18000002
 294:	038a0389 	orreq	r0, sl, #603979778	; 0x24000002
 298:	031103b1 	tsteq	r1, #-1006632958	; 0xc4000002
 29c:	000203c2 	andeq	r0, r2, r2, asr #7
 2a0:	03a303a3 			; <UNDEFINED> instruction: 0x03a303a3
 2a4:	030803c4 	movweq	r0, #33732	; 0x83c4
 2a8:	000303cc 	andeq	r0, r3, ip, asr #7
 2ac:	038e038c 	orreq	r0, lr, #140, 6	; 0x30000002
 2b0:	03d8038f 	bicseq	r0, r8, #1006632962	; 0x3c000002
 2b4:	03f20118 	mvnseq	r0, #24, 2
 2b8:	03f9000a 	mvnseq	r0, #10
 2bc:	03f403f3 	mvnseq	r0, #-872415229	; 0xcc000003
 2c0:	03f603f5 	mvnseq	r0, #-738197501	; 0xd4000003
 2c4:	03f703f7 	mvnseq	r0, #-603979773	; 0xdc000003
 2c8:	03fa03f9 	mvnseq	r0, #-469762045	; 0xe4000003
 2cc:	043003fa 	ldrteq	r0, [r0], #-1018	; 0xfffffc06
 2d0:	04500320 	ldrbeq	r0, [r0], #-800	; 0xfffffce0
 2d4:	04600710 	strbteq	r0, [r0], #-1808	; 0xfffff8f0
 2d8:	048a0122 	streq	r0, [sl], #290	; 0x122
 2dc:	04c10136 	strbeq	r0, [r1], #310	; 0x136
 2e0:	04cf010e 	strbeq	r0, [pc], #270	; 2e8 <cvt1.1+0x1e8>
 2e4:	04c00001 	strbeq	r0, [r0], #1
 2e8:	014404d0 	ldrdeq	r0, [r4, #-64]	; 0xffffffc0
 2ec:	04260561 	strteq	r0, [r6], #-1377	; 0xfffffa9f
 2f0:	00000000 	andeq	r0, r0, r0

000002f4 <cvt2.0>:
 2f4:	00011d7d 	andeq	r1, r1, sp, ror sp
 2f8:	1e002c63 	cdpne	12, 0, cr2, cr0, cr3, {3}
 2fc:	1ea00196 	mcrne	1, 5, r0, cr0, cr6, {4}
 300:	1f00015a 	svcne	0x0000015a
 304:	1f100608 	svcne	0x00100608
 308:	1f200606 	svcne	0x00200606
 30c:	1f300608 	svcne	0x00300608
 310:	1f400608 	svcne	0x00400608
 314:	1f510606 	svcne	0x00510606
 318:	1f590007 	svcne	0x00590007
 31c:	1f5b1f52 	svcne	0x005b1f52
 320:	1f5d1f54 	svcne	0x005d1f54
 324:	1f5f1f56 	svcne	0x005f1f56
 328:	06081f60 	streq	r1, [r8], -r0, ror #30
 32c:	000e1f70 	andeq	r1, lr, r0, ror pc
 330:	1fbb1fba 	svcne	0x00bb1fba
 334:	1fc91fc8 	svcne	0x00c91fc8
 338:	1fcb1fca 	svcne	0x00cb1fca
 33c:	1fdb1fda 	svcne	0x00db1fda
 340:	1ff91ff8 	svcne	0x00f91ff8
 344:	1feb1fea 	svcne	0x00eb1fea
 348:	1ffb1ffa 	svcne	0x00fb1ffa
 34c:	06081f80 	streq	r1, [r8], -r0, lsl #31
 350:	06081f90 			; <UNDEFINED> instruction: 0x06081f90
 354:	06081fa0 	streq	r1, [r8], -r0, lsr #31
 358:	00041fb0 			; <UNDEFINED> instruction: 0x00041fb0
 35c:	1fb91fb8 	svcne	0x00b91fb8
 360:	1fbc1fb2 	svcne	0x00bc1fb2
 364:	00011fcc 	andeq	r1, r1, ip, asr #31
 368:	1fd01fc3 	svcne	0x00d01fc3
 36c:	1fe00602 	svcne	0x00e00602
 370:	1fe50602 	svcne	0x00e50602
 374:	1fec0001 	svcne	0x00ec0001
 378:	00011ff2 	strdeq	r1, [r1], -r2
 37c:	214e1ffc 	strdcs	r1, [lr, #-252]	; 0xffffff04
 380:	21320001 	teqcs	r2, r1
 384:	02102170 	andseq	r2, r0, #112, 2
 388:	00012184 	andeq	r2, r1, r4, lsl #3
 38c:	24d02183 	ldrbcs	r2, [r0], #387	; 0x183
 390:	2c30051a 	cfldr32cs	mvfx0, [r0], #-104	; 0xffffff98
 394:	2c60042f 	cfstrdcs	mvd0, [r0], #-188	; 0xffffff44
 398:	2c670102 	stfcse	f0, [r7], #-8
 39c:	2c750106 	ldfcse	f0, [r5], #-24	; 0xffffffe8
 3a0:	2c800102 	stfcss	f0, [r0], {2}
 3a4:	2d000164 	stfcss	f0, [r0, #-400]	; 0xfffffe70
 3a8:	ff410826 			; <UNDEFINED> instruction: 0xff410826
 3ac:	0000031a 	andeq	r0, r0, sl, lsl r3

Disassembly of section .comment:

00000000 <.comment>:
   0:	43434700 	movtmi	r4, #14080	; 0x3700
   4:	4728203a 			; <UNDEFINED> instruction: 0x4728203a
   8:	2029554e 	eorcs	r5, r9, lr, asr #10
   c:	322e3031 	eorcc	r3, lr, #49	; 0x31
  10:	Address 0x0000000000000010 is out of bounds.


Disassembly of section .ARM.attributes:

00000000 <.ARM.attributes>:
   0:	00003441 	andeq	r3, r0, r1, asr #8
   4:	61656100 	cmnvs	r5, r0, lsl #2
   8:	01006962 	tsteq	r0, r2, ror #18
   c:	0000002a 	andeq	r0, r0, sl, lsr #32
  10:	412d3705 			; <UNDEFINED> instruction: 0x412d3705
  14:	070a0600 	streq	r0, [sl, -r0, lsl #12]
  18:	09010841 	stmdbeq	r1, {r0, r6, fp}
  1c:	0c050a02 			; <UNDEFINED> instruction: 0x0c050a02
  20:	14041202 	strne	r1, [r4], #-514	; 0xfffffdfe
  24:	17011501 	strne	r1, [r1, -r1, lsl #10]
  28:	19011803 	stmdbne	r1, {r0, r1, fp, ip}
  2c:	1c011a01 			; <UNDEFINED> instruction: 0x1c011a01
  30:	22021e01 	andcs	r1, r2, #1, 28
  34:	Address 0x0000000000000034 is out of bounds.


diskio.o:     file format elf32-littlearm


Disassembly of section .text:

00000000 <disk_initialize>:
   0:	e3500000 	cmp	r0, #0
   4:	0a000003 	beq	18 <disk_initialize+0x18>
   8:	e3003000 	movw	r3, #0
   c:	e3403000 	movt	r3, #0
  10:	e5d30000 	ldrb	r0, [r3]
  14:	e12fff1e 	bx	lr
  18:	e92d4010 	push	{r4, lr}
  1c:	ebfffffe 	bl	0 <sd_card_init>
  20:	e3003000 	movw	r3, #0
  24:	e3500000 	cmp	r0, #0
  28:	e3403000 	movt	r3, #0
  2c:	05d32000 	ldrbeq	r2, [r3]
  30:	020220fe 	andeq	r2, r2, #254	; 0xfe
  34:	05c32000 	strbeq	r2, [r3]
  38:	e5d30000 	ldrb	r0, [r3]
  3c:	e8bd8010 	pop	{r4, pc}

00000040 <disk_read>:
  40:	e16fcf13 	clz	ip, r3
  44:	e1a0c2ac 	lsr	ip, ip, #5
  48:	e3500000 	cmp	r0, #0
  4c:	138cc001 	orrne	ip, ip, #1
  50:	e35c0000 	cmp	ip, #0
  54:	1a00000f 	bne	98 <disk_read+0x58>
  58:	e3000000 	movw	r0, #0
  5c:	e3400000 	movt	r0, #0
  60:	e5d00000 	ldrb	r0, [r0]
  64:	e3100001 	tst	r0, #1
  68:	1a000008 	bne	90 <disk_read+0x50>
  6c:	e92d4010 	push	{r4, lr}
  70:	e1a00001 	mov	r0, r1
  74:	e1a04483 	lsl	r4, r3, #9
  78:	e1a01004 	mov	r1, r4
  7c:	ebfffffe 	bl	0 <sd_read>
  80:	e1540000 	cmp	r4, r0
  84:	d3a00000 	movle	r0, #0
  88:	c3a00001 	movgt	r0, #1
  8c:	e8bd8010 	pop	{r4, pc}
  90:	e3a00003 	mov	r0, #3
  94:	e12fff1e 	bx	lr
  98:	e3a00004 	mov	r0, #4
  9c:	e12fff1e 	bx	lr

000000a0 <disk_write>:
  a0:	e16fcf13 	clz	ip, r3
  a4:	e1a0c2ac 	lsr	ip, ip, #5
  a8:	e3500000 	cmp	r0, #0
  ac:	138cc001 	orrne	ip, ip, #1
  b0:	e35c0000 	cmp	ip, #0
  b4:	1a00000f 	bne	f8 <disk_write+0x58>
  b8:	e3000000 	movw	r0, #0
  bc:	e3400000 	movt	r0, #0
  c0:	e5d00000 	ldrb	r0, [r0]
  c4:	e3100001 	tst	r0, #1
  c8:	1a000008 	bne	f0 <disk_write+0x50>
  cc:	e92d4010 	push	{r4, lr}
  d0:	e1a00001 	mov	r0, r1
  d4:	e1a04483 	lsl	r4, r3, #9
  d8:	e1a01004 	mov	r1, r4
  dc:	ebfffffe 	bl	0 <sd_write>
  e0:	e1540000 	cmp	r4, r0
  e4:	93a00000 	movls	r0, #0
  e8:	83a00001 	movhi	r0, #1
  ec:	e8bd8010 	pop	{r4, pc}
  f0:	e3a00003 	mov	r0, #3
  f4:	e12fff1e 	bx	lr
  f8:	e3a00004 	mov	r0, #4
  fc:	e12fff1e 	bx	lr

00000100 <disk_status>:
 100:	e3500000 	cmp	r0, #0
 104:	03003000 	movweq	r3, #0
 108:	03403000 	movteq	r3, #0
 10c:	05d30000 	ldrbeq	r0, [r3]
 110:	06ef0070 	uxtbeq	r0, r0
 114:	13a00001 	movne	r0, #1
 118:	e12fff1e 	bx	lr

0000011c <disk_ioctl>:
 11c:	e3510000 	cmp	r1, #0
 120:	0a000006 	beq	140 <disk_ioctl+0x24>
 124:	e2411002 	sub	r1, r1, #2
 128:	e3510001 	cmp	r1, #1
 12c:	8a000005 	bhi	148 <disk_ioctl+0x2c>
 130:	e3a03c02 	mov	r3, #512	; 0x200
 134:	e3a00000 	mov	r0, #0
 138:	e5823000 	str	r3, [r2]
 13c:	e12fff1e 	bx	lr
 140:	e1a00001 	mov	r0, r1
 144:	e12fff1e 	bx	lr
 148:	e3a00004 	mov	r0, #4
 14c:	e12fff1e 	bx	lr

00000150 <get_fattime>:
 150:	e52de004 	push	{lr}		; (str lr, [sp, #-4]!)
 154:	e3a00000 	mov	r0, #0
 158:	e24dd00c 	sub	sp, sp, #12
 15c:	ebfffffe 	bl	0 <time>
 160:	e58d0004 	str	r0, [sp, #4]
 164:	e28d0004 	add	r0, sp, #4
 168:	ebfffffe 	bl	0 <localtime>
 16c:	e890100e 	ldm	r0, {r1, r2, r3, ip}
 170:	e1a03583 	lsl	r3, r3, #11
 174:	e183380c 	orr	r3, r3, ip, lsl #16
 178:	e1833282 	orr	r3, r3, r2, lsl #5
 17c:	e5902014 	ldr	r2, [r0, #20]
 180:	e5900010 	ldr	r0, [r0, #16]
 184:	e18330a1 	orr	r3, r3, r1, lsr #1
 188:	e2822014 	add	r2, r2, #20
 18c:	e2800001 	add	r0, r0, #1
 190:	e1833c82 	orr	r3, r3, r2, lsl #25
 194:	e1830a80 	orr	r0, r3, r0, lsl #21
 198:	e28dd00c 	add	sp, sp, #12
 19c:	e49df004 	pop	{pc}		; (ldr pc, [sp], #4)

Disassembly of section .data:

00000000 <diskio_status>:
   0:	Address 0x0000000000000000 is out of bounds.


Disassembly of section .comment:

00000000 <.comment>:
   0:	43434700 	movtmi	r4, #14080	; 0x3700
   4:	4728203a 			; <UNDEFINED> instruction: 0x4728203a
   8:	2029554e 	eorcs	r5, r9, lr, asr #10
   c:	322e3031 	eorcc	r3, lr, #49	; 0x31
  10:	Address 0x0000000000000010 is out of bounds.


Disassembly of section .ARM.attributes:

00000000 <.ARM.attributes>:
   0:	00003441 	andeq	r3, r0, r1, asr #8
   4:	61656100 	cmnvs	r5, r0, lsl #2
   8:	01006962 	tsteq	r0, r2, ror #18
   c:	0000002a 	andeq	r0, r0, sl, lsr #32
  10:	412d3705 			; <UNDEFINED> instruction: 0x412d3705
  14:	070a0600 	streq	r0, [sl, -r0, lsl #12]
  18:	09010841 	stmdbeq	r1, {r0, r6, fp}
  1c:	0c050a02 			; <UNDEFINED> instruction: 0x0c050a02
  20:	14041202 	strne	r1, [r4], #-514	; 0xfffffdfe
  24:	17011501 	strne	r1, [r1, -r1, lsl #10]
  28:	19011803 	stmdbne	r1, {r0, r1, fp, ip}
  2c:	1c011a01 			; <UNDEFINED> instruction: 0x1c011a01
  30:	22021e01 	andcs	r1, r2, #1, 28
  34:	Address 0x0000000000000034 is out of bounds.


firmwareversion.o:     file format elf32-littlearm


Disassembly of section .text:

00000000 <FirmwareVersion::FirmwareVersion(char const*, char const*, char const*)>:
   0:	e92d41f0 	push	{r4, r5, r6, r7, r8, lr}
   4:	e1a05000 	mov	r5, r0
   8:	e59f409c 	ldr	r4, [pc, #156]	; ac <FirmwareVersion::FirmwareVersion(char const*, char const*, char const*)+0xac>
   c:	e24dd020 	sub	sp, sp, #32
  10:	e1a06004 	mov	r6, r4
  14:	e2847007 	add	r7, r4, #7
  18:	e2848012 	add	r8, r4, #18
  1c:	e4860004 	str	r0, [r6], #4
  20:	e1d100b0 	ldrh	r0, [r1]
  24:	e5d11002 	ldrb	r1, [r1, #2]
  28:	e1c400b4 	strh	r0, [r4, #4]
  2c:	e5c61002 	strb	r1, [r6, #2]
  30:	e5921000 	ldr	r1, [r2]
  34:	e5841007 	str	r1, [r4, #7]
  38:	e5921004 	ldr	r1, [r2, #4]
  3c:	e584100b 	str	r1, [r4, #11]
  40:	e1d210b8 	ldrh	r1, [r2, #8]
  44:	e1c410bf 	strh	r1, [r4, #15]
  48:	e28d101f 	add	r1, sp, #31
  4c:	e5d2200a 	ldrb	r2, [r2, #10]
  50:	e5c42011 	strb	r2, [r4, #17]
  54:	e5932000 	ldr	r2, [r3]
  58:	e5842012 	str	r2, [r4, #18]
  5c:	e5932004 	ldr	r2, [r3, #4]
  60:	e59f3048 	ldr	r3, [pc, #72]	; b0 <FirmwareVersion::FirmwareVersion(char const*, char const*, char const*)+0xb0>
  64:	e5842016 	str	r2, [r4, #22]
  68:	e5930000 	ldr	r0, [r3]
  6c:	ebfffffe 	bl	0 <Hardware::GetBoardName(unsigned char&)>
  70:	e59f203c 	ldr	r2, [pc, #60]	; b4 <FirmwareVersion::FirmwareVersion(char const*, char const*, char const*)+0xb4>
  74:	e3a03008 	mov	r3, #8
  78:	e58d3010 	str	r3, [sp, #16]
  7c:	e3a0300b 	mov	r3, #11
  80:	e98d0009 	stmib	sp, {r0, r3}
  84:	e58d8014 	str	r8, [sp, #20]
  88:	e3a03003 	mov	r3, #3
  8c:	e58d700c 	str	r7, [sp, #12]
  90:	e3a0103f 	mov	r1, #63	; 0x3f
  94:	e58d6000 	str	r6, [sp]
  98:	e284001c 	add	r0, r4, #28
  9c:	ebfffffe 	bl	0 <snprintf>
  a0:	e1a00005 	mov	r0, r5
  a4:	e28dd020 	add	sp, sp, #32
  a8:	e8bd81f0 	pop	{r4, r5, r6, r7, r8, pc}
	...

Disassembly of section .bss:

00000000 <FirmwareVersion::s_pThis>:
   0:	00000000 	andeq	r0, r0, r0

00000004 <FirmwareVersion::s_FirmwareVersion>:
	...

0000001c <FirmwareVersion::s_Print>:
	...

Disassembly of section .rodata.str1.1:

00000000 <.rodata.str1.1>:
   0:	2e25565b 	mcrcs	6, 1, r5, cr5, cr11, {2}
   4:	205d732a 	subscs	r7, sp, sl, lsr #6
   8:	43207325 			; <UNDEFINED> instruction: 0x43207325
   c:	69706d6f 	ldmdbvs	r0!, {r0, r1, r2, r3, r5, r6, r8, sl, fp, sp, lr}^
  10:	2064656c 	rsbcs	r6, r4, ip, ror #10
  14:	25206e6f 	strcs	r6, [r0, #-3695]!	; 0xfffff191
  18:	20732a2e 	rsbscs	r2, r3, lr, lsr #20
  1c:	25207461 	strcs	r7, [r0, #-1121]!	; 0xfffffb9f
  20:	00732a2e 	rsbseq	r2, r3, lr, lsr #20

Disassembly of section .comment:

00000000 <.comment>:
   0:	43434700 	movtmi	r4, #14080	; 0x3700
   4:	4728203a 			; <UNDEFINED> instruction: 0x4728203a
   8:	2029554e 	eorcs	r5, r9, lr, asr #10
   c:	322e3031 	eorcc	r3, lr, #49	; 0x31
  10:	Address 0x0000000000000010 is out of bounds.


Disassembly of section .ARM.attributes:

00000000 <.ARM.attributes>:
   0:	00003441 	andeq	r3, r0, r1, asr #8
   4:	61656100 	cmnvs	r5, r0, lsl #2
   8:	01006962 	tsteq	r0, r2, ror #18
   c:	0000002a 	andeq	r0, r0, sl, lsr #32
  10:	412d3705 			; <UNDEFINED> instruction: 0x412d3705
  14:	070a0600 	streq	r0, [sl, -r0, lsl #12]
  18:	09010841 	stmdbeq	r1, {r0, r6, fp}
  1c:	0c050a02 			; <UNDEFINED> instruction: 0x0c050a02
  20:	14041202 	strne	r1, [r4], #-514	; 0xfffffdfe
  24:	17011501 	strne	r1, [r1, -r1, lsl #10]
  28:	19011803 	stmdbne	r1, {r0, r1, fp, ip}
  2c:	1c011a01 			; <UNDEFINED> instruction: 0x1c011a01
  30:	22021e01 	andcs	r1, r2, #1, 28
  34:	Address 0x0000000000000034 is out of bounds.


hardware.o:     file format elf32-littlearm


Disassembly of section .text:

00000000 <hardware::ledblink::display(unsigned int)>:
   0:	e12fff1e 	bx	lr

00000004 <Hardware::SetModeWithLock(hardware::ledblink::Mode, bool)>:
   4:	e590300c 	ldr	r3, [r0, #12]
   8:	e92d4070 	push	{r4, r5, r6, lr}
   c:	e1a04000 	mov	r4, r0
  10:	e1510003 	cmp	r1, r3
  14:	e3a03000 	mov	r3, #0
  18:	e5c03010 	strb	r3, [r0, #16]
  1c:	e1a05002 	mov	r5, r2
  20:	0a00000e 	beq	60 <Hardware::SetModeWithLock(hardware::ledblink::Mode, bool)+0x5c>
  24:	e584100c 	str	r1, [r4, #12]
  28:	e2413001 	sub	r3, r1, #1
  2c:	e1a00001 	mov	r0, r1
  30:	e3530004 	cmp	r3, #4
  34:	979ff103 	ldrls	pc, [pc, r3, lsl #2]
  38:	ea00001c 	b	b0 <Hardware::SetModeWithLock(hardware::ledblink::Mode, bool)+0xac>
  3c:	00000068 	andeq	r0, r0, r8, rrx
  40:	00000080 	andeq	r0, r0, r0, lsl #1
  44:	00000090 	muleq	r0, r0, r0
  48:	000000a0 	andeq	r0, r0, r0, lsr #1
  4c:	00000050 	andeq	r0, r0, r0, asr r0
  50:	e30e3848 	movw	r3, #59464	; 0xe848
  54:	e3403001 	movt	r3, #1
  58:	e5843014 	str	r3, [r4, #20]
  5c:	ebfffffe 	bl	0 <hardware::ledblink::display(unsigned int)>
  60:	e5c45010 	strb	r5, [r4, #16]
  64:	e8bd8070 	pop	{r4, r5, r6, pc}
  68:	e3a03000 	mov	r3, #0
  6c:	e3a00001 	mov	r0, #1
  70:	e5843014 	str	r3, [r4, #20]
  74:	ebfffffe 	bl	0 <hardware_led_set>
  78:	e594000c 	ldr	r0, [r4, #12]
  7c:	eafffff6 	b	5c <Hardware::SetModeWithLock(hardware::ledblink::Mode, bool)+0x58>
  80:	e3043240 	movw	r3, #16960	; 0x4240
  84:	e340300f 	movt	r3, #15
  88:	e5843014 	str	r3, [r4, #20]
  8c:	eafffff2 	b	5c <Hardware::SetModeWithLock(hardware::ledblink::Mode, bool)+0x58>
  90:	e3013615 	movw	r3, #5653	; 0x1615
  94:	e3403005 	movt	r3, #5
  98:	e5843014 	str	r3, [r4, #20]
  9c:	eaffffee 	b	5c <Hardware::SetModeWithLock(hardware::ledblink::Mode, bool)+0x58>
  a0:	e3a03d35 	mov	r3, #3392	; 0xd40
  a4:	e3403003 	movt	r3, #3
  a8:	e5843014 	str	r3, [r4, #20]
  ac:	eaffffea 	b	5c <Hardware::SetModeWithLock(hardware::ledblink::Mode, bool)+0x58>
  b0:	e3a00000 	mov	r0, #0
  b4:	e5840014 	str	r0, [r4, #20]
  b8:	ebfffffe 	bl	0 <hardware_led_set>
  bc:	e594000c 	ldr	r0, [r4, #12]
  c0:	eaffffe5 	b	5c <Hardware::SetModeWithLock(hardware::ledblink::Mode, bool)+0x58>

000000c4 <Hardware::SetMode(hardware::ledblink::Mode)>:
  c4:	e5d03010 	ldrb	r3, [r0, #16]
  c8:	e92d4010 	push	{r4, lr}
  cc:	e3530000 	cmp	r3, #0
  d0:	e1a04000 	mov	r4, r0
  d4:	18bd8010 	popne	{r4, pc}
  d8:	e594300c 	ldr	r3, [r4, #12]
  dc:	e1a00001 	mov	r0, r1
  e0:	e1530001 	cmp	r3, r1
  e4:	08bd8010 	popeq	{r4, pc}
  e8:	e584100c 	str	r1, [r4, #12]
  ec:	e2413001 	sub	r3, r1, #1
  f0:	e3530004 	cmp	r3, #4
  f4:	979ff103 	ldrls	pc, [pc, r3, lsl #2]
  f8:	ea00001b 	b	16c <Hardware::SetMode(hardware::ledblink::Mode)+0xa8>
  fc:	00000124 	andeq	r0, r0, r4, lsr #2
 100:	0000013c 	andeq	r0, r0, ip, lsr r1
 104:	0000014c 	andeq	r0, r0, ip, asr #2
 108:	0000015c 	andeq	r0, r0, ip, asr r1
 10c:	00000110 	andeq	r0, r0, r0, lsl r1
 110:	e30e3848 	movw	r3, #59464	; 0xe848
 114:	e3403001 	movt	r3, #1
 118:	e5843014 	str	r3, [r4, #20]
 11c:	ebfffffe 	bl	0 <hardware::ledblink::display(unsigned int)>
 120:	e8bd8010 	pop	{r4, pc}
 124:	e3a03000 	mov	r3, #0
 128:	e3a00001 	mov	r0, #1
 12c:	e5843014 	str	r3, [r4, #20]
 130:	ebfffffe 	bl	0 <hardware_led_set>
 134:	e594000c 	ldr	r0, [r4, #12]
 138:	eafffff7 	b	11c <Hardware::SetMode(hardware::ledblink::Mode)+0x58>
 13c:	e3043240 	movw	r3, #16960	; 0x4240
 140:	e340300f 	movt	r3, #15
 144:	e5843014 	str	r3, [r4, #20]
 148:	eafffff3 	b	11c <Hardware::SetMode(hardware::ledblink::Mode)+0x58>
 14c:	e3013615 	movw	r3, #5653	; 0x1615
 150:	e3403005 	movt	r3, #5
 154:	e5843014 	str	r3, [r4, #20]
 158:	eaffffef 	b	11c <Hardware::SetMode(hardware::ledblink::Mode)+0x58>
 15c:	e3a03d35 	mov	r3, #3392	; 0xd40
 160:	e3403003 	movt	r3, #3
 164:	e5843014 	str	r3, [r4, #20]
 168:	eaffffeb 	b	11c <Hardware::SetMode(hardware::ledblink::Mode)+0x58>
 16c:	e3a00000 	mov	r0, #0
 170:	e5840014 	str	r0, [r4, #20]
 174:	ebfffffe 	bl	0 <hardware_led_set>
 178:	e594000c 	ldr	r0, [r4, #12]
 17c:	eaffffe6 	b	11c <Hardware::SetMode(hardware::ledblink::Mode)+0x58>

Disassembly of section .comment:

00000000 <.comment>:
   0:	43434700 	movtmi	r4, #14080	; 0x3700
   4:	4728203a 			; <UNDEFINED> instruction: 0x4728203a
   8:	2029554e 	eorcs	r5, r9, lr, asr #10
   c:	322e3031 	eorcc	r3, lr, #49	; 0x31
  10:	Address 0x0000000000000010 is out of bounds.


Disassembly of section .ARM.attributes:

00000000 <.ARM.attributes>:
   0:	00003441 	andeq	r3, r0, r1, asr #8
   4:	61656100 	cmnvs	r5, r0, lsl #2
   8:	01006962 	tsteq	r0, r2, ror #18
   c:	0000002a 	andeq	r0, r0, sl, lsr #32
  10:	412d3705 			; <UNDEFINED> instruction: 0x412d3705
  14:	070a0600 	streq	r0, [sl, -r0, lsl #12]
  18:	09010841 	stmdbeq	r1, {r0, r6, fp}
  1c:	0c050a02 			; <UNDEFINED> instruction: 0x0c050a02
  20:	14041202 	strne	r1, [r4], #-514	; 0xfffffdfe
  24:	17011501 	strne	r1, [r1, -r1, lsl #10]
  28:	19011803 	stmdbne	r1, {r0, r1, fp, ip}
  2c:	1c011a01 			; <UNDEFINED> instruction: 0x1c011a01
  30:	22021e01 	andcs	r1, r2, #1, 28
  34:	Address 0x0000000000000034 is out of bounds.


utc.o:     file format elf32-littlearm


Disassembly of section .text:

00000000 <Utc::Validate(float)>:
   0:	eefd7ac0 	vcvt.s32.f32	s15, s0
   4:	ee173a90 	vmov	r3, s15
   8:	e283300c 	add	r3, r3, #12
   c:	e353001a 	cmp	r3, #26
  10:	8a00000d 	bhi	4c <Utc::Validate(float)+0x4c>
  14:	eeb87ae7 	vcvt.f32.s32	s14, s15
  18:	eeb47a40 	vcmp.f32	s14, s0
  1c:	eef1fa10 	vmrs	APSR_nzcv, fpscr
  20:	0a00000b 	beq	54 <Utc::Validate(float)+0x54>
  24:	e59f3050 	ldr	r3, [pc, #80]	; 7c <Utc::Validate(float)+0x7c>
  28:	eefa7a03 	vmov.f32	s15, #163	; 0xc1180000 -9.5
  2c:	e2832028 	add	r2, r3, #40	; 0x28
  30:	ea000000 	b	38 <Utc::Validate(float)+0x38>
  34:	ecf37a01 	vldmia	r3!, {s15}
  38:	eef47a40 	vcmp.f32	s15, s0
  3c:	eef1fa10 	vmrs	APSR_nzcv, fpscr
  40:	0a000007 	beq	64 <Utc::Validate(float)+0x64>
  44:	e1530002 	cmp	r3, r2
  48:	1afffff9 	bne	34 <Utc::Validate(float)+0x34>
  4c:	e3a00000 	mov	r0, #0
  50:	e12fff1e 	bx	lr
  54:	ee173a90 	vmov	r3, s15
  58:	e3a00ee1 	mov	r0, #3600	; 0xe10
  5c:	e0000390 	mul	r0, r0, r3
  60:	e12fff1e 	bx	lr
  64:	eddf7a03 	vldr	s15, [pc, #12]	; 78 <Utc::Validate(float)+0x78>
  68:	ee200a27 	vmul.f32	s0, s0, s15
  6c:	eefd7ac0 	vcvt.s32.f32	s15, s0
  70:	ee170a90 	vmov	r0, s15
  74:	e12fff1e 	bx	lr
  78:	45610000 	strbmi	r0, [r1, #-0]!
  7c:	00000004 	andeq	r0, r0, r4

Disassembly of section .rodata:

00000000 <s_ValidOffets>:
   0:	c1180000 	tstgt	r8, r0
   4:	c0600000 	rsbgt	r0, r0, r0
   8:	40600000 	rsbmi	r0, r0, r0
   c:	40900000 	addsmi	r0, r0, r0
  10:	40b00000 	adcsmi	r0, r0, r0
  14:	40b80000 	adcsmi	r0, r8, r0
  18:	40d00000 	sbcsmi	r0, r0, r0
  1c:	410c0000 	mrsmi	r0, (UNDEF: 12)
  20:	41180000 	tstmi	r8, r0
  24:	41280000 			; <UNDEFINED> instruction: 0x41280000
  28:	414c0000 	mrsmi	r0, (UNDEF: 76)

Disassembly of section .comment:

00000000 <.comment>:
   0:	43434700 	movtmi	r4, #14080	; 0x3700
   4:	4728203a 			; <UNDEFINED> instruction: 0x4728203a
   8:	2029554e 	eorcs	r5, r9, lr, asr #10
   c:	322e3031 	eorcc	r3, lr, #49	; 0x31
  10:	Address 0x0000000000000010 is out of bounds.


Disassembly of section .ARM.attributes:

00000000 <.ARM.attributes>:
   0:	00003441 	andeq	r3, r0, r1, asr #8
   4:	61656100 	cmnvs	r5, r0, lsl #2
   8:	01006962 	tsteq	r0, r2, ror #18
   c:	0000002a 	andeq	r0, r0, sl, lsr #32
  10:	412d3705 			; <UNDEFINED> instruction: 0x412d3705
  14:	070a0600 	streq	r0, [sl, -r0, lsl #12]
  18:	09010841 	stmdbeq	r1, {r0, r6, fp}
  1c:	0c050a02 			; <UNDEFINED> instruction: 0x0c050a02
  20:	14041202 	strne	r1, [r4], #-514	; 0xfffffdfe
  24:	17011501 	strne	r1, [r1, -r1, lsl #10]
  28:	19011803 	stmdbne	r1, {r0, r1, fp, ip}
  2c:	1c011a01 			; <UNDEFINED> instruction: 0x1c011a01
  30:	22021e01 	andcs	r1, r2, #1, 28
  34:	Address 0x0000000000000034 is out of bounds.


hardware.o:     file format elf32-littlearm


Disassembly of section .text:

00000000 <Hardware::Hardware()>:
   0:	e30a3120 	movw	r3, #41248	; 0xa120
   4:	e3e01000 	mvn	r1, #0
   8:	e3403007 	movt	r3, #7
   c:	e3a02000 	mov	r2, #0
  10:	e92d4010 	push	{r4, lr}
  14:	e1a04000 	mov	r4, r0
  18:	e5803014 	str	r3, [r0, #20]
  1c:	e3003000 	movw	r3, #0
  20:	e5801000 	str	r1, [r0]
  24:	e3a01003 	mov	r1, #3
  28:	e3403000 	movt	r3, #0
  2c:	e1c010b8 	strh	r1, [r0, #8]
  30:	e3a01006 	mov	r1, #6
  34:	e5c02010 	strb	r2, [r0, #16]
  38:	e580100c 	str	r1, [r0, #12]
  3c:	e5802018 	str	r2, [r0, #24]
  40:	e580201c 	str	r2, [r0, #28]
  44:	e5830000 	str	r0, [r3]
  48:	ebfffffe 	bl	0 <bcm2835_vc_get_get_board_revision>
  4c:	e5840000 	str	r0, [r4]
  50:	e2103502 	ands	r3, r0, #8388608	; 0x800000
  54:	0a000011 	beq	a0 <Hardware::Hardware()+0xa0>
  58:	e7e73650 	ubfx	r3, r0, #12, #8
  5c:	e313000c 	tst	r3, #12
  60:	0203300f 	andeq	r3, r3, #15
  64:	05c43008 	strbeq	r3, [r4, #8]
  68:	e59f3048 	ldr	r3, [pc, #72]	; b8 <Hardware::Hardware()+0xb8>
  6c:	e3a02002 	mov	r2, #2
  70:	e2831d0e 	add	r1, r3, #896	; 0x380
  74:	ea000000 	b	7c <Hardware::Hardware()+0x7c>
  78:	e5132004 	ldr	r2, [r3, #-4]
  7c:	e1500002 	cmp	r0, r2
  80:	05843004 	streq	r3, [r4, #4]
  84:	e2833020 	add	r3, r3, #32
  88:	e1510003 	cmp	r1, r3
  8c:	1afffff9 	bne	78 <Hardware::Hardware()+0x78>
  90:	e3a00001 	mov	r0, #1
  94:	ebfffffe 	bl	0 <hardware_led_set>
  98:	e1a00004 	mov	r0, r4
  9c:	e8bd8010 	pop	{r4, pc}
  a0:	e5c43008 	strb	r3, [r4, #8]
  a4:	e3500000 	cmp	r0, #0
  a8:	1affffee 	bne	68 <Hardware::Hardware()+0x68>
  ac:	e59f3008 	ldr	r3, [pc, #8]	; bc <Hardware::Hardware()+0xbc>
  b0:	e5843004 	str	r3, [r4, #4]
  b4:	eafffff5 	b	90 <Hardware::Hardware()+0x90>
  b8:	00000024 	andeq	r0, r0, r4, lsr #32
  bc:	00000004 	andeq	r0, r0, r4

000000c0 <Hardware::GetMachine(unsigned char&)>:
  c0:	e59f0008 	ldr	r0, [pc, #8]	; d0 <Hardware::GetMachine(unsigned char&)+0x10>
  c4:	e3a03003 	mov	r3, #3
  c8:	e5c13000 	strb	r3, [r1]
  cc:	e12fff1e 	bx	lr
  d0:	000003a0 	andeq	r0, r0, r0, lsr #7

000000d4 <Hardware::GetSysName(unsigned char&)>:
  d4:	e59f0008 	ldr	r0, [pc, #8]	; e4 <Hardware::GetSysName(unsigned char&)+0x10>
  d8:	e3a03009 	mov	r3, #9
  dc:	e5c13000 	strb	r3, [r1]
  e0:	e12fff1e 	bx	lr
  e4:	000003a4 	andeq	r0, r0, r4, lsr #7

000000e8 <Hardware::GetBoardName(unsigned char&)>:
  e8:	e3a03018 	mov	r3, #24
  ec:	e5c13000 	strb	r3, [r1]
  f0:	e5900004 	ldr	r0, [r0, #4]
  f4:	e12fff1e 	bx	lr

000000f8 <Hardware::GetCpuName(unsigned char&)>:
  f8:	e5d02008 	ldrb	r2, [r0, #8]
  fc:	e3003000 	movw	r3, #0
 100:	e3403000 	movt	r3, #0
 104:	e3a0c018 	mov	ip, #24
 108:	e0832002 	add	r2, r3, r2
 10c:	e2833fed 	add	r3, r3, #948	; 0x3b4
 110:	e5d223b0 	ldrb	r2, [r2, #944]	; 0x3b0
 114:	e5c12000 	strb	r2, [r1]
 118:	e5d00008 	ldrb	r0, [r0, #8]
 11c:	e020309c 	mla	r0, ip, r0, r3
 120:	e12fff1e 	bx	lr

00000124 <Hardware::GetSocName(unsigned char&)>:
 124:	e59f3010 	ldr	r3, [pc, #16]	; 13c <Hardware::GetSocName(unsigned char&)+0x18>
 128:	e3a02008 	mov	r2, #8
 12c:	e5c12000 	strb	r2, [r1]
 130:	e5d00008 	ldrb	r0, [r0, #8]
 134:	e0830180 	add	r0, r3, r0, lsl #3
 138:	e12fff1e 	bx	lr
 13c:	00000414 	andeq	r0, r0, r4, lsl r4

00000140 <Hardware::SetTime(tm const*)>:
 140:	e1a00001 	mov	r0, r1
 144:	e92d4010 	push	{r4, lr}
 148:	ebfffffe 	bl	0 <hardware_rtc_set>
 14c:	e3a00001 	mov	r0, #1
 150:	e8bd8010 	pop	{r4, pc}

00000154 <Hardware::GetTime(tm*)>:
 154:	e92d4010 	push	{r4, lr}
 158:	e3a00000 	mov	r0, #0
 15c:	e24dd008 	sub	sp, sp, #8
 160:	e1a04001 	mov	r4, r1
 164:	ebfffffe 	bl	0 <time>
 168:	e1a03000 	mov	r3, r0
 16c:	e28d0004 	add	r0, sp, #4
 170:	e58d3004 	str	r3, [sp, #4]
 174:	ebfffffe 	bl	0 <localtime>
 178:	e5902014 	ldr	r2, [r0, #20]
 17c:	e5903010 	ldr	r3, [r0, #16]
 180:	e590c00c 	ldr	ip, [r0, #12]
 184:	e5901008 	ldr	r1, [r0, #8]
 188:	e5842014 	str	r2, [r4, #20]
 18c:	e5843010 	str	r3, [r4, #16]
 190:	e5902004 	ldr	r2, [r0, #4]
 194:	e5903000 	ldr	r3, [r0]
 198:	e584c00c 	str	ip, [r4, #12]
 19c:	e5841008 	str	r1, [r4, #8]
 1a0:	e5842004 	str	r2, [r4, #4]
 1a4:	e5843000 	str	r3, [r4]
 1a8:	e28dd008 	add	sp, sp, #8
 1ac:	e8bd8010 	pop	{r4, pc}

000001b0 <Hardware::Reboot()>:
 1b0:	e3a00001 	mov	r0, #1
 1b4:	e92d4010 	push	{r4, lr}
 1b8:	ebfffffe 	bl	0 <hardware_led_set>
 1bc:	ebfffffe 	bl	0 <bcm2835_watchdog_init>
 1c0:	e3a03000 	mov	r3, #0
 1c4:	ee073f15 	mcr	15, 0, r3, cr7, cr5, {0}
 1c8:	ebfffffe 	bl	0 <clean_data_cache>
 1cc:	ebfffffe 	bl	0 <invalidate_data_cache>
 1d0:	eafffffe 	b	1d0 <Hardware::Reboot()+0x20>

000001d4 <Hardware::GetUuid(unsigned char*)>:
 1d4:	e92d4070 	push	{r4, r5, r6, lr}
 1d8:	e24dd010 	sub	sp, sp, #16
 1dc:	e1a04001 	mov	r4, r1
 1e0:	ebfffffe 	bl	0 <bcm2835_rng_get_number>
 1e4:	e58d0000 	str	r0, [sp]
 1e8:	ebfffffe 	bl	0 <bcm2835_rng_get_number>
 1ec:	e58d0004 	str	r0, [sp, #4]
 1f0:	e1a06000 	mov	r6, r0
 1f4:	e7e36856 	ubfx	r6, r6, #16, #4
 1f8:	ebfffffe 	bl	0 <bcm2835_rng_get_number>
 1fc:	e58d0008 	str	r0, [sp, #8]
 200:	e1a05000 	mov	r5, r0
 204:	e3866040 	orr	r6, r6, #64	; 0x40
 208:	ebfffffe 	bl	0 <bcm2835_rng_get_number>
 20c:	e58d000c 	str	r0, [sp, #12]
 210:	e205203f 	and	r2, r5, #63	; 0x3f
 214:	e5cd6006 	strb	r6, [sp, #6]
 218:	e2441001 	sub	r1, r4, #1
 21c:	e1e02c82 	mvn	r2, r2, lsl #25
 220:	e1a0300d 	mov	r3, sp
 224:	e1e02ca2 	mvn	r2, r2, lsr #25
 228:	e5cd2008 	strb	r2, [sp, #8]
 22c:	e4d32001 	ldrb	r2, [r3], #1
 230:	e28d0010 	add	r0, sp, #16
 234:	e1530000 	cmp	r3, r0
 238:	e5e12001 	strb	r2, [r1, #1]!
 23c:	1afffffa 	bne	22c <Hardware::GetUuid(unsigned char*)+0x58>
 240:	e28dd010 	add	sp, sp, #16
 244:	e8bd8070 	pop	{r4, r5, r6, pc}

Disassembly of section .bss:

00000000 <Hardware::s_pThis>:
   0:	00000000 	andeq	r0, r0, r0

Disassembly of section .rodata:

00000000 <board_version>:
   0:	00000000 	andeq	r0, r0, r0
   4:	65646f4d 	strbvs	r6, [r4, #-3917]!	; 0xfffff0b3
   8:	6e55206c 	cdpvs	0, 5, cr2, cr5, cr12, {3}
   c:	776f6e6b 	strbvc	r6, [pc, -fp, ror #28]!
  10:	0000006e 	andeq	r0, r0, lr, rrx
	...
  20:	00000002 	andeq	r0, r0, r2
  24:	31206950 			; <UNDEFINED> instruction: 0x31206950
  28:	646f4d20 	strbtvs	r4, [pc], #-3360	; 30 <board_version+0x30>
  2c:	42206c65 	eormi	r6, r0, #25856	; 0x6500
  30:	20315220 	eorscs	r5, r1, r0, lsr #4
  34:	4d363532 	cfldr32mi	mvfx3, [r6, #-200]!	; 0xffffff38
  38:	00000042 	andeq	r0, r0, r2, asr #32
  3c:	00000000 	andeq	r0, r0, r0
  40:	00000003 	andeq	r0, r0, r3
  44:	31206950 			; <UNDEFINED> instruction: 0x31206950
  48:	646f4d20 	strbtvs	r4, [pc], #-3360	; 50 <board_version+0x50>
  4c:	42206c65 	eormi	r6, r0, #25856	; 0x6500
  50:	20315220 	eorscs	r5, r1, r0, lsr #4
  54:	4d363532 	cfldr32mi	mvfx3, [r6, #-200]!	; 0xffffff38
  58:	00000042 	andeq	r0, r0, r2, asr #32
  5c:	00000000 	andeq	r0, r0, r0
  60:	00000004 	andeq	r0, r0, r4
  64:	31206950 			; <UNDEFINED> instruction: 0x31206950
  68:	646f4d20 	strbtvs	r4, [pc], #-3360	; 70 <board_version+0x70>
  6c:	42206c65 	eormi	r6, r0, #25856	; 0x6500
  70:	20325220 	eorscs	r5, r2, r0, lsr #4
  74:	4d363532 	cfldr32mi	mvfx3, [r6, #-200]!	; 0xffffff38
  78:	00000042 	andeq	r0, r0, r2, asr #32
  7c:	00000000 	andeq	r0, r0, r0
  80:	00000005 	andeq	r0, r0, r5
  84:	31206950 			; <UNDEFINED> instruction: 0x31206950
  88:	646f4d20 	strbtvs	r4, [pc], #-3360	; 90 <board_version+0x90>
  8c:	42206c65 	eormi	r6, r0, #25856	; 0x6500
  90:	20325220 	eorscs	r5, r2, r0, lsr #4
  94:	4d363532 	cfldr32mi	mvfx3, [r6, #-200]!	; 0xffffff38
  98:	00000042 	andeq	r0, r0, r2, asr #32
  9c:	00000000 	andeq	r0, r0, r0
  a0:	00000006 	andeq	r0, r0, r6
  a4:	31206950 			; <UNDEFINED> instruction: 0x31206950
  a8:	646f4d20 	strbtvs	r4, [pc], #-3360	; b0 <board_version+0xb0>
  ac:	42206c65 	eormi	r6, r0, #25856	; 0x6500
  b0:	20325220 	eorscs	r5, r2, r0, lsr #4
  b4:	4d363532 	cfldr32mi	mvfx3, [r6, #-200]!	; 0xffffff38
  b8:	00000042 	andeq	r0, r0, r2, asr #32
  bc:	00000000 	andeq	r0, r0, r0
  c0:	00000007 	andeq	r0, r0, r7
  c4:	31206950 			; <UNDEFINED> instruction: 0x31206950
  c8:	646f4d20 	strbtvs	r4, [pc], #-3360	; d0 <board_version+0xd0>
  cc:	41206c65 			; <UNDEFINED> instruction: 0x41206c65
  d0:	20325220 	eorscs	r5, r2, r0, lsr #4
  d4:	4d363532 	cfldr32mi	mvfx3, [r6, #-200]!	; 0xffffff38
  d8:	00000042 	andeq	r0, r0, r2, asr #32
  dc:	00000000 	andeq	r0, r0, r0
  e0:	00000008 	andeq	r0, r0, r8
  e4:	31206950 			; <UNDEFINED> instruction: 0x31206950
  e8:	646f4d20 	strbtvs	r4, [pc], #-3360	; f0 <board_version+0xf0>
  ec:	41206c65 			; <UNDEFINED> instruction: 0x41206c65
  f0:	20325220 	eorscs	r5, r2, r0, lsr #4
  f4:	4d363532 	cfldr32mi	mvfx3, [r6, #-200]!	; 0xffffff38
  f8:	00000042 	andeq	r0, r0, r2, asr #32
  fc:	00000000 	andeq	r0, r0, r0
 100:	00000009 	andeq	r0, r0, r9
 104:	31206950 			; <UNDEFINED> instruction: 0x31206950
 108:	646f4d20 	strbtvs	r4, [pc], #-3360	; 110 <board_version+0x110>
 10c:	41206c65 			; <UNDEFINED> instruction: 0x41206c65
 110:	20325220 	eorscs	r5, r2, r0, lsr #4
 114:	4d363532 	cfldr32mi	mvfx3, [r6, #-200]!	; 0xffffff38
 118:	00000042 	andeq	r0, r0, r2, asr #32
 11c:	00000000 	andeq	r0, r0, r0
 120:	0000000d 	andeq	r0, r0, sp
 124:	31206950 			; <UNDEFINED> instruction: 0x31206950
 128:	646f4d20 	strbtvs	r4, [pc], #-3360	; 130 <board_version+0x130>
 12c:	42206c65 	eormi	r6, r0, #25856	; 0x6500
 130:	20325220 	eorscs	r5, r2, r0, lsr #4
 134:	4d323135 	ldfmis	f3, [r2, #-212]!	; 0xffffff2c
 138:	00000042 	andeq	r0, r0, r2, asr #32
 13c:	00000000 	andeq	r0, r0, r0
 140:	0000000e 	andeq	r0, r0, lr
 144:	31206950 			; <UNDEFINED> instruction: 0x31206950
 148:	646f4d20 	strbtvs	r4, [pc], #-3360	; 150 <board_version+0x150>
 14c:	42206c65 	eormi	r6, r0, #25856	; 0x6500
 150:	20325220 	eorscs	r5, r2, r0, lsr #4
 154:	4d323135 	ldfmis	f3, [r2, #-212]!	; 0xffffff2c
 158:	00000042 	andeq	r0, r0, r2, asr #32
 15c:	00000000 	andeq	r0, r0, r0
 160:	0000000f 	andeq	r0, r0, pc
 164:	31206950 			; <UNDEFINED> instruction: 0x31206950
 168:	646f4d20 	strbtvs	r4, [pc], #-3360	; 170 <board_version+0x170>
 16c:	42206c65 	eormi	r6, r0, #25856	; 0x6500
 170:	20325220 	eorscs	r5, r2, r0, lsr #4
 174:	4d323135 	ldfmis	f3, [r2, #-212]!	; 0xffffff2c
 178:	00000042 	andeq	r0, r0, r2, asr #32
 17c:	00000000 	andeq	r0, r0, r0
 180:	00000010 	andeq	r0, r0, r0, lsl r0
 184:	31206950 			; <UNDEFINED> instruction: 0x31206950
 188:	646f4d20 	strbtvs	r4, [pc], #-3360	; 190 <board_version+0x190>
 18c:	42206c65 	eormi	r6, r0, #25856	; 0x6500
 190:	3135202b 	teqcc	r5, fp, lsr #32
 194:	20424d32 	subcs	r4, r2, r2, lsr sp
 198:	302e3156 	eorcc	r3, lr, r6, asr r1
 19c:	00000000 	andeq	r0, r0, r0
 1a0:	00000011 	andeq	r0, r0, r1, lsl r0
 1a4:	706d6f43 	rsbvc	r6, sp, r3, asr #30
 1a8:	20657475 	rsbcs	r7, r5, r5, ror r4
 1ac:	75646f4d 	strbvc	r6, [r4, #-3917]!	; 0xfffff0b3
 1b0:	3520656c 	strcc	r6, [r0, #-1388]!	; 0xfffffa94
 1b4:	424d3231 	submi	r3, sp, #268435459	; 0x10000003
	...
 1c0:	00000012 	andeq	r0, r0, r2, lsl r0
 1c4:	31206950 			; <UNDEFINED> instruction: 0x31206950
 1c8:	646f4d20 	strbtvs	r4, [pc], #-3360	; 1d0 <board_version+0x1d0>
 1cc:	41206c65 			; <UNDEFINED> instruction: 0x41206c65
 1d0:	3532202b 	ldrcc	r2, [r2, #-43]!	; 0xffffffd5
 1d4:	20424d36 	subcs	r4, r2, r6, lsr sp
 1d8:	312e3156 			; <UNDEFINED> instruction: 0x312e3156
 1dc:	00000000 	andeq	r0, r0, r0
 1e0:	00000013 	andeq	r0, r0, r3, lsl r0
 1e4:	31206950 			; <UNDEFINED> instruction: 0x31206950
 1e8:	646f4d20 	strbtvs	r4, [pc], #-3360	; 1f0 <board_version+0x1f0>
 1ec:	42206c65 	eormi	r6, r0, #25856	; 0x6500
 1f0:	3135202b 	teqcc	r5, fp, lsr #32
 1f4:	20424d32 	subcs	r4, r2, r2, lsr sp
 1f8:	322e3156 	eorcc	r3, lr, #-2147483627	; 0x80000015
 1fc:	00000000 	andeq	r0, r0, r0
 200:	00000014 	andeq	r0, r0, r4, lsl r0
 204:	706d6f43 	rsbvc	r6, sp, r3, asr #30
 208:	20657475 	rsbcs	r7, r5, r5, ror r4
 20c:	75646f4d 	strbvc	r6, [r4, #-3917]!	; 0xfffff0b3
 210:	3520656c 	strcc	r6, [r0, #-1388]!	; 0xfffffa94
 214:	424d3231 	submi	r3, sp, #268435459	; 0x10000003
	...
 220:	00000015 	andeq	r0, r0, r5, lsl r0
 224:	31206950 			; <UNDEFINED> instruction: 0x31206950
 228:	646f4d20 	strbtvs	r4, [pc], #-3360	; 230 <board_version+0x230>
 22c:	41206c65 			; <UNDEFINED> instruction: 0x41206c65
 230:	3532202b 	ldrcc	r2, [r2, #-43]!	; 0xffffffd5
 234:	20424d36 	subcs	r4, r2, r6, lsr sp
 238:	312e3156 			; <UNDEFINED> instruction: 0x312e3156
 23c:	00000000 	andeq	r0, r0, r0
 240:	00900021 	addseq	r0, r0, r1, lsr #32
 244:	31206950 			; <UNDEFINED> instruction: 0x31206950
 248:	646f4d20 	strbtvs	r4, [pc], #-3360	; 250 <board_version+0x250>
 24c:	41206c65 			; <UNDEFINED> instruction: 0x41206c65
 250:	3135202b 	teqcc	r5, fp, lsr #32
 254:	00424d32 	subeq	r4, r2, r2, lsr sp
	...
 260:	00a01040 	adceq	r1, r0, r0, asr #32
 264:	32206950 	eorcc	r6, r0, #80, 18	; 0x140000
 268:	646f4d20 	strbtvs	r4, [pc], #-3360	; 270 <board_version+0x270>
 26c:	42206c65 	eormi	r6, r0, #25856	; 0x6500
 270:	42473120 	submi	r3, r7, #32, 2
 274:	2e315620 	cfmsuba32cs	mvax1, mvax5, mvfx1, mvfx0
 278:	00000030 	andeq	r0, r0, r0, lsr r0
 27c:	00000000 	andeq	r0, r0, r0
 280:	00a01041 	adceq	r1, r0, r1, asr #32
 284:	32206950 	eorcc	r6, r0, #80, 18	; 0x140000
 288:	646f4d20 	strbtvs	r4, [pc], #-3360	; 290 <board_version+0x290>
 28c:	42206c65 	eormi	r6, r0, #25856	; 0x6500
 290:	42473120 	submi	r3, r7, #32, 2
 294:	2e315620 	cfmsuba32cs	mvax1, mvax5, mvfx1, mvfx0
 298:	00000031 	andeq	r0, r0, r1, lsr r0
 29c:	00000000 	andeq	r0, r0, r0
 2a0:	00a21041 	adceq	r1, r2, r1, asr #32
 2a4:	32206950 	eorcc	r6, r0, #80, 18	; 0x140000
 2a8:	646f4d20 	strbtvs	r4, [pc], #-3360	; 2b0 <board_version+0x2b0>
 2ac:	42206c65 	eormi	r6, r0, #25856	; 0x6500
 2b0:	42473120 	submi	r3, r7, #32, 2
 2b4:	2e315620 	cfmsuba32cs	mvax1, mvax5, mvfx1, mvfx0
 2b8:	00000031 	andeq	r0, r0, r1, lsr r0
 2bc:	00000000 	andeq	r0, r0, r0
 2c0:	00a22042 	adceq	r2, r2, r2, asr #32
 2c4:	32206950 	eorcc	r6, r0, #80, 18	; 0x140000
 2c8:	646f4d20 	strbtvs	r4, [pc], #-3360	; 2d0 <board_version+0x2d0>
 2cc:	42206c65 	eormi	r6, r0, #25856	; 0x6500
 2d0:	42473120 	submi	r3, r7, #32, 2
 2d4:	2e315620 	cfmsuba32cs	mvax1, mvax5, mvfx1, mvfx0
 2d8:	00000032 	andeq	r0, r0, r2, lsr r0
 2dc:	00000000 	andeq	r0, r0, r0
 2e0:	00900092 	umullseq	r0, r0, r2, r0	; <UNPREDICTABLE>
 2e4:	5a206950 	bpl	81a82c <aSocName+0x81a418>
 2e8:	206f7265 	rsbcs	r7, pc, r5, ror #4
 2ec:	4d323135 	ldfmis	f3, [r2, #-212]!	; 0xffffff2c
 2f0:	31562042 	cmpcc	r6, r2, asr #32
 2f4:	0000322e 	andeq	r3, r0, lr, lsr #4
	...
 300:	00900093 	umullseq	r0, r0, r3, r0	; <UNPREDICTABLE>
 304:	5a206950 	bpl	81a84c <aSocName+0x81a438>
 308:	206f7265 	rsbcs	r7, pc, r5, ror #4
 30c:	4d323135 	ldfmis	f3, [r2, #-212]!	; 0xffffff2c
 310:	31562042 	cmpcc	r6, r2, asr #32
 314:	0000332e 	andeq	r3, r0, lr, lsr #6
	...
 320:	009000c1 	addseq	r0, r0, r1, asr #1
 324:	5a206950 	bpl	81a86c <aSocName+0x81a458>
 328:	206f7265 	rsbcs	r7, pc, r5, ror #4
 32c:	31352057 	teqcc	r5, r7, asr r0
 330:	00424d32 	subeq	r4, r2, r2, lsr sp
	...
 340:	00a02082 	adceq	r2, r0, r2, lsl #1
 344:	33206950 			; <UNDEFINED> instruction: 0x33206950
 348:	646f4d20 	strbtvs	r4, [pc], #-3360	; 350 <board_version+0x350>
 34c:	42206c65 	eormi	r6, r0, #25856	; 0x6500
 350:	42473120 	submi	r3, r7, #32, 2
 354:	2e315620 	cfmsuba32cs	mvax1, mvax5, mvfx1, mvfx0
 358:	00000032 	andeq	r0, r0, r2, lsr r0
 35c:	00000000 	andeq	r0, r0, r0
 360:	00a22082 	adceq	r2, r2, r2, lsl #1
 364:	33206950 			; <UNDEFINED> instruction: 0x33206950
 368:	646f4d20 	strbtvs	r4, [pc], #-3360	; 370 <board_version+0x370>
 36c:	42206c65 	eormi	r6, r0, #25856	; 0x6500
 370:	42473120 	submi	r3, r7, #32, 2
 374:	2e315620 	cfmsuba32cs	mvax1, mvax5, mvfx1, mvfx0
 378:	00000032 	andeq	r0, r0, r2, lsr r0
 37c:	00000000 	andeq	r0, r0, r0
 380:	00a020d3 	ldrdeq	r2, [r0], r3	; <UNPREDICTABLE>
 384:	33206950 			; <UNDEFINED> instruction: 0x33206950
 388:	646f4d20 	strbtvs	r4, [pc], #-3360	; 390 <board_version+0x390>
 38c:	42206c65 	eormi	r6, r0, #25856	; 0x6500
 390:	4731202b 	ldrmi	r2, [r1, -fp, lsr #32]!
 394:	00000042 	andeq	r0, r0, r2, asr #32
	...

000003a0 <machine::NAME>:
 3a0:	006d7261 	rsbeq	r7, sp, r1, ror #4

000003a4 <sysname::NAME>:
 3a4:	65726142 	ldrbvs	r6, [r2, #-322]!	; 0xfffffebe
 3a8:	6174656d 	cmnvs	r4, sp, ror #10
 3ac:	0000006c 	andeq	r0, r0, ip, rrx

000003b0 <cpu::NAME_LENGTH>:
 3b0:	0812090c 	ldmdaeq	r2, {r2, r3, r8, fp}

000003b4 <cpu::NAME>:
 3b4:	314d5241 	cmpcc	sp, r1, asr #4
 3b8:	4a363731 	bmi	d8e084 <aSocName+0xd8dc70>
 3bc:	532d465a 			; <UNDEFINED> instruction: 0x532d465a
	...
 3cc:	74726f43 	ldrbtvc	r6, [r2], #-3907	; 0xfffff0bd
 3d0:	412d7865 			; <UNDEFINED> instruction: 0x412d7865
 3d4:	00000037 	andeq	r0, r0, r7, lsr r0
	...
 3e4:	74726f43 	ldrbtvc	r6, [r2], #-3907	; 0xfffff0bd
 3e8:	412d7865 			; <UNDEFINED> instruction: 0x412d7865
 3ec:	28203335 	stmdacs	r0!, {r0, r2, r4, r5, r8, r9, ip, sp}
 3f0:	764d5241 	strbvc	r5, [sp], -r1, asr #4
 3f4:	00002938 	andeq	r2, r0, r8, lsr r9
 3f8:	00000000 	andeq	r0, r0, r0
 3fc:	6e6b6e55 	mcrvs	14, 3, r6, cr11, cr5, {2}
 400:	006e776f 	rsbeq	r7, lr, pc, ror #14
	...

00000414 <aSocName>:
 414:	324d4342 	subcc	r4, sp, #134217729	; 0x8000001
 418:	00353338 	eorseq	r3, r5, r8, lsr r3
 41c:	324d4342 	subcc	r4, sp, #134217729	; 0x8000001
 420:	00363338 	eorseq	r3, r6, r8, lsr r3
 424:	324d4342 	subcc	r4, sp, #134217729	; 0x8000001
 428:	00373338 	eorseq	r3, r7, r8, lsr r3
 42c:	6e6b6e55 	mcrvs	14, 3, r6, cr11, cr5, {2}
 430:	006e776f 	rsbeq	r7, lr, pc, ror #14

Disassembly of section .comment:

00000000 <.comment>:
   0:	43434700 	movtmi	r4, #14080	; 0x3700
   4:	4728203a 			; <UNDEFINED> instruction: 0x4728203a
   8:	2029554e 	eorcs	r5, r9, lr, asr #10
   c:	322e3031 	eorcc	r3, lr, #49	; 0x31
  10:	Address 0x0000000000000010 is out of bounds.


Disassembly of section .ARM.attributes:

00000000 <.ARM.attributes>:
   0:	00003441 	andeq	r3, r0, r1, asr #8
   4:	61656100 	cmnvs	r5, r0, lsl #2
   8:	01006962 	tsteq	r0, r2, ror #18
   c:	0000002a 	andeq	r0, r0, sl, lsr #32
  10:	412d3705 			; <UNDEFINED> instruction: 0x412d3705
  14:	070a0600 	streq	r0, [sl, -r0, lsl #12]
  18:	09010841 	stmdbeq	r1, {r0, r6, fp}
  1c:	0c050a02 			; <UNDEFINED> instruction: 0x0c050a02
  20:	14041202 	strne	r1, [r4], #-514	; 0xfffffdfe
  24:	17011501 	strne	r1, [r1, -r1, lsl #10]
  28:	19011803 	stmdbne	r1, {r0, r1, fp, ip}
  2c:	1c011a01 			; <UNDEFINED> instruction: 0x1c011a01
  30:	22021e01 	andcs	r1, r2, #1, 28
  34:	Address 0x0000000000000034 is out of bounds.


hwclock.o:     file format elf32-littlearm


Disassembly of section .text:

00000000 <HwClock::HwClock()>:
   0:	e3002000 	movw	r2, #0
   4:	e3a01b01 	mov	r1, #1024	; 0x400
   8:	e3402000 	movt	r2, #0
   c:	e1c010b8 	strh	r1, [r0, #8]
  10:	e5820000 	str	r0, [r2]
  14:	e3a02000 	mov	r2, #0
  18:	e5802000 	str	r2, [r0]
  1c:	e5802004 	str	r2, [r0, #4]
  20:	e5c0200a 	strb	r2, [r0, #10]
  24:	e12fff1e 	bx	lr

00000028 <HwClock::Print()>:
  28:	e5d0300a 	ldrb	r3, [r0, #10]
  2c:	e3530000 	cmp	r3, #0
  30:	0a00001f 	beq	b4 <HwClock::Print()+0x8c>
  34:	e5d03009 	ldrb	r3, [r0, #9]
  38:	e92d4010 	push	{r4, lr}
  3c:	e3530003 	cmp	r3, #3
  40:	93002000 	movwls	r2, #0
  44:	83001000 	movwhi	r1, #0
  48:	93402000 	movtls	r2, #0
  4c:	e1a04000 	mov	r4, r0
  50:	83401000 	movthi	r1, #0
  54:	e3000000 	movw	r0, #0
  58:	97921103 	ldrls	r1, [r2, r3, lsl #2]
  5c:	e24dd038 	sub	sp, sp, #56	; 0x38
  60:	e3400000 	movt	r0, #0
  64:	ebfffffe 	bl	0 <printf>
  68:	e28d1014 	add	r1, sp, #20
  6c:	e1a00004 	mov	r0, r4
  70:	ebfffffe 	bl	0 <HwClock::RtcGet(rtc_time*)>
  74:	e59d1028 	ldr	r1, [sp, #40]	; 0x28
  78:	e28d0014 	add	r0, sp, #20
  7c:	e59d2024 	ldr	r2, [sp, #36]	; 0x24
  80:	e8901009 	ldm	r0, {r0, r3, ip}
  84:	e2811e76 	add	r1, r1, #1888	; 0x760
  88:	e2822001 	add	r2, r2, #1
  8c:	e281100c 	add	r1, r1, #12
  90:	e58d0008 	str	r0, [sp, #8]
  94:	e3000000 	movw	r0, #0
  98:	e58d3004 	str	r3, [sp, #4]
  9c:	e58dc000 	str	ip, [sp]
  a0:	e59d3020 	ldr	r3, [sp, #32]
  a4:	e3400000 	movt	r0, #0
  a8:	ebfffffe 	bl	0 <printf>
  ac:	e28dd038 	add	sp, sp, #56	; 0x38
  b0:	e8bd8010 	pop	{r4, pc}
  b4:	e3000000 	movw	r0, #0
  b8:	e3400000 	movt	r0, #0
  bc:	eafffffe 	b	0 <puts>

000000c0 <HwClock::HcToSys()>:
  c0:	e5d0300a 	ldrb	r3, [r0, #10]
  c4:	e3530000 	cmp	r3, #0
  c8:	012fff1e 	bxeq	lr
  cc:	e92d43f0 	push	{r4, r5, r6, r7, r8, r9, lr}
  d0:	e3007000 	movw	r7, #0
  d4:	e3407000 	movt	r7, #0
  d8:	e24dd08c 	sub	sp, sp, #140	; 0x8c
  dc:	e1a04000 	mov	r4, r0
  e0:	e5973000 	ldr	r3, [r7]
  e4:	e5d39009 	ldrb	r9, [r3, #9]
  e8:	e3590000 	cmp	r9, #0
  ec:	1a00003c 	bne	1e4 <HwClock::HcToSys()+0x124>
  f0:	e28d101c 	add	r1, sp, #28
  f4:	e1a00004 	mov	r0, r4
  f8:	e3a0603c 	mov	r6, #60	; 0x3c
  fc:	ebfffffe 	bl	0 <HwClock::RtcGet(rtc_time*)>
 100:	e3a01000 	mov	r1, #0
 104:	e28d0004 	add	r0, sp, #4
 108:	ebfffffe 	bl	0 <gettimeofday>
 10c:	e59d2024 	ldr	r2, [sp, #36]	; 0x24
 110:	e28d0064 	add	r0, sp, #100	; 0x64
 114:	e59d501c 	ldr	r5, [sp, #28]
 118:	e58d206c 	str	r2, [sp, #108]	; 0x6c
 11c:	e59d2028 	ldr	r2, [sp, #40]	; 0x28
 120:	e59d3020 	ldr	r3, [sp, #32]
 124:	e58d2070 	str	r2, [sp, #112]	; 0x70
 128:	e59d202c 	ldr	r2, [sp, #44]	; 0x2c
 12c:	e58d5064 	str	r5, [sp, #100]	; 0x64
 130:	e58d2074 	str	r2, [sp, #116]	; 0x74
 134:	e59d2030 	ldr	r2, [sp, #48]	; 0x30
 138:	e0255396 	mla	r5, r6, r3, r5
 13c:	e58d3068 	str	r3, [sp, #104]	; 0x68
 140:	e58d2078 	str	r2, [sp, #120]	; 0x78
 144:	ebfffffe 	bl	0 <mktime>
 148:	e1a08000 	mov	r8, r0
 14c:	e28d1040 	add	r1, sp, #64	; 0x40
 150:	e1a00004 	mov	r0, r4
 154:	ebfffffe 	bl	0 <HwClock::RtcGet(rtc_time*)>
 158:	e59d2044 	ldr	r2, [sp, #68]	; 0x44
 15c:	e59d3040 	ldr	r3, [sp, #64]	; 0x40
 160:	e0233296 	mla	r3, r6, r2, r3
 164:	e1550003 	cmp	r5, r3
 168:	0afffff7 	beq	14c <HwClock::HcToSys()+0x8c>
 16c:	e3a01000 	mov	r1, #0
 170:	e28d000c 	add	r0, sp, #12
 174:	ebfffffe 	bl	0 <gettimeofday>
 178:	e59d200c 	ldr	r2, [sp, #12]
 17c:	e59d3004 	ldr	r3, [sp, #4]
 180:	e58d8014 	str	r8, [sp, #20]
 184:	e1520003 	cmp	r2, r3
 188:	0a00000e 	beq	1c8 <HwClock::HcToSys()+0x108>
 18c:	e59d3008 	ldr	r3, [sp, #8]
 190:	e59d2010 	ldr	r2, [sp, #16]
 194:	e0521003 	subs	r1, r2, r3
 198:	40433002 	submi	r3, r3, r2
 19c:	558d1018 	strpl	r1, [sp, #24]
 1a0:	458d3018 	strmi	r3, [sp, #24]
 1a4:	e3a01000 	mov	r1, #0
 1a8:	e28d0014 	add	r0, sp, #20
 1ac:	ebfffffe 	bl	0 <settimeofday>
 1b0:	ebfffffe 	bl	0 <millis>
 1b4:	e5840004 	str	r0, [r4, #4]
 1b8:	e3590000 	cmp	r9, #0
 1bc:	1a00000c 	bne	1f4 <HwClock::HcToSys()+0x134>
 1c0:	e28dd08c 	add	sp, sp, #140	; 0x8c
 1c4:	e8bd83f0 	pop	{r4, r5, r6, r7, r8, r9, pc}
 1c8:	e59d3010 	ldr	r3, [sp, #16]
 1cc:	e59d2008 	ldr	r2, [sp, #8]
 1d0:	e0433002 	sub	r3, r3, r2
 1d4:	e263393d 	rsb	r3, r3, #999424	; 0xf4000
 1d8:	e2833d09 	add	r3, r3, #576	; 0x240
 1dc:	e58d3018 	str	r3, [sp, #24]
 1e0:	eaffffef 	b	1a4 <HwClock::HcToSys()+0xe4>
 1e4:	e3a02000 	mov	r2, #0
 1e8:	e5c32009 	strb	r2, [r3, #9]
 1ec:	ebfffffe 	bl	0 <bcm2835_watchdog_stop>
 1f0:	eaffffbe 	b	f0 <HwClock::HcToSys()+0x30>
 1f4:	e5973000 	ldr	r3, [r7]
 1f8:	e3a02001 	mov	r2, #1
 1fc:	e5c32009 	strb	r2, [r3, #9]
 200:	ebfffffe 	bl	0 <bcm2835_watchdog_init>
 204:	e28dd08c 	add	sp, sp, #140	; 0x8c
 208:	e8bd83f0 	pop	{r4, r5, r6, r7, r8, r9, pc}

0000020c <HwClock::SysToHc()>:
 20c:	e5d0300a 	ldrb	r3, [r0, #10]
 210:	e3530000 	cmp	r3, #0
 214:	012fff1e 	bxeq	lr
 218:	e92d4070 	push	{r4, r5, r6, lr}
 21c:	e3005000 	movw	r5, #0
 220:	e3405000 	movt	r5, #0
 224:	e24dd038 	sub	sp, sp, #56	; 0x38
 228:	e1a04000 	mov	r4, r0
 22c:	e5953000 	ldr	r3, [r5]
 230:	e5d36009 	ldrb	r6, [r3, #9]
 234:	e3560000 	cmp	r6, #0
 238:	1a000024 	bne	2d0 <HwClock::SysToHc()+0xc4>
 23c:	e3a01000 	mov	r1, #0
 240:	e28d0004 	add	r0, sp, #4
 244:	ebfffffe 	bl	0 <gettimeofday>
 248:	e3a01000 	mov	r1, #0
 24c:	e28d000c 	add	r0, sp, #12
 250:	ebfffffe 	bl	0 <gettimeofday>
 254:	e59d2004 	ldr	r2, [sp, #4]
 258:	e59d300c 	ldr	r3, [sp, #12]
 25c:	e1520003 	cmp	r2, r3
 260:	aafffff8 	bge	248 <HwClock::SysToHc()+0x3c>
 264:	e28d000c 	add	r0, sp, #12
 268:	ebfffffe 	bl	0 <localtime>
 26c:	e1a03000 	mov	r3, r0
 270:	e28d1014 	add	r1, sp, #20
 274:	e1a00004 	mov	r0, r4
 278:	e5932000 	ldr	r2, [r3]
 27c:	e58d2014 	str	r2, [sp, #20]
 280:	e5932004 	ldr	r2, [r3, #4]
 284:	e58d2018 	str	r2, [sp, #24]
 288:	e5932008 	ldr	r2, [r3, #8]
 28c:	e58d201c 	str	r2, [sp, #28]
 290:	e593200c 	ldr	r2, [r3, #12]
 294:	e58d2020 	str	r2, [sp, #32]
 298:	e1c321d0 	ldrd	r2, [r3, #16]
 29c:	e58d2024 	str	r2, [sp, #36]	; 0x24
 2a0:	e58d3028 	str	r3, [sp, #40]	; 0x28
 2a4:	ebfffffe 	bl	0 <HwClock::RtcSet(rtc_time const*)>
 2a8:	e3560000 	cmp	r6, #0
 2ac:	1a000001 	bne	2b8 <HwClock::SysToHc()+0xac>
 2b0:	e28dd038 	add	sp, sp, #56	; 0x38
 2b4:	e8bd8070 	pop	{r4, r5, r6, pc}
 2b8:	e5953000 	ldr	r3, [r5]
 2bc:	e3a02001 	mov	r2, #1
 2c0:	e5c32009 	strb	r2, [r3, #9]
 2c4:	ebfffffe 	bl	0 <bcm2835_watchdog_init>
 2c8:	e28dd038 	add	sp, sp, #56	; 0x38
 2cc:	e8bd8070 	pop	{r4, r5, r6, pc}
 2d0:	e3a02000 	mov	r2, #0
 2d4:	e5c32009 	strb	r2, [r3, #9]
 2d8:	ebfffffe 	bl	0 <bcm2835_watchdog_stop>
 2dc:	eaffffd6 	b	23c <HwClock::SysToHc()+0x30>

Disassembly of section .bss:

00000000 <HwClock::s_pThis>:
   0:	00000000 	andeq	r0, r0, r0

Disassembly of section .rodata.str1.4:

00000000 <.LC0>:
   0:	6e6b6e55 	mcrvs	14, 3, r6, cr11, cr5, {2}
   4:	006e776f 	rsbeq	r7, lr, pc, ror #14

00000008 <.LC1>:
   8:	52206f4e 	eorpl	r6, r0, #312	; 0x138
   c:	63204354 			; <UNDEFINED> instruction: 0x63204354
  10:	656e6e6f 	strbvs	r6, [lr, #-3695]!	; 0xfffff191
  14:	64657463 	strbtvs	r7, [r5], #-1123	; 0xfffffb9d
  18:	00000000 	andeq	r0, r0, r0

0000001c <.LC2>:
  1c:	000a7325 	andeq	r7, sl, r5, lsr #6

00000020 <.LC3>:
  20:	64342e25 	ldrtvs	r2, [r4], #-3621	; 0xfffff1db
  24:	322e252f 	eorcc	r2, lr, #197132288	; 0xbc00000
  28:	2e252f64 	cdpcs	15, 2, cr2, cr5, cr4, {3}
  2c:	25206432 	strcs	r6, [r0, #-1074]!	; 0xfffffbce
  30:	3a64322e 	bcc	190c8f0 <HwClock::SysToHc()+0x190c6e4>
  34:	64322e25 	ldrtvs	r2, [r2], #-3621	; 0xfffff1db
  38:	322e253a 	eorcc	r2, lr, #243269632	; 0xe800000
  3c:	00000a64 	andeq	r0, r0, r4, ror #20
  40:	3750434d 	ldrbcc	r4, [r0, -sp, asr #6]
  44:	58313439 	ldmdapl	r1!, {r0, r3, r4, r5, sl, ip, sp}
  48:	00000000 	andeq	r0, r0, r0
  4c:	32335344 	eorscc	r5, r3, #68, 6	; 0x10000001
  50:	00003133 	andeq	r3, r0, r3, lsr r1
  54:	38464350 	stmdacc	r6, {r4, r6, r8, r9, lr}^
  58:	00333635 	eorseq	r3, r3, r5, lsr r6
  5c:	5f434f53 	svcpl	0x00434f53
  60:	45544e49 	ldrbmi	r4, [r4, #-3657]	; 0xfffff1b7
  64:	4c414e52 	mcrrmi	14, 5, r4, r1, cr2
	...

Disassembly of section .rodata:

00000000 <CSWTCH.7>:
   0:	00000040 	andeq	r0, r0, r0, asr #32
   4:	0000004c 	andeq	r0, r0, ip, asr #32
   8:	00000054 	andeq	r0, r0, r4, asr r0
   c:	0000005c 	andeq	r0, r0, ip, asr r0

Disassembly of section .comment:

00000000 <.comment>:
   0:	43434700 	movtmi	r4, #14080	; 0x3700
   4:	4728203a 			; <UNDEFINED> instruction: 0x4728203a
   8:	2029554e 	eorcs	r5, r9, lr, asr #10
   c:	322e3031 	eorcc	r3, lr, #49	; 0x31
  10:	Address 0x0000000000000010 is out of bounds.


Disassembly of section .ARM.attributes:

00000000 <.ARM.attributes>:
   0:	00003441 	andeq	r3, r0, r1, asr #8
   4:	61656100 	cmnvs	r5, r0, lsl #2
   8:	01006962 	tsteq	r0, r2, ror #18
   c:	0000002a 	andeq	r0, r0, sl, lsr #32
  10:	412d3705 			; <UNDEFINED> instruction: 0x412d3705
  14:	070a0600 	streq	r0, [sl, -r0, lsl #12]
  18:	09010841 	stmdbeq	r1, {r0, r6, fp}
  1c:	0c050a02 			; <UNDEFINED> instruction: 0x0c050a02
  20:	14041202 	strne	r1, [r4], #-514	; 0xfffffdfe
  24:	17011501 	strne	r1, [r1, -r1, lsl #10]
  28:	19011803 	stmdbne	r1, {r0, r1, fp, ip}
  2c:	1c011a01 			; <UNDEFINED> instruction: 0x1c011a01
  30:	22021e01 	andcs	r1, r2, #1, 28
  34:	Address 0x0000000000000034 is out of bounds.


hwclockrun.o:     file format elf32-littlearm


Disassembly of section .text:

00000000 <HwClock::Run(bool)>:
   0:	e3510000 	cmp	r1, #0
   4:	012fff1e 	bxeq	lr
   8:	e5d0300a 	ldrb	r3, [r0, #10]
   c:	e92d4070 	push	{r4, r5, r6, lr}
  10:	e3530000 	cmp	r3, #0
  14:	e24dd028 	sub	sp, sp, #40	; 0x28
  18:	e1a05000 	mov	r5, r0
  1c:	0a000006 	beq	3c <HwClock::Run(bool)+0x3c>
  20:	e3004000 	movw	r4, #0
  24:	e3404000 	movt	r4, #0
  28:	e5946000 	ldr	r6, [r4]
  2c:	e3560000 	cmp	r6, #0
  30:	0a000003 	beq	44 <HwClock::Run(bool)+0x44>
  34:	e3560001 	cmp	r6, #1
  38:	0a000022 	beq	c8 <HwClock::Run(bool)+0xc8>
  3c:	e28dd028 	add	sp, sp, #40	; 0x28
  40:	e8bd8070 	pop	{r4, r5, r6, pc}
  44:	ebfffffe 	bl	0 <millis>
  48:	e5953004 	ldr	r3, [r5, #4]
  4c:	e0400003 	sub	r0, r0, r3
  50:	e3a03cdd 	mov	r3, #56576	; 0xdd00
  54:	e340306d 	movt	r3, #109	; 0x6d
  58:	e1500003 	cmp	r0, r3
  5c:	9afffff6 	bls	3c <HwClock::Run(bool)+0x3c>
  60:	e1a01004 	mov	r1, r4
  64:	e3a03001 	mov	r3, #1
  68:	e1a00005 	mov	r0, r5
  6c:	e4813004 	str	r3, [r1], #4
  70:	ebfffffe 	bl	0 <HwClock::RtcGet(rtc_time*)>
  74:	e1a01006 	mov	r1, r6
  78:	e2840028 	add	r0, r4, #40	; 0x28
  7c:	ebfffffe 	bl	0 <gettimeofday>
  80:	e5942008 	ldr	r2, [r4, #8]
  84:	e3a0103c 	mov	r1, #60	; 0x3c
  88:	e5943004 	ldr	r3, [r4, #4]
  8c:	e594000c 	ldr	r0, [r4, #12]
  90:	e58d3004 	str	r3, [sp, #4]
  94:	e0233291 	mla	r3, r1, r2, r3
  98:	e5941010 	ldr	r1, [r4, #16]
  9c:	e58d2008 	str	r2, [sp, #8]
  a0:	e5843030 	str	r3, [r4, #48]	; 0x30
  a4:	e5942014 	ldr	r2, [r4, #20]
  a8:	e5943018 	ldr	r3, [r4, #24]
  ac:	e1cd00fc 	strd	r0, [sp, #12]
  b0:	e58d2014 	str	r2, [sp, #20]
  b4:	e28d0004 	add	r0, sp, #4
  b8:	e58d3018 	str	r3, [sp, #24]
  bc:	ebfffffe 	bl	0 <mktime>
  c0:	e5840034 	str	r0, [r4, #52]	; 0x34
  c4:	eaffffdc 	b	3c <HwClock::Run(bool)+0x3c>
  c8:	e2841038 	add	r1, r4, #56	; 0x38
  cc:	ebfffffe 	bl	0 <HwClock::RtcGet(rtc_time*)>
  d0:	e594203c 	ldr	r2, [r4, #60]	; 0x3c
  d4:	e3a0103c 	mov	r1, #60	; 0x3c
  d8:	e5943038 	ldr	r3, [r4, #56]	; 0x38
  dc:	e0233291 	mla	r3, r1, r2, r3
  e0:	e5942030 	ldr	r2, [r4, #48]	; 0x30
  e4:	e1520003 	cmp	r2, r3
  e8:	0affffd3 	beq	3c <HwClock::Run(bool)+0x3c>
  ec:	e3a01000 	mov	r1, #0
  f0:	e284005c 	add	r0, r4, #92	; 0x5c
  f4:	ebfffffe 	bl	0 <gettimeofday>
  f8:	e594105c 	ldr	r1, [r4, #92]	; 0x5c
  fc:	e5942028 	ldr	r2, [r4, #40]	; 0x28
 100:	e5943034 	ldr	r3, [r4, #52]	; 0x34
 104:	e1510002 	cmp	r1, r2
 108:	e58d3004 	str	r3, [sp, #4]
 10c:	0a00000d 	beq	148 <HwClock::Run(bool)+0x148>
 110:	e594302c 	ldr	r3, [r4, #44]	; 0x2c
 114:	e5942060 	ldr	r2, [r4, #96]	; 0x60
 118:	e0521003 	subs	r1, r2, r3
 11c:	40433002 	submi	r3, r3, r2
 120:	558d1008 	strpl	r1, [sp, #8]
 124:	458d3008 	strmi	r3, [sp, #8]
 128:	e3a01000 	mov	r1, #0
 12c:	e28d0004 	add	r0, sp, #4
 130:	ebfffffe 	bl	0 <settimeofday>
 134:	ebfffffe 	bl	0 <millis>
 138:	e5850004 	str	r0, [r5, #4]
 13c:	e3a03000 	mov	r3, #0
 140:	e5843000 	str	r3, [r4]
 144:	eaffffbc 	b	3c <HwClock::Run(bool)+0x3c>
 148:	e5943060 	ldr	r3, [r4, #96]	; 0x60
 14c:	e594202c 	ldr	r2, [r4, #44]	; 0x2c
 150:	e0433002 	sub	r3, r3, r2
 154:	e263393d 	rsb	r3, r3, #999424	; 0xf4000
 158:	e2833d09 	add	r3, r3, #576	; 0x240
 15c:	e58d3008 	str	r3, [sp, #8]
 160:	eafffff0 	b	128 <HwClock::Run(bool)+0x128>

Disassembly of section .bss:

00000000 <Status>:
   0:	00000000 	andeq	r0, r0, r0

00000004 <rtcT1>:
	...

00000028 <tvT1>:
	...

00000030 <nSecondsT1>:
  30:	00000000 	andeq	r0, r0, r0

00000034 <nSeconds>:
  34:	00000000 	andeq	r0, r0, r0

00000038 <rtcT2>:
	...

0000005c <tvT2>:
	...

Disassembly of section .comment:

00000000 <.comment>:
   0:	43434700 	movtmi	r4, #14080	; 0x3700
   4:	4728203a 			; <UNDEFINED> instruction: 0x4728203a
   8:	2029554e 	eorcs	r5, r9, lr, asr #10
   c:	322e3031 	eorcc	r3, lr, #49	; 0x31
  10:	Address 0x0000000000000010 is out of bounds.


Disassembly of section .ARM.attributes:

00000000 <.ARM.attributes>:
   0:	00003441 	andeq	r3, r0, r1, asr #8
   4:	61656100 	cmnvs	r5, r0, lsl #2
   8:	01006962 	tsteq	r0, r2, ror #18
   c:	0000002a 	andeq	r0, r0, sl, lsr #32
  10:	412d3705 			; <UNDEFINED> instruction: 0x412d3705
  14:	070a0600 	streq	r0, [sl, -r0, lsl #12]
  18:	09010841 	stmdbeq	r1, {r0, r6, fp}
  1c:	0c050a02 			; <UNDEFINED> instruction: 0x0c050a02
  20:	14041202 	strne	r1, [r4], #-514	; 0xfffffdfe
  24:	17011501 	strne	r1, [r1, -r1, lsl #10]
  28:	19011803 	stmdbne	r1, {r0, r1, fp, ip}
  2c:	1c011a01 			; <UNDEFINED> instruction: 0x1c011a01
  30:	22021e01 	andcs	r1, r2, #1, 28
  34:	Address 0x0000000000000034 is out of bounds.


hwclockset.o:     file format elf32-littlearm


Disassembly of section .text:

00000000 <HwClock::Set(rtc_time const*)>:
   0:	e92d4070 	push	{r4, r5, r6, lr}
   4:	e24dd040 	sub	sp, sp, #64	; 0x40
   8:	e5d0600a 	ldrb	r6, [r0, #10]
   c:	e3560000 	cmp	r6, #0
  10:	0a00001f 	beq	94 <HwClock::Set(rtc_time const*)+0x94>
  14:	e1a04001 	mov	r4, r1
  18:	e1a05000 	mov	r5, r0
  1c:	e3a01000 	mov	r1, #0
  20:	e28d0004 	add	r0, sp, #4
  24:	ebfffffe 	bl	0 <gettimeofday>
  28:	e1a01004 	mov	r1, r4
  2c:	e1a00005 	mov	r0, r5
  30:	e3a05000 	mov	r5, #0
  34:	ebfffffe 	bl	0 <HwClock::RtcSet(rtc_time const*)>
  38:	e1c420d0 	ldrd	r2, [r4]
  3c:	e58d503c 	str	r5, [sp, #60]	; 0x3c
  40:	e28d001c 	add	r0, sp, #28
  44:	e1cd21fc 	strd	r2, [sp, #28]
  48:	e1c420d8 	ldrd	r2, [r4, #8]
  4c:	e1cd22f4 	strd	r2, [sp, #36]	; 0x24
  50:	e1c421d0 	ldrd	r2, [r4, #16]
  54:	e1cd22fc 	strd	r2, [sp, #44]	; 0x2c
  58:	ebfffffe 	bl	0 <mktime>
  5c:	e58d000c 	str	r0, [sp, #12]
  60:	e1a01005 	mov	r1, r5
  64:	e28d0014 	add	r0, sp, #20
  68:	ebfffffe 	bl	0 <gettimeofday>
  6c:	e59d3008 	ldr	r3, [sp, #8]
  70:	e28d000c 	add	r0, sp, #12
  74:	e59d2018 	ldr	r2, [sp, #24]
  78:	e0521003 	subs	r1, r2, r3
  7c:	40433002 	submi	r3, r3, r2
  80:	4263193d 	rsbmi	r1, r3, #999424	; 0xf4000
  84:	42811d09 	addmi	r1, r1, #576	; 0x240
  88:	e58d1010 	str	r1, [sp, #16]
  8c:	e3a01000 	mov	r1, #0
  90:	ebfffffe 	bl	0 <settimeofday>
  94:	e1a00006 	mov	r0, r6
  98:	e28dd040 	add	sp, sp, #64	; 0x40
  9c:	e8bd8070 	pop	{r4, r5, r6, pc}

Disassembly of section .comment:

00000000 <.comment>:
   0:	43434700 	movtmi	r4, #14080	; 0x3700
   4:	4728203a 			; <UNDEFINED> instruction: 0x4728203a
   8:	2029554e 	eorcs	r5, r9, lr, asr #10
   c:	322e3031 	eorcc	r3, lr, #49	; 0x31
  10:	Address 0x0000000000000010 is out of bounds.


Disassembly of section .ARM.attributes:

00000000 <.ARM.attributes>:
   0:	00003441 	andeq	r3, r0, r1, asr #8
   4:	61656100 	cmnvs	r5, r0, lsl #2
   8:	01006962 	tsteq	r0, r2, ror #18
   c:	0000002a 	andeq	r0, r0, sl, lsr #32
  10:	412d3705 			; <UNDEFINED> instruction: 0x412d3705
  14:	070a0600 	streq	r0, [sl, -r0, lsl #12]
  18:	09010841 	stmdbeq	r1, {r0, r6, fp}
  1c:	0c050a02 			; <UNDEFINED> instruction: 0x0c050a02
  20:	14041202 	strne	r1, [r4], #-514	; 0xfffffdfe
  24:	17011501 	strne	r1, [r1, -r1, lsl #10]
  28:	19011803 	stmdbne	r1, {r0, r1, fp, ip}
  2c:	1c011a01 			; <UNDEFINED> instruction: 0x1c011a01
  30:	22021e01 	andcs	r1, r2, #1, 28
  34:	Address 0x0000000000000034 is out of bounds.


hwclockrtc.o:     file format elf32-littlearm


Disassembly of section .text:

00000000 <HwClock::RtcGet(rtc_time*) [clone .part.0] [clone .isra.0]>:
   0:	e3a0c901 	mov	ip, #16384	; 0x4000
   4:	e3510002 	cmp	r1, #2
   8:	e92d4030 	push	{r4, r5, lr}
   c:	e24dd00c 	sub	sp, sp, #12
  10:	e343cf80 	movt	ip, #16256	; 0x3f80
  14:	13a01000 	movne	r1, #0
  18:	e5cd1000 	strb	r1, [sp]
  1c:	e1a03000 	mov	r3, r0
  20:	e58c300c 	str	r3, [ip, #12]
  24:	e3a00d6a 	mov	r0, #6784	; 0x1a80
  28:	e3400006 	movt	r0, #6
  2c:	e1a04002 	mov	r4, r2
  30:	ebfffffe 	bl	0 <bcm2835_i2c_set_baudrate>
  34:	e3a01001 	mov	r1, #1
  38:	e1a0000d 	mov	r0, sp
  3c:	ebfffffe 	bl	0 <bcm2835_i2c_write>
  40:	e3a01007 	mov	r1, #7
  44:	e1a0000d 	mov	r0, sp
  48:	ebfffffe 	bl	0 <bcm2835_i2c_read>
  4c:	e5dd1000 	ldrb	r1, [sp]
  50:	e3a0300a 	mov	r3, #10
  54:	e5dd2001 	ldrb	r2, [sp, #1]
  58:	e7e20251 	ubfx	r0, r1, #4, #3
  5c:	e201100f 	and	r1, r1, #15
  60:	e1011083 	smlabb	r1, r3, r0, r1
  64:	e5dde005 	ldrb	lr, [sp, #5]
  68:	e5841000 	str	r1, [r4]
  6c:	e7e21252 	ubfx	r1, r2, #4, #3
  70:	e202200f 	and	r2, r2, #15
  74:	e1012183 	smlabb	r1, r3, r1, r2
  78:	e5dd2002 	ldrb	r2, [sp, #2]
  7c:	e5841004 	str	r1, [r4, #4]
  80:	e7e15252 	ubfx	r5, r2, #4, #2
  84:	e202200f 	and	r2, r2, #15
  88:	e7e0125e 	ubfx	r1, lr, #4, #1
  8c:	e20ee00f 	and	lr, lr, #15
  90:	e1022583 	smlabb	r2, r3, r5, r2
  94:	e5ddc006 	ldrb	ip, [sp, #6]
  98:	e101e183 	smlabb	r1, r3, r1, lr
  9c:	e5dd0004 	ldrb	r0, [sp, #4]
  a0:	e5842008 	str	r2, [r4, #8]
  a4:	e2411001 	sub	r1, r1, #1
  a8:	e1a0222c 	lsr	r2, ip, #4
  ac:	e20cc00f 	and	ip, ip, #15
  b0:	e102c283 	smlabb	r2, r3, r2, ip
  b4:	e5841010 	str	r1, [r4, #16]
  b8:	e7e1c250 	ubfx	ip, r0, #4, #2
  bc:	e200000f 	and	r0, r0, #15
  c0:	e5dd1003 	ldrb	r1, [sp, #3]
  c4:	e2822064 	add	r2, r2, #100	; 0x64
  c8:	e1030c83 	smlabb	r3, r3, ip, r0
  cc:	e5842014 	str	r2, [r4, #20]
  d0:	e2011007 	and	r1, r1, #7
  d4:	e5841018 	str	r1, [r4, #24]
  d8:	e3a00001 	mov	r0, #1
  dc:	e584300c 	str	r3, [r4, #12]
  e0:	e28dd00c 	add	sp, sp, #12
  e4:	e8bd8030 	pop	{r4, r5, pc}

000000e8 <HwClock::RtcSet(rtc_time const*)>:
  e8:	e92d4ff0 	push	{r4, r5, r6, r7, r8, r9, sl, fp, lr}
  ec:	e24dd00c 	sub	sp, sp, #12
  f0:	e5d0400a 	ldrb	r4, [r0, #10]
  f4:	e3540000 	cmp	r4, #0
  f8:	0a000047 	beq	21c <HwClock::RtcSet(rtc_time const*)+0x134>
  fc:	e591e000 	ldr	lr, [r1]
 100:	e30c2ccd 	movw	r2, #52429	; 0xcccd
 104:	e34c2ccc 	movt	r2, #52428	; 0xcccc
 108:	e3a0900a 	mov	r9, #10
 10c:	e5d06009 	ldrb	r6, [r0, #9]
 110:	e20ee07f 	and	lr, lr, #127	; 0x7f
 114:	e5918010 	ldr	r8, [r1, #16]
 118:	e5913014 	ldr	r3, [r1, #20]
 11c:	e3560000 	cmp	r6, #0
 120:	e591c004 	ldr	ip, [r1, #4]
 124:	e2888001 	add	r8, r8, #1
 128:	e591a00c 	ldr	sl, [r1, #12]
 12c:	e2433064 	sub	r3, r3, #100	; 0x64
 130:	e5917018 	ldr	r7, [r1, #24]
 134:	e20cc07f 	and	ip, ip, #127	; 0x7f
 138:	e5d05008 	ldrb	r5, [r0, #8]
 13c:	e20aa03f 	and	sl, sl, #63	; 0x3f
 140:	e5910008 	ldr	r0, [r1, #8]
 144:	e208801f 	and	r8, r8, #31
 148:	e081be92 	umull	fp, r1, r2, lr
 14c:	e200001f 	and	r0, r0, #31
 150:	e6ef3073 	uxtb	r3, r3
 154:	e1a0b1a1 	lsr	fp, r1, #3
 158:	e2077007 	and	r7, r7, #7
 15c:	e061eb99 	mls	r1, r9, fp, lr
 160:	03877008 	orreq	r7, r7, #8
 164:	e081120b 	add	r1, r1, fp, lsl #4
 168:	e08ebc92 	umull	fp, lr, r2, ip
 16c:	e6ef1071 	uxtb	r1, r1
 170:	e1a0b1ae 	lsr	fp, lr, #3
 174:	03811080 	orreq	r1, r1, #128	; 0x80
 178:	e06ecb99 	mls	lr, r9, fp, ip
 17c:	e08ee20b 	add	lr, lr, fp, lsl #4
 180:	e08cb092 	umull	fp, ip, r2, r0
 184:	e6efe07e 	uxtb	lr, lr
 188:	e1a0b1ac 	lsr	fp, ip, #3
 18c:	e06c0b99 	mls	ip, r9, fp, r0
 190:	e08cc20b 	add	ip, ip, fp, lsl #4
 194:	e080ba92 	umull	fp, r0, r2, sl
 198:	e6efc07c 	uxtb	ip, ip
 19c:	e1a0b1a0 	lsr	fp, r0, #3
 1a0:	e060ab99 	mls	r0, r9, fp, sl
 1a4:	e080020b 	add	r0, r0, fp, lsl #4
 1a8:	e08ab892 	umull	fp, sl, r2, r8
 1ac:	e082b392 	umull	fp, r2, r2, r3
 1b0:	e1a0a1aa 	lsr	sl, sl, #3
 1b4:	e6ef0070 	uxtb	r0, r0
 1b8:	e1a021a2 	lsr	r2, r2, #3
 1bc:	e0688a99 	mls	r8, r9, sl, r8
 1c0:	e0633299 	mls	r3, r9, r2, r3
 1c4:	e088a20a 	add	sl, r8, sl, lsl #4
 1c8:	e0832202 	add	r2, r3, r2, lsl #4
 1cc:	e6efa07a 	uxtb	sl, sl
 1d0:	e6ef2072 	uxtb	r2, r2
 1d4:	1a000013 	bne	228 <HwClock::RtcSet(rtc_time const*)+0x140>
 1d8:	e5cd0005 	strb	r0, [sp, #5]
 1dc:	e3a03901 	mov	r3, #16384	; 0x4000
 1e0:	e3433f80 	movt	r3, #16256	; 0x3f80
 1e4:	e3a00d6a 	mov	r0, #6784	; 0x1a80
 1e8:	e5cd1001 	strb	r1, [sp, #1]
 1ec:	e3400006 	movt	r0, #6
 1f0:	e5cd6000 	strb	r6, [sp]
 1f4:	e5cde002 	strb	lr, [sp, #2]
 1f8:	e5cdc003 	strb	ip, [sp, #3]
 1fc:	e5cd7004 	strb	r7, [sp, #4]
 200:	e5cda006 	strb	sl, [sp, #6]
 204:	e5cd2007 	strb	r2, [sp, #7]
 208:	e583500c 	str	r5, [r3, #12]
 20c:	ebfffffe 	bl	0 <bcm2835_i2c_set_baudrate>
 210:	e3a01008 	mov	r1, #8
 214:	e1a0000d 	mov	r0, sp
 218:	ebfffffe 	bl	0 <bcm2835_i2c_write>
 21c:	e1a00004 	mov	r0, r4
 220:	e28dd00c 	add	sp, sp, #12
 224:	e8bd8ff0 	pop	{r4, r5, r6, r7, r8, r9, sl, fp, pc}
 228:	e3560002 	cmp	r6, #2
 22c:	13a06000 	movne	r6, #0
 230:	eaffffe8 	b	1d8 <HwClock::RtcSet(rtc_time const*)+0xf0>

00000234 <HwClock::RtcProbe()>:
 234:	e92d41f0 	push	{r4, r5, r6, r7, r8, lr}
 238:	e1a04000 	mov	r4, r0
 23c:	e24dd028 	sub	sp, sp, #40	; 0x28
 240:	e3a06901 	mov	r6, #16384	; 0x4000
 244:	e3436f80 	movt	r6, #16256	; 0x3f80
 248:	ebfffffe 	bl	0 <millis>
 24c:	e5840004 	str	r0, [r4, #4]
 250:	e30806a0 	movw	r0, #34464	; 0x86a0
 254:	e3400001 	movt	r0, #1
 258:	e3a0806f 	mov	r8, #111	; 0x6f
 25c:	e3a07006 	mov	r7, #6
 260:	ebfffffe 	bl	0 <bcm2835_i2c_set_baudrate>
 264:	e586800c 	str	r8, [r6, #12]
 268:	e3a01001 	mov	r1, #1
 26c:	e5cd7000 	strb	r7, [sp]
 270:	e1a0000d 	mov	r0, sp
 274:	ebfffffe 	bl	0 <bcm2835_i2c_write>
 278:	e3a01001 	mov	r1, #1
 27c:	e1a0000d 	mov	r0, sp
 280:	ebfffffe 	bl	0 <bcm2835_i2c_read>
 284:	e3a01000 	mov	r1, #0
 288:	e1a00001 	mov	r0, r1
 28c:	ebfffffe 	bl	0 <bcm2835_i2c_write>
 290:	e2505000 	subs	r5, r0, #0
 294:	0a000039 	beq	380 <HwClock::RtcProbe()+0x14c>
 298:	e3a05068 	mov	r5, #104	; 0x68
 29c:	e3a01001 	mov	r1, #1
 2a0:	e586500c 	str	r5, [r6, #12]
 2a4:	e1a0000d 	mov	r0, sp
 2a8:	e5cd7000 	strb	r7, [sp]
 2ac:	ebfffffe 	bl	0 <bcm2835_i2c_write>
 2b0:	e3a01001 	mov	r1, #1
 2b4:	e1a0000d 	mov	r0, sp
 2b8:	ebfffffe 	bl	0 <bcm2835_i2c_read>
 2bc:	e3a01000 	mov	r1, #0
 2c0:	e1a00001 	mov	r0, r1
 2c4:	ebfffffe 	bl	0 <bcm2835_i2c_write>
 2c8:	e3500000 	cmp	r0, #0
 2cc:	0a000010 	beq	314 <HwClock::RtcProbe()+0xe0>
 2d0:	e3a03051 	mov	r3, #81	; 0x51
 2d4:	e3a01001 	mov	r1, #1
 2d8:	e586300c 	str	r3, [r6, #12]
 2dc:	e1a0000d 	mov	r0, sp
 2e0:	e3a03008 	mov	r3, #8
 2e4:	e5cd3000 	strb	r3, [sp]
 2e8:	ebfffffe 	bl	0 <bcm2835_i2c_write>
 2ec:	e3a01001 	mov	r1, #1
 2f0:	e1a0000d 	mov	r0, sp
 2f4:	ebfffffe 	bl	0 <bcm2835_i2c_read>
 2f8:	e3a01000 	mov	r1, #0
 2fc:	e1a00001 	mov	r0, r1
 300:	ebfffffe 	bl	0 <bcm2835_i2c_write>
 304:	e2505000 	subs	r5, r0, #0
 308:	0a000036 	beq	3e8 <HwClock::RtcProbe()+0x1b4>
 30c:	e28dd028 	add	sp, sp, #40	; 0x28
 310:	e8bd81f0 	pop	{r4, r5, r6, r7, r8, pc}
 314:	e3a03f5a 	mov	r3, #360	; 0x168
 318:	e3a01001 	mov	r1, #1
 31c:	e1c430b8 	strh	r3, [r4, #8]
 320:	e28d2004 	add	r2, sp, #4
 324:	e5c4100a 	strb	r1, [r4, #10]
 328:	e1a00005 	mov	r0, r5
 32c:	ebffff33 	bl	0 <HwClock::RtcGet(rtc_time*) [clone .part.0] [clone .isra.0]>
 330:	e59d300c 	ldr	r3, [sp, #12]
 334:	e3530018 	cmp	r3, #24
 338:	ca000002 	bgt	348 <HwClock::RtcProbe()+0x114>
 33c:	e59d3018 	ldr	r3, [sp, #24]
 340:	e353007b 	cmp	r3, #123	; 0x7b
 344:	dafffff0 	ble	30c <HwClock::RtcProbe()+0xd8>
 348:	e3a03000 	mov	r3, #0
 34c:	e3a0c016 	mov	ip, #22
 350:	e58d300c 	str	r3, [sp, #12]
 354:	e3a02001 	mov	r2, #1
 358:	e58d3008 	str	r3, [sp, #8]
 35c:	e28d1004 	add	r1, sp, #4
 360:	e58d3004 	str	r3, [sp, #4]
 364:	e1a00004 	mov	r0, r4
 368:	e58dc010 	str	ip, [sp, #16]
 36c:	e3a0307b 	mov	r3, #123	; 0x7b
 370:	e1cd21f4 	strd	r2, [sp, #20]
 374:	ebfffffe 	bl	e8 <HwClock::RtcSet(rtc_time const*)>
 378:	e28dd028 	add	sp, sp, #40	; 0x28
 37c:	e8bd81f0 	pop	{r4, r5, r6, r7, r8, pc}
 380:	e1c480b8 	strh	r8, [r4, #8]
 384:	e3a06001 	mov	r6, #1
 388:	e5c4600a 	strb	r6, [r4, #10]
 38c:	e1a01006 	mov	r1, r6
 390:	e5cd5000 	strb	r5, [sp]
 394:	e1a0000d 	mov	r0, sp
 398:	ebfffffe 	bl	0 <bcm2835_i2c_write>
 39c:	e1a01006 	mov	r1, r6
 3a0:	e1a0000d 	mov	r0, sp
 3a4:	ebfffffe 	bl	0 <bcm2835_i2c_read>
 3a8:	e1dd30d0 	ldrsb	r3, [sp]
 3ac:	e3530000 	cmp	r3, #0
 3b0:	baffffd5 	blt	30c <HwClock::RtcProbe()+0xd8>
 3b4:	e58d500c 	str	r5, [sp, #12]
 3b8:	e3a02016 	mov	r2, #22
 3bc:	e58d5008 	str	r5, [sp, #8]
 3c0:	e3a0307b 	mov	r3, #123	; 0x7b
 3c4:	e58d5004 	str	r5, [sp, #4]
 3c8:	e1a00004 	mov	r0, r4
 3cc:	e58d2010 	str	r2, [sp, #16]
 3d0:	e28d1004 	add	r1, sp, #4
 3d4:	e58d6014 	str	r6, [sp, #20]
 3d8:	e58d3018 	str	r3, [sp, #24]
 3dc:	ebfffffe 	bl	e8 <HwClock::RtcSet(rtc_time const*)>
 3e0:	e28dd028 	add	sp, sp, #40	; 0x28
 3e4:	e8bd81f0 	pop	{r4, r5, r6, r7, r8, pc}
 3e8:	e5cd5004 	strb	r5, [sp, #4]
 3ec:	e3a06001 	mov	r6, #1
 3f0:	e5c4600a 	strb	r6, [r4, #10]
 3f4:	e3003251 	movw	r3, #593	; 0x251
 3f8:	e1c430b8 	strh	r3, [r4, #8]
 3fc:	e3a01002 	mov	r1, #2
 400:	e5cd5005 	strb	r5, [sp, #5]
 404:	e28d0004 	add	r0, sp, #4
 408:	ebfffffe 	bl	0 <bcm2835_i2c_write>
 40c:	e5cd6004 	strb	r6, [sp, #4]
 410:	e3a01002 	mov	r1, #2
 414:	e5cd5005 	strb	r5, [sp, #5]
 418:	e28d0004 	add	r0, sp, #4
 41c:	ebfffffe 	bl	0 <bcm2835_i2c_write>
 420:	e3a03002 	mov	r3, #2
 424:	e1a01006 	mov	r1, r6
 428:	e5cd3000 	strb	r3, [sp]
 42c:	e1a0000d 	mov	r0, sp
 430:	ebfffffe 	bl	0 <bcm2835_i2c_write>
 434:	e1a01006 	mov	r1, r6
 438:	e1a0000d 	mov	r0, sp
 43c:	ebfffffe 	bl	0 <bcm2835_i2c_read>
 440:	e1dd30d0 	ldrsb	r3, [sp]
 444:	e3530000 	cmp	r3, #0
 448:	ba00000c 	blt	480 <HwClock::RtcProbe()+0x24c>
 44c:	e3a03002 	mov	r3, #2
 450:	e3a01001 	mov	r1, #1
 454:	e5cd3000 	strb	r3, [sp]
 458:	e1a0000d 	mov	r0, sp
 45c:	ebfffffe 	bl	0 <bcm2835_i2c_write>
 460:	e3a01001 	mov	r1, #1
 464:	e1a0000d 	mov	r0, sp
 468:	ebfffffe 	bl	0 <bcm2835_i2c_read>
 46c:	e1dd30d0 	ldrsb	r3, [sp]
 470:	e3530000 	cmp	r3, #0
 474:	b3a03000 	movlt	r3, #0
 478:	b5c4300a 	strblt	r3, [r4, #10]
 47c:	eaffffa2 	b	30c <HwClock::RtcProbe()+0xd8>
 480:	e58d6014 	str	r6, [sp, #20]
 484:	e3a0307b 	mov	r3, #123	; 0x7b
 488:	e58d3018 	str	r3, [sp, #24]
 48c:	e28d1004 	add	r1, sp, #4
 490:	e58d500c 	str	r5, [sp, #12]
 494:	e3a03016 	mov	r3, #22
 498:	e58d5008 	str	r5, [sp, #8]
 49c:	e1a00004 	mov	r0, r4
 4a0:	e58d5004 	str	r5, [sp, #4]
 4a4:	e58d3010 	str	r3, [sp, #16]
 4a8:	ebfffffe 	bl	e8 <HwClock::RtcSet(rtc_time const*)>
 4ac:	eaffffe6 	b	44c <HwClock::RtcProbe()+0x218>

000004b0 <HwClock::RtcGet(rtc_time*)>:
 4b0:	e1a03000 	mov	r3, r0
 4b4:	e1a02001 	mov	r2, r1
 4b8:	e5d0000a 	ldrb	r0, [r0, #10]
 4bc:	e3500000 	cmp	r0, #0
 4c0:	012fff1e 	bxeq	lr
 4c4:	e5d31009 	ldrb	r1, [r3, #9]
 4c8:	e5d30008 	ldrb	r0, [r3, #8]
 4cc:	eafffecb 	b	0 <HwClock::RtcGet(rtc_time*) [clone .part.0] [clone .isra.0]>

Disassembly of section .comment:

00000000 <.comment>:
   0:	43434700 	movtmi	r4, #14080	; 0x3700
   4:	4728203a 			; <UNDEFINED> instruction: 0x4728203a
   8:	2029554e 	eorcs	r5, r9, lr, asr #10
   c:	322e3031 	eorcc	r3, lr, #49	; 0x31
  10:	Address 0x0000000000000010 is out of bounds.


Disassembly of section .ARM.attributes:

00000000 <.ARM.attributes>:
   0:	00003441 	andeq	r3, r0, r1, asr #8
   4:	61656100 	cmnvs	r5, r0, lsl #2
   8:	01006962 	tsteq	r0, r2, ror #18
   c:	0000002a 	andeq	r0, r0, sl, lsr #32
  10:	412d3705 			; <UNDEFINED> instruction: 0x412d3705
  14:	070a0600 	streq	r0, [sl, -r0, lsl #12]
  18:	09010841 	stmdbeq	r1, {r0, r6, fp}
  1c:	0c050a02 			; <UNDEFINED> instruction: 0x0c050a02
  20:	14041202 	strne	r1, [r4], #-514	; 0xfffffdfe
  24:	17011501 	strne	r1, [r1, -r1, lsl #10]
  28:	19011803 	stmdbne	r1, {r0, r1, fp, ip}
  2c:	1c011a01 			; <UNDEFINED> instruction: 0x1c011a01
  30:	22021e01 	andcs	r1, r2, #1, 28
  34:	Address 0x0000000000000034 is out of bounds.

