In archive lib/libpca9685dmx.a:

pca9685dmxledparams.o:     file format elf32-littlearm


Disassembly of section .text:

00000000 <PCA9685DmxLedParams::PCA9685DmxLedParams()>:
   0:	e92d4010 	push	{r4, lr}
   4:	e59f102c 	ldr	r1, [pc, #44]	; 38 <PCA9685DmxLedParams::PCA9685DmxLedParams()+0x38>
   8:	e1a04000 	mov	r4, r0
   c:	ebfffffe 	bl	0 <PCA9685DmxParams::PCA9685DmxParams(char const*)>
  10:	e3a00000 	mov	r0, #0
  14:	e3a01040 	mov	r1, #64	; 0x40
  18:	e3a02078 	mov	r2, #120	; 0x78
  1c:	e3a03c01 	mov	r3, #256	; 0x100
  20:	e5840010 	str	r0, [r4, #16]
  24:	e5c41014 	strb	r1, [r4, #20]
  28:	e1a00004 	mov	r0, r4
  2c:	e1c421b6 	strh	r2, [r4, #22]
  30:	e1c431b8 	strh	r3, [r4, #24]
  34:	e8bd8010 	pop	{r4, pc}
  38:	00000000 	andeq	r0, r0, r0

0000003c <PCA9685DmxLedParams::~PCA9685DmxLedParams()>:
  3c:	e92d4010 	push	{r4, lr}
  40:	e1a04000 	mov	r4, r0
  44:	ebfffffe 	bl	0 <PCA9685DmxParams::~PCA9685DmxParams()>
  48:	e1a00004 	mov	r0, r4
  4c:	e8bd8010 	pop	{r4, pc}

00000050 <PCA9685DmxLedParams::Load()>:
  50:	e92d4010 	push	{r4, lr}
  54:	e24dd008 	sub	sp, sp, #8
  58:	e1a02000 	mov	r2, r0
  5c:	e59f1028 	ldr	r1, [pc, #40]	; 8c <PCA9685DmxLedParams::Load()+0x3c>
  60:	e1a0000d 	mov	r0, sp
  64:	ebfffffe 	bl	0 <ReadConfigFile::ReadConfigFile(void (*)(void*, char const*), void*)>
  68:	e59f1020 	ldr	r1, [pc, #32]	; 90 <PCA9685DmxLedParams::Load()+0x40>
  6c:	e1a0000d 	mov	r0, sp
  70:	ebfffffe 	bl	0 <ReadConfigFile::Read(char const*)>
  74:	e1a04000 	mov	r4, r0
  78:	e1a0000d 	mov	r0, sp
  7c:	ebfffffe 	bl	0 <ReadConfigFile::~ReadConfigFile()>
  80:	e1a00004 	mov	r0, r4
  84:	e28dd008 	add	sp, sp, #8
  88:	e8bd8010 	pop	{r4, pc}
	...

00000094 <PCA9685DmxLedParams::Dump()>:
  94:	e12fff1e 	bx	lr

00000098 <PCA9685DmxLedParams::callbackFunction(char const*)>:
  98:	e92d4030 	push	{r4, r5, lr}
  9c:	e1a04001 	mov	r4, r1
  a0:	e24dd00c 	sub	sp, sp, #12
  a4:	e1a05000 	mov	r5, r0
  a8:	e59f10ec 	ldr	r1, [pc, #236]	; 19c <PCA9685DmxLedParams::callbackFunction(char const*)+0x104>
  ac:	e1a00004 	mov	r0, r4
  b0:	e28d2005 	add	r2, sp, #5
  b4:	ebfffffe 	bl	0 <Sscan::I2cAddress(char const*, char const*, unsigned char&)>
  b8:	e3500000 	cmp	r0, #0
  bc:	1a000008 	bne	e4 <PCA9685DmxLedParams::callbackFunction(char const*)+0x4c>
  c0:	e5dd3005 	ldrb	r3, [sp, #5]
  c4:	e3530070 	cmp	r3, #112	; 0x70
  c8:	1353003f 	cmpne	r3, #63	; 0x3f
  cc:	85952010 	ldrhi	r2, [r5, #16]
  d0:	85c53014 	strbhi	r3, [r5, #20]
  d4:	83823008 	orrhi	r3, r2, #8
  d8:	85853010 	strhi	r3, [r5, #16]
  dc:	e28dd00c 	add	sp, sp, #12
  e0:	e8bd8030 	pop	{r4, r5, pc}
  e4:	e1a00004 	mov	r0, r4
  e8:	e59f10b0 	ldr	r1, [pc, #176]	; 1a0 <PCA9685DmxLedParams::callbackFunction(char const*)+0x108>
  ec:	e28d2006 	add	r2, sp, #6
  f0:	ebfffffe 	bl	0 <Sscan::Uint16(char const*, char const*, unsigned short&)>
  f4:	e3500000 	cmp	r0, #0
  f8:	1a00000b 	bne	12c <PCA9685DmxLedParams::callbackFunction(char const*)+0x94>
  fc:	e1dd20b6 	ldrh	r2, [sp, #6]
 100:	e59f109c 	ldr	r1, [pc, #156]	; 1a4 <PCA9685DmxLedParams::callbackFunction(char const*)+0x10c>
 104:	e2423018 	sub	r3, r2, #24
 108:	e6ff3073 	uxth	r3, r3
 10c:	e1530001 	cmp	r3, r1
 110:	8afffff1 	bhi	dc <PCA9685DmxLedParams::callbackFunction(char const*)+0x44>
 114:	e5953010 	ldr	r3, [r5, #16]
 118:	e1c521b6 	strh	r2, [r5, #22]
 11c:	e3833001 	orr	r3, r3, #1
 120:	e5853010 	str	r3, [r5, #16]
 124:	e28dd00c 	add	sp, sp, #12
 128:	e8bd8030 	pop	{r4, r5, pc}
 12c:	e1a00004 	mov	r0, r4
 130:	e59f1070 	ldr	r1, [pc, #112]	; 1a8 <PCA9685DmxLedParams::callbackFunction(char const*)+0x110>
 134:	e28d2005 	add	r2, sp, #5
 138:	ebfffffe 	bl	0 <Sscan::Uint8(char const*, char const*, unsigned char&)>
 13c:	e3500000 	cmp	r0, #0
 140:	1a000008 	bne	168 <PCA9685DmxLedParams::callbackFunction(char const*)+0xd0>
 144:	e5dd3005 	ldrb	r3, [sp, #5]
 148:	e3530000 	cmp	r3, #0
 14c:	0affffe2 	beq	dc <PCA9685DmxLedParams::callbackFunction(char const*)+0x44>
 150:	e3a02001 	mov	r2, #1
 154:	e5953010 	ldr	r3, [r5, #16]
 158:	e5c52018 	strb	r2, [r5, #24]
 15c:	e3833002 	orr	r3, r3, #2
 160:	e5853010 	str	r3, [r5, #16]
 164:	eaffffdc 	b	dc <PCA9685DmxLedParams::callbackFunction(char const*)+0x44>
 168:	e1a00004 	mov	r0, r4
 16c:	e59f1038 	ldr	r1, [pc, #56]	; 1ac <PCA9685DmxLedParams::callbackFunction(char const*)+0x114>
 170:	e28d2005 	add	r2, sp, #5
 174:	ebfffffe 	bl	0 <Sscan::Uint8(char const*, char const*, unsigned char&)>
 178:	e3500000 	cmp	r0, #0
 17c:	1affffd6 	bne	dc <PCA9685DmxLedParams::callbackFunction(char const*)+0x44>
 180:	e5dd3005 	ldrb	r3, [sp, #5]
 184:	e3530000 	cmp	r3, #0
 188:	05952010 	ldreq	r2, [r5, #16]
 18c:	05c53019 	strbeq	r3, [r5, #25]
 190:	03823004 	orreq	r3, r2, #4
 194:	05853010 	streq	r3, [r5, #16]
 198:	eaffffcf 	b	dc <PCA9685DmxLedParams::callbackFunction(char const*)+0x44>
 19c:	0000000c 	andeq	r0, r0, ip
 1a0:	00000020 	andeq	r0, r0, r0, lsr #32
 1a4:	000005de 	ldrdeq	r0, [r0], -lr
 1a8:	00000030 	andeq	r0, r0, r0, lsr r0
 1ac:	00000040 	andeq	r0, r0, r0, asr #32

000001b0 <PCA9685DmxLedParams::staticCallbackFunction(void*, char const*)>:
 1b0:	eafffffe 	b	98 <PCA9685DmxLedParams::callbackFunction(char const*)>

000001b4 <PCA9685DmxLedParams::Set(PCA9685DmxLed*)>:
 1b4:	e92d4030 	push	{r4, r5, lr}
 1b8:	e24dd00c 	sub	sp, sp, #12
 1bc:	e1a04000 	mov	r4, r0
 1c0:	e1a05001 	mov	r5, r1
 1c4:	ebfffffe 	bl	0 <PCA9685DmxParams::GetSetList() const>
 1c8:	e3500000 	cmp	r0, #0
 1cc:	e5943010 	ldr	r3, [r4, #16]
 1d0:	1a000001 	bne	1dc <PCA9685DmxLedParams::Set(PCA9685DmxLed*)+0x28>
 1d4:	e3530000 	cmp	r3, #0
 1d8:	0a00001f 	beq	25c <PCA9685DmxLedParams::Set(PCA9685DmxLed*)+0xa8>
 1dc:	e3130008 	tst	r3, #8
 1e0:	1a00001f 	bne	264 <PCA9685DmxLedParams::Set(PCA9685DmxLed*)+0xb0>
 1e4:	e3130001 	tst	r3, #1
 1e8:	1a000023 	bne	27c <PCA9685DmxLedParams::Set(PCA9685DmxLed*)+0xc8>
 1ec:	e3130002 	tst	r3, #2
 1f0:	1a000027 	bne	294 <PCA9685DmxLedParams::Set(PCA9685DmxLed*)+0xe0>
 1f4:	e3130004 	tst	r3, #4
 1f8:	1a00002b 	bne	2ac <PCA9685DmxLedParams::Set(PCA9685DmxLed*)+0xf8>
 1fc:	e1a00004 	mov	r0, r4
 200:	e28d1007 	add	r1, sp, #7
 204:	ebfffffe 	bl	0 <PCA9685DmxParams::GetDmxStartAddress(bool&) const>
 208:	e5dd3007 	ldrb	r3, [sp, #7]
 20c:	e3530000 	cmp	r3, #0
 210:	1a000036 	bne	2f0 <PCA9685DmxLedParams::Set(PCA9685DmxLed*)+0x13c>
 214:	e1a00004 	mov	r0, r4
 218:	e28d1007 	add	r1, sp, #7
 21c:	ebfffffe 	bl	0 <PCA9685DmxParams::GetBoardInstances(bool&) const>
 220:	e5dd3007 	ldrb	r3, [sp, #7]
 224:	e3530000 	cmp	r3, #0
 228:	1a00002c 	bne	2e0 <PCA9685DmxLedParams::Set(PCA9685DmxLed*)+0x12c>
 22c:	e1a00004 	mov	r0, r4
 230:	e28d1007 	add	r1, sp, #7
 234:	ebfffffe 	bl	0 <PCA9685DmxParams::GetDmxSlotInfoRaw(bool&) const>
 238:	e5dd3007 	ldrb	r3, [sp, #7]
 23c:	e3530000 	cmp	r3, #0
 240:	1a000022 	bne	2d0 <PCA9685DmxLedParams::Set(PCA9685DmxLed*)+0x11c>
 244:	e1a00004 	mov	r0, r4
 248:	e28d1007 	add	r1, sp, #7
 24c:	ebfffffe 	bl	0 <PCA9685DmxParams::GetDmxFootprint(bool&) const>
 250:	e5dd3007 	ldrb	r3, [sp, #7]
 254:	e3530000 	cmp	r3, #0
 258:	1a000017 	bne	2bc <PCA9685DmxLedParams::Set(PCA9685DmxLed*)+0x108>
 25c:	e28dd00c 	add	sp, sp, #12
 260:	e8bd8030 	pop	{r4, r5, pc}
 264:	e1a00005 	mov	r0, r5
 268:	e5d41014 	ldrb	r1, [r4, #20]
 26c:	ebfffffe 	bl	0 <PCA9685DmxLed::SetI2cAddress(unsigned char)>
 270:	e5943010 	ldr	r3, [r4, #16]
 274:	e3130001 	tst	r3, #1
 278:	0affffdb 	beq	1ec <PCA9685DmxLedParams::Set(PCA9685DmxLed*)+0x38>
 27c:	e1a00005 	mov	r0, r5
 280:	e1d411b6 	ldrh	r1, [r4, #22]
 284:	ebfffffe 	bl	0 <PCA9685DmxLed::SetPwmfrequency(unsigned short)>
 288:	e5943010 	ldr	r3, [r4, #16]
 28c:	e3130002 	tst	r3, #2
 290:	0affffd7 	beq	1f4 <PCA9685DmxLedParams::Set(PCA9685DmxLed*)+0x40>
 294:	e1a00005 	mov	r0, r5
 298:	e5d41018 	ldrb	r1, [r4, #24]
 29c:	ebfffffe 	bl	0 <PCA9685DmxLed::SetInvert(bool)>
 2a0:	e5943010 	ldr	r3, [r4, #16]
 2a4:	e3130004 	tst	r3, #4
 2a8:	0affffd3 	beq	1fc <PCA9685DmxLedParams::Set(PCA9685DmxLed*)+0x48>
 2ac:	e1a00005 	mov	r0, r5
 2b0:	e5d41019 	ldrb	r1, [r4, #25]
 2b4:	ebfffffe 	bl	0 <PCA9685DmxLed::SetOutDriver(bool)>
 2b8:	eaffffcf 	b	1fc <PCA9685DmxLedParams::Set(PCA9685DmxLed*)+0x48>
 2bc:	e1a01000 	mov	r1, r0
 2c0:	e1a00005 	mov	r0, r5
 2c4:	ebfffffe 	bl	0 <PCA9685DmxLed::SetDmxFootprint(unsigned short)>
 2c8:	e28dd00c 	add	sp, sp, #12
 2cc:	e8bd8030 	pop	{r4, r5, pc}
 2d0:	e1a01000 	mov	r1, r0
 2d4:	e1a00005 	mov	r0, r5
 2d8:	ebfffffe 	bl	0 <PCA9685DmxLed::SetSlotInfoRaw(char const*)>
 2dc:	eaffffd8 	b	244 <PCA9685DmxLedParams::Set(PCA9685DmxLed*)+0x90>
 2e0:	e1a01000 	mov	r1, r0
 2e4:	e1a00005 	mov	r0, r5
 2e8:	ebfffffe 	bl	0 <PCA9685DmxLed::SetBoardInstances(unsigned char)>
 2ec:	eaffffce 	b	22c <PCA9685DmxLedParams::Set(PCA9685DmxLed*)+0x78>
 2f0:	e1a01000 	mov	r1, r0
 2f4:	e1a00005 	mov	r0, r5
 2f8:	ebfffffe 	bl	0 <PCA9685DmxLed::SetDmxStartAddress(unsigned short)>
 2fc:	eaffffc4 	b	214 <PCA9685DmxLedParams::Set(PCA9685DmxLed*)+0x60>

Disassembly of section .rodata:

00000000 <PARAMS_FILE_NAME>:
   0:	6c6d7770 	stclvs	7, cr7, [sp], #-448	; 0xfffffe40
   4:	742e6465 	strtvc	r6, [lr], #-1125	; 0xfffffb9b
   8:	00007478 	andeq	r7, r0, r8, ror r4

0000000c <PARAMS_I2C_SLAVE_ADDRESS>:
   c:	5f633269 	svcpl	0x00633269
  10:	76616c73 			; <UNDEFINED> instruction: 0x76616c73
  14:	64615f65 	strbtvs	r5, [r1], #-3941	; 0xfffff09b
  18:	73657264 	cmnvc	r5, #100, 4	; 0x40000006
  1c:	00000073 	andeq	r0, r0, r3, ror r0

00000020 <PARAMS_PWM_FREQUENCY>:
  20:	5f6d7770 	svcpl	0x006d7770
  24:	71657266 	cmnvc	r5, r6, ror #4
  28:	636e6575 	cmnvs	lr, #490733568	; 0x1d400000
  2c:	00000079 	andeq	r0, r0, r9, ror r0

00000030 <PARAMS_OUTPUT_INVERT>:
  30:	7074756f 	rsbsvc	r7, r4, pc, ror #10
  34:	695f7475 	ldmdbvs	pc, {r0, r2, r4, r5, r6, sl, ip, sp, lr}^	; <UNPREDICTABLE>
  38:	7265766e 	rsbvc	r7, r5, #115343360	; 0x6e00000
  3c:	00000074 	andeq	r0, r0, r4, ror r0

00000040 <PARAMS_OUTPUT_DRIVER>:
  40:	7074756f 	rsbsvc	r7, r4, pc, ror #10
  44:	645f7475 	ldrbvs	r7, [pc], #-1141	; 4c <PARAMS_OUTPUT_DRIVER+0xc>
  48:	65766972 	ldrbvs	r6, [r6, #-2418]!	; 0xfffff68e
  4c:	Address 0x000000000000004c is out of bounds.


Disassembly of section .comment:

00000000 <.comment>:
   0:	43434700 	movtmi	r4, #14080	; 0x3700
   4:	4728203a 			; <UNDEFINED> instruction: 0x4728203a
   8:	2029554e 	eorcs	r5, r9, lr, asr #10
   c:	322e3031 	eorcc	r3, lr, #49	; 0x31
  10:	Address 0x0000000000000010 is out of bounds.


Disassembly of section .ARM.attributes:

00000000 <.ARM.attributes>:
   0:	00003241 	andeq	r3, r0, r1, asr #4
   4:	61656100 	cmnvs	r5, r0, lsl #2
   8:	01006962 	tsteq	r0, r2, ror #18
   c:	00000028 	andeq	r0, r0, r8, lsr #32
  10:	4b5a3605 	blmi	168d82c <PCA9685DmxLedParams::Set(PCA9685DmxLed*)+0x168d678>
  14:	08070600 	stmdaeq	r7, {r9, sl}
  18:	0a010901 	beq	42424 <PCA9685DmxLedParams::Set(PCA9685DmxLed*)+0x42270>
  1c:	14041202 	strne	r1, [r4], #-514	; 0xfffffdfe
  20:	17011501 	strne	r1, [r1, -r1, lsl #10]
  24:	19011803 	stmdbne	r1, {r0, r1, fp, ip}
  28:	1c011a01 			; <UNDEFINED> instruction: 0x1c011a01
  2c:	22021e01 	andcs	r1, r2, #1, 28
  30:	Address 0x0000000000000030 is out of bounds.


pca9685dmxservoparams.o:     file format elf32-littlearm


Disassembly of section .text:

00000000 <PCA9685DmxServoParams::PCA9685DmxServoParams()>:
   0:	e92d4010 	push	{r4, lr}
   4:	e59f102c 	ldr	r1, [pc, #44]	; 38 <PCA9685DmxServoParams::PCA9685DmxServoParams()+0x38>
   8:	e1a04000 	mov	r4, r0
   c:	ebfffffe 	bl	0 <PCA9685DmxParams::PCA9685DmxParams(char const*)>
  10:	e3a00000 	mov	r0, #0
  14:	e3a01040 	mov	r1, #64	; 0x40
  18:	e3a02ffa 	mov	r2, #1000	; 0x3e8
  1c:	e3a03e7d 	mov	r3, #2000	; 0x7d0
  20:	e5840010 	str	r0, [r4, #16]
  24:	e5c41014 	strb	r1, [r4, #20]
  28:	e1a00004 	mov	r0, r4
  2c:	e1c421b6 	strh	r2, [r4, #22]
  30:	e1c431b8 	strh	r3, [r4, #24]
  34:	e8bd8010 	pop	{r4, pc}
  38:	00000000 	andeq	r0, r0, r0

0000003c <PCA9685DmxServoParams::~PCA9685DmxServoParams()>:
  3c:	e92d4010 	push	{r4, lr}
  40:	e1a04000 	mov	r4, r0
  44:	ebfffffe 	bl	0 <PCA9685DmxParams::~PCA9685DmxParams()>
  48:	e1a00004 	mov	r0, r4
  4c:	e8bd8010 	pop	{r4, pc}

00000050 <PCA9685DmxServoParams::Load()>:
  50:	e92d4010 	push	{r4, lr}
  54:	e24dd008 	sub	sp, sp, #8
  58:	e1a02000 	mov	r2, r0
  5c:	e59f1028 	ldr	r1, [pc, #40]	; 8c <PCA9685DmxServoParams::Load()+0x3c>
  60:	e1a0000d 	mov	r0, sp
  64:	ebfffffe 	bl	0 <ReadConfigFile::ReadConfigFile(void (*)(void*, char const*), void*)>
  68:	e59f1020 	ldr	r1, [pc, #32]	; 90 <PCA9685DmxServoParams::Load()+0x40>
  6c:	e1a0000d 	mov	r0, sp
  70:	ebfffffe 	bl	0 <ReadConfigFile::Read(char const*)>
  74:	e1a04000 	mov	r4, r0
  78:	e1a0000d 	mov	r0, sp
  7c:	ebfffffe 	bl	0 <ReadConfigFile::~ReadConfigFile()>
  80:	e1a00004 	mov	r0, r4
  84:	e28dd008 	add	sp, sp, #8
  88:	e8bd8010 	pop	{r4, pc}
	...

00000094 <PCA9685DmxServoParams::Dump()>:
  94:	e12fff1e 	bx	lr

00000098 <PCA9685DmxServoParams::callbackFunction(char const*)>:
  98:	e92d4030 	push	{r4, r5, lr}
  9c:	e1a04001 	mov	r4, r1
  a0:	e24dd00c 	sub	sp, sp, #12
  a4:	e1a05000 	mov	r5, r0
  a8:	e59f10ac 	ldr	r1, [pc, #172]	; 15c <PCA9685DmxServoParams::callbackFunction(char const*)+0xc4>
  ac:	e1a00004 	mov	r0, r4
  b0:	e28d2005 	add	r2, sp, #5
  b4:	ebfffffe 	bl	0 <Sscan::I2cAddress(char const*, char const*, unsigned char&)>
  b8:	e3500000 	cmp	r0, #0
  bc:	1a000008 	bne	e4 <PCA9685DmxServoParams::callbackFunction(char const*)+0x4c>
  c0:	e5dd3005 	ldrb	r3, [sp, #5]
  c4:	e3530070 	cmp	r3, #112	; 0x70
  c8:	1353003f 	cmpne	r3, #63	; 0x3f
  cc:	85952010 	ldrhi	r2, [r5, #16]
  d0:	85c53014 	strbhi	r3, [r5, #20]
  d4:	83823004 	orrhi	r3, r2, #4
  d8:	85853010 	strhi	r3, [r5, #16]
  dc:	e28dd00c 	add	sp, sp, #12
  e0:	e8bd8030 	pop	{r4, r5, pc}
  e4:	e1a00004 	mov	r0, r4
  e8:	e59f1070 	ldr	r1, [pc, #112]	; 160 <PCA9685DmxServoParams::callbackFunction(char const*)+0xc8>
  ec:	e28d2006 	add	r2, sp, #6
  f0:	ebfffffe 	bl	0 <Sscan::Uint16(char const*, char const*, unsigned short&)>
  f4:	e3500000 	cmp	r0, #0
  f8:	1a000009 	bne	124 <PCA9685DmxServoParams::callbackFunction(char const*)+0x8c>
  fc:	e1dd30b6 	ldrh	r3, [sp, #6]
 100:	e3530000 	cmp	r3, #0
 104:	0afffff4 	beq	dc <PCA9685DmxServoParams::callbackFunction(char const*)+0x44>
 108:	e1d521b8 	ldrh	r2, [r5, #24]
 10c:	e1520003 	cmp	r2, r3
 110:	85952010 	ldrhi	r2, [r5, #16]
 114:	81c531b6 	strhhi	r3, [r5, #22]
 118:	83823001 	orrhi	r3, r2, #1
 11c:	85853010 	strhi	r3, [r5, #16]
 120:	eaffffed 	b	dc <PCA9685DmxServoParams::callbackFunction(char const*)+0x44>
 124:	e1a00004 	mov	r0, r4
 128:	e59f1034 	ldr	r1, [pc, #52]	; 164 <PCA9685DmxServoParams::callbackFunction(char const*)+0xcc>
 12c:	e28d2006 	add	r2, sp, #6
 130:	ebfffffe 	bl	0 <Sscan::Uint16(char const*, char const*, unsigned short&)>
 134:	e3500000 	cmp	r0, #0
 138:	1affffe7 	bne	dc <PCA9685DmxServoParams::callbackFunction(char const*)+0x44>
 13c:	e1dd30b6 	ldrh	r3, [sp, #6]
 140:	e1d521b6 	ldrh	r2, [r5, #22]
 144:	e1520003 	cmp	r2, r3
 148:	35952010 	ldrcc	r2, [r5, #16]
 14c:	31c531b8 	strhcc	r3, [r5, #24]
 150:	33823002 	orrcc	r3, r2, #2
 154:	35853010 	strcc	r3, [r5, #16]
 158:	eaffffdf 	b	dc <PCA9685DmxServoParams::callbackFunction(char const*)+0x44>
 15c:	0000000c 	andeq	r0, r0, ip
 160:	00000020 	andeq	r0, r0, r0, lsr #32
 164:	00000028 	andeq	r0, r0, r8, lsr #32

00000168 <PCA9685DmxServoParams::staticCallbackFunction(void*, char const*)>:
 168:	eafffffe 	b	98 <PCA9685DmxServoParams::callbackFunction(char const*)>

0000016c <PCA9685DmxServoParams::Set(PCA9685DmxServo*)>:
 16c:	e92d4030 	push	{r4, r5, lr}
 170:	e24dd00c 	sub	sp, sp, #12
 174:	e1a04000 	mov	r4, r0
 178:	e1a05001 	mov	r5, r1
 17c:	ebfffffe 	bl	0 <PCA9685DmxParams::GetSetList() const>
 180:	e3500000 	cmp	r0, #0
 184:	e5943010 	ldr	r3, [r4, #16]
 188:	1a000001 	bne	194 <PCA9685DmxServoParams::Set(PCA9685DmxServo*)+0x28>
 18c:	e3530000 	cmp	r3, #0
 190:	0a000017 	beq	1f4 <PCA9685DmxServoParams::Set(PCA9685DmxServo*)+0x88>
 194:	e3130004 	tst	r3, #4
 198:	1a000017 	bne	1fc <PCA9685DmxServoParams::Set(PCA9685DmxServo*)+0x90>
 19c:	e3130001 	tst	r3, #1
 1a0:	1a00001b 	bne	214 <PCA9685DmxServoParams::Set(PCA9685DmxServo*)+0xa8>
 1a4:	e3130002 	tst	r3, #2
 1a8:	1a00001f 	bne	22c <PCA9685DmxServoParams::Set(PCA9685DmxServo*)+0xc0>
 1ac:	e1a00004 	mov	r0, r4
 1b0:	e28d1007 	add	r1, sp, #7
 1b4:	ebfffffe 	bl	0 <PCA9685DmxParams::GetDmxStartAddress(bool&) const>
 1b8:	e5dd3007 	ldrb	r3, [sp, #7]
 1bc:	e3530000 	cmp	r3, #0
 1c0:	1a000026 	bne	260 <PCA9685DmxServoParams::Set(PCA9685DmxServo*)+0xf4>
 1c4:	e1a00004 	mov	r0, r4
 1c8:	e28d1007 	add	r1, sp, #7
 1cc:	ebfffffe 	bl	0 <PCA9685DmxParams::GetBoardInstances(bool&) const>
 1d0:	e5dd3007 	ldrb	r3, [sp, #7]
 1d4:	e3530000 	cmp	r3, #0
 1d8:	1a00001c 	bne	250 <PCA9685DmxServoParams::Set(PCA9685DmxServo*)+0xe4>
 1dc:	e1a00004 	mov	r0, r4
 1e0:	e28d1007 	add	r1, sp, #7
 1e4:	ebfffffe 	bl	0 <PCA9685DmxParams::GetDmxFootprint(bool&) const>
 1e8:	e5dd3007 	ldrb	r3, [sp, #7]
 1ec:	e3530000 	cmp	r3, #0
 1f0:	1a000011 	bne	23c <PCA9685DmxServoParams::Set(PCA9685DmxServo*)+0xd0>
 1f4:	e28dd00c 	add	sp, sp, #12
 1f8:	e8bd8030 	pop	{r4, r5, pc}
 1fc:	e1a00005 	mov	r0, r5
 200:	e5d41014 	ldrb	r1, [r4, #20]
 204:	ebfffffe 	bl	0 <PCA9685DmxServo::SetI2cAddress(unsigned char)>
 208:	e5943010 	ldr	r3, [r4, #16]
 20c:	e3130001 	tst	r3, #1
 210:	0affffe3 	beq	1a4 <PCA9685DmxServoParams::Set(PCA9685DmxServo*)+0x38>
 214:	e1a00005 	mov	r0, r5
 218:	e1d411b6 	ldrh	r1, [r4, #22]
 21c:	ebfffffe 	bl	0 <PCA9685DmxServo::SetLeftUs(unsigned short)>
 220:	e5943010 	ldr	r3, [r4, #16]
 224:	e3130002 	tst	r3, #2
 228:	0affffdf 	beq	1ac <PCA9685DmxServoParams::Set(PCA9685DmxServo*)+0x40>
 22c:	e1a00005 	mov	r0, r5
 230:	e1d411b8 	ldrh	r1, [r4, #24]
 234:	ebfffffe 	bl	0 <PCA9685DmxServo::SetRightUs(unsigned short)>
 238:	eaffffdb 	b	1ac <PCA9685DmxServoParams::Set(PCA9685DmxServo*)+0x40>
 23c:	e1a01000 	mov	r1, r0
 240:	e1a00005 	mov	r0, r5
 244:	ebfffffe 	bl	0 <PCA9685DmxServo::SetDmxFootprint(unsigned short)>
 248:	e28dd00c 	add	sp, sp, #12
 24c:	e8bd8030 	pop	{r4, r5, pc}
 250:	e1a01000 	mov	r1, r0
 254:	e1a00005 	mov	r0, r5
 258:	ebfffffe 	bl	0 <PCA9685DmxServo::SetBoardInstances(unsigned char)>
 25c:	eaffffde 	b	1dc <PCA9685DmxServoParams::Set(PCA9685DmxServo*)+0x70>
 260:	e1a01000 	mov	r1, r0
 264:	e1a00005 	mov	r0, r5
 268:	ebfffffe 	bl	0 <PCA9685DmxServo::SetDmxStartAddress(unsigned short)>
 26c:	eaffffd4 	b	1c4 <PCA9685DmxServoParams::Set(PCA9685DmxServo*)+0x58>

Disassembly of section .rodata:

00000000 <PARAMS_FILE_NAME>:
   0:	76726573 			; <UNDEFINED> instruction: 0x76726573
   4:	78742e6f 	ldmdavc	r4!, {r0, r1, r2, r3, r5, r6, r9, sl, fp, sp}^
   8:	00000074 	andeq	r0, r0, r4, ror r0

0000000c <PARAMS_I2C_SLAVE_ADDRESS>:
   c:	5f633269 	svcpl	0x00633269
  10:	76616c73 			; <UNDEFINED> instruction: 0x76616c73
  14:	64615f65 	strbtvs	r5, [r1], #-3941	; 0xfffff09b
  18:	73657264 	cmnvc	r5, #100, 4	; 0x40000006
  1c:	00000073 	andeq	r0, r0, r3, ror r0

00000020 <PARAMS_LEFT_US>:
  20:	7466656c 	strbtvc	r6, [r6], #-1388	; 0xfffffa94
  24:	0073755f 	rsbseq	r7, r3, pc, asr r5

00000028 <PARAMS_RIGHT_US>:
  28:	68676972 	stmdavs	r7!, {r1, r4, r5, r6, r8, fp, sp, lr}^
  2c:	73755f74 	cmnvc	r5, #116, 30	; 0x1d0
	...

Disassembly of section .comment:

00000000 <.comment>:
   0:	43434700 	movtmi	r4, #14080	; 0x3700
   4:	4728203a 			; <UNDEFINED> instruction: 0x4728203a
   8:	2029554e 	eorcs	r5, r9, lr, asr #10
   c:	322e3031 	eorcc	r3, lr, #49	; 0x31
  10:	Address 0x0000000000000010 is out of bounds.


Disassembly of section .ARM.attributes:

00000000 <.ARM.attributes>:
   0:	00003241 	andeq	r3, r0, r1, asr #4
   4:	61656100 	cmnvs	r5, r0, lsl #2
   8:	01006962 	tsteq	r0, r2, ror #18
   c:	00000028 	andeq	r0, r0, r8, lsr #32
  10:	4b5a3605 	blmi	168d82c <PCA9685DmxServoParams::Set(PCA9685DmxServo*)+0x168d6c0>
  14:	08070600 	stmdaeq	r7, {r9, sl}
  18:	0a010901 	beq	42424 <PCA9685DmxServoParams::Set(PCA9685DmxServo*)+0x422b8>
  1c:	14041202 	strne	r1, [r4], #-514	; 0xfffffdfe
  20:	17011501 	strne	r1, [r1, -r1, lsl #10]
  24:	19011803 	stmdbne	r1, {r0, r1, fp, ip}
  28:	1c011a01 			; <UNDEFINED> instruction: 0x1c011a01
  2c:	22021e01 	andcs	r1, r2, #1, 28
  30:	Address 0x0000000000000030 is out of bounds.


pca9685dmxled.o:     file format elf32-littlearm


Disassembly of section .group:

00000000 <.group>:
   0:	00000001 	andeq	r0, r0, r1
   4:	00000009 	andeq	r0, r0, r9

Disassembly of section .group:

00000000 <.group>:
   0:	00000001 	andeq	r0, r0, r1
   4:	0000000a 	andeq	r0, r0, sl

Disassembly of section .group:

00000000 <.group>:
   0:	00000001 	andeq	r0, r0, r1
   4:	0000000b 	andeq	r0, r0, fp

Disassembly of section .group:

00000000 <.group>:
   0:	00000001 	andeq	r0, r0, r1
   4:	0000000c 	andeq	r0, r0, ip

Disassembly of section .text:

00000000 <PCA9685DmxLed::Stop(unsigned int)>:
   0:	e5d0300e 	ldrb	r3, [r0, #14]
   4:	e3530000 	cmp	r3, #0
   8:	13a03000 	movne	r3, #0
   c:	15c0300e 	strbne	r3, [r0, #14]
  10:	e12fff1e 	bx	lr

00000014 <PCA9685DmxLed::SetDmxStartAddress(unsigned short)>:
  14:	e1a03000 	mov	r3, r0
  18:	e2412001 	sub	r2, r1, #1
  1c:	e3520c02 	cmp	r2, #512	; 0x200
  20:	33a00001 	movcc	r0, #1
  24:	31c310b4 	strhcc	r1, [r3, #4]
  28:	23a00000 	movcs	r0, #0
  2c:	e12fff1e 	bx	lr

00000030 <PCA9685DmxLed::~PCA9685DmxLed()>:
  30:	e92d41f0 	push	{r4, r5, r6, r7, r8, lr}
  34:	e1a05000 	mov	r5, r0
  38:	e5900014 	ldr	r0, [r0, #20]
  3c:	e59f308c 	ldr	r3, [pc, #140]	; d0 <PCA9685DmxLed::~PCA9685DmxLed()+0xa0>
  40:	e3500000 	cmp	r0, #0
  44:	e5853000 	str	r3, [r5]
  48:	0a000000 	beq	50 <PCA9685DmxLed::~PCA9685DmxLed()+0x20>
  4c:	ebfffffe 	bl	0 <operator delete[](void*)>
  50:	e3a04000 	mov	r4, #0
  54:	e5d52009 	ldrb	r2, [r5, #9]
  58:	e5953010 	ldr	r3, [r5, #16]
  5c:	e1520004 	cmp	r2, r4
  60:	e5854014 	str	r4, [r5, #20]
  64:	0a00000d 	beq	a0 <PCA9685DmxLed::~PCA9685DmxLed()+0x70>
  68:	e1a07004 	mov	r7, r4
  6c:	e7930104 	ldr	r0, [r3, r4, lsl #2]
  70:	e0832104 	add	r2, r3, r4, lsl #2
  74:	e3500000 	cmp	r0, #0
  78:	e1a06104 	lsl	r6, r4, #2
  7c:	e2844001 	add	r4, r4, #1
  80:	0a000002 	beq	90 <PCA9685DmxLed::~PCA9685DmxLed()+0x60>
  84:	ebfffffe 	bl	0 <operator delete(void*)>
  88:	e5953010 	ldr	r3, [r5, #16]
  8c:	e0832006 	add	r2, r3, r6
  90:	e5827000 	str	r7, [r2]
  94:	e5d52009 	ldrb	r2, [r5, #9]
  98:	e1520004 	cmp	r2, r4
  9c:	8afffff2 	bhi	6c <PCA9685DmxLed::~PCA9685DmxLed()+0x3c>
  a0:	e3530000 	cmp	r3, #0
  a4:	0a000001 	beq	b0 <PCA9685DmxLed::~PCA9685DmxLed()+0x80>
  a8:	e1a00003 	mov	r0, r3
  ac:	ebfffffe 	bl	0 <operator delete[](void*)>
  b0:	e3a03000 	mov	r3, #0
  b4:	e595001c 	ldr	r0, [r5, #28]
  b8:	e5853010 	str	r3, [r5, #16]
  bc:	e1500003 	cmp	r0, r3
  c0:	0a000000 	beq	c8 <PCA9685DmxLed::~PCA9685DmxLed()+0x98>
  c4:	ebfffffe 	bl	0 <operator delete[](void*)>
  c8:	e1a00005 	mov	r0, r5
  cc:	e8bd81f0 	pop	{r4, r5, r6, r7, r8, pc}
  d0:	00000008 	andeq	r0, r0, r8

000000d4 <PCA9685DmxLed::~PCA9685DmxLed()>:
  d4:	e92d4010 	push	{r4, lr}
  d8:	e1a04000 	mov	r4, r0
  dc:	ebfffffe 	bl	30 <PCA9685DmxLed::~PCA9685DmxLed()>
  e0:	e1a00004 	mov	r0, r4
  e4:	ebfffffe 	bl	0 <operator delete(void*)>
  e8:	e1a00004 	mov	r0, r4
  ec:	e8bd8010 	pop	{r4, pc}

000000f0 <PCA9685DmxLed::GetSlotInfo(unsigned short, lightset::SlotInfo&)>:
  f0:	e1d030b6 	ldrh	r3, [r0, #6]
  f4:	e1530001 	cmp	r3, r1
  f8:	2590301c 	ldrcs	r3, [r0, #28]
  fc:	27d30101 	ldrbcs	r0, [r3, r1, lsl #2]
 100:	20831101 	addcs	r1, r3, r1, lsl #2
 104:	25c20000 	strbcs	r0, [r2]
 108:	21d130b2 	ldrhcs	r3, [r1, #2]
 10c:	23a00001 	movcs	r0, #1
 110:	21c230b2 	strhcs	r3, [r2, #2]
 114:	33a00000 	movcc	r0, #0
 118:	e12fff1e 	bx	lr

0000011c <PCA9685DmxLed::PCA9685DmxLed()>:
 11c:	e92d4010 	push	{r4, lr}
 120:	e1a04000 	mov	r4, r0
 124:	ebfffffe 	bl	0 <LightSet::LightSet()>
 128:	e3a03000 	mov	r3, #0
 12c:	e3a02c01 	mov	r2, #256	; 0x100
 130:	e59f0028 	ldr	r0, [pc, #40]	; 160 <PCA9685DmxLed::PCA9685DmxLed()+0x44>
 134:	e59f1028 	ldr	r1, [pc, #40]	; 164 <PCA9685DmxLed::PCA9685DmxLed()+0x48>
 138:	e59fc028 	ldr	ip, [pc, #40]	; 168 <PCA9685DmxLed::PCA9685DmxLed()+0x4c>
 13c:	e1c420bc 	strh	r2, [r4, #12]
 140:	e8841003 	stm	r4, {r0, r1, ip}
 144:	e5c4300e 	strb	r3, [r4, #14]
 148:	e1a00004 	mov	r0, r4
 14c:	e5843010 	str	r3, [r4, #16]
 150:	e5843014 	str	r3, [r4, #20]
 154:	e5843018 	str	r3, [r4, #24]
 158:	e584301c 	str	r3, [r4, #28]
 15c:	e8bd8010 	pop	{r4, pc}
 160:	00000008 	andeq	r0, r0, r8
 164:	00100001 	andseq	r0, r0, r1
 168:	00780140 	rsbseq	r0, r8, r0, asr #2

0000016c <PCA9685DmxLed::SetSlotInfoRaw(char const*)>:
 16c:	e5801018 	str	r1, [r0, #24]
 170:	e12fff1e 	bx	lr

00000174 <PCA9685DmxLed::GetI2cAddress() const>:
 174:	e5d00008 	ldrb	r0, [r0, #8]
 178:	e12fff1e 	bx	lr

0000017c <PCA9685DmxLed::SetI2cAddress(unsigned char)>:
 17c:	e5c01008 	strb	r1, [r0, #8]
 180:	e12fff1e 	bx	lr

00000184 <PCA9685DmxLed::SetBoardInstances(unsigned char)>:
 184:	e2413001 	sub	r3, r1, #1
 188:	e353001f 	cmp	r3, #31
 18c:	91a03201 	lslls	r3, r1, #4
 190:	95c01009 	strbls	r1, [r0, #9]
 194:	91c030b6 	strhls	r3, [r0, #6]
 198:	e12fff1e 	bx	lr

0000019c <PCA9685DmxLed::SetPwmfrequency(unsigned short)>:
 19c:	e1c010ba 	strh	r1, [r0, #10]
 1a0:	e12fff1e 	bx	lr

000001a4 <PCA9685DmxLed::GetInvert() const>:
 1a4:	e5d0000c 	ldrb	r0, [r0, #12]
 1a8:	e12fff1e 	bx	lr

000001ac <PCA9685DmxLed::SetInvert(bool)>:
 1ac:	e5c0100c 	strb	r1, [r0, #12]
 1b0:	e12fff1e 	bx	lr

000001b4 <PCA9685DmxLed::GetOutDriver() const>:
 1b4:	e5d0000d 	ldrb	r0, [r0, #13]
 1b8:	e12fff1e 	bx	lr

000001bc <PCA9685DmxLed::SetOutDriver(bool)>:
 1bc:	e5c0100d 	strb	r1, [r0, #13]
 1c0:	e12fff1e 	bx	lr

000001c4 <PCA9685DmxLed::SetDmxFootprint(unsigned short)>:
 1c4:	ee071a10 	vmov	s14, r1
 1c8:	eddf7a0a 	vldr	s15, [pc, #40]	; 1f8 <PCA9685DmxLed::SetDmxFootprint(unsigned short)+0x34>
 1cc:	eeb87a47 	vcvt.f32.u32	s14, s14
 1d0:	ee277a27 	vmul.f32	s14, s14, s15
 1d4:	eefd7ac7 	vcvt.s32.f32	s15, s14
 1d8:	eef86ae7 	vcvt.f32.s32	s13, s15
 1dc:	eeb47a66 	vcmp.f32	s14, s13
 1e0:	ee173a90 	vmov	r3, s15
 1e4:	eef1fa10 	vmrs	APSR_nzcv, fpscr
 1e8:	12833001 	addne	r3, r3, #1
 1ec:	e1c010b6 	strh	r1, [r0, #6]
 1f0:	e5c03009 	strb	r3, [r0, #9]
 1f4:	e12fff1e 	bx	lr
 1f8:	3d800000 	stccc	0, cr0, [r0]

000001fc <PCA9685DmxLed::Initialize()>:
 1fc:	e92d41f0 	push	{r4, r5, r6, r7, r8, lr}
 200:	e1a04000 	mov	r4, r0
 204:	e24dd008 	sub	sp, sp, #8
 208:	e1d000b6 	ldrh	r0, [r0, #6]
 20c:	ebfffffe 	bl	0 <operator new[](unsigned int)>
 210:	e1d430b6 	ldrh	r3, [r4, #6]
 214:	e5840014 	str	r0, [r4, #20]
 218:	e3530000 	cmp	r3, #0
 21c:	0a000008 	beq	244 <PCA9685DmxLed::Initialize()+0x48>
 220:	e3a03000 	mov	r3, #0
 224:	e1a01003 	mov	r1, r3
 228:	ea000000 	b	230 <PCA9685DmxLed::Initialize()+0x34>
 22c:	e5940014 	ldr	r0, [r4, #20]
 230:	e7c01003 	strb	r1, [r0, r3]
 234:	e1d420b6 	ldrh	r2, [r4, #6]
 238:	e2833001 	add	r3, r3, #1
 23c:	e1520003 	cmp	r2, r3
 240:	8afffff9 	bhi	22c <PCA9685DmxLed::Initialize()+0x30>
 244:	e5d40009 	ldrb	r0, [r4, #9]
 248:	e1a00100 	lsl	r0, r0, #2
 24c:	ebfffffe 	bl	0 <operator new[](unsigned int)>
 250:	e5d41009 	ldrb	r1, [r4, #9]
 254:	e5840010 	str	r0, [r4, #16]
 258:	e3510000 	cmp	r1, #0
 25c:	0a000038 	beq	344 <PCA9685DmxLed::Initialize()+0x148>
 260:	e3510008 	cmp	r1, #8
 264:	e2415007 	sub	r5, r1, #7
 268:	9a00005e 	bls	3e8 <PCA9685DmxLed::Initialize()+0x1ec>
 26c:	e3a03000 	mov	r3, #0
 270:	e1a0c003 	mov	ip, r3
 274:	e2802088 	add	r2, r0, #136	; 0x88
 278:	e283e009 	add	lr, r3, #9
 27c:	e155000e 	cmp	r5, lr
 280:	f5d2f000 	pld	[r2]
 284:	e502c088 	str	ip, [r2, #-136]	; 0xffffff78
 288:	e502c084 	str	ip, [r2, #-132]	; 0xffffff7c
 28c:	e502c080 	str	ip, [r2, #-128]	; 0xffffff80
 290:	e502c07c 	str	ip, [r2, #-124]	; 0xffffff84
 294:	e502c078 	str	ip, [r2, #-120]	; 0xffffff88
 298:	e502c074 	str	ip, [r2, #-116]	; 0xffffff8c
 29c:	e502c070 	str	ip, [r2, #-112]	; 0xffffff90
 2a0:	e502c06c 	str	ip, [r2, #-108]	; 0xffffff94
 2a4:	e2833008 	add	r3, r3, #8
 2a8:	e2822020 	add	r2, r2, #32
 2ac:	8afffff1 	bhi	278 <PCA9685DmxLed::Initialize()+0x7c>
 2b0:	e2432107 	sub	r2, r3, #-1073741823	; 0xc0000001
 2b4:	e0802102 	add	r2, r0, r2, lsl #2
 2b8:	e3a00000 	mov	r0, #0
 2bc:	e2833001 	add	r3, r3, #1
 2c0:	e1530001 	cmp	r3, r1
 2c4:	e5a20004 	str	r0, [r2, #4]!
 2c8:	3afffffb 	bcc	2bc <PCA9685DmxLed::Initialize()+0xc0>
 2cc:	e3a05000 	mov	r5, #0
 2d0:	e3a00001 	mov	r0, #1
 2d4:	ebfffffe 	bl	0 <operator new(unsigned int)>
 2d8:	e1a06000 	mov	r6, r0
 2dc:	e5d41008 	ldrb	r1, [r4, #8]
 2e0:	e0811005 	add	r1, r1, r5
 2e4:	e6ef1071 	uxtb	r1, r1
 2e8:	ebfffffe 	bl	0 <PCA9685PWMLed::PCA9685PWMLed(unsigned char)>
 2ec:	e5943010 	ldr	r3, [r4, #16]
 2f0:	e5d4100c 	ldrb	r1, [r4, #12]
 2f4:	e1a00006 	mov	r0, r6
 2f8:	e7836105 	str	r6, [r3, r5, lsl #2]
 2fc:	ebfffffe 	bl	0 <PCA9685::SetInvert(bool)>
 300:	e5943010 	ldr	r3, [r4, #16]
 304:	e5d4100d 	ldrb	r1, [r4, #13]
 308:	e7930105 	ldr	r0, [r3, r5, lsl #2]
 30c:	ebfffffe 	bl	0 <PCA9685::SetOutDriver(bool)>
 310:	e5943010 	ldr	r3, [r4, #16]
 314:	e1d410ba 	ldrh	r1, [r4, #10]
 318:	e7930105 	ldr	r0, [r3, r5, lsl #2]
 31c:	ebfffffe 	bl	0 <PCA9685::SetFrequency(unsigned short)>
 320:	e5943010 	ldr	r3, [r4, #16]
 324:	e3a02001 	mov	r2, #1
 328:	e7930105 	ldr	r0, [r3, r5, lsl #2]
 32c:	e3a01010 	mov	r1, #16
 330:	ebfffffe 	bl	0 <PCA9685::SetFullOff(unsigned char, bool)>
 334:	e5d43009 	ldrb	r3, [r4, #9]
 338:	e2855001 	add	r5, r5, #1
 33c:	e1530005 	cmp	r3, r5
 340:	8affffe2 	bhi	2d0 <PCA9685DmxLed::Initialize()+0xd4>
 344:	e1d400b6 	ldrh	r0, [r4, #6]
 348:	e1a00100 	lsl	r0, r0, #2
 34c:	ebfffffe 	bl	0 <operator new[](unsigned int)>
 350:	e1a02000 	mov	r2, r0
 354:	e1d430b6 	ldrh	r3, [r4, #6]
 358:	e5940018 	ldr	r0, [r4, #24]
 35c:	e3530000 	cmp	r3, #0
 360:	e584201c 	str	r2, [r4, #28]
 364:	0a000018 	beq	3cc <PCA9685DmxLed::Initialize()+0x1d0>
 368:	e3a05000 	mov	r5, #0
 36c:	e3a07001 	mov	r7, #1
 370:	e1a06005 	mov	r6, r5
 374:	ea000008 	b	39c <PCA9685DmxLed::Initialize()+0x1a0>
 378:	e28d1007 	add	r1, sp, #7
 37c:	ebfffffe 	bl	0 <Parse::DmxSlotInfo(char*, bool&, unsigned char&, unsigned short&)>
 380:	e5dd3007 	ldrb	r3, [sp, #7]
 384:	e3530000 	cmp	r3, #0
 388:	0a000011 	beq	3d4 <PCA9685DmxLed::Initialize()+0x1d8>
 38c:	e1d430b6 	ldrh	r3, [r4, #6]
 390:	e1530005 	cmp	r3, r5
 394:	9a00000c 	bls	3cc <PCA9685DmxLed::Initialize()+0x1d0>
 398:	e594201c 	ldr	r2, [r4, #28]
 39c:	e0822105 	add	r2, r2, r5, lsl #2
 3a0:	e3500000 	cmp	r0, #0
 3a4:	e1a08105 	lsl	r8, r5, #2
 3a8:	e2823002 	add	r3, r2, #2
 3ac:	e5cd6007 	strb	r6, [sp, #7]
 3b0:	e2855001 	add	r5, r5, #1
 3b4:	1affffef 	bne	378 <PCA9685DmxLed::Initialize()+0x17c>
 3b8:	e5c26000 	strb	r6, [r2]
 3bc:	e1c270b2 	strh	r7, [r2, #2]
 3c0:	e1d430b6 	ldrh	r3, [r4, #6]
 3c4:	e1530005 	cmp	r3, r5
 3c8:	8afffff2 	bhi	398 <PCA9685DmxLed::Initialize()+0x19c>
 3cc:	e28dd008 	add	sp, sp, #8
 3d0:	e8bd81f0 	pop	{r4, r5, r6, r7, r8, pc}
 3d4:	e594201c 	ldr	r2, [r4, #28]
 3d8:	e0822008 	add	r2, r2, r8
 3dc:	e5c26000 	strb	r6, [r2]
 3e0:	e1c270b2 	strh	r7, [r2, #2]
 3e4:	eafffff5 	b	3c0 <PCA9685DmxLed::Initialize()+0x1c4>
 3e8:	e3a03000 	mov	r3, #0
 3ec:	eaffffaf 	b	2b0 <PCA9685DmxLed::Initialize()+0xb4>

000003f0 <PCA9685DmxLed::SetData(unsigned int, unsigned char const*, unsigned int)>:
 3f0:	e92d4ff0 	push	{r4, r5, r6, r7, r8, r9, sl, fp, lr}
 3f4:	e1a0b003 	mov	fp, r3
 3f8:	e5903010 	ldr	r3, [r0, #16]
 3fc:	e1a08000 	mov	r8, r0
 400:	e3530000 	cmp	r3, #0
 404:	e24dd00c 	sub	sp, sp, #12
 408:	0a000032 	beq	4d8 <PCA9685DmxLed::SetData(unsigned int, unsigned char const*, unsigned int)+0xe8>
 40c:	e1d840b4 	ldrh	r4, [r8, #4]
 410:	e5983014 	ldr	r3, [r8, #20]
 414:	e2447001 	sub	r7, r4, #1
 418:	e0827007 	add	r7, r2, r7
 41c:	e5d82009 	ldrb	r2, [r8, #9]
 420:	e3520000 	cmp	r2, #0
 424:	0a000029 	beq	4d0 <PCA9685DmxLed::SetData(unsigned int, unsigned char const*, unsigned int)+0xe0>
 428:	e1a01004 	mov	r1, r4
 42c:	e3a09000 	mov	r9, #0
 430:	e1a05003 	mov	r5, r3
 434:	e3a06000 	mov	r6, #0
 438:	e1a0a109 	lsl	sl, r9, #2
 43c:	ea000000 	b	444 <PCA9685DmxLed::SetData(unsigned int, unsigned char const*, unsigned int)+0x54>
 440:	e1d810b4 	ldrh	r1, [r8, #4]
 444:	e1d820b6 	ldrh	r2, [r8, #6]
 448:	e1a03005 	mov	r3, r5
 44c:	e0822001 	add	r2, r2, r1
 450:	e1540002 	cmp	r4, r2
 454:	aa000018 	bge	4bc <PCA9685DmxLed::SetData(unsigned int, unsigned char const*, unsigned int)+0xcc>
 458:	e154000b 	cmp	r4, fp
 45c:	8a000016 	bhi	4bc <PCA9685DmxLed::SetData(unsigned int, unsigned char const*, unsigned int)+0xcc>
 460:	e5d72000 	ldrb	r2, [r7]
 464:	e5d53000 	ldrb	r3, [r5]
 468:	e6ef1076 	uxtb	r1, r6
 46c:	e1520003 	cmp	r2, r3
 470:	e2866001 	add	r6, r6, #1
 474:	0a000003 	beq	488 <PCA9685DmxLed::SetData(unsigned int, unsigned char const*, unsigned int)+0x98>
 478:	e5983010 	ldr	r3, [r8, #16]
 47c:	e793000a 	ldr	r0, [r3, sl]
 480:	ebfffffe 	bl	0 <PCA9685PWMLed::Set(unsigned char, unsigned char)>
 484:	e5d73000 	ldrb	r3, [r7]
 488:	e2844001 	add	r4, r4, #1
 48c:	e4c53001 	strb	r3, [r5], #1
 490:	e3560010 	cmp	r6, #16
 494:	e1a03005 	mov	r3, r5
 498:	e2877001 	add	r7, r7, #1
 49c:	e6ff4074 	uxth	r4, r4
 4a0:	1affffe6 	bne	440 <PCA9685DmxLed::SetData(unsigned int, unsigned char const*, unsigned int)+0x50>
 4a4:	e5d82009 	ldrb	r2, [r8, #9]
 4a8:	e2899001 	add	r9, r9, #1
 4ac:	e1590002 	cmp	r9, r2
 4b0:	2a000006 	bcs	4d0 <PCA9685DmxLed::SetData(unsigned int, unsigned char const*, unsigned int)+0xe0>
 4b4:	e1d810b4 	ldrh	r1, [r8, #4]
 4b8:	eaffffdc 	b	430 <PCA9685DmxLed::SetData(unsigned int, unsigned char const*, unsigned int)+0x40>
 4bc:	e5d89009 	ldrb	r9, [r8, #9]
 4c0:	e1a02009 	mov	r2, r9
 4c4:	e2899001 	add	r9, r9, #1
 4c8:	e1590002 	cmp	r9, r2
 4cc:	3afffff8 	bcc	4b4 <PCA9685DmxLed::SetData(unsigned int, unsigned char const*, unsigned int)+0xc4>
 4d0:	e28dd00c 	add	sp, sp, #12
 4d4:	e8bd8ff0 	pop	{r4, r5, r6, r7, r8, r9, sl, fp, pc}
 4d8:	e5d0300e 	ldrb	r3, [r0, #14]
 4dc:	e3530000 	cmp	r3, #0
 4e0:	1affffc9 	bne	40c <PCA9685DmxLed::SetData(unsigned int, unsigned char const*, unsigned int)+0x1c>
 4e4:	e3a03001 	mov	r3, #1
 4e8:	e5c0300e 	strb	r3, [r0, #14]
 4ec:	e58d2004 	str	r2, [sp, #4]
 4f0:	ebfffffe 	bl	1fc <PCA9685DmxLed::Initialize()>
 4f4:	e59d2004 	ldr	r2, [sp, #4]
 4f8:	eaffffc3 	b	40c <PCA9685DmxLed::SetData(unsigned int, unsigned char const*, unsigned int)+0x1c>

000004fc <PCA9685DmxLed::Start(unsigned int)>:
 4fc:	e5d0200e 	ldrb	r2, [r0, #14]
 500:	e3520000 	cmp	r2, #0
 504:	112fff1e 	bxne	lr
 508:	e3a02001 	mov	r2, #1
 50c:	e5901010 	ldr	r1, [r0, #16]
 510:	e5c0200e 	strb	r2, [r0, #14]
 514:	e3510000 	cmp	r1, #0
 518:	112fff1e 	bxne	lr
 51c:	eafffffe 	b	1fc <PCA9685DmxLed::Initialize()>

Disassembly of section .text._ZN8LightSet8BlackoutEb:

00000000 <LightSet::Blackout(bool)>:
   0:	e12fff1e 	bx	lr

Disassembly of section .text._ZN8LightSet5PrintEv:

00000000 <LightSet::Print()>:
   0:	e12fff1e 	bx	lr

Disassembly of section .text._ZN13PCA9685DmxLed18GetDmxStartAddressEv:

00000000 <PCA9685DmxLed::GetDmxStartAddress()>:
   0:	e1d000b4 	ldrh	r0, [r0, #4]
   4:	e12fff1e 	bx	lr

Disassembly of section .text._ZN13PCA9685DmxLed15GetDmxFootprintEv:

00000000 <PCA9685DmxLed::GetDmxFootprint()>:
   0:	e1d000b6 	ldrh	r0, [r0, #6]
   4:	e12fff1e 	bx	lr

Disassembly of section .rodata:

00000000 <vtable for PCA9685DmxLed>:
	...

Disassembly of section .comment:

00000000 <.comment>:
   0:	43434700 	movtmi	r4, #14080	; 0x3700
   4:	4728203a 			; <UNDEFINED> instruction: 0x4728203a
   8:	2029554e 	eorcs	r5, r9, lr, asr #10
   c:	322e3031 	eorcc	r3, lr, #49	; 0x31
  10:	Address 0x0000000000000010 is out of bounds.


Disassembly of section .ARM.attributes:

00000000 <.ARM.attributes>:
   0:	00003241 	andeq	r3, r0, r1, asr #4
   4:	61656100 	cmnvs	r5, r0, lsl #2
   8:	01006962 	tsteq	r0, r2, ror #18
   c:	00000028 	andeq	r0, r0, r8, lsr #32
  10:	4b5a3605 	blmi	168d82c <PCA9685DmxLed::Start(unsigned int)+0x168d330>
  14:	08070600 	stmdaeq	r7, {r9, sl}
  18:	0a010901 	beq	42424 <PCA9685DmxLed::Start(unsigned int)+0x41f28>
  1c:	14041202 	strne	r1, [r4], #-514	; 0xfffffdfe
  20:	17011501 	strne	r1, [r1, -r1, lsl #10]
  24:	19011803 	stmdbne	r1, {r0, r1, fp, ip}
  28:	1c011a01 			; <UNDEFINED> instruction: 0x1c011a01
  2c:	22021e01 	andcs	r1, r2, #1, 28
  30:	Address 0x0000000000000030 is out of bounds.


pca9685dmxservo.o:     file format elf32-littlearm


Disassembly of section .group:

00000000 <.group>:
   0:	00000001 	andeq	r0, r0, r1
   4:	00000009 	andeq	r0, r0, r9

Disassembly of section .group:

00000000 <.group>:
   0:	00000001 	andeq	r0, r0, r1
   4:	0000000a 	andeq	r0, r0, sl

Disassembly of section .group:

00000000 <.group>:
   0:	00000001 	andeq	r0, r0, r1
   4:	0000000b 	andeq	r0, r0, fp

Disassembly of section .group:

00000000 <.group>:
   0:	00000001 	andeq	r0, r0, r1
   4:	0000000c 	andeq	r0, r0, ip

Disassembly of section .text:

00000000 <PCA9685DmxServo::SetDmxStartAddress(unsigned short)>:
   0:	e1a03000 	mov	r3, r0
   4:	e2412001 	sub	r2, r1, #1
   8:	e3520c02 	cmp	r2, #512	; 0x200
   c:	33a00001 	movcc	r0, #1
  10:	31c310b4 	strhcc	r1, [r3, #4]
  14:	23a00000 	movcs	r0, #0
  18:	e12fff1e 	bx	lr

0000001c <PCA9685DmxServo::Stop(unsigned int)>:
  1c:	e5d0300e 	ldrb	r3, [r0, #14]
  20:	e3530000 	cmp	r3, #0
  24:	13a03000 	movne	r3, #0
  28:	15c0300e 	strbne	r3, [r0, #14]
  2c:	e12fff1e 	bx	lr

00000030 <PCA9685DmxServo::~PCA9685DmxServo()>:
  30:	e92d4010 	push	{r4, lr}
  34:	e1a04000 	mov	r4, r0
  38:	e5900010 	ldr	r0, [r0, #16]
  3c:	e59f3014 	ldr	r3, [pc, #20]	; 58 <PCA9685DmxServo::~PCA9685DmxServo()+0x28>
  40:	e3500000 	cmp	r0, #0
  44:	e5843000 	str	r3, [r4]
  48:	0a000000 	beq	50 <PCA9685DmxServo::~PCA9685DmxServo()+0x20>
  4c:	ebfffffe 	bl	0 <operator delete(void*)>
  50:	e1a00004 	mov	r0, r4
  54:	e8bd8010 	pop	{r4, pc}
  58:	00000008 	andeq	r0, r0, r8

0000005c <PCA9685DmxServo::~PCA9685DmxServo()>:
  5c:	e92d4010 	push	{r4, lr}
  60:	e1a04000 	mov	r4, r0
  64:	e5900010 	ldr	r0, [r0, #16]
  68:	e59f301c 	ldr	r3, [pc, #28]	; 8c <PCA9685DmxServo::~PCA9685DmxServo()+0x30>
  6c:	e3500000 	cmp	r0, #0
  70:	e5843000 	str	r3, [r4]
  74:	0a000000 	beq	7c <PCA9685DmxServo::~PCA9685DmxServo()+0x20>
  78:	ebfffffe 	bl	0 <operator delete(void*)>
  7c:	e1a00004 	mov	r0, r4
  80:	ebfffffe 	bl	0 <operator delete(void*)>
  84:	e1a00004 	mov	r0, r4
  88:	e8bd8010 	pop	{r4, pc}
  8c:	00000008 	andeq	r0, r0, r8

00000090 <PCA9685DmxServo::PCA9685DmxServo()>:
  90:	e92d4010 	push	{r4, lr}
  94:	e1a04000 	mov	r4, r0
  98:	ebfffffe 	bl	0 <LightSet::LightSet()>
  9c:	e3a03000 	mov	r3, #0
  a0:	e3a02e7d 	mov	r2, #2000	; 0x7d0
  a4:	e59f0020 	ldr	r0, [pc, #32]	; cc <PCA9685DmxServo::PCA9685DmxServo()+0x3c>
  a8:	e59f1020 	ldr	r1, [pc, #32]	; d0 <PCA9685DmxServo::PCA9685DmxServo()+0x40>
  ac:	e59fc020 	ldr	ip, [pc, #32]	; d4 <PCA9685DmxServo::PCA9685DmxServo()+0x44>
  b0:	e1c420bc 	strh	r2, [r4, #12]
  b4:	e8841003 	stm	r4, {r0, r1, ip}
  b8:	e5c4300e 	strb	r3, [r4, #14]
  bc:	e1a00004 	mov	r0, r4
  c0:	e5843010 	str	r3, [r4, #16]
  c4:	e5843014 	str	r3, [r4, #20]
  c8:	e8bd8010 	pop	{r4, pc}
  cc:	00000008 	andeq	r0, r0, r8
  d0:	00100001 	andseq	r0, r0, r1
  d4:	03e80140 	mvneq	r0, #64, 2

000000d8 <PCA9685DmxServo::SetI2cAddress(unsigned char)>:
  d8:	e5c01008 	strb	r1, [r0, #8]
  dc:	e12fff1e 	bx	lr

000000e0 <PCA9685DmxServo::SetBoardInstances(unsigned char)>:
  e0:	e2413001 	sub	r3, r1, #1
  e4:	e353001f 	cmp	r3, #31
  e8:	91a03201 	lslls	r3, r1, #4
  ec:	95c01009 	strbls	r1, [r0, #9]
  f0:	91c030b6 	strhls	r3, [r0, #6]
  f4:	e12fff1e 	bx	lr

000000f8 <PCA9685DmxServo::SetLeftUs(unsigned short)>:
  f8:	e1c010ba 	strh	r1, [r0, #10]
  fc:	e12fff1e 	bx	lr

00000100 <PCA9685DmxServo::SetRightUs(unsigned short)>:
 100:	e1c010bc 	strh	r1, [r0, #12]
 104:	e12fff1e 	bx	lr

00000108 <PCA9685DmxServo::SetDmxFootprint(unsigned short)>:
 108:	ee071a10 	vmov	s14, r1
 10c:	eddf7a0a 	vldr	s15, [pc, #40]	; 13c <PCA9685DmxServo::SetDmxFootprint(unsigned short)+0x34>
 110:	eeb87a47 	vcvt.f32.u32	s14, s14
 114:	ee277a27 	vmul.f32	s14, s14, s15
 118:	eefd7ac7 	vcvt.s32.f32	s15, s14
 11c:	eef86ae7 	vcvt.f32.s32	s13, s15
 120:	eeb47a66 	vcmp.f32	s14, s13
 124:	ee173a90 	vmov	r3, s15
 128:	eef1fa10 	vmrs	APSR_nzcv, fpscr
 12c:	12833001 	addne	r3, r3, #1
 130:	e1c010b6 	strh	r1, [r0, #6]
 134:	e5c03009 	strb	r3, [r0, #9]
 138:	e12fff1e 	bx	lr
 13c:	3d800000 	stccc	0, cr0, [r0]

00000140 <PCA9685DmxServo::Initialize()>:
 140:	e92d4070 	push	{r4, r5, r6, lr}
 144:	e1a04000 	mov	r4, r0
 148:	e5d00009 	ldrb	r0, [r0, #9]
 14c:	e1a00200 	lsl	r0, r0, #4
 150:	ebfffffe 	bl	0 <operator new[](unsigned int)>
 154:	e5d43009 	ldrb	r3, [r4, #9]
 158:	e5840014 	str	r0, [r4, #20]
 15c:	e3530000 	cmp	r3, #0
 160:	01a00003 	moveq	r0, r3
 164:	0a000008 	beq	18c <PCA9685DmxServo::Initialize()+0x4c>
 168:	e3a03000 	mov	r3, #0
 16c:	e1a02003 	mov	r2, r3
 170:	ea000000 	b	178 <PCA9685DmxServo::Initialize()+0x38>
 174:	e5940014 	ldr	r0, [r4, #20]
 178:	e7c02003 	strb	r2, [r0, r3]
 17c:	e5d40009 	ldrb	r0, [r4, #9]
 180:	e2833001 	add	r3, r3, #1
 184:	e1530200 	cmp	r3, r0, lsl #4
 188:	3afffff9 	bcc	174 <PCA9685DmxServo::Initialize()+0x34>
 18c:	e1a00100 	lsl	r0, r0, #2
 190:	ebfffffe 	bl	0 <operator new[](unsigned int)>
 194:	e5d41009 	ldrb	r1, [r4, #9]
 198:	e5840010 	str	r0, [r4, #16]
 19c:	e3510000 	cmp	r1, #0
 1a0:	08bd8070 	popeq	{r4, r5, r6, pc}
 1a4:	e3510008 	cmp	r1, #8
 1a8:	e2415007 	sub	r5, r1, #7
 1ac:	9a00002d 	bls	268 <PCA9685DmxServo::Initialize()+0x128>
 1b0:	e3a03000 	mov	r3, #0
 1b4:	e1a0c003 	mov	ip, r3
 1b8:	e2802088 	add	r2, r0, #136	; 0x88
 1bc:	e283e009 	add	lr, r3, #9
 1c0:	e155000e 	cmp	r5, lr
 1c4:	f5d2f000 	pld	[r2]
 1c8:	e502c088 	str	ip, [r2, #-136]	; 0xffffff78
 1cc:	e502c084 	str	ip, [r2, #-132]	; 0xffffff7c
 1d0:	e502c080 	str	ip, [r2, #-128]	; 0xffffff80
 1d4:	e502c07c 	str	ip, [r2, #-124]	; 0xffffff84
 1d8:	e502c078 	str	ip, [r2, #-120]	; 0xffffff88
 1dc:	e502c074 	str	ip, [r2, #-116]	; 0xffffff8c
 1e0:	e502c070 	str	ip, [r2, #-112]	; 0xffffff90
 1e4:	e502c06c 	str	ip, [r2, #-108]	; 0xffffff94
 1e8:	e2833008 	add	r3, r3, #8
 1ec:	e2822020 	add	r2, r2, #32
 1f0:	8afffff1 	bhi	1bc <PCA9685DmxServo::Initialize()+0x7c>
 1f4:	e2432107 	sub	r2, r3, #-1073741823	; 0xc0000001
 1f8:	e0802102 	add	r2, r0, r2, lsl #2
 1fc:	e3a00000 	mov	r0, #0
 200:	e2833001 	add	r3, r3, #1
 204:	e1510003 	cmp	r1, r3
 208:	e5a20004 	str	r0, [r2, #4]!
 20c:	8afffffb 	bhi	200 <PCA9685DmxServo::Initialize()+0xc0>
 210:	e3a05000 	mov	r5, #0
 214:	e3a0000e 	mov	r0, #14
 218:	ebfffffe 	bl	0 <operator new(unsigned int)>
 21c:	e1a06000 	mov	r6, r0
 220:	e5d41008 	ldrb	r1, [r4, #8]
 224:	e0811005 	add	r1, r1, r5
 228:	e6ef1071 	uxtb	r1, r1
 22c:	ebfffffe 	bl	0 <PCA9685Servo::PCA9685Servo(unsigned char)>
 230:	e5943010 	ldr	r3, [r4, #16]
 234:	e1d410ba 	ldrh	r1, [r4, #10]
 238:	e1a00006 	mov	r0, r6
 23c:	e7836105 	str	r6, [r3, r5, lsl #2]
 240:	ebfffffe 	bl	0 <PCA9685Servo::SetLeftUs(unsigned short)>
 244:	e5943010 	ldr	r3, [r4, #16]
 248:	e1d410bc 	ldrh	r1, [r4, #12]
 24c:	e7930105 	ldr	r0, [r3, r5, lsl #2]
 250:	ebfffffe 	bl	0 <PCA9685Servo::SetRightUs(unsigned short)>
 254:	e5d43009 	ldrb	r3, [r4, #9]
 258:	e2855001 	add	r5, r5, #1
 25c:	e1530005 	cmp	r3, r5
 260:	8affffeb 	bhi	214 <PCA9685DmxServo::Initialize()+0xd4>
 264:	e8bd8070 	pop	{r4, r5, r6, pc}
 268:	e3a03000 	mov	r3, #0
 26c:	eaffffe0 	b	1f4 <PCA9685DmxServo::Initialize()+0xb4>

00000270 <PCA9685DmxServo::SetData(unsigned int, unsigned char const*, unsigned int)>:
 270:	e92d4ff0 	push	{r4, r5, r6, r7, r8, r9, sl, fp, lr}
 274:	e1a0b003 	mov	fp, r3
 278:	e5903010 	ldr	r3, [r0, #16]
 27c:	e1a08000 	mov	r8, r0
 280:	e3530000 	cmp	r3, #0
 284:	e24dd00c 	sub	sp, sp, #12
 288:	0a000032 	beq	358 <PCA9685DmxServo::SetData(unsigned int, unsigned char const*, unsigned int)+0xe8>
 28c:	e1d840b4 	ldrh	r4, [r8, #4]
 290:	e5983014 	ldr	r3, [r8, #20]
 294:	e2447001 	sub	r7, r4, #1
 298:	e0827007 	add	r7, r2, r7
 29c:	e5d82009 	ldrb	r2, [r8, #9]
 2a0:	e3520000 	cmp	r2, #0
 2a4:	0a000029 	beq	350 <PCA9685DmxServo::SetData(unsigned int, unsigned char const*, unsigned int)+0xe0>
 2a8:	e1a01004 	mov	r1, r4
 2ac:	e3a09000 	mov	r9, #0
 2b0:	e1a05003 	mov	r5, r3
 2b4:	e3a06000 	mov	r6, #0
 2b8:	e1a0a109 	lsl	sl, r9, #2
 2bc:	ea000000 	b	2c4 <PCA9685DmxServo::SetData(unsigned int, unsigned char const*, unsigned int)+0x54>
 2c0:	e1d810b4 	ldrh	r1, [r8, #4]
 2c4:	e1d820b6 	ldrh	r2, [r8, #6]
 2c8:	e1a03005 	mov	r3, r5
 2cc:	e0822001 	add	r2, r2, r1
 2d0:	e1540002 	cmp	r4, r2
 2d4:	aa000018 	bge	33c <PCA9685DmxServo::SetData(unsigned int, unsigned char const*, unsigned int)+0xcc>
 2d8:	e154000b 	cmp	r4, fp
 2dc:	8a000016 	bhi	33c <PCA9685DmxServo::SetData(unsigned int, unsigned char const*, unsigned int)+0xcc>
 2e0:	e5d72000 	ldrb	r2, [r7]
 2e4:	e5d53000 	ldrb	r3, [r5]
 2e8:	e6ef1076 	uxtb	r1, r6
 2ec:	e1520003 	cmp	r2, r3
 2f0:	e2866001 	add	r6, r6, #1
 2f4:	0a000003 	beq	308 <PCA9685DmxServo::SetData(unsigned int, unsigned char const*, unsigned int)+0x98>
 2f8:	e5983010 	ldr	r3, [r8, #16]
 2fc:	e793000a 	ldr	r0, [r3, sl]
 300:	ebfffffe 	bl	0 <PCA9685Servo::Set(unsigned char, unsigned char)>
 304:	e5d73000 	ldrb	r3, [r7]
 308:	e2844001 	add	r4, r4, #1
 30c:	e4c53001 	strb	r3, [r5], #1
 310:	e3560010 	cmp	r6, #16
 314:	e1a03005 	mov	r3, r5
 318:	e2877001 	add	r7, r7, #1
 31c:	e6ff4074 	uxth	r4, r4
 320:	1affffe6 	bne	2c0 <PCA9685DmxServo::SetData(unsigned int, unsigned char const*, unsigned int)+0x50>
 324:	e5d82009 	ldrb	r2, [r8, #9]
 328:	e2899001 	add	r9, r9, #1
 32c:	e1590002 	cmp	r9, r2
 330:	2a000006 	bcs	350 <PCA9685DmxServo::SetData(unsigned int, unsigned char const*, unsigned int)+0xe0>
 334:	e1d810b4 	ldrh	r1, [r8, #4]
 338:	eaffffdc 	b	2b0 <PCA9685DmxServo::SetData(unsigned int, unsigned char const*, unsigned int)+0x40>
 33c:	e5d89009 	ldrb	r9, [r8, #9]
 340:	e1a02009 	mov	r2, r9
 344:	e2899001 	add	r9, r9, #1
 348:	e1590002 	cmp	r9, r2
 34c:	3afffff8 	bcc	334 <PCA9685DmxServo::SetData(unsigned int, unsigned char const*, unsigned int)+0xc4>
 350:	e28dd00c 	add	sp, sp, #12
 354:	e8bd8ff0 	pop	{r4, r5, r6, r7, r8, r9, sl, fp, pc}
 358:	e5d0300e 	ldrb	r3, [r0, #14]
 35c:	e3530000 	cmp	r3, #0
 360:	1affffc9 	bne	28c <PCA9685DmxServo::SetData(unsigned int, unsigned char const*, unsigned int)+0x1c>
 364:	e3a03001 	mov	r3, #1
 368:	e5c0300e 	strb	r3, [r0, #14]
 36c:	e58d2004 	str	r2, [sp, #4]
 370:	ebfffffe 	bl	140 <PCA9685DmxServo::Initialize()>
 374:	e59d2004 	ldr	r2, [sp, #4]
 378:	eaffffc3 	b	28c <PCA9685DmxServo::SetData(unsigned int, unsigned char const*, unsigned int)+0x1c>

0000037c <PCA9685DmxServo::Start(unsigned int)>:
 37c:	e5d0200e 	ldrb	r2, [r0, #14]
 380:	e3520000 	cmp	r2, #0
 384:	112fff1e 	bxne	lr
 388:	e3a02001 	mov	r2, #1
 38c:	e5901010 	ldr	r1, [r0, #16]
 390:	e5c0200e 	strb	r2, [r0, #14]
 394:	e3510000 	cmp	r1, #0
 398:	112fff1e 	bxne	lr
 39c:	eafffffe 	b	140 <PCA9685DmxServo::Initialize()>

Disassembly of section .text._ZN8LightSet8BlackoutEb:

00000000 <LightSet::Blackout(bool)>:
   0:	e12fff1e 	bx	lr

Disassembly of section .text._ZN8LightSet5PrintEv:

00000000 <LightSet::Print()>:
   0:	e12fff1e 	bx	lr

Disassembly of section .text._ZN15PCA9685DmxServo18GetDmxStartAddressEv:

00000000 <PCA9685DmxServo::GetDmxStartAddress()>:
   0:	e1d000b4 	ldrh	r0, [r0, #4]
   4:	e12fff1e 	bx	lr

Disassembly of section .text._ZN15PCA9685DmxServo15GetDmxFootprintEv:

00000000 <PCA9685DmxServo::GetDmxFootprint()>:
   0:	e1d000b6 	ldrh	r0, [r0, #6]
   4:	e12fff1e 	bx	lr

Disassembly of section .rodata:

00000000 <vtable for PCA9685DmxServo>:
	...

Disassembly of section .comment:

00000000 <.comment>:
   0:	43434700 	movtmi	r4, #14080	; 0x3700
   4:	4728203a 			; <UNDEFINED> instruction: 0x4728203a
   8:	2029554e 	eorcs	r5, r9, lr, asr #10
   c:	322e3031 	eorcc	r3, lr, #49	; 0x31
  10:	Address 0x0000000000000010 is out of bounds.


Disassembly of section .ARM.attributes:

00000000 <.ARM.attributes>:
   0:	00003241 	andeq	r3, r0, r1, asr #4
   4:	61656100 	cmnvs	r5, r0, lsl #2
   8:	01006962 	tsteq	r0, r2, ror #18
   c:	00000028 	andeq	r0, r0, r8, lsr #32
  10:	4b5a3605 	blmi	168d82c <PCA9685DmxServo::Start(unsigned int)+0x168d4b0>
  14:	08070600 	stmdaeq	r7, {r9, sl}
  18:	0a010901 	beq	42424 <PCA9685DmxServo::Start(unsigned int)+0x420a8>
  1c:	14041202 	strne	r1, [r4], #-514	; 0xfffffdfe
  20:	17011501 	strne	r1, [r1, -r1, lsl #10]
  24:	19011803 	stmdbne	r1, {r0, r1, fp, ip}
  28:	1c011a01 			; <UNDEFINED> instruction: 0x1c011a01
  2c:	22021e01 	andcs	r1, r2, #1, 28
  30:	Address 0x0000000000000030 is out of bounds.


pca9685dmxparams.o:     file format elf32-littlearm


Disassembly of section .text:

00000000 <PCA9685DmxParams::PCA9685DmxParams(char const*)>:
   0:	e92d4070 	push	{r4, r5, r6, lr}
   4:	e3a03001 	mov	r3, #1
   8:	e1a05000 	mov	r5, r0
   c:	e3a04000 	mov	r4, #0
  10:	e3a02040 	mov	r2, #64	; 0x40
  14:	e3a0c010 	mov	ip, #16
  18:	e5c52004 	strb	r2, [r5, #4]
  1c:	e1c530b6 	strh	r3, [r5, #6]
  20:	e5c5300a 	strb	r3, [r5, #10]
  24:	e3a00080 	mov	r0, #128	; 0x80
  28:	e24dd008 	sub	sp, sp, #8
  2c:	e1c5c0b8 	strh	ip, [r5, #8]
  30:	e5854000 	str	r4, [r5]
  34:	e1a06001 	mov	r6, r1
  38:	ebfffffe 	bl	0 <operator new[](unsigned int)>
  3c:	e1a03004 	mov	r3, r4
  40:	e1a02004 	mov	r2, r4
  44:	e585000c 	str	r0, [r5, #12]
  48:	ea000000 	b	50 <PCA9685DmxParams::PCA9685DmxParams(char const*)+0x50>
  4c:	e595000c 	ldr	r0, [r5, #12]
  50:	e7c02003 	strb	r2, [r0, r3]
  54:	e2833001 	add	r3, r3, #1
  58:	e3530080 	cmp	r3, #128	; 0x80
  5c:	1afffffa 	bne	4c <PCA9685DmxParams::PCA9685DmxParams(char const*)+0x4c>
  60:	e1a02005 	mov	r2, r5
  64:	e1a0000d 	mov	r0, sp
  68:	e59f1020 	ldr	r1, [pc, #32]	; 90 <PCA9685DmxParams::PCA9685DmxParams(char const*)+0x90>
  6c:	ebfffffe 	bl	0 <ReadConfigFile::ReadConfigFile(void (*)(void*, char const*), void*)>
  70:	e1a01006 	mov	r1, r6
  74:	e1a0000d 	mov	r0, sp
  78:	ebfffffe 	bl	0 <ReadConfigFile::Read(char const*)>
  7c:	e1a0000d 	mov	r0, sp
  80:	ebfffffe 	bl	0 <ReadConfigFile::~ReadConfigFile()>
  84:	e1a00005 	mov	r0, r5
  88:	e28dd008 	add	sp, sp, #8
  8c:	e8bd8070 	pop	{r4, r5, r6, pc}
  90:	00000000 	andeq	r0, r0, r0

00000094 <PCA9685DmxParams::~PCA9685DmxParams()>:
  94:	e92d4010 	push	{r4, lr}
  98:	e1a04000 	mov	r4, r0
  9c:	e590000c 	ldr	r0, [r0, #12]
  a0:	e3500000 	cmp	r0, #0
  a4:	0a000000 	beq	ac <PCA9685DmxParams::~PCA9685DmxParams()+0x18>
  a8:	ebfffffe 	bl	0 <operator delete[](void*)>
  ac:	e1a00004 	mov	r0, r4
  b0:	e8bd8010 	pop	{r4, pc}

000000b4 <PCA9685DmxParams::callbackFunction(char const*)>:
  b4:	e92d4030 	push	{r4, r5, lr}
  b8:	e1a04001 	mov	r4, r1
  bc:	e24dd00c 	sub	sp, sp, #12
  c0:	e1a05000 	mov	r5, r0
  c4:	e59f1124 	ldr	r1, [pc, #292]	; 1f0 <PCA9685DmxParams::callbackFunction(char const*)+0x13c>
  c8:	e1a00004 	mov	r0, r4
  cc:	e28d2002 	add	r2, sp, #2
  d0:	ebfffffe 	bl	0 <Sscan::Uint16(char const*, char const*, unsigned short&)>
  d4:	e3500000 	cmp	r0, #0
  d8:	1a000008 	bne	100 <PCA9685DmxParams::callbackFunction(char const*)+0x4c>
  dc:	e1dd30b2 	ldrh	r3, [sp, #2]
  e0:	e2432001 	sub	r2, r3, #1
  e4:	e3520c02 	cmp	r2, #512	; 0x200
  e8:	35952000 	ldrcc	r2, [r5]
  ec:	31c530b6 	strhcc	r3, [r5, #6]
  f0:	33823001 	orrcc	r3, r2, #1
  f4:	35853000 	strcc	r3, [r5]
  f8:	e28dd00c 	add	sp, sp, #12
  fc:	e8bd8030 	pop	{r4, r5, pc}
 100:	e1a00004 	mov	r0, r4
 104:	e59f10e8 	ldr	r1, [pc, #232]	; 1f4 <PCA9685DmxParams::callbackFunction(char const*)+0x140>
 108:	e28d2002 	add	r2, sp, #2
 10c:	ebfffffe 	bl	0 <Sscan::Uint16(char const*, char const*, unsigned short&)>
 110:	e3500000 	cmp	r0, #0
 114:	1a000009 	bne	140 <PCA9685DmxParams::callbackFunction(char const*)+0x8c>
 118:	e1dd30b2 	ldrh	r3, [sp, #2]
 11c:	e2432001 	sub	r2, r3, #1
 120:	e3520c02 	cmp	r2, #512	; 0x200
 124:	2afffff3 	bcs	f8 <PCA9685DmxParams::callbackFunction(char const*)+0x44>
 128:	e5952000 	ldr	r2, [r5]
 12c:	e1c530b8 	strh	r3, [r5, #8]
 130:	e3823002 	orr	r3, r2, #2
 134:	e5853000 	str	r3, [r5]
 138:	e28dd00c 	add	sp, sp, #12
 13c:	e8bd8030 	pop	{r4, r5, pc}
 140:	e1a00004 	mov	r0, r4
 144:	e59f10ac 	ldr	r1, [pc, #172]	; 1f8 <PCA9685DmxParams::callbackFunction(char const*)+0x144>
 148:	e28d2001 	add	r2, sp, #1
 14c:	ebfffffe 	bl	0 <Sscan::I2cAddress(char const*, char const*, unsigned char&)>
 150:	e3500000 	cmp	r0, #0
 154:	1a000003 	bne	168 <PCA9685DmxParams::callbackFunction(char const*)+0xb4>
 158:	e5dd3001 	ldrb	r3, [sp, #1]
 15c:	e3530070 	cmp	r3, #112	; 0x70
 160:	1353003f 	cmpne	r3, #63	; 0x3f
 164:	8a00001c 	bhi	1dc <PCA9685DmxParams::callbackFunction(char const*)+0x128>
 168:	e1a00004 	mov	r0, r4
 16c:	e59f1088 	ldr	r1, [pc, #136]	; 1fc <PCA9685DmxParams::callbackFunction(char const*)+0x148>
 170:	e28d2001 	add	r2, sp, #1
 174:	ebfffffe 	bl	0 <Sscan::Uint8(char const*, char const*, unsigned char&)>
 178:	e3500000 	cmp	r0, #0
 17c:	1a000007 	bne	1a0 <PCA9685DmxParams::callbackFunction(char const*)+0xec>
 180:	e5dd3001 	ldrb	r3, [sp, #1]
 184:	e2432001 	sub	r2, r3, #1
 188:	e352001f 	cmp	r2, #31
 18c:	95952000 	ldrls	r2, [r5]
 190:	95c5300a 	strbls	r3, [r5, #10]
 194:	93823010 	orrls	r3, r2, #16
 198:	95853000 	strls	r3, [r5]
 19c:	eaffffd5 	b	f8 <PCA9685DmxParams::callbackFunction(char const*)+0x44>
 1a0:	e3a0c080 	mov	ip, #128	; 0x80
 1a4:	e1a00004 	mov	r0, r4
 1a8:	e595200c 	ldr	r2, [r5, #12]
 1ac:	e59f104c 	ldr	r1, [pc, #76]	; 200 <PCA9685DmxParams::callbackFunction(char const*)+0x14c>
 1b0:	e28d3004 	add	r3, sp, #4
 1b4:	e58dc004 	str	ip, [sp, #4]
 1b8:	ebfffffe 	bl	0 <Sscan::Char(char const*, char const*, char*, unsigned int&)>
 1bc:	e3500000 	cmp	r0, #0
 1c0:	1affffcc 	bne	f8 <PCA9685DmxParams::callbackFunction(char const*)+0x44>
 1c4:	e59d3004 	ldr	r3, [sp, #4]
 1c8:	e3530006 	cmp	r3, #6
 1cc:	85953000 	ldrhi	r3, [r5]
 1d0:	83833004 	orrhi	r3, r3, #4
 1d4:	85853000 	strhi	r3, [r5]
 1d8:	eaffffc6 	b	f8 <PCA9685DmxParams::callbackFunction(char const*)+0x44>
 1dc:	e5952000 	ldr	r2, [r5]
 1e0:	e5c53004 	strb	r3, [r5, #4]
 1e4:	e3823008 	orr	r3, r2, #8
 1e8:	e5853000 	str	r3, [r5]
 1ec:	eaffffc1 	b	f8 <PCA9685DmxParams::callbackFunction(char const*)+0x44>
	...
 1f8:	00000010 	andeq	r0, r0, r0, lsl r0
 1fc:	00000024 	andeq	r0, r0, r4, lsr #32
 200:	00000000 	andeq	r0, r0, r0

00000204 <PCA9685DmxParams::staticCallbackFunction(void*, char const*)>:
 204:	eafffffe 	b	b4 <PCA9685DmxParams::callbackFunction(char const*)>

00000208 <PCA9685DmxParams::GetI2cAddress(bool&) const>:
 208:	e5903000 	ldr	r3, [r0]
 20c:	e1a031a3 	lsr	r3, r3, #3
 210:	e2033001 	and	r3, r3, #1
 214:	e5c13000 	strb	r3, [r1]
 218:	e5d00004 	ldrb	r0, [r0, #4]
 21c:	e12fff1e 	bx	lr

00000220 <PCA9685DmxParams::GetDmxStartAddress(bool&) const>:
 220:	e5d03000 	ldrb	r3, [r0]
 224:	e1d000b6 	ldrh	r0, [r0, #6]
 228:	e2033001 	and	r3, r3, #1
 22c:	e5c13000 	strb	r3, [r1]
 230:	e12fff1e 	bx	lr

00000234 <PCA9685DmxParams::GetDmxFootprint(bool&) const>:
 234:	e5903000 	ldr	r3, [r0]
 238:	e1d000b8 	ldrh	r0, [r0, #8]
 23c:	e1a030a3 	lsr	r3, r3, #1
 240:	e2033001 	and	r3, r3, #1
 244:	e5c13000 	strb	r3, [r1]
 248:	e12fff1e 	bx	lr

0000024c <PCA9685DmxParams::GetBoardInstances(bool&) const>:
 24c:	e5903000 	ldr	r3, [r0]
 250:	e1a03223 	lsr	r3, r3, #4
 254:	e2033001 	and	r3, r3, #1
 258:	e5c13000 	strb	r3, [r1]
 25c:	e5d0000a 	ldrb	r0, [r0, #10]
 260:	e12fff1e 	bx	lr

00000264 <PCA9685DmxParams::GetDmxSlotInfoRaw(bool&) const>:
 264:	e5903000 	ldr	r3, [r0]
 268:	e590000c 	ldr	r0, [r0, #12]
 26c:	e1a03123 	lsr	r3, r3, #2
 270:	e2033001 	and	r3, r3, #1
 274:	e5c13000 	strb	r3, [r1]
 278:	e12fff1e 	bx	lr

0000027c <PCA9685DmxParams::Dump()>:
 27c:	e12fff1e 	bx	lr

00000280 <PCA9685DmxParams::isMaskSet(unsigned int) const>:
 280:	e5903000 	ldr	r3, [r0]
 284:	e1d13003 	bics	r3, r1, r3
 288:	03a00001 	moveq	r0, #1
 28c:	13a00000 	movne	r0, #0
 290:	e12fff1e 	bx	lr

00000294 <PCA9685DmxParams::GetSetList() const>:
 294:	e5900000 	ldr	r0, [r0]
 298:	e2500000 	subs	r0, r0, #0
 29c:	13a00001 	movne	r0, #1
 2a0:	e12fff1e 	bx	lr

Disassembly of section .rodata:

00000000 <PARAMS_DMX_FOOTPRINT>:
   0:	5f786d64 	svcpl	0x00786d64
   4:	746f6f66 	strbtvc	r6, [pc], #-3942	; c <PARAMS_DMX_FOOTPRINT+0xc>
   8:	6e697270 	mcrvs	2, 3, r7, cr9, cr0, {3}
   c:	00000074 	andeq	r0, r0, r4, ror r0

00000010 <PARAMS_I2C_SLAVE_ADDRESS>:
  10:	5f633269 	svcpl	0x00633269
  14:	76616c73 			; <UNDEFINED> instruction: 0x76616c73
  18:	64615f65 	strbtvs	r5, [r1], #-3941	; 0xfffff09b
  1c:	73657264 	cmnvc	r5, #100, 4	; 0x40000006
  20:	00000073 	andeq	r0, r0, r3, ror r0

00000024 <PARAMS_BOARD_INSTANCES>:
  24:	72616f62 	rsbvc	r6, r1, #392	; 0x188
  28:	6e695f64 	cdpvs	15, 6, cr5, cr9, cr4, {3}
  2c:	6e617473 	mcrvs	4, 3, r7, cr1, cr3, {3}
  30:	00736563 	rsbseq	r6, r3, r3, ror #10

Disassembly of section .comment:

00000000 <.comment>:
   0:	43434700 	movtmi	r4, #14080	; 0x3700
   4:	4728203a 			; <UNDEFINED> instruction: 0x4728203a
   8:	2029554e 	eorcs	r5, r9, lr, asr #10
   c:	322e3031 	eorcc	r3, lr, #49	; 0x31
  10:	Address 0x0000000000000010 is out of bounds.


Disassembly of section .ARM.attributes:

00000000 <.ARM.attributes>:
   0:	00003241 	andeq	r3, r0, r1, asr #4
   4:	61656100 	cmnvs	r5, r0, lsl #2
   8:	01006962 	tsteq	r0, r2, ror #18
   c:	00000028 	andeq	r0, r0, r8, lsr #32
  10:	4b5a3605 	blmi	168d82c <PCA9685DmxParams::GetSetList() const+0x168d598>
  14:	08070600 	stmdaeq	r7, {r9, sl}
  18:	0a010901 	beq	42424 <PCA9685DmxParams::GetSetList() const+0x42190>
  1c:	14041202 	strne	r1, [r4], #-514	; 0xfffffdfe
  20:	17011501 	strne	r1, [r1, -r1, lsl #10]
  24:	19011803 	stmdbne	r1, {r0, r1, fp, ip}
  28:	1c011a01 			; <UNDEFINED> instruction: 0x1c011a01
  2c:	22021e01 	andcs	r1, r2, #1, 28
  30:	Address 0x0000000000000030 is out of bounds.

